
STM32F103HidDeviceEmulator.elf:     file format elf32-littlearm

Sections:
Idx Name          Size      VMA       LMA       File off  Algn
  0 .isr_vector   0000010c  08000000  08000000  00001000  2**0
                  CONTENTS, ALLOC, LOAD, READONLY, DATA
  1 .text         000075f4  0800010c  0800010c  0000110c  2**2
                  CONTENTS, ALLOC, LOAD, READONLY, CODE
  2 .rodata       00000060  08007700  08007700  00008700  2**2
                  CONTENTS, ALLOC, LOAD, READONLY, DATA
  3 .ARM.extab    00000000  08007760  08007760  0000918c  2**0
                  CONTENTS
  4 .ARM          00000000  08007760  08007760  0000918c  2**0
                  CONTENTS
  5 .preinit_array 00000000  08007760  08007760  0000918c  2**0
                  CONTENTS, ALLOC, LOAD, DATA
  6 .init_array   00000004  08007760  08007760  00008760  2**2
                  CONTENTS, ALLOC, LOAD, READONLY, DATA
  7 .fini_array   00000004  08007764  08007764  00008764  2**2
                  CONTENTS, ALLOC, LOAD, READONLY, DATA
  8 .data         0000018c  20000000  08007768  00009000  2**2
                  CONTENTS, ALLOC, LOAD, DATA
  9 .bss          000007f8  2000018c  080078f4  0000918c  2**2
                  ALLOC
 10 ._user_heap_stack 00000604  20000984  080078f4  00009984  2**0
                  ALLOC
 11 .ARM.attributes 00000029  00000000  00000000  0000918c  2**0
                  CONTENTS, READONLY
 12 .debug_info   0000c7d6  00000000  00000000  000091b5  2**0
                  CONTENTS, READONLY, DEBUGGING, OCTETS
 13 .debug_abbrev 00003067  00000000  00000000  0001598b  2**0
                  CONTENTS, READONLY, DEBUGGING, OCTETS
 14 .debug_aranges 00000c40  00000000  00000000  000189f8  2**3
                  CONTENTS, READONLY, DEBUGGING, OCTETS
 15 .debug_rnglists 000008dc  00000000  00000000  00019638  2**0
                  CONTENTS, READONLY, DEBUGGING, OCTETS
 16 .debug_macro  0001afab  00000000  00000000  00019f14  2**0
                  CONTENTS, READONLY, DEBUGGING, OCTETS
 17 .debug_line   000132b1  00000000  00000000  00034ebf  2**0
                  CONTENTS, READONLY, DEBUGGING, OCTETS
 18 .debug_str    0008a793  00000000  00000000  00048170  2**0
                  CONTENTS, READONLY, DEBUGGING, OCTETS
 19 .comment      00000043  00000000  00000000  000d2903  2**0
                  CONTENTS, READONLY
 20 .debug_frame  00002e5c  00000000  00000000  000d2948  2**2
                  CONTENTS, READONLY, DEBUGGING, OCTETS
 21 .debug_line_str 0000006d  00000000  00000000  000d57a4  2**0
                  CONTENTS, READONLY, DEBUGGING, OCTETS

Disassembly of section .text:

0800010c <__do_global_dtors_aux>:
 800010c:	b510      	push	{r4, lr}
 800010e:	4c05      	ldr	r4, [pc, #20]	@ (8000124 <__do_global_dtors_aux+0x18>)
 8000110:	7823      	ldrb	r3, [r4, #0]
 8000112:	b933      	cbnz	r3, 8000122 <__do_global_dtors_aux+0x16>
 8000114:	4b04      	ldr	r3, [pc, #16]	@ (8000128 <__do_global_dtors_aux+0x1c>)
 8000116:	b113      	cbz	r3, 800011e <__do_global_dtors_aux+0x12>
 8000118:	4804      	ldr	r0, [pc, #16]	@ (800012c <__do_global_dtors_aux+0x20>)
 800011a:	f3af 8000 	nop.w
 800011e:	2301      	movs	r3, #1
 8000120:	7023      	strb	r3, [r4, #0]
 8000122:	bd10      	pop	{r4, pc}
 8000124:	2000018c 	.word	0x2000018c
 8000128:	00000000 	.word	0x00000000
 800012c:	080076e8 	.word	0x080076e8

08000130 <frame_dummy>:
 8000130:	b508      	push	{r3, lr}
 8000132:	4b03      	ldr	r3, [pc, #12]	@ (8000140 <frame_dummy+0x10>)
 8000134:	b11b      	cbz	r3, 800013e <frame_dummy+0xe>
 8000136:	4903      	ldr	r1, [pc, #12]	@ (8000144 <frame_dummy+0x14>)
 8000138:	4803      	ldr	r0, [pc, #12]	@ (8000148 <frame_dummy+0x18>)
 800013a:	f3af 8000 	nop.w
 800013e:	bd08      	pop	{r3, pc}
 8000140:	00000000 	.word	0x00000000
 8000144:	20000190 	.word	0x20000190
 8000148:	080076e8 	.word	0x080076e8

0800014c <UsartCallback>:
uint8_t length = 0;
uint8_t parsedData = 0;
uint8_t buffer[32] = {};


void UsartCallback(){
 800014c:	b580      	push	{r7, lr}
 800014e:	b082      	sub	sp, #8
 8000150:	af00      	add	r7, sp, #0
	uint8_t byte = USART1->DR;
 8000152:	4b19      	ldr	r3, [pc, #100]	@ (80001b8 <UsartCallback+0x6c>)
 8000154:	685b      	ldr	r3, [r3, #4]
 8000156:	71fb      	strb	r3, [r7, #7]
	if(byte == HEADER || flag){
 8000158:	79fb      	ldrb	r3, [r7, #7]
 800015a:	2bc5      	cmp	r3, #197	@ 0xc5
 800015c:	d003      	beq.n	8000166 <UsartCallback+0x1a>
 800015e:	4b17      	ldr	r3, [pc, #92]	@ (80001bc <UsartCallback+0x70>)
 8000160:	781b      	ldrb	r3, [r3, #0]
 8000162:	2b00      	cmp	r3, #0
 8000164:	d024      	beq.n	80001b0 <UsartCallback+0x64>
		buffer[parsedData] = byte;
 8000166:	4b16      	ldr	r3, [pc, #88]	@ (80001c0 <UsartCallback+0x74>)
 8000168:	781b      	ldrb	r3, [r3, #0]
 800016a:	4619      	mov	r1, r3
 800016c:	4a15      	ldr	r2, [pc, #84]	@ (80001c4 <UsartCallback+0x78>)
 800016e:	79fb      	ldrb	r3, [r7, #7]
 8000170:	5453      	strb	r3, [r2, r1]
		if(parsedData == 3)
 8000172:	4b13      	ldr	r3, [pc, #76]	@ (80001c0 <UsartCallback+0x74>)
 8000174:	781b      	ldrb	r3, [r3, #0]
 8000176:	2b03      	cmp	r3, #3
 8000178:	d102      	bne.n	8000180 <UsartCallback+0x34>
			length = byte;
 800017a:	4a13      	ldr	r2, [pc, #76]	@ (80001c8 <UsartCallback+0x7c>)
 800017c:	79fb      	ldrb	r3, [r7, #7]
 800017e:	7013      	strb	r3, [r2, #0]
		if(parsedData >= length+4){
 8000180:	4b11      	ldr	r3, [pc, #68]	@ (80001c8 <UsartCallback+0x7c>)
 8000182:	781b      	ldrb	r3, [r3, #0]
 8000184:	3303      	adds	r3, #3
 8000186:	4a0e      	ldr	r2, [pc, #56]	@ (80001c0 <UsartCallback+0x74>)
 8000188:	7812      	ldrb	r2, [r2, #0]
 800018a:	4293      	cmp	r3, r2
 800018c:	da0a      	bge.n	80001a4 <UsartCallback+0x58>
			RxData *rxdata = &buffer;
 800018e:	4b0d      	ldr	r3, [pc, #52]	@ (80001c4 <UsartCallback+0x78>)
 8000190:	603b      	str	r3, [r7, #0]
			length = 0;
 8000192:	4b0d      	ldr	r3, [pc, #52]	@ (80001c8 <UsartCallback+0x7c>)
 8000194:	2200      	movs	r2, #0
 8000196:	701a      	strb	r2, [r3, #0]
			flag = 0;
 8000198:	4b08      	ldr	r3, [pc, #32]	@ (80001bc <UsartCallback+0x70>)
 800019a:	2200      	movs	r2, #0
 800019c:	701a      	strb	r2, [r3, #0]
			ParsingData(rxdata);
 800019e:	6838      	ldr	r0, [r7, #0]
 80001a0:	f000 f814 	bl	80001cc <ParsingData>
		}
		parsedData++;
 80001a4:	4b06      	ldr	r3, [pc, #24]	@ (80001c0 <UsartCallback+0x74>)
 80001a6:	781b      	ldrb	r3, [r3, #0]
 80001a8:	3301      	adds	r3, #1
 80001aa:	b2da      	uxtb	r2, r3
 80001ac:	4b04      	ldr	r3, [pc, #16]	@ (80001c0 <UsartCallback+0x74>)
 80001ae:	701a      	strb	r2, [r3, #0]
	}
}
 80001b0:	bf00      	nop
 80001b2:	3708      	adds	r7, #8
 80001b4:	46bd      	mov	sp, r7
 80001b6:	bd80      	pop	{r7, pc}
 80001b8:	40013800 	.word	0x40013800
 80001bc:	200001a8 	.word	0x200001a8
 80001c0:	200001aa 	.word	0x200001aa
 80001c4:	200001ac 	.word	0x200001ac
 80001c8:	200001a9 	.word	0x200001a9

080001cc <ParsingData>:

#include "UsartRouter.h"
#include "crc8.h"


void ParsingData(RxData *rxdata){
 80001cc:	b480      	push	{r7}
 80001ce:	b083      	sub	sp, #12
 80001d0:	af00      	add	r7, sp, #0
 80001d2:	6078      	str	r0, [r7, #4]
			if(crc8(rxdata, sizeof(rxdata)-1) == rxdata->crc8){

			}
		}
	}
}
 80001d4:	bf00      	nop
 80001d6:	370c      	adds	r7, #12
 80001d8:	46bd      	mov	sp, r7
 80001da:	bc80      	pop	{r7}
 80001dc:	4770      	bx	lr
	...

080001e0 <MX_GPIO_Init>:
        * Output
        * EVENT_OUT
        * EXTI
*/
void MX_GPIO_Init(void)
{
 80001e0:	b480      	push	{r7}
 80001e2:	b083      	sub	sp, #12
 80001e4:	af00      	add	r7, sp, #0

  /* GPIO Ports Clock Enable */
  __HAL_RCC_GPIOD_CLK_ENABLE();
 80001e6:	4b0e      	ldr	r3, [pc, #56]	@ (8000220 <MX_GPIO_Init+0x40>)
 80001e8:	699b      	ldr	r3, [r3, #24]
 80001ea:	4a0d      	ldr	r2, [pc, #52]	@ (8000220 <MX_GPIO_Init+0x40>)
 80001ec:	f043 0320 	orr.w	r3, r3, #32
 80001f0:	6193      	str	r3, [r2, #24]
 80001f2:	4b0b      	ldr	r3, [pc, #44]	@ (8000220 <MX_GPIO_Init+0x40>)
 80001f4:	699b      	ldr	r3, [r3, #24]
 80001f6:	f003 0320 	and.w	r3, r3, #32
 80001fa:	607b      	str	r3, [r7, #4]
 80001fc:	687b      	ldr	r3, [r7, #4]
  __HAL_RCC_GPIOA_CLK_ENABLE();
 80001fe:	4b08      	ldr	r3, [pc, #32]	@ (8000220 <MX_GPIO_Init+0x40>)
 8000200:	699b      	ldr	r3, [r3, #24]
 8000202:	4a07      	ldr	r2, [pc, #28]	@ (8000220 <MX_GPIO_Init+0x40>)
 8000204:	f043 0304 	orr.w	r3, r3, #4
 8000208:	6193      	str	r3, [r2, #24]
 800020a:	4b05      	ldr	r3, [pc, #20]	@ (8000220 <MX_GPIO_Init+0x40>)
 800020c:	699b      	ldr	r3, [r3, #24]
 800020e:	f003 0304 	and.w	r3, r3, #4
 8000212:	603b      	str	r3, [r7, #0]
 8000214:	683b      	ldr	r3, [r7, #0]

}
 8000216:	bf00      	nop
 8000218:	370c      	adds	r7, #12
 800021a:	46bd      	mov	sp, r7
 800021c:	bc80      	pop	{r7}
 800021e:	4770      	bx	lr
 8000220:	40021000 	.word	0x40021000

08000224 <main>:
/**
  * @brief  The application entry point.
  * @retval int
  */
int main(void)
{
 8000224:	b580      	push	{r7, lr}
 8000226:	af00      	add	r7, sp, #0
  /* USER CODE END 1 */

  /* MCU Configuration--------------------------------------------------------*/

  /* Reset of all peripherals, Initializes the Flash interface and the Systick. */
  HAL_Init();
 8000228:	f000 fa62 	bl	80006f0 <HAL_Init>
  /* USER CODE BEGIN Init */

  /* USER CODE END Init */

  /* Configure the system clock */
  SystemClock_Config();
 800022c:	f000 f808 	bl	8000240 <SystemClock_Config>
  /* USER CODE BEGIN SysInit */

  /* USER CODE END SysInit */

  /* Initialize all configured peripherals */
  MX_GPIO_Init();
 8000230:	f7ff ffd6 	bl	80001e0 <MX_GPIO_Init>
  MX_USART1_UART_Init();
 8000234:	f000 f9ce 	bl	80005d4 <MX_USART1_UART_Init>
  MX_USB_DEVICE_Init();
 8000238:	f006 fe72 	bl	8006f20 <MX_USB_DEVICE_Init>

  /* USER CODE END 2 */

  /* Infinite loop */
  /* USER CODE BEGIN WHILE */
  while (1)
 800023c:	bf00      	nop
 800023e:	e7fd      	b.n	800023c <main+0x18>

08000240 <SystemClock_Config>:
/**
  * @brief System Clock Configuration
  * @retval None
  */
void SystemClock_Config(void)
{
 8000240:	b580      	push	{r7, lr}
 8000242:	b094      	sub	sp, #80	@ 0x50
 8000244:	af00      	add	r7, sp, #0
  RCC_OscInitTypeDef RCC_OscInitStruct = {0};
 8000246:	f107 0328 	add.w	r3, r7, #40	@ 0x28
 800024a:	2228      	movs	r2, #40	@ 0x28
 800024c:	2100      	movs	r1, #0
 800024e:	4618      	mov	r0, r3
 8000250:	f007 fa1e 	bl	8007690 <memset>
  RCC_ClkInitTypeDef RCC_ClkInitStruct = {0};
 8000254:	f107 0314 	add.w	r3, r7, #20
 8000258:	2200      	movs	r2, #0
 800025a:	601a      	str	r2, [r3, #0]
 800025c:	605a      	str	r2, [r3, #4]
 800025e:	609a      	str	r2, [r3, #8]
 8000260:	60da      	str	r2, [r3, #12]
 8000262:	611a      	str	r2, [r3, #16]
  RCC_PeriphCLKInitTypeDef PeriphClkInit = {0};
 8000264:	1d3b      	adds	r3, r7, #4
 8000266:	2200      	movs	r2, #0
 8000268:	601a      	str	r2, [r3, #0]
 800026a:	605a      	str	r2, [r3, #4]
 800026c:	609a      	str	r2, [r3, #8]
 800026e:	60da      	str	r2, [r3, #12]

  /** Initializes the RCC Oscillators according to the specified parameters
  * in the RCC_OscInitTypeDef structure.
  */
  RCC_OscInitStruct.OscillatorType = RCC_OSCILLATORTYPE_HSE;
 8000270:	2301      	movs	r3, #1
 8000272:	62bb      	str	r3, [r7, #40]	@ 0x28
  RCC_OscInitStruct.HSEState = RCC_HSE_BYPASS;
 8000274:	f44f 23a0 	mov.w	r3, #327680	@ 0x50000
 8000278:	62fb      	str	r3, [r7, #44]	@ 0x2c
  RCC_OscInitStruct.HSEPredivValue = RCC_HSE_PREDIV_DIV1;
 800027a:	2300      	movs	r3, #0
 800027c:	633b      	str	r3, [r7, #48]	@ 0x30
  RCC_OscInitStruct.HSIState = RCC_HSI_ON;
 800027e:	2301      	movs	r3, #1
 8000280:	63bb      	str	r3, [r7, #56]	@ 0x38
  RCC_OscInitStruct.PLL.PLLState = RCC_PLL_ON;
 8000282:	2302      	movs	r3, #2
 8000284:	647b      	str	r3, [r7, #68]	@ 0x44
  RCC_OscInitStruct.PLL.PLLSource = RCC_PLLSOURCE_HSE;
 8000286:	f44f 3380 	mov.w	r3, #65536	@ 0x10000
 800028a:	64bb      	str	r3, [r7, #72]	@ 0x48
  RCC_OscInitStruct.PLL.PLLMUL = RCC_PLL_MUL6;
 800028c:	f44f 1380 	mov.w	r3, #1048576	@ 0x100000
 8000290:	64fb      	str	r3, [r7, #76]	@ 0x4c
  if (HAL_RCC_OscConfig(&RCC_OscInitStruct) != HAL_OK)
 8000292:	f107 0328 	add.w	r3, r7, #40	@ 0x28
 8000296:	4618      	mov	r0, r3
 8000298:	f002 f8e2 	bl	8002460 <HAL_RCC_OscConfig>
 800029c:	4603      	mov	r3, r0
 800029e:	2b00      	cmp	r3, #0
 80002a0:	d001      	beq.n	80002a6 <SystemClock_Config+0x66>
  {
    Error_Handler();
 80002a2:	f000 f828 	bl	80002f6 <Error_Handler>
  }

  /** Initializes the CPU, AHB and APB buses clocks
  */
  RCC_ClkInitStruct.ClockType = RCC_CLOCKTYPE_HCLK|RCC_CLOCKTYPE_SYSCLK
 80002a6:	230f      	movs	r3, #15
 80002a8:	617b      	str	r3, [r7, #20]
                              |RCC_CLOCKTYPE_PCLK1|RCC_CLOCKTYPE_PCLK2;
  RCC_ClkInitStruct.SYSCLKSource = RCC_SYSCLKSOURCE_PLLCLK;
 80002aa:	2302      	movs	r3, #2
 80002ac:	61bb      	str	r3, [r7, #24]
  RCC_ClkInitStruct.AHBCLKDivider = RCC_SYSCLK_DIV1;
 80002ae:	2300      	movs	r3, #0
 80002b0:	61fb      	str	r3, [r7, #28]
  RCC_ClkInitStruct.APB1CLKDivider = RCC_HCLK_DIV2;
 80002b2:	f44f 6380 	mov.w	r3, #1024	@ 0x400
 80002b6:	623b      	str	r3, [r7, #32]
  RCC_ClkInitStruct.APB2CLKDivider = RCC_HCLK_DIV1;
 80002b8:	2300      	movs	r3, #0
 80002ba:	627b      	str	r3, [r7, #36]	@ 0x24

  if (HAL_RCC_ClockConfig(&RCC_ClkInitStruct, FLASH_LATENCY_1) != HAL_OK)
 80002bc:	f107 0314 	add.w	r3, r7, #20
 80002c0:	2101      	movs	r1, #1
 80002c2:	4618      	mov	r0, r3
 80002c4:	f002 fb4e 	bl	8002964 <HAL_RCC_ClockConfig>
 80002c8:	4603      	mov	r3, r0
 80002ca:	2b00      	cmp	r3, #0
 80002cc:	d001      	beq.n	80002d2 <SystemClock_Config+0x92>
  {
    Error_Handler();
 80002ce:	f000 f812 	bl	80002f6 <Error_Handler>
  }
  PeriphClkInit.PeriphClockSelection = RCC_PERIPHCLK_USB;
 80002d2:	2310      	movs	r3, #16
 80002d4:	607b      	str	r3, [r7, #4]
  PeriphClkInit.UsbClockSelection = RCC_USBCLKSOURCE_PLL;
 80002d6:	f44f 0380 	mov.w	r3, #4194304	@ 0x400000
 80002da:	613b      	str	r3, [r7, #16]
  if (HAL_RCCEx_PeriphCLKConfig(&PeriphClkInit) != HAL_OK)
 80002dc:	1d3b      	adds	r3, r7, #4
 80002de:	4618      	mov	r0, r3
 80002e0:	f002 fc9c 	bl	8002c1c <HAL_RCCEx_PeriphCLKConfig>
 80002e4:	4603      	mov	r3, r0
 80002e6:	2b00      	cmp	r3, #0
 80002e8:	d001      	beq.n	80002ee <SystemClock_Config+0xae>
  {
    Error_Handler();
 80002ea:	f000 f804 	bl	80002f6 <Error_Handler>
  }
}
 80002ee:	bf00      	nop
 80002f0:	3750      	adds	r7, #80	@ 0x50
 80002f2:	46bd      	mov	sp, r7
 80002f4:	bd80      	pop	{r7, pc}

080002f6 <Error_Handler>:
/**
  * @brief  This function is executed in case of error occurrence.
  * @retval None
  */
void Error_Handler(void)
{
 80002f6:	b480      	push	{r7}
 80002f8:	af00      	add	r7, sp, #0
  \details Disables IRQ interrupts by setting the I-bit in the CPSR.
           Can only be executed in Privileged modes.
 */
__STATIC_FORCEINLINE void __disable_irq(void)
{
  __ASM volatile ("cpsid i" : : : "memory");
 80002fa:	b672      	cpsid	i
}
 80002fc:	bf00      	nop
  /* USER CODE BEGIN Error_Handler_Debug */
  /* User can add his own implementation to report the HAL error return state */
  __disable_irq();
  while (1)
 80002fe:	bf00      	nop
 8000300:	e7fd      	b.n	80002fe <Error_Handler+0x8>
	...

08000304 <HAL_MspInit>:
/* USER CODE END 0 */
/**
  * Initializes the Global MSP.
  */
void HAL_MspInit(void)
{
 8000304:	b480      	push	{r7}
 8000306:	b085      	sub	sp, #20
 8000308:	af00      	add	r7, sp, #0

  /* USER CODE BEGIN MspInit 0 */

  /* USER CODE END MspInit 0 */

  __HAL_RCC_AFIO_CLK_ENABLE();
 800030a:	4b15      	ldr	r3, [pc, #84]	@ (8000360 <HAL_MspInit+0x5c>)
 800030c:	699b      	ldr	r3, [r3, #24]
 800030e:	4a14      	ldr	r2, [pc, #80]	@ (8000360 <HAL_MspInit+0x5c>)
 8000310:	f043 0301 	orr.w	r3, r3, #1
 8000314:	6193      	str	r3, [r2, #24]
 8000316:	4b12      	ldr	r3, [pc, #72]	@ (8000360 <HAL_MspInit+0x5c>)
 8000318:	699b      	ldr	r3, [r3, #24]
 800031a:	f003 0301 	and.w	r3, r3, #1
 800031e:	60bb      	str	r3, [r7, #8]
 8000320:	68bb      	ldr	r3, [r7, #8]
  __HAL_RCC_PWR_CLK_ENABLE();
 8000322:	4b0f      	ldr	r3, [pc, #60]	@ (8000360 <HAL_MspInit+0x5c>)
 8000324:	69db      	ldr	r3, [r3, #28]
 8000326:	4a0e      	ldr	r2, [pc, #56]	@ (8000360 <HAL_MspInit+0x5c>)
 8000328:	f043 5380 	orr.w	r3, r3, #268435456	@ 0x10000000
 800032c:	61d3      	str	r3, [r2, #28]
 800032e:	4b0c      	ldr	r3, [pc, #48]	@ (8000360 <HAL_MspInit+0x5c>)
 8000330:	69db      	ldr	r3, [r3, #28]
 8000332:	f003 5380 	and.w	r3, r3, #268435456	@ 0x10000000
 8000336:	607b      	str	r3, [r7, #4]
 8000338:	687b      	ldr	r3, [r7, #4]

  /* System interrupt init*/

  /** NOJTAG: JTAG-DP Disabled and SW-DP Enabled
  */
  __HAL_AFIO_REMAP_SWJ_NOJTAG();
 800033a:	4b0a      	ldr	r3, [pc, #40]	@ (8000364 <HAL_MspInit+0x60>)
 800033c:	685b      	ldr	r3, [r3, #4]
 800033e:	60fb      	str	r3, [r7, #12]
 8000340:	68fb      	ldr	r3, [r7, #12]
 8000342:	f023 63e0 	bic.w	r3, r3, #117440512	@ 0x7000000
 8000346:	60fb      	str	r3, [r7, #12]
 8000348:	68fb      	ldr	r3, [r7, #12]
 800034a:	f043 7300 	orr.w	r3, r3, #33554432	@ 0x2000000
 800034e:	60fb      	str	r3, [r7, #12]
 8000350:	4a04      	ldr	r2, [pc, #16]	@ (8000364 <HAL_MspInit+0x60>)
 8000352:	68fb      	ldr	r3, [r7, #12]
 8000354:	6053      	str	r3, [r2, #4]

  /* USER CODE BEGIN MspInit 1 */

  /* USER CODE END MspInit 1 */
}
 8000356:	bf00      	nop
 8000358:	3714      	adds	r7, #20
 800035a:	46bd      	mov	sp, r7
 800035c:	bc80      	pop	{r7}
 800035e:	4770      	bx	lr
 8000360:	40021000 	.word	0x40021000
 8000364:	40010000 	.word	0x40010000

08000368 <LL_USART_IsActiveFlag_RXNE>:
  * @rmtoll SR           RXNE          LL_USART_IsActiveFlag_RXNE
  * @param  USARTx USART Instance
  * @retval State of bit (1 or 0).
  */
__STATIC_INLINE uint32_t LL_USART_IsActiveFlag_RXNE(const USART_TypeDef *USARTx)
{
 8000368:	b480      	push	{r7}
 800036a:	b083      	sub	sp, #12
 800036c:	af00      	add	r7, sp, #0
 800036e:	6078      	str	r0, [r7, #4]
  return (READ_BIT(USARTx->SR, USART_SR_RXNE) == (USART_SR_RXNE));
 8000370:	687b      	ldr	r3, [r7, #4]
 8000372:	681b      	ldr	r3, [r3, #0]
 8000374:	f003 0320 	and.w	r3, r3, #32
 8000378:	2b20      	cmp	r3, #32
 800037a:	bf0c      	ite	eq
 800037c:	2301      	moveq	r3, #1
 800037e:	2300      	movne	r3, #0
 8000380:	b2db      	uxtb	r3, r3
}
 8000382:	4618      	mov	r0, r3
 8000384:	370c      	adds	r7, #12
 8000386:	46bd      	mov	sp, r7
 8000388:	bc80      	pop	{r7}
 800038a:	4770      	bx	lr

0800038c <LL_USART_IsEnabledIT_RXNE>:
  * @rmtoll CR1          RXNEIE        LL_USART_IsEnabledIT_RXNE
  * @param  USARTx USART Instance
  * @retval State of bit (1 or 0).
  */
__STATIC_INLINE uint32_t LL_USART_IsEnabledIT_RXNE(const USART_TypeDef *USARTx)
{
 800038c:	b480      	push	{r7}
 800038e:	b083      	sub	sp, #12
 8000390:	af00      	add	r7, sp, #0
 8000392:	6078      	str	r0, [r7, #4]
  return (READ_BIT(USARTx->CR1, USART_CR1_RXNEIE) == (USART_CR1_RXNEIE));
 8000394:	687b      	ldr	r3, [r7, #4]
 8000396:	68db      	ldr	r3, [r3, #12]
 8000398:	f003 0320 	and.w	r3, r3, #32
 800039c:	2b20      	cmp	r3, #32
 800039e:	bf0c      	ite	eq
 80003a0:	2301      	moveq	r3, #1
 80003a2:	2300      	movne	r3, #0
 80003a4:	b2db      	uxtb	r3, r3
}
 80003a6:	4618      	mov	r0, r3
 80003a8:	370c      	adds	r7, #12
 80003aa:	46bd      	mov	sp, r7
 80003ac:	bc80      	pop	{r7}
 80003ae:	4770      	bx	lr

080003b0 <NMI_Handler>:
/******************************************************************************/
/**
  * @brief This function handles Non maskable interrupt.
  */
void NMI_Handler(void)
{
 80003b0:	b480      	push	{r7}
 80003b2:	af00      	add	r7, sp, #0
  /* USER CODE BEGIN NonMaskableInt_IRQn 0 */

  /* USER CODE END NonMaskableInt_IRQn 0 */
  /* USER CODE BEGIN NonMaskableInt_IRQn 1 */
   while (1)
 80003b4:	bf00      	nop
 80003b6:	e7fd      	b.n	80003b4 <NMI_Handler+0x4>

080003b8 <HardFault_Handler>:

/**
  * @brief This function handles Hard fault interrupt.
  */
void HardFault_Handler(void)
{
 80003b8:	b480      	push	{r7}
 80003ba:	af00      	add	r7, sp, #0
  /* USER CODE BEGIN HardFault_IRQn 0 */

  /* USER CODE END HardFault_IRQn 0 */
  while (1)
 80003bc:	bf00      	nop
 80003be:	e7fd      	b.n	80003bc <HardFault_Handler+0x4>

080003c0 <MemManage_Handler>:

/**
  * @brief This function handles Memory management fault.
  */
void MemManage_Handler(void)
{
 80003c0:	b480      	push	{r7}
 80003c2:	af00      	add	r7, sp, #0
  /* USER CODE BEGIN MemoryManagement_IRQn 0 */

  /* USER CODE END MemoryManagement_IRQn 0 */
  while (1)
 80003c4:	bf00      	nop
 80003c6:	e7fd      	b.n	80003c4 <MemManage_Handler+0x4>

080003c8 <BusFault_Handler>:

/**
  * @brief This function handles Prefetch fault, memory access fault.
  */
void BusFault_Handler(void)
{
 80003c8:	b480      	push	{r7}
 80003ca:	af00      	add	r7, sp, #0
  /* USER CODE BEGIN BusFault_IRQn 0 */

  /* USER CODE END BusFault_IRQn 0 */
  while (1)
 80003cc:	bf00      	nop
 80003ce:	e7fd      	b.n	80003cc <BusFault_Handler+0x4>

080003d0 <UsageFault_Handler>:

/**
  * @brief This function handles Undefined instruction or illegal state.
  */
void UsageFault_Handler(void)
{
 80003d0:	b480      	push	{r7}
 80003d2:	af00      	add	r7, sp, #0
  /* USER CODE BEGIN UsageFault_IRQn 0 */

  /* USER CODE END UsageFault_IRQn 0 */
  while (1)
 80003d4:	bf00      	nop
 80003d6:	e7fd      	b.n	80003d4 <UsageFault_Handler+0x4>

080003d8 <SVC_Handler>:

/**
  * @brief This function handles System service call via SWI instruction.
  */
void SVC_Handler(void)
{
 80003d8:	b480      	push	{r7}
 80003da:	af00      	add	r7, sp, #0

  /* USER CODE END SVCall_IRQn 0 */
  /* USER CODE BEGIN SVCall_IRQn 1 */

  /* USER CODE END SVCall_IRQn 1 */
}
 80003dc:	bf00      	nop
 80003de:	46bd      	mov	sp, r7
 80003e0:	bc80      	pop	{r7}
 80003e2:	4770      	bx	lr

080003e4 <DebugMon_Handler>:

/**
  * @brief This function handles Debug monitor.
  */
void DebugMon_Handler(void)
{
 80003e4:	b480      	push	{r7}
 80003e6:	af00      	add	r7, sp, #0

  /* USER CODE END DebugMonitor_IRQn 0 */
  /* USER CODE BEGIN DebugMonitor_IRQn 1 */

  /* USER CODE END DebugMonitor_IRQn 1 */
}
 80003e8:	bf00      	nop
 80003ea:	46bd      	mov	sp, r7
 80003ec:	bc80      	pop	{r7}
 80003ee:	4770      	bx	lr

080003f0 <PendSV_Handler>:

/**
  * @brief This function handles Pendable request for system service.
  */
void PendSV_Handler(void)
{
 80003f0:	b480      	push	{r7}
 80003f2:	af00      	add	r7, sp, #0

  /* USER CODE END PendSV_IRQn 0 */
  /* USER CODE BEGIN PendSV_IRQn 1 */

  /* USER CODE END PendSV_IRQn 1 */
}
 80003f4:	bf00      	nop
 80003f6:	46bd      	mov	sp, r7
 80003f8:	bc80      	pop	{r7}
 80003fa:	4770      	bx	lr

080003fc <SysTick_Handler>:

/**
  * @brief This function handles System tick timer.
  */
void SysTick_Handler(void)
{
 80003fc:	b580      	push	{r7, lr}
 80003fe:	af00      	add	r7, sp, #0
  /* USER CODE BEGIN SysTick_IRQn 0 */

  /* USER CODE END SysTick_IRQn 0 */
  HAL_IncTick();
 8000400:	f000 f9bc 	bl	800077c <HAL_IncTick>
  /* USER CODE BEGIN SysTick_IRQn 1 */

  /* USER CODE END SysTick_IRQn 1 */
}
 8000404:	bf00      	nop
 8000406:	bd80      	pop	{r7, pc}

08000408 <USB_LP_CAN1_RX0_IRQHandler>:

/**
  * @brief This function handles USB low priority or CAN RX0 interrupts.
  */
void USB_LP_CAN1_RX0_IRQHandler(void)
{
 8000408:	b580      	push	{r7, lr}
 800040a:	af00      	add	r7, sp, #0
  /* USER CODE BEGIN USB_LP_CAN1_RX0_IRQn 0 */

  /* USER CODE END USB_LP_CAN1_RX0_IRQn 0 */
  HAL_PCD_IRQHandler(&hpcd_USB_FS);
 800040c:	4802      	ldr	r0, [pc, #8]	@ (8000418 <USB_LP_CAN1_RX0_IRQHandler+0x10>)
 800040e:	f000 fbfa 	bl	8000c06 <HAL_PCD_IRQHandler>
  /* USER CODE BEGIN USB_LP_CAN1_RX0_IRQn 1 */

  /* USER CODE END USB_LP_CAN1_RX0_IRQn 1 */
}
 8000412:	bf00      	nop
 8000414:	bd80      	pop	{r7, pc}
 8000416:	bf00      	nop
 8000418:	20000698 	.word	0x20000698

0800041c <USART1_IRQHandler>:

/**
  * @brief This function handles USART1 global interrupt.
  */
void USART1_IRQHandler(void)
{
 800041c:	b580      	push	{r7, lr}
 800041e:	af00      	add	r7, sp, #0
	if (LL_USART_IsActiveFlag_RXNE(USART1) && LL_USART_IsEnabledIT_RXNE(USART1)) {
 8000420:	4807      	ldr	r0, [pc, #28]	@ (8000440 <USART1_IRQHandler+0x24>)
 8000422:	f7ff ffa1 	bl	8000368 <LL_USART_IsActiveFlag_RXNE>
 8000426:	4603      	mov	r3, r0
 8000428:	2b00      	cmp	r3, #0
 800042a:	d007      	beq.n	800043c <USART1_IRQHandler+0x20>
 800042c:	4804      	ldr	r0, [pc, #16]	@ (8000440 <USART1_IRQHandler+0x24>)
 800042e:	f7ff ffad 	bl	800038c <LL_USART_IsEnabledIT_RXNE>
 8000432:	4603      	mov	r3, r0
 8000434:	2b00      	cmp	r3, #0
 8000436:	d001      	beq.n	800043c <USART1_IRQHandler+0x20>
		UsartCallback();
 8000438:	f7ff fe88 	bl	800014c <UsartCallback>
	}
}
 800043c:	bf00      	nop
 800043e:	bd80      	pop	{r7, pc}
 8000440:	40013800 	.word	0x40013800

08000444 <SystemInit>:
  * @note   This function should be used only after reset.
  * @param  None
  * @retval None
  */
void SystemInit (void)
{
 8000444:	b480      	push	{r7}
 8000446:	af00      	add	r7, sp, #0

  /* Configure the Vector Table location -------------------------------------*/
#if defined(USER_VECT_TAB_ADDRESS)
  SCB->VTOR = VECT_TAB_BASE_ADDRESS | VECT_TAB_OFFSET; /* Vector Table Relocation in Internal SRAM. */
#endif /* USER_VECT_TAB_ADDRESS */
}
 8000448:	bf00      	nop
 800044a:	46bd      	mov	sp, r7
 800044c:	bc80      	pop	{r7}
 800044e:	4770      	bx	lr

08000450 <__NVIC_GetPriorityGrouping>:
  \brief   Get Priority Grouping
  \details Reads the priority grouping field from the NVIC Interrupt Controller.
  \return                Priority grouping field (SCB->AIRCR [10:8] PRIGROUP field).
 */
__STATIC_INLINE uint32_t __NVIC_GetPriorityGrouping(void)
{
 8000450:	b480      	push	{r7}
 8000452:	af00      	add	r7, sp, #0
  return ((uint32_t)((SCB->AIRCR & SCB_AIRCR_PRIGROUP_Msk) >> SCB_AIRCR_PRIGROUP_Pos));
 8000454:	4b04      	ldr	r3, [pc, #16]	@ (8000468 <__NVIC_GetPriorityGrouping+0x18>)
 8000456:	68db      	ldr	r3, [r3, #12]
 8000458:	0a1b      	lsrs	r3, r3, #8
 800045a:	f003 0307 	and.w	r3, r3, #7
}
 800045e:	4618      	mov	r0, r3
 8000460:	46bd      	mov	sp, r7
 8000462:	bc80      	pop	{r7}
 8000464:	4770      	bx	lr
 8000466:	bf00      	nop
 8000468:	e000ed00 	.word	0xe000ed00

0800046c <__NVIC_EnableIRQ>:
  \details Enables a device specific interrupt in the NVIC interrupt controller.
  \param [in]      IRQn  Device specific interrupt number.
  \note    IRQn must not be negative.
 */
__STATIC_INLINE void __NVIC_EnableIRQ(IRQn_Type IRQn)
{
 800046c:	b480      	push	{r7}
 800046e:	b083      	sub	sp, #12
 8000470:	af00      	add	r7, sp, #0
 8000472:	4603      	mov	r3, r0
 8000474:	71fb      	strb	r3, [r7, #7]
  if ((int32_t)(IRQn) >= 0)
 8000476:	f997 3007 	ldrsb.w	r3, [r7, #7]
 800047a:	2b00      	cmp	r3, #0
 800047c:	db0b      	blt.n	8000496 <__NVIC_EnableIRQ+0x2a>
  {
    NVIC->ISER[(((uint32_t)IRQn) >> 5UL)] = (uint32_t)(1UL << (((uint32_t)IRQn) & 0x1FUL));
 800047e:	79fb      	ldrb	r3, [r7, #7]
 8000480:	f003 021f 	and.w	r2, r3, #31
 8000484:	4906      	ldr	r1, [pc, #24]	@ (80004a0 <__NVIC_EnableIRQ+0x34>)
 8000486:	f997 3007 	ldrsb.w	r3, [r7, #7]
 800048a:	095b      	lsrs	r3, r3, #5
 800048c:	2001      	movs	r0, #1
 800048e:	fa00 f202 	lsl.w	r2, r0, r2
 8000492:	f841 2023 	str.w	r2, [r1, r3, lsl #2]
  }
}
 8000496:	bf00      	nop
 8000498:	370c      	adds	r7, #12
 800049a:	46bd      	mov	sp, r7
 800049c:	bc80      	pop	{r7}
 800049e:	4770      	bx	lr
 80004a0:	e000e100 	.word	0xe000e100

080004a4 <__NVIC_SetPriority>:
  \param [in]      IRQn  Interrupt number.
  \param [in]  priority  Priority to set.
  \note    The priority cannot be set for every processor exception.
 */
__STATIC_INLINE void __NVIC_SetPriority(IRQn_Type IRQn, uint32_t priority)
{
 80004a4:	b480      	push	{r7}
 80004a6:	b083      	sub	sp, #12
 80004a8:	af00      	add	r7, sp, #0
 80004aa:	4603      	mov	r3, r0
 80004ac:	6039      	str	r1, [r7, #0]
 80004ae:	71fb      	strb	r3, [r7, #7]
  if ((int32_t)(IRQn) >= 0)
 80004b0:	f997 3007 	ldrsb.w	r3, [r7, #7]
 80004b4:	2b00      	cmp	r3, #0
 80004b6:	db0a      	blt.n	80004ce <__NVIC_SetPriority+0x2a>
  {
    NVIC->IP[((uint32_t)IRQn)]               = (uint8_t)((priority << (8U - __NVIC_PRIO_BITS)) & (uint32_t)0xFFUL);
 80004b8:	683b      	ldr	r3, [r7, #0]
 80004ba:	b2da      	uxtb	r2, r3
 80004bc:	490c      	ldr	r1, [pc, #48]	@ (80004f0 <__NVIC_SetPriority+0x4c>)
 80004be:	f997 3007 	ldrsb.w	r3, [r7, #7]
 80004c2:	0112      	lsls	r2, r2, #4
 80004c4:	b2d2      	uxtb	r2, r2
 80004c6:	440b      	add	r3, r1
 80004c8:	f883 2300 	strb.w	r2, [r3, #768]	@ 0x300
  }
  else
  {
    SCB->SHP[(((uint32_t)IRQn) & 0xFUL)-4UL] = (uint8_t)((priority << (8U - __NVIC_PRIO_BITS)) & (uint32_t)0xFFUL);
  }
}
 80004cc:	e00a      	b.n	80004e4 <__NVIC_SetPriority+0x40>
    SCB->SHP[(((uint32_t)IRQn) & 0xFUL)-4UL] = (uint8_t)((priority << (8U - __NVIC_PRIO_BITS)) & (uint32_t)0xFFUL);
 80004ce:	683b      	ldr	r3, [r7, #0]
 80004d0:	b2da      	uxtb	r2, r3
 80004d2:	4908      	ldr	r1, [pc, #32]	@ (80004f4 <__NVIC_SetPriority+0x50>)
 80004d4:	79fb      	ldrb	r3, [r7, #7]
 80004d6:	f003 030f 	and.w	r3, r3, #15
 80004da:	3b04      	subs	r3, #4
 80004dc:	0112      	lsls	r2, r2, #4
 80004de:	b2d2      	uxtb	r2, r2
 80004e0:	440b      	add	r3, r1
 80004e2:	761a      	strb	r2, [r3, #24]
}
 80004e4:	bf00      	nop
 80004e6:	370c      	adds	r7, #12
 80004e8:	46bd      	mov	sp, r7
 80004ea:	bc80      	pop	{r7}
 80004ec:	4770      	bx	lr
 80004ee:	bf00      	nop
 80004f0:	e000e100 	.word	0xe000e100
 80004f4:	e000ed00 	.word	0xe000ed00

080004f8 <NVIC_EncodePriority>:
  \param [in]   PreemptPriority  Preemptive priority value (starting from 0).
  \param [in]       SubPriority  Subpriority value (starting from 0).
  \return                        Encoded priority. Value can be used in the function \ref NVIC_SetPriority().
 */
__STATIC_INLINE uint32_t NVIC_EncodePriority (uint32_t PriorityGroup, uint32_t PreemptPriority, uint32_t SubPriority)
{
 80004f8:	b480      	push	{r7}
 80004fa:	b089      	sub	sp, #36	@ 0x24
 80004fc:	af00      	add	r7, sp, #0
 80004fe:	60f8      	str	r0, [r7, #12]
 8000500:	60b9      	str	r1, [r7, #8]
 8000502:	607a      	str	r2, [r7, #4]
  uint32_t PriorityGroupTmp = (PriorityGroup & (uint32_t)0x07UL);   /* only values 0..7 are used          */
 8000504:	68fb      	ldr	r3, [r7, #12]
 8000506:	f003 0307 	and.w	r3, r3, #7
 800050a:	61fb      	str	r3, [r7, #28]
  uint32_t PreemptPriorityBits;
  uint32_t SubPriorityBits;

  PreemptPriorityBits = ((7UL - PriorityGroupTmp) > (uint32_t)(__NVIC_PRIO_BITS)) ? (uint32_t)(__NVIC_PRIO_BITS) : (uint32_t)(7UL - PriorityGroupTmp);
 800050c:	69fb      	ldr	r3, [r7, #28]
 800050e:	f1c3 0307 	rsb	r3, r3, #7
 8000512:	2b04      	cmp	r3, #4
 8000514:	bf28      	it	cs
 8000516:	2304      	movcs	r3, #4
 8000518:	61bb      	str	r3, [r7, #24]
  SubPriorityBits     = ((PriorityGroupTmp + (uint32_t)(__NVIC_PRIO_BITS)) < (uint32_t)7UL) ? (uint32_t)0UL : (uint32_t)((PriorityGroupTmp - 7UL) + (uint32_t)(__NVIC_PRIO_BITS));
 800051a:	69fb      	ldr	r3, [r7, #28]
 800051c:	3304      	adds	r3, #4
 800051e:	2b06      	cmp	r3, #6
 8000520:	d902      	bls.n	8000528 <NVIC_EncodePriority+0x30>
 8000522:	69fb      	ldr	r3, [r7, #28]
 8000524:	3b03      	subs	r3, #3
 8000526:	e000      	b.n	800052a <NVIC_EncodePriority+0x32>
 8000528:	2300      	movs	r3, #0
 800052a:	617b      	str	r3, [r7, #20]

  return (
           ((PreemptPriority & (uint32_t)((1UL << (PreemptPriorityBits)) - 1UL)) << SubPriorityBits) |
 800052c:	f04f 32ff 	mov.w	r2, #4294967295
 8000530:	69bb      	ldr	r3, [r7, #24]
 8000532:	fa02 f303 	lsl.w	r3, r2, r3
 8000536:	43da      	mvns	r2, r3
 8000538:	68bb      	ldr	r3, [r7, #8]
 800053a:	401a      	ands	r2, r3
 800053c:	697b      	ldr	r3, [r7, #20]
 800053e:	409a      	lsls	r2, r3
           ((SubPriority     & (uint32_t)((1UL << (SubPriorityBits    )) - 1UL)))
 8000540:	f04f 31ff 	mov.w	r1, #4294967295
 8000544:	697b      	ldr	r3, [r7, #20]
 8000546:	fa01 f303 	lsl.w	r3, r1, r3
 800054a:	43d9      	mvns	r1, r3
 800054c:	687b      	ldr	r3, [r7, #4]
 800054e:	400b      	ands	r3, r1
           ((PreemptPriority & (uint32_t)((1UL << (PreemptPriorityBits)) - 1UL)) << SubPriorityBits) |
 8000550:	4313      	orrs	r3, r2
         );
}
 8000552:	4618      	mov	r0, r3
 8000554:	3724      	adds	r7, #36	@ 0x24
 8000556:	46bd      	mov	sp, r7
 8000558:	bc80      	pop	{r7}
 800055a:	4770      	bx	lr

0800055c <LL_USART_Enable>:
{
 800055c:	b480      	push	{r7}
 800055e:	b083      	sub	sp, #12
 8000560:	af00      	add	r7, sp, #0
 8000562:	6078      	str	r0, [r7, #4]
  SET_BIT(USARTx->CR1, USART_CR1_UE);
 8000564:	687b      	ldr	r3, [r7, #4]
 8000566:	68db      	ldr	r3, [r3, #12]
 8000568:	f443 5200 	orr.w	r2, r3, #8192	@ 0x2000
 800056c:	687b      	ldr	r3, [r7, #4]
 800056e:	60da      	str	r2, [r3, #12]
}
 8000570:	bf00      	nop
 8000572:	370c      	adds	r7, #12
 8000574:	46bd      	mov	sp, r7
 8000576:	bc80      	pop	{r7}
 8000578:	4770      	bx	lr

0800057a <LL_USART_ConfigAsyncMode>:
{
 800057a:	b480      	push	{r7}
 800057c:	b083      	sub	sp, #12
 800057e:	af00      	add	r7, sp, #0
 8000580:	6078      	str	r0, [r7, #4]
  CLEAR_BIT(USARTx->CR2, (USART_CR2_LINEN | USART_CR2_CLKEN));
 8000582:	687b      	ldr	r3, [r7, #4]
 8000584:	691b      	ldr	r3, [r3, #16]
 8000586:	f423 4290 	bic.w	r2, r3, #18432	@ 0x4800
 800058a:	687b      	ldr	r3, [r7, #4]
 800058c:	611a      	str	r2, [r3, #16]
  CLEAR_BIT(USARTx->CR3, (USART_CR3_SCEN | USART_CR3_IREN | USART_CR3_HDSEL));
 800058e:	687b      	ldr	r3, [r7, #4]
 8000590:	695b      	ldr	r3, [r3, #20]
 8000592:	f023 022a 	bic.w	r2, r3, #42	@ 0x2a
 8000596:	687b      	ldr	r3, [r7, #4]
 8000598:	615a      	str	r2, [r3, #20]
}
 800059a:	bf00      	nop
 800059c:	370c      	adds	r7, #12
 800059e:	46bd      	mov	sp, r7
 80005a0:	bc80      	pop	{r7}
 80005a2:	4770      	bx	lr

080005a4 <LL_APB2_GRP1_EnableClock>:
  *
  *         (*) value not defined in all devices.
  * @retval None
*/
__STATIC_INLINE void LL_APB2_GRP1_EnableClock(uint32_t Periphs)
{
 80005a4:	b480      	push	{r7}
 80005a6:	b085      	sub	sp, #20
 80005a8:	af00      	add	r7, sp, #0
 80005aa:	6078      	str	r0, [r7, #4]
  __IO uint32_t tmpreg;
  SET_BIT(RCC->APB2ENR, Periphs);
 80005ac:	4b08      	ldr	r3, [pc, #32]	@ (80005d0 <LL_APB2_GRP1_EnableClock+0x2c>)
 80005ae:	699a      	ldr	r2, [r3, #24]
 80005b0:	4907      	ldr	r1, [pc, #28]	@ (80005d0 <LL_APB2_GRP1_EnableClock+0x2c>)
 80005b2:	687b      	ldr	r3, [r7, #4]
 80005b4:	4313      	orrs	r3, r2
 80005b6:	618b      	str	r3, [r1, #24]
  /* Delay after an RCC peripheral clock enabling */
  tmpreg = READ_BIT(RCC->APB2ENR, Periphs);
 80005b8:	4b05      	ldr	r3, [pc, #20]	@ (80005d0 <LL_APB2_GRP1_EnableClock+0x2c>)
 80005ba:	699a      	ldr	r2, [r3, #24]
 80005bc:	687b      	ldr	r3, [r7, #4]
 80005be:	4013      	ands	r3, r2
 80005c0:	60fb      	str	r3, [r7, #12]
  (void)tmpreg;
 80005c2:	68fb      	ldr	r3, [r7, #12]
}
 80005c4:	bf00      	nop
 80005c6:	3714      	adds	r7, #20
 80005c8:	46bd      	mov	sp, r7
 80005ca:	bc80      	pop	{r7}
 80005cc:	4770      	bx	lr
 80005ce:	bf00      	nop
 80005d0:	40021000 	.word	0x40021000

080005d4 <MX_USART1_UART_Init>:
/* USER CODE END 0 */

/* USART1 init function */

void MX_USART1_UART_Init(void)
{
 80005d4:	b580      	push	{r7, lr}
 80005d6:	b08c      	sub	sp, #48	@ 0x30
 80005d8:	af00      	add	r7, sp, #0

  /* USER CODE BEGIN USART1_Init 0 */

  /* USER CODE END USART1_Init 0 */

  LL_USART_InitTypeDef USART_InitStruct = {0};
 80005da:	f107 0314 	add.w	r3, r7, #20
 80005de:	2200      	movs	r2, #0
 80005e0:	601a      	str	r2, [r3, #0]
 80005e2:	605a      	str	r2, [r3, #4]
 80005e4:	609a      	str	r2, [r3, #8]
 80005e6:	60da      	str	r2, [r3, #12]
 80005e8:	611a      	str	r2, [r3, #16]
 80005ea:	615a      	str	r2, [r3, #20]
 80005ec:	619a      	str	r2, [r3, #24]

  LL_GPIO_InitTypeDef GPIO_InitStruct = {0};
 80005ee:	463b      	mov	r3, r7
 80005f0:	2200      	movs	r2, #0
 80005f2:	601a      	str	r2, [r3, #0]
 80005f4:	605a      	str	r2, [r3, #4]
 80005f6:	609a      	str	r2, [r3, #8]
 80005f8:	60da      	str	r2, [r3, #12]
 80005fa:	611a      	str	r2, [r3, #16]

  /* Peripheral clock enable */
  LL_APB2_GRP1_EnableClock(LL_APB2_GRP1_PERIPH_USART1);
 80005fc:	f44f 4080 	mov.w	r0, #16384	@ 0x4000
 8000600:	f7ff ffd0 	bl	80005a4 <LL_APB2_GRP1_EnableClock>

  LL_APB2_GRP1_EnableClock(LL_APB2_GRP1_PERIPH_GPIOA);
 8000604:	2004      	movs	r0, #4
 8000606:	f7ff ffcd 	bl	80005a4 <LL_APB2_GRP1_EnableClock>
  /**USART1 GPIO Configuration
  PA9   ------> USART1_TX
  PA10   ------> USART1_RX
  */
  GPIO_InitStruct.Pin = LL_GPIO_PIN_9;
 800060a:	4b22      	ldr	r3, [pc, #136]	@ (8000694 <MX_USART1_UART_Init+0xc0>)
 800060c:	603b      	str	r3, [r7, #0]
  GPIO_InitStruct.Mode = LL_GPIO_MODE_ALTERNATE;
 800060e:	2309      	movs	r3, #9
 8000610:	607b      	str	r3, [r7, #4]
  GPIO_InitStruct.Speed = LL_GPIO_SPEED_FREQ_HIGH;
 8000612:	2303      	movs	r3, #3
 8000614:	60bb      	str	r3, [r7, #8]
  GPIO_InitStruct.OutputType = LL_GPIO_OUTPUT_PUSHPULL;
 8000616:	2300      	movs	r3, #0
 8000618:	60fb      	str	r3, [r7, #12]
  LL_GPIO_Init(GPIOA, &GPIO_InitStruct);
 800061a:	463b      	mov	r3, r7
 800061c:	4619      	mov	r1, r3
 800061e:	481e      	ldr	r0, [pc, #120]	@ (8000698 <MX_USART1_UART_Init+0xc4>)
 8000620:	f002 fc6a 	bl	8002ef8 <LL_GPIO_Init>

  GPIO_InitStruct.Pin = LL_GPIO_PIN_10;
 8000624:	4b1d      	ldr	r3, [pc, #116]	@ (800069c <MX_USART1_UART_Init+0xc8>)
 8000626:	603b      	str	r3, [r7, #0]
  GPIO_InitStruct.Mode = LL_GPIO_MODE_FLOATING;
 8000628:	2304      	movs	r3, #4
 800062a:	607b      	str	r3, [r7, #4]
  LL_GPIO_Init(GPIOA, &GPIO_InitStruct);
 800062c:	463b      	mov	r3, r7
 800062e:	4619      	mov	r1, r3
 8000630:	4819      	ldr	r0, [pc, #100]	@ (8000698 <MX_USART1_UART_Init+0xc4>)
 8000632:	f002 fc61 	bl	8002ef8 <LL_GPIO_Init>

  /* USART1 interrupt Init */
  NVIC_SetPriority(USART1_IRQn, NVIC_EncodePriority(NVIC_GetPriorityGrouping(),0, 0));
 8000636:	f7ff ff0b 	bl	8000450 <__NVIC_GetPriorityGrouping>
 800063a:	4603      	mov	r3, r0
 800063c:	2200      	movs	r2, #0
 800063e:	2100      	movs	r1, #0
 8000640:	4618      	mov	r0, r3
 8000642:	f7ff ff59 	bl	80004f8 <NVIC_EncodePriority>
 8000646:	4603      	mov	r3, r0
 8000648:	4619      	mov	r1, r3
 800064a:	2025      	movs	r0, #37	@ 0x25
 800064c:	f7ff ff2a 	bl	80004a4 <__NVIC_SetPriority>
  NVIC_EnableIRQ(USART1_IRQn);
 8000650:	2025      	movs	r0, #37	@ 0x25
 8000652:	f7ff ff0b 	bl	800046c <__NVIC_EnableIRQ>

  /* USER CODE BEGIN USART1_Init 1 */

  /* USER CODE END USART1_Init 1 */
  USART_InitStruct.BaudRate = 115200;
 8000656:	f44f 33e1 	mov.w	r3, #115200	@ 0x1c200
 800065a:	617b      	str	r3, [r7, #20]
  USART_InitStruct.DataWidth = LL_USART_DATAWIDTH_8B;
 800065c:	2300      	movs	r3, #0
 800065e:	61bb      	str	r3, [r7, #24]
  USART_InitStruct.StopBits = LL_USART_STOPBITS_1;
 8000660:	2300      	movs	r3, #0
 8000662:	61fb      	str	r3, [r7, #28]
  USART_InitStruct.Parity = LL_USART_PARITY_NONE;
 8000664:	2300      	movs	r3, #0
 8000666:	623b      	str	r3, [r7, #32]
  USART_InitStruct.TransferDirection = LL_USART_DIRECTION_TX_RX;
 8000668:	230c      	movs	r3, #12
 800066a:	627b      	str	r3, [r7, #36]	@ 0x24
  USART_InitStruct.HardwareFlowControl = LL_USART_HWCONTROL_NONE;
 800066c:	2300      	movs	r3, #0
 800066e:	62bb      	str	r3, [r7, #40]	@ 0x28
  USART_InitStruct.OverSampling = LL_USART_OVERSAMPLING_16;
 8000670:	2300      	movs	r3, #0
 8000672:	62fb      	str	r3, [r7, #44]	@ 0x2c
  LL_USART_Init(USART1, &USART_InitStruct);
 8000674:	f107 0314 	add.w	r3, r7, #20
 8000678:	4619      	mov	r1, r3
 800067a:	4809      	ldr	r0, [pc, #36]	@ (80006a0 <MX_USART1_UART_Init+0xcc>)
 800067c:	f002 fe4a 	bl	8003314 <LL_USART_Init>
  LL_USART_ConfigAsyncMode(USART1);
 8000680:	4807      	ldr	r0, [pc, #28]	@ (80006a0 <MX_USART1_UART_Init+0xcc>)
 8000682:	f7ff ff7a 	bl	800057a <LL_USART_ConfigAsyncMode>
  LL_USART_Enable(USART1);
 8000686:	4806      	ldr	r0, [pc, #24]	@ (80006a0 <MX_USART1_UART_Init+0xcc>)
 8000688:	f7ff ff68 	bl	800055c <LL_USART_Enable>
  /* USER CODE BEGIN USART1_Init 2 */

  /* USER CODE END USART1_Init 2 */

}
 800068c:	bf00      	nop
 800068e:	3730      	adds	r7, #48	@ 0x30
 8000690:	46bd      	mov	sp, r7
 8000692:	bd80      	pop	{r7, pc}
 8000694:	04020002 	.word	0x04020002
 8000698:	40010800 	.word	0x40010800
 800069c:	04040004 	.word	0x04040004
 80006a0:	40013800 	.word	0x40013800

080006a4 <Reset_Handler>:
  .weak Reset_Handler
  .type Reset_Handler, %function
Reset_Handler:

/* Call the clock system initialization function.*/
    bl  SystemInit
 80006a4:	f7ff fece 	bl	8000444 <SystemInit>

/* Copy the data segment initializers from flash to SRAM */
  ldr r0, =_sdata
 80006a8:	480b      	ldr	r0, [pc, #44]	@ (80006d8 <LoopFillZerobss+0xe>)
  ldr r1, =_edata
 80006aa:	490c      	ldr	r1, [pc, #48]	@ (80006dc <LoopFillZerobss+0x12>)
  ldr r2, =_sidata
 80006ac:	4a0c      	ldr	r2, [pc, #48]	@ (80006e0 <LoopFillZerobss+0x16>)
  movs r3, #0
 80006ae:	2300      	movs	r3, #0
  b LoopCopyDataInit
 80006b0:	e002      	b.n	80006b8 <LoopCopyDataInit>

080006b2 <CopyDataInit>:

CopyDataInit:
  ldr r4, [r2, r3]
 80006b2:	58d4      	ldr	r4, [r2, r3]
  str r4, [r0, r3]
 80006b4:	50c4      	str	r4, [r0, r3]
  adds r3, r3, #4
 80006b6:	3304      	adds	r3, #4

080006b8 <LoopCopyDataInit>:

LoopCopyDataInit:
  adds r4, r0, r3
 80006b8:	18c4      	adds	r4, r0, r3
  cmp r4, r1
 80006ba:	428c      	cmp	r4, r1
  bcc CopyDataInit
 80006bc:	d3f9      	bcc.n	80006b2 <CopyDataInit>
  
/* Zero fill the bss segment. */
  ldr r2, =_sbss
 80006be:	4a09      	ldr	r2, [pc, #36]	@ (80006e4 <LoopFillZerobss+0x1a>)
  ldr r4, =_ebss
 80006c0:	4c09      	ldr	r4, [pc, #36]	@ (80006e8 <LoopFillZerobss+0x1e>)
  movs r3, #0
 80006c2:	2300      	movs	r3, #0
  b LoopFillZerobss
 80006c4:	e001      	b.n	80006ca <LoopFillZerobss>

080006c6 <FillZerobss>:

FillZerobss:
  str  r3, [r2]
 80006c6:	6013      	str	r3, [r2, #0]
  adds r2, r2, #4
 80006c8:	3204      	adds	r2, #4

080006ca <LoopFillZerobss>:

LoopFillZerobss:
  cmp r2, r4
 80006ca:	42a2      	cmp	r2, r4
  bcc FillZerobss
 80006cc:	d3fb      	bcc.n	80006c6 <FillZerobss>

/* Call static constructors */
    bl __libc_init_array
 80006ce:	f006 ffe7 	bl	80076a0 <__libc_init_array>
/* Call the application's entry point.*/
  bl main
 80006d2:	f7ff fda7 	bl	8000224 <main>
  bx lr
 80006d6:	4770      	bx	lr
  ldr r0, =_sdata
 80006d8:	20000000 	.word	0x20000000
  ldr r1, =_edata
 80006dc:	2000018c 	.word	0x2000018c
  ldr r2, =_sidata
 80006e0:	08007768 	.word	0x08007768
  ldr r2, =_sbss
 80006e4:	2000018c 	.word	0x2000018c
  ldr r4, =_ebss
 80006e8:	20000984 	.word	0x20000984

080006ec <ADC1_2_IRQHandler>:
 * @retval : None
*/
    .section .text.Default_Handler,"ax",%progbits
Default_Handler:
Infinite_Loop:
  b Infinite_Loop
 80006ec:	e7fe      	b.n	80006ec <ADC1_2_IRQHandler>
	...

080006f0 <HAL_Init>:
  *         need to ensure that the SysTick time base is always set to 1 millisecond
  *         to have correct HAL operation.
  * @retval HAL status
  */
HAL_StatusTypeDef HAL_Init(void)
{
 80006f0:	b580      	push	{r7, lr}
 80006f2:	af00      	add	r7, sp, #0
    defined(STM32F102x6) || defined(STM32F102xB) || \
    defined(STM32F103x6) || defined(STM32F103xB) || defined(STM32F103xE) || defined(STM32F103xG) || \
    defined(STM32F105xC) || defined(STM32F107xC)

  /* Prefetch buffer is not available on value line devices */
  __HAL_FLASH_PREFETCH_BUFFER_ENABLE();
 80006f4:	4b08      	ldr	r3, [pc, #32]	@ (8000718 <HAL_Init+0x28>)
 80006f6:	681b      	ldr	r3, [r3, #0]
 80006f8:	4a07      	ldr	r2, [pc, #28]	@ (8000718 <HAL_Init+0x28>)
 80006fa:	f043 0310 	orr.w	r3, r3, #16
 80006fe:	6013      	str	r3, [r2, #0]
#endif
#endif /* PREFETCH_ENABLE */

  /* Set Interrupt Group Priority */
  HAL_NVIC_SetPriorityGrouping(NVIC_PRIORITYGROUP_4);
 8000700:	2003      	movs	r0, #3
 8000702:	f000 f923 	bl	800094c <HAL_NVIC_SetPriorityGrouping>

  /* Use systick as time base source and configure 1ms tick (default clock after Reset is HSI) */
  HAL_InitTick(TICK_INT_PRIORITY);
 8000706:	200f      	movs	r0, #15
 8000708:	f000 f808 	bl	800071c <HAL_InitTick>

  /* Init the low level hardware */
  HAL_MspInit();
 800070c:	f7ff fdfa 	bl	8000304 <HAL_MspInit>

  /* Return function status */
  return HAL_OK;
 8000710:	2300      	movs	r3, #0
}
 8000712:	4618      	mov	r0, r3
 8000714:	bd80      	pop	{r7, pc}
 8000716:	bf00      	nop
 8000718:	40022000 	.word	0x40022000

0800071c <HAL_InitTick>:
  *       implementation  in user file.
  * @param TickPriority Tick interrupt priority.
  * @retval HAL status
  */
__weak HAL_StatusTypeDef HAL_InitTick(uint32_t TickPriority)
{
 800071c:	b580      	push	{r7, lr}
 800071e:	b082      	sub	sp, #8
 8000720:	af00      	add	r7, sp, #0
 8000722:	6078      	str	r0, [r7, #4]
  /* Configure the SysTick to have interrupt in 1ms time basis*/
  if (HAL_SYSTICK_Config(SystemCoreClock / (1000U / uwTickFreq)) > 0U)
 8000724:	4b12      	ldr	r3, [pc, #72]	@ (8000770 <HAL_InitTick+0x54>)
 8000726:	681a      	ldr	r2, [r3, #0]
 8000728:	4b12      	ldr	r3, [pc, #72]	@ (8000774 <HAL_InitTick+0x58>)
 800072a:	781b      	ldrb	r3, [r3, #0]
 800072c:	4619      	mov	r1, r3
 800072e:	f44f 737a 	mov.w	r3, #1000	@ 0x3e8
 8000732:	fbb3 f3f1 	udiv	r3, r3, r1
 8000736:	fbb2 f3f3 	udiv	r3, r2, r3
 800073a:	4618      	mov	r0, r3
 800073c:	f000 f93b 	bl	80009b6 <HAL_SYSTICK_Config>
 8000740:	4603      	mov	r3, r0
 8000742:	2b00      	cmp	r3, #0
 8000744:	d001      	beq.n	800074a <HAL_InitTick+0x2e>
  {
    return HAL_ERROR;
 8000746:	2301      	movs	r3, #1
 8000748:	e00e      	b.n	8000768 <HAL_InitTick+0x4c>
  }

  /* Configure the SysTick IRQ priority */
  if (TickPriority < (1UL << __NVIC_PRIO_BITS))
 800074a:	687b      	ldr	r3, [r7, #4]
 800074c:	2b0f      	cmp	r3, #15
 800074e:	d80a      	bhi.n	8000766 <HAL_InitTick+0x4a>
  {
    HAL_NVIC_SetPriority(SysTick_IRQn, TickPriority, 0U);
 8000750:	2200      	movs	r2, #0
 8000752:	6879      	ldr	r1, [r7, #4]
 8000754:	f04f 30ff 	mov.w	r0, #4294967295
 8000758:	f000 f903 	bl	8000962 <HAL_NVIC_SetPriority>
    uwTickPrio = TickPriority;
 800075c:	4a06      	ldr	r2, [pc, #24]	@ (8000778 <HAL_InitTick+0x5c>)
 800075e:	687b      	ldr	r3, [r7, #4]
 8000760:	6013      	str	r3, [r2, #0]
  {
    return HAL_ERROR;
  }

  /* Return function status */
  return HAL_OK;
 8000762:	2300      	movs	r3, #0
 8000764:	e000      	b.n	8000768 <HAL_InitTick+0x4c>
    return HAL_ERROR;
 8000766:	2301      	movs	r3, #1
}
 8000768:	4618      	mov	r0, r3
 800076a:	3708      	adds	r7, #8
 800076c:	46bd      	mov	sp, r7
 800076e:	bd80      	pop	{r7, pc}
 8000770:	20000000 	.word	0x20000000
 8000774:	20000008 	.word	0x20000008
 8000778:	20000004 	.word	0x20000004

0800077c <HAL_IncTick>:
  * @note This function is declared as __weak to be overwritten in case of other
  *      implementations in user file.
  * @retval None
  */
__weak void HAL_IncTick(void)
{
 800077c:	b480      	push	{r7}
 800077e:	af00      	add	r7, sp, #0
  uwTick += uwTickFreq;
 8000780:	4b05      	ldr	r3, [pc, #20]	@ (8000798 <HAL_IncTick+0x1c>)
 8000782:	781b      	ldrb	r3, [r3, #0]
 8000784:	461a      	mov	r2, r3
 8000786:	4b05      	ldr	r3, [pc, #20]	@ (800079c <HAL_IncTick+0x20>)
 8000788:	681b      	ldr	r3, [r3, #0]
 800078a:	4413      	add	r3, r2
 800078c:	4a03      	ldr	r2, [pc, #12]	@ (800079c <HAL_IncTick+0x20>)
 800078e:	6013      	str	r3, [r2, #0]
}
 8000790:	bf00      	nop
 8000792:	46bd      	mov	sp, r7
 8000794:	bc80      	pop	{r7}
 8000796:	4770      	bx	lr
 8000798:	20000008 	.word	0x20000008
 800079c:	200001cc 	.word	0x200001cc

080007a0 <HAL_GetTick>:
  * @note  This function is declared as __weak to be overwritten in case of other
  *       implementations in user file.
  * @retval tick value
  */
__weak uint32_t HAL_GetTick(void)
{
 80007a0:	b480      	push	{r7}
 80007a2:	af00      	add	r7, sp, #0
  return uwTick;
 80007a4:	4b02      	ldr	r3, [pc, #8]	@ (80007b0 <HAL_GetTick+0x10>)
 80007a6:	681b      	ldr	r3, [r3, #0]
}
 80007a8:	4618      	mov	r0, r3
 80007aa:	46bd      	mov	sp, r7
 80007ac:	bc80      	pop	{r7}
 80007ae:	4770      	bx	lr
 80007b0:	200001cc 	.word	0x200001cc

080007b4 <__NVIC_SetPriorityGrouping>:
{
 80007b4:	b480      	push	{r7}
 80007b6:	b085      	sub	sp, #20
 80007b8:	af00      	add	r7, sp, #0
 80007ba:	6078      	str	r0, [r7, #4]
  uint32_t PriorityGroupTmp = (PriorityGroup & (uint32_t)0x07UL);             /* only values 0..7 are used          */
 80007bc:	687b      	ldr	r3, [r7, #4]
 80007be:	f003 0307 	and.w	r3, r3, #7
 80007c2:	60fb      	str	r3, [r7, #12]
  reg_value  =  SCB->AIRCR;                                                   /* read old register configuration    */
 80007c4:	4b0c      	ldr	r3, [pc, #48]	@ (80007f8 <__NVIC_SetPriorityGrouping+0x44>)
 80007c6:	68db      	ldr	r3, [r3, #12]
 80007c8:	60bb      	str	r3, [r7, #8]
  reg_value &= ~((uint32_t)(SCB_AIRCR_VECTKEY_Msk | SCB_AIRCR_PRIGROUP_Msk)); /* clear bits to change               */
 80007ca:	68ba      	ldr	r2, [r7, #8]
 80007cc:	f64f 03ff 	movw	r3, #63743	@ 0xf8ff
 80007d0:	4013      	ands	r3, r2
 80007d2:	60bb      	str	r3, [r7, #8]
                (PriorityGroupTmp << SCB_AIRCR_PRIGROUP_Pos) );               /* Insert write key and priority group */
 80007d4:	68fb      	ldr	r3, [r7, #12]
 80007d6:	021a      	lsls	r2, r3, #8
                ((uint32_t)0x5FAUL << SCB_AIRCR_VECTKEY_Pos) |
 80007d8:	68bb      	ldr	r3, [r7, #8]
 80007da:	4313      	orrs	r3, r2
  reg_value  =  (reg_value                                   |
 80007dc:	f043 63bf 	orr.w	r3, r3, #100139008	@ 0x5f80000
 80007e0:	f443 3300 	orr.w	r3, r3, #131072	@ 0x20000
 80007e4:	60bb      	str	r3, [r7, #8]
  SCB->AIRCR =  reg_value;
 80007e6:	4a04      	ldr	r2, [pc, #16]	@ (80007f8 <__NVIC_SetPriorityGrouping+0x44>)
 80007e8:	68bb      	ldr	r3, [r7, #8]
 80007ea:	60d3      	str	r3, [r2, #12]
}
 80007ec:	bf00      	nop
 80007ee:	3714      	adds	r7, #20
 80007f0:	46bd      	mov	sp, r7
 80007f2:	bc80      	pop	{r7}
 80007f4:	4770      	bx	lr
 80007f6:	bf00      	nop
 80007f8:	e000ed00 	.word	0xe000ed00

080007fc <__NVIC_GetPriorityGrouping>:
{
 80007fc:	b480      	push	{r7}
 80007fe:	af00      	add	r7, sp, #0
  return ((uint32_t)((SCB->AIRCR & SCB_AIRCR_PRIGROUP_Msk) >> SCB_AIRCR_PRIGROUP_Pos));
 8000800:	4b04      	ldr	r3, [pc, #16]	@ (8000814 <__NVIC_GetPriorityGrouping+0x18>)
 8000802:	68db      	ldr	r3, [r3, #12]
 8000804:	0a1b      	lsrs	r3, r3, #8
 8000806:	f003 0307 	and.w	r3, r3, #7
}
 800080a:	4618      	mov	r0, r3
 800080c:	46bd      	mov	sp, r7
 800080e:	bc80      	pop	{r7}
 8000810:	4770      	bx	lr
 8000812:	bf00      	nop
 8000814:	e000ed00 	.word	0xe000ed00

08000818 <__NVIC_EnableIRQ>:
{
 8000818:	b480      	push	{r7}
 800081a:	b083      	sub	sp, #12
 800081c:	af00      	add	r7, sp, #0
 800081e:	4603      	mov	r3, r0
 8000820:	71fb      	strb	r3, [r7, #7]
  if ((int32_t)(IRQn) >= 0)
 8000822:	f997 3007 	ldrsb.w	r3, [r7, #7]
 8000826:	2b00      	cmp	r3, #0
 8000828:	db0b      	blt.n	8000842 <__NVIC_EnableIRQ+0x2a>
    NVIC->ISER[(((uint32_t)IRQn) >> 5UL)] = (uint32_t)(1UL << (((uint32_t)IRQn) & 0x1FUL));
 800082a:	79fb      	ldrb	r3, [r7, #7]
 800082c:	f003 021f 	and.w	r2, r3, #31
 8000830:	4906      	ldr	r1, [pc, #24]	@ (800084c <__NVIC_EnableIRQ+0x34>)
 8000832:	f997 3007 	ldrsb.w	r3, [r7, #7]
 8000836:	095b      	lsrs	r3, r3, #5
 8000838:	2001      	movs	r0, #1
 800083a:	fa00 f202 	lsl.w	r2, r0, r2
 800083e:	f841 2023 	str.w	r2, [r1, r3, lsl #2]
}
 8000842:	bf00      	nop
 8000844:	370c      	adds	r7, #12
 8000846:	46bd      	mov	sp, r7
 8000848:	bc80      	pop	{r7}
 800084a:	4770      	bx	lr
 800084c:	e000e100 	.word	0xe000e100

08000850 <__NVIC_SetPriority>:
{
 8000850:	b480      	push	{r7}
 8000852:	b083      	sub	sp, #12
 8000854:	af00      	add	r7, sp, #0
 8000856:	4603      	mov	r3, r0
 8000858:	6039      	str	r1, [r7, #0]
 800085a:	71fb      	strb	r3, [r7, #7]
  if ((int32_t)(IRQn) >= 0)
 800085c:	f997 3007 	ldrsb.w	r3, [r7, #7]
 8000860:	2b00      	cmp	r3, #0
 8000862:	db0a      	blt.n	800087a <__NVIC_SetPriority+0x2a>
    NVIC->IP[((uint32_t)IRQn)]               = (uint8_t)((priority << (8U - __NVIC_PRIO_BITS)) & (uint32_t)0xFFUL);
 8000864:	683b      	ldr	r3, [r7, #0]
 8000866:	b2da      	uxtb	r2, r3
 8000868:	490c      	ldr	r1, [pc, #48]	@ (800089c <__NVIC_SetPriority+0x4c>)
 800086a:	f997 3007 	ldrsb.w	r3, [r7, #7]
 800086e:	0112      	lsls	r2, r2, #4
 8000870:	b2d2      	uxtb	r2, r2
 8000872:	440b      	add	r3, r1
 8000874:	f883 2300 	strb.w	r2, [r3, #768]	@ 0x300
}
 8000878:	e00a      	b.n	8000890 <__NVIC_SetPriority+0x40>
    SCB->SHP[(((uint32_t)IRQn) & 0xFUL)-4UL] = (uint8_t)((priority << (8U - __NVIC_PRIO_BITS)) & (uint32_t)0xFFUL);
 800087a:	683b      	ldr	r3, [r7, #0]
 800087c:	b2da      	uxtb	r2, r3
 800087e:	4908      	ldr	r1, [pc, #32]	@ (80008a0 <__NVIC_SetPriority+0x50>)
 8000880:	79fb      	ldrb	r3, [r7, #7]
 8000882:	f003 030f 	and.w	r3, r3, #15
 8000886:	3b04      	subs	r3, #4
 8000888:	0112      	lsls	r2, r2, #4
 800088a:	b2d2      	uxtb	r2, r2
 800088c:	440b      	add	r3, r1
 800088e:	761a      	strb	r2, [r3, #24]
}
 8000890:	bf00      	nop
 8000892:	370c      	adds	r7, #12
 8000894:	46bd      	mov	sp, r7
 8000896:	bc80      	pop	{r7}
 8000898:	4770      	bx	lr
 800089a:	bf00      	nop
 800089c:	e000e100 	.word	0xe000e100
 80008a0:	e000ed00 	.word	0xe000ed00

080008a4 <NVIC_EncodePriority>:
{
 80008a4:	b480      	push	{r7}
 80008a6:	b089      	sub	sp, #36	@ 0x24
 80008a8:	af00      	add	r7, sp, #0
 80008aa:	60f8      	str	r0, [r7, #12]
 80008ac:	60b9      	str	r1, [r7, #8]
 80008ae:	607a      	str	r2, [r7, #4]
  uint32_t PriorityGroupTmp = (PriorityGroup & (uint32_t)0x07UL);   /* only values 0..7 are used          */
 80008b0:	68fb      	ldr	r3, [r7, #12]
 80008b2:	f003 0307 	and.w	r3, r3, #7
 80008b6:	61fb      	str	r3, [r7, #28]
  PreemptPriorityBits = ((7UL - PriorityGroupTmp) > (uint32_t)(__NVIC_PRIO_BITS)) ? (uint32_t)(__NVIC_PRIO_BITS) : (uint32_t)(7UL - PriorityGroupTmp);
 80008b8:	69fb      	ldr	r3, [r7, #28]
 80008ba:	f1c3 0307 	rsb	r3, r3, #7
 80008be:	2b04      	cmp	r3, #4
 80008c0:	bf28      	it	cs
 80008c2:	2304      	movcs	r3, #4
 80008c4:	61bb      	str	r3, [r7, #24]
  SubPriorityBits     = ((PriorityGroupTmp + (uint32_t)(__NVIC_PRIO_BITS)) < (uint32_t)7UL) ? (uint32_t)0UL : (uint32_t)((PriorityGroupTmp - 7UL) + (uint32_t)(__NVIC_PRIO_BITS));
 80008c6:	69fb      	ldr	r3, [r7, #28]
 80008c8:	3304      	adds	r3, #4
 80008ca:	2b06      	cmp	r3, #6
 80008cc:	d902      	bls.n	80008d4 <NVIC_EncodePriority+0x30>
 80008ce:	69fb      	ldr	r3, [r7, #28]
 80008d0:	3b03      	subs	r3, #3
 80008d2:	e000      	b.n	80008d6 <NVIC_EncodePriority+0x32>
 80008d4:	2300      	movs	r3, #0
 80008d6:	617b      	str	r3, [r7, #20]
           ((PreemptPriority & (uint32_t)((1UL << (PreemptPriorityBits)) - 1UL)) << SubPriorityBits) |
 80008d8:	f04f 32ff 	mov.w	r2, #4294967295
 80008dc:	69bb      	ldr	r3, [r7, #24]
 80008de:	fa02 f303 	lsl.w	r3, r2, r3
 80008e2:	43da      	mvns	r2, r3
 80008e4:	68bb      	ldr	r3, [r7, #8]
 80008e6:	401a      	ands	r2, r3
 80008e8:	697b      	ldr	r3, [r7, #20]
 80008ea:	409a      	lsls	r2, r3
           ((SubPriority     & (uint32_t)((1UL << (SubPriorityBits    )) - 1UL)))
 80008ec:	f04f 31ff 	mov.w	r1, #4294967295
 80008f0:	697b      	ldr	r3, [r7, #20]
 80008f2:	fa01 f303 	lsl.w	r3, r1, r3
 80008f6:	43d9      	mvns	r1, r3
 80008f8:	687b      	ldr	r3, [r7, #4]
 80008fa:	400b      	ands	r3, r1
           ((PreemptPriority & (uint32_t)((1UL << (PreemptPriorityBits)) - 1UL)) << SubPriorityBits) |
 80008fc:	4313      	orrs	r3, r2
}
 80008fe:	4618      	mov	r0, r3
 8000900:	3724      	adds	r7, #36	@ 0x24
 8000902:	46bd      	mov	sp, r7
 8000904:	bc80      	pop	{r7}
 8000906:	4770      	bx	lr

08000908 <SysTick_Config>:
  \note    When the variable <b>__Vendor_SysTickConfig</b> is set to 1, then the
           function <b>SysTick_Config</b> is not included. In this case, the file <b><i>device</i>.h</b>
           must contain a vendor-specific implementation of this function.
 */
__STATIC_INLINE uint32_t SysTick_Config(uint32_t ticks)
{
 8000908:	b580      	push	{r7, lr}
 800090a:	b082      	sub	sp, #8
 800090c:	af00      	add	r7, sp, #0
 800090e:	6078      	str	r0, [r7, #4]
  if ((ticks - 1UL) > SysTick_LOAD_RELOAD_Msk)
 8000910:	687b      	ldr	r3, [r7, #4]
 8000912:	3b01      	subs	r3, #1
 8000914:	f1b3 7f80 	cmp.w	r3, #16777216	@ 0x1000000
 8000918:	d301      	bcc.n	800091e <SysTick_Config+0x16>
  {
    return (1UL);                                                   /* Reload value impossible */
 800091a:	2301      	movs	r3, #1
 800091c:	e00f      	b.n	800093e <SysTick_Config+0x36>
  }

  SysTick->LOAD  = (uint32_t)(ticks - 1UL);                         /* set reload register */
 800091e:	4a0a      	ldr	r2, [pc, #40]	@ (8000948 <SysTick_Config+0x40>)
 8000920:	687b      	ldr	r3, [r7, #4]
 8000922:	3b01      	subs	r3, #1
 8000924:	6053      	str	r3, [r2, #4]
  NVIC_SetPriority (SysTick_IRQn, (1UL << __NVIC_PRIO_BITS) - 1UL); /* set Priority for Systick Interrupt */
 8000926:	210f      	movs	r1, #15
 8000928:	f04f 30ff 	mov.w	r0, #4294967295
 800092c:	f7ff ff90 	bl	8000850 <__NVIC_SetPriority>
  SysTick->VAL   = 0UL;                                             /* Load the SysTick Counter Value */
 8000930:	4b05      	ldr	r3, [pc, #20]	@ (8000948 <SysTick_Config+0x40>)
 8000932:	2200      	movs	r2, #0
 8000934:	609a      	str	r2, [r3, #8]
  SysTick->CTRL  = SysTick_CTRL_CLKSOURCE_Msk |
 8000936:	4b04      	ldr	r3, [pc, #16]	@ (8000948 <SysTick_Config+0x40>)
 8000938:	2207      	movs	r2, #7
 800093a:	601a      	str	r2, [r3, #0]
                   SysTick_CTRL_TICKINT_Msk   |
                   SysTick_CTRL_ENABLE_Msk;                         /* Enable SysTick IRQ and SysTick Timer */
  return (0UL);                                                     /* Function successful */
 800093c:	2300      	movs	r3, #0
}
 800093e:	4618      	mov	r0, r3
 8000940:	3708      	adds	r7, #8
 8000942:	46bd      	mov	sp, r7
 8000944:	bd80      	pop	{r7, pc}
 8000946:	bf00      	nop
 8000948:	e000e010 	.word	0xe000e010

0800094c <HAL_NVIC_SetPriorityGrouping>:
  * @note   When the NVIC_PriorityGroup_0 is selected, IRQ preemption is no more possible. 
  *         The pending IRQ priority will be managed only by the subpriority. 
  * @retval None
  */
void HAL_NVIC_SetPriorityGrouping(uint32_t PriorityGroup)
{
 800094c:	b580      	push	{r7, lr}
 800094e:	b082      	sub	sp, #8
 8000950:	af00      	add	r7, sp, #0
 8000952:	6078      	str	r0, [r7, #4]
  /* Check the parameters */
  assert_param(IS_NVIC_PRIORITY_GROUP(PriorityGroup));
  
  /* Set the PRIGROUP[10:8] bits according to the PriorityGroup parameter value */
  NVIC_SetPriorityGrouping(PriorityGroup);
 8000954:	6878      	ldr	r0, [r7, #4]
 8000956:	f7ff ff2d 	bl	80007b4 <__NVIC_SetPriorityGrouping>
}
 800095a:	bf00      	nop
 800095c:	3708      	adds	r7, #8
 800095e:	46bd      	mov	sp, r7
 8000960:	bd80      	pop	{r7, pc}

08000962 <HAL_NVIC_SetPriority>:
  *         This parameter can be a value between 0 and 15
  *         A lower priority value indicates a higher priority.          
  * @retval None
  */
void HAL_NVIC_SetPriority(IRQn_Type IRQn, uint32_t PreemptPriority, uint32_t SubPriority)
{ 
 8000962:	b580      	push	{r7, lr}
 8000964:	b086      	sub	sp, #24
 8000966:	af00      	add	r7, sp, #0
 8000968:	4603      	mov	r3, r0
 800096a:	60b9      	str	r1, [r7, #8]
 800096c:	607a      	str	r2, [r7, #4]
 800096e:	73fb      	strb	r3, [r7, #15]
  uint32_t prioritygroup = 0x00U;
 8000970:	2300      	movs	r3, #0
 8000972:	617b      	str	r3, [r7, #20]
  
  /* Check the parameters */
  assert_param(IS_NVIC_SUB_PRIORITY(SubPriority));
  assert_param(IS_NVIC_PREEMPTION_PRIORITY(PreemptPriority));
  
  prioritygroup = NVIC_GetPriorityGrouping();
 8000974:	f7ff ff42 	bl	80007fc <__NVIC_GetPriorityGrouping>
 8000978:	6178      	str	r0, [r7, #20]
  
  NVIC_SetPriority(IRQn, NVIC_EncodePriority(prioritygroup, PreemptPriority, SubPriority));
 800097a:	687a      	ldr	r2, [r7, #4]
 800097c:	68b9      	ldr	r1, [r7, #8]
 800097e:	6978      	ldr	r0, [r7, #20]
 8000980:	f7ff ff90 	bl	80008a4 <NVIC_EncodePriority>
 8000984:	4602      	mov	r2, r0
 8000986:	f997 300f 	ldrsb.w	r3, [r7, #15]
 800098a:	4611      	mov	r1, r2
 800098c:	4618      	mov	r0, r3
 800098e:	f7ff ff5f 	bl	8000850 <__NVIC_SetPriority>
}
 8000992:	bf00      	nop
 8000994:	3718      	adds	r7, #24
 8000996:	46bd      	mov	sp, r7
 8000998:	bd80      	pop	{r7, pc}

0800099a <HAL_NVIC_EnableIRQ>:
  *         This parameter can be an enumerator of IRQn_Type enumeration
  *         (For the complete STM32 Devices IRQ Channels list, please refer to the appropriate CMSIS device file (stm32f10xxx.h))
  * @retval None
  */
void HAL_NVIC_EnableIRQ(IRQn_Type IRQn)
{
 800099a:	b580      	push	{r7, lr}
 800099c:	b082      	sub	sp, #8
 800099e:	af00      	add	r7, sp, #0
 80009a0:	4603      	mov	r3, r0
 80009a2:	71fb      	strb	r3, [r7, #7]
  /* Check the parameters */
  assert_param(IS_NVIC_DEVICE_IRQ(IRQn));

  /* Enable interrupt */
  NVIC_EnableIRQ(IRQn);
 80009a4:	f997 3007 	ldrsb.w	r3, [r7, #7]
 80009a8:	4618      	mov	r0, r3
 80009aa:	f7ff ff35 	bl	8000818 <__NVIC_EnableIRQ>
}
 80009ae:	bf00      	nop
 80009b0:	3708      	adds	r7, #8
 80009b2:	46bd      	mov	sp, r7
 80009b4:	bd80      	pop	{r7, pc}

080009b6 <HAL_SYSTICK_Config>:
  * @param  TicksNumb: Specifies the ticks Number of ticks between two interrupts.
  * @retval status:  - 0  Function succeeded.
  *                  - 1  Function failed.
  */
uint32_t HAL_SYSTICK_Config(uint32_t TicksNumb)
{
 80009b6:	b580      	push	{r7, lr}
 80009b8:	b082      	sub	sp, #8
 80009ba:	af00      	add	r7, sp, #0
 80009bc:	6078      	str	r0, [r7, #4]
   return SysTick_Config(TicksNumb);
 80009be:	6878      	ldr	r0, [r7, #4]
 80009c0:	f7ff ffa2 	bl	8000908 <SysTick_Config>
 80009c4:	4603      	mov	r3, r0
}
 80009c6:	4618      	mov	r0, r3
 80009c8:	3708      	adds	r7, #8
 80009ca:	46bd      	mov	sp, r7
 80009cc:	bd80      	pop	{r7, pc}

080009ce <HAL_PCD_Init>:
  *         parameters in the PCD_InitTypeDef and initialize the associated handle.
  * @param  hpcd PCD handle
  * @retval HAL status
  */
HAL_StatusTypeDef HAL_PCD_Init(PCD_HandleTypeDef *hpcd)
{
 80009ce:	b580      	push	{r7, lr}
 80009d0:	b084      	sub	sp, #16
 80009d2:	af00      	add	r7, sp, #0
 80009d4:	6078      	str	r0, [r7, #4]
  uint8_t i;

  /* Check the PCD handle allocation */
  if (hpcd == NULL)
 80009d6:	687b      	ldr	r3, [r7, #4]
 80009d8:	2b00      	cmp	r3, #0
 80009da:	d101      	bne.n	80009e0 <HAL_PCD_Init+0x12>
  {
    return HAL_ERROR;
 80009dc:	2301      	movs	r3, #1
 80009de:	e0e8      	b.n	8000bb2 <HAL_PCD_Init+0x1e4>
  }

  /* Check the parameters */
  assert_param(IS_PCD_ALL_INSTANCE(hpcd->Instance));

  if (hpcd->State == HAL_PCD_STATE_RESET)
 80009e0:	687b      	ldr	r3, [r7, #4]
 80009e2:	f893 3291 	ldrb.w	r3, [r3, #657]	@ 0x291
 80009e6:	b2db      	uxtb	r3, r3
 80009e8:	2b00      	cmp	r3, #0
 80009ea:	d106      	bne.n	80009fa <HAL_PCD_Init+0x2c>
  {
    /* Allocate lock resource and initialize it */
    hpcd->Lock = HAL_UNLOCKED;
 80009ec:	687b      	ldr	r3, [r7, #4]
 80009ee:	2200      	movs	r2, #0
 80009f0:	f883 2290 	strb.w	r2, [r3, #656]	@ 0x290

    /* Init the low level hardware */
    hpcd->MspInitCallback(hpcd);
#else
    /* Init the low level hardware : GPIO, CLOCK, NVIC... */
    HAL_PCD_MspInit(hpcd);
 80009f4:	6878      	ldr	r0, [r7, #4]
 80009f6:	f006 fbc7 	bl	8007188 <HAL_PCD_MspInit>
#endif /* (USE_HAL_PCD_REGISTER_CALLBACKS) */
  }

  hpcd->State = HAL_PCD_STATE_BUSY;
 80009fa:	687b      	ldr	r3, [r7, #4]
 80009fc:	2203      	movs	r2, #3
 80009fe:	f883 2291 	strb.w	r2, [r3, #657]	@ 0x291

  /* Disable DMA mode for FS instance */
  hpcd->Init.dma_enable = 0U;
 8000a02:	687b      	ldr	r3, [r7, #4]
 8000a04:	2200      	movs	r2, #0
 8000a06:	715a      	strb	r2, [r3, #5]

  /* Disable the Interrupts */
  __HAL_PCD_DISABLE(hpcd);
 8000a08:	687b      	ldr	r3, [r7, #4]
 8000a0a:	681b      	ldr	r3, [r3, #0]
 8000a0c:	4618      	mov	r0, r3
 8000a0e:	f002 fd04 	bl	800341a <USB_DisableGlobalInt>

  /*Init the Core (common init.) */
  if (USB_CoreInit(hpcd->Instance, hpcd->Init) != HAL_OK)
 8000a12:	687b      	ldr	r3, [r7, #4]
 8000a14:	6818      	ldr	r0, [r3, #0]
 8000a16:	687b      	ldr	r3, [r7, #4]
 8000a18:	3304      	adds	r3, #4
 8000a1a:	cb0e      	ldmia	r3, {r1, r2, r3}
 8000a1c:	f002 fcda 	bl	80033d4 <USB_CoreInit>
 8000a20:	4603      	mov	r3, r0
 8000a22:	2b00      	cmp	r3, #0
 8000a24:	d005      	beq.n	8000a32 <HAL_PCD_Init+0x64>
  {
    hpcd->State = HAL_PCD_STATE_ERROR;
 8000a26:	687b      	ldr	r3, [r7, #4]
 8000a28:	2202      	movs	r2, #2
 8000a2a:	f883 2291 	strb.w	r2, [r3, #657]	@ 0x291
    return HAL_ERROR;
 8000a2e:	2301      	movs	r3, #1
 8000a30:	e0bf      	b.n	8000bb2 <HAL_PCD_Init+0x1e4>
  }

  /* Force Device Mode */
  if (USB_SetCurrentMode(hpcd->Instance, USB_DEVICE_MODE) != HAL_OK)
 8000a32:	687b      	ldr	r3, [r7, #4]
 8000a34:	681b      	ldr	r3, [r3, #0]
 8000a36:	2100      	movs	r1, #0
 8000a38:	4618      	mov	r0, r3
 8000a3a:	f002 fd08 	bl	800344e <USB_SetCurrentMode>
 8000a3e:	4603      	mov	r3, r0
 8000a40:	2b00      	cmp	r3, #0
 8000a42:	d005      	beq.n	8000a50 <HAL_PCD_Init+0x82>
  {
    hpcd->State = HAL_PCD_STATE_ERROR;
 8000a44:	687b      	ldr	r3, [r7, #4]
 8000a46:	2202      	movs	r2, #2
 8000a48:	f883 2291 	strb.w	r2, [r3, #657]	@ 0x291
    return HAL_ERROR;
 8000a4c:	2301      	movs	r3, #1
 8000a4e:	e0b0      	b.n	8000bb2 <HAL_PCD_Init+0x1e4>
  }

  /* Init endpoints structures */
  for (i = 0U; i < hpcd->Init.dev_endpoints; i++)
 8000a50:	2300      	movs	r3, #0
 8000a52:	73fb      	strb	r3, [r7, #15]
 8000a54:	e03e      	b.n	8000ad4 <HAL_PCD_Init+0x106>
  {
    /* Init ep structure */
    hpcd->IN_ep[i].is_in = 1U;
 8000a56:	7bfa      	ldrb	r2, [r7, #15]
 8000a58:	6879      	ldr	r1, [r7, #4]
 8000a5a:	4613      	mov	r3, r2
 8000a5c:	009b      	lsls	r3, r3, #2
 8000a5e:	4413      	add	r3, r2
 8000a60:	00db      	lsls	r3, r3, #3
 8000a62:	440b      	add	r3, r1
 8000a64:	3311      	adds	r3, #17
 8000a66:	2201      	movs	r2, #1
 8000a68:	701a      	strb	r2, [r3, #0]
    hpcd->IN_ep[i].num = i;
 8000a6a:	7bfa      	ldrb	r2, [r7, #15]
 8000a6c:	6879      	ldr	r1, [r7, #4]
 8000a6e:	4613      	mov	r3, r2
 8000a70:	009b      	lsls	r3, r3, #2
 8000a72:	4413      	add	r3, r2
 8000a74:	00db      	lsls	r3, r3, #3
 8000a76:	440b      	add	r3, r1
 8000a78:	3310      	adds	r3, #16
 8000a7a:	7bfa      	ldrb	r2, [r7, #15]
 8000a7c:	701a      	strb	r2, [r3, #0]
#if defined (USB_OTG_FS)
    hpcd->IN_ep[i].tx_fifo_num = i;
#endif /* defined (USB_OTG_FS) */
    /* Control until ep is activated */
    hpcd->IN_ep[i].type = EP_TYPE_CTRL;
 8000a7e:	7bfa      	ldrb	r2, [r7, #15]
 8000a80:	6879      	ldr	r1, [r7, #4]
 8000a82:	4613      	mov	r3, r2
 8000a84:	009b      	lsls	r3, r3, #2
 8000a86:	4413      	add	r3, r2
 8000a88:	00db      	lsls	r3, r3, #3
 8000a8a:	440b      	add	r3, r1
 8000a8c:	3313      	adds	r3, #19
 8000a8e:	2200      	movs	r2, #0
 8000a90:	701a      	strb	r2, [r3, #0]
    hpcd->IN_ep[i].maxpacket = 0U;
 8000a92:	7bfa      	ldrb	r2, [r7, #15]
 8000a94:	6879      	ldr	r1, [r7, #4]
 8000a96:	4613      	mov	r3, r2
 8000a98:	009b      	lsls	r3, r3, #2
 8000a9a:	4413      	add	r3, r2
 8000a9c:	00db      	lsls	r3, r3, #3
 8000a9e:	440b      	add	r3, r1
 8000aa0:	3320      	adds	r3, #32
 8000aa2:	2200      	movs	r2, #0
 8000aa4:	601a      	str	r2, [r3, #0]
    hpcd->IN_ep[i].xfer_buff = 0U;
 8000aa6:	7bfa      	ldrb	r2, [r7, #15]
 8000aa8:	6879      	ldr	r1, [r7, #4]
 8000aaa:	4613      	mov	r3, r2
 8000aac:	009b      	lsls	r3, r3, #2
 8000aae:	4413      	add	r3, r2
 8000ab0:	00db      	lsls	r3, r3, #3
 8000ab2:	440b      	add	r3, r1
 8000ab4:	3324      	adds	r3, #36	@ 0x24
 8000ab6:	2200      	movs	r2, #0
 8000ab8:	601a      	str	r2, [r3, #0]
    hpcd->IN_ep[i].xfer_len = 0U;
 8000aba:	7bfb      	ldrb	r3, [r7, #15]
 8000abc:	6879      	ldr	r1, [r7, #4]
 8000abe:	1c5a      	adds	r2, r3, #1
 8000ac0:	4613      	mov	r3, r2
 8000ac2:	009b      	lsls	r3, r3, #2
 8000ac4:	4413      	add	r3, r2
 8000ac6:	00db      	lsls	r3, r3, #3
 8000ac8:	440b      	add	r3, r1
 8000aca:	2200      	movs	r2, #0
 8000acc:	601a      	str	r2, [r3, #0]
  for (i = 0U; i < hpcd->Init.dev_endpoints; i++)
 8000ace:	7bfb      	ldrb	r3, [r7, #15]
 8000ad0:	3301      	adds	r3, #1
 8000ad2:	73fb      	strb	r3, [r7, #15]
 8000ad4:	687b      	ldr	r3, [r7, #4]
 8000ad6:	791b      	ldrb	r3, [r3, #4]
 8000ad8:	7bfa      	ldrb	r2, [r7, #15]
 8000ada:	429a      	cmp	r2, r3
 8000adc:	d3bb      	bcc.n	8000a56 <HAL_PCD_Init+0x88>
  }

  for (i = 0U; i < hpcd->Init.dev_endpoints; i++)
 8000ade:	2300      	movs	r3, #0
 8000ae0:	73fb      	strb	r3, [r7, #15]
 8000ae2:	e044      	b.n	8000b6e <HAL_PCD_Init+0x1a0>
  {
    hpcd->OUT_ep[i].is_in = 0U;
 8000ae4:	7bfa      	ldrb	r2, [r7, #15]
 8000ae6:	6879      	ldr	r1, [r7, #4]
 8000ae8:	4613      	mov	r3, r2
 8000aea:	009b      	lsls	r3, r3, #2
 8000aec:	4413      	add	r3, r2
 8000aee:	00db      	lsls	r3, r3, #3
 8000af0:	440b      	add	r3, r1
 8000af2:	f203 1351 	addw	r3, r3, #337	@ 0x151
 8000af6:	2200      	movs	r2, #0
 8000af8:	701a      	strb	r2, [r3, #0]
    hpcd->OUT_ep[i].num = i;
 8000afa:	7bfa      	ldrb	r2, [r7, #15]
 8000afc:	6879      	ldr	r1, [r7, #4]
 8000afe:	4613      	mov	r3, r2
 8000b00:	009b      	lsls	r3, r3, #2
 8000b02:	4413      	add	r3, r2
 8000b04:	00db      	lsls	r3, r3, #3
 8000b06:	440b      	add	r3, r1
 8000b08:	f503 73a8 	add.w	r3, r3, #336	@ 0x150
 8000b0c:	7bfa      	ldrb	r2, [r7, #15]
 8000b0e:	701a      	strb	r2, [r3, #0]
    /* Control until ep is activated */
    hpcd->OUT_ep[i].type = EP_TYPE_CTRL;
 8000b10:	7bfa      	ldrb	r2, [r7, #15]
 8000b12:	6879      	ldr	r1, [r7, #4]
 8000b14:	4613      	mov	r3, r2
 8000b16:	009b      	lsls	r3, r3, #2
 8000b18:	4413      	add	r3, r2
 8000b1a:	00db      	lsls	r3, r3, #3
 8000b1c:	440b      	add	r3, r1
 8000b1e:	f203 1353 	addw	r3, r3, #339	@ 0x153
 8000b22:	2200      	movs	r2, #0
 8000b24:	701a      	strb	r2, [r3, #0]
    hpcd->OUT_ep[i].maxpacket = 0U;
 8000b26:	7bfa      	ldrb	r2, [r7, #15]
 8000b28:	6879      	ldr	r1, [r7, #4]
 8000b2a:	4613      	mov	r3, r2
 8000b2c:	009b      	lsls	r3, r3, #2
 8000b2e:	4413      	add	r3, r2
 8000b30:	00db      	lsls	r3, r3, #3
 8000b32:	440b      	add	r3, r1
 8000b34:	f503 73b0 	add.w	r3, r3, #352	@ 0x160
 8000b38:	2200      	movs	r2, #0
 8000b3a:	601a      	str	r2, [r3, #0]
    hpcd->OUT_ep[i].xfer_buff = 0U;
 8000b3c:	7bfa      	ldrb	r2, [r7, #15]
 8000b3e:	6879      	ldr	r1, [r7, #4]
 8000b40:	4613      	mov	r3, r2
 8000b42:	009b      	lsls	r3, r3, #2
 8000b44:	4413      	add	r3, r2
 8000b46:	00db      	lsls	r3, r3, #3
 8000b48:	440b      	add	r3, r1
 8000b4a:	f503 73b2 	add.w	r3, r3, #356	@ 0x164
 8000b4e:	2200      	movs	r2, #0
 8000b50:	601a      	str	r2, [r3, #0]
    hpcd->OUT_ep[i].xfer_len = 0U;
 8000b52:	7bfa      	ldrb	r2, [r7, #15]
 8000b54:	6879      	ldr	r1, [r7, #4]
 8000b56:	4613      	mov	r3, r2
 8000b58:	009b      	lsls	r3, r3, #2
 8000b5a:	4413      	add	r3, r2
 8000b5c:	00db      	lsls	r3, r3, #3
 8000b5e:	440b      	add	r3, r1
 8000b60:	f503 73b4 	add.w	r3, r3, #360	@ 0x168
 8000b64:	2200      	movs	r2, #0
 8000b66:	601a      	str	r2, [r3, #0]
  for (i = 0U; i < hpcd->Init.dev_endpoints; i++)
 8000b68:	7bfb      	ldrb	r3, [r7, #15]
 8000b6a:	3301      	adds	r3, #1
 8000b6c:	73fb      	strb	r3, [r7, #15]
 8000b6e:	687b      	ldr	r3, [r7, #4]
 8000b70:	791b      	ldrb	r3, [r3, #4]
 8000b72:	7bfa      	ldrb	r2, [r7, #15]
 8000b74:	429a      	cmp	r2, r3
 8000b76:	d3b5      	bcc.n	8000ae4 <HAL_PCD_Init+0x116>
  }

  /* Init Device */
  if (USB_DevInit(hpcd->Instance, hpcd->Init) != HAL_OK)
 8000b78:	687b      	ldr	r3, [r7, #4]
 8000b7a:	6818      	ldr	r0, [r3, #0]
 8000b7c:	687b      	ldr	r3, [r7, #4]
 8000b7e:	3304      	adds	r3, #4
 8000b80:	cb0e      	ldmia	r3, {r1, r2, r3}
 8000b82:	f002 fc70 	bl	8003466 <USB_DevInit>
 8000b86:	4603      	mov	r3, r0
 8000b88:	2b00      	cmp	r3, #0
 8000b8a:	d005      	beq.n	8000b98 <HAL_PCD_Init+0x1ca>
  {
    hpcd->State = HAL_PCD_STATE_ERROR;
 8000b8c:	687b      	ldr	r3, [r7, #4]
 8000b8e:	2202      	movs	r2, #2
 8000b90:	f883 2291 	strb.w	r2, [r3, #657]	@ 0x291
    return HAL_ERROR;
 8000b94:	2301      	movs	r3, #1
 8000b96:	e00c      	b.n	8000bb2 <HAL_PCD_Init+0x1e4>
  }

  hpcd->USB_Address = 0U;
 8000b98:	687b      	ldr	r3, [r7, #4]
 8000b9a:	2200      	movs	r2, #0
 8000b9c:	735a      	strb	r2, [r3, #13]
  hpcd->State = HAL_PCD_STATE_READY;
 8000b9e:	687b      	ldr	r3, [r7, #4]
 8000ba0:	2201      	movs	r2, #1
 8000ba2:	f883 2291 	strb.w	r2, [r3, #657]	@ 0x291
  (void)USB_DevDisconnect(hpcd->Instance);
 8000ba6:	687b      	ldr	r3, [r7, #4]
 8000ba8:	681b      	ldr	r3, [r3, #0]
 8000baa:	4618      	mov	r0, r3
 8000bac:	f004 feef 	bl	800598e <USB_DevDisconnect>

  return HAL_OK;
 8000bb0:	2300      	movs	r3, #0
}
 8000bb2:	4618      	mov	r0, r3
 8000bb4:	3710      	adds	r7, #16
 8000bb6:	46bd      	mov	sp, r7
 8000bb8:	bd80      	pop	{r7, pc}

08000bba <HAL_PCD_Start>:
  * @brief  Start the USB device
  * @param  hpcd PCD handle
  * @retval HAL status
  */
HAL_StatusTypeDef HAL_PCD_Start(PCD_HandleTypeDef *hpcd)
{
 8000bba:	b580      	push	{r7, lr}
 8000bbc:	b082      	sub	sp, #8
 8000bbe:	af00      	add	r7, sp, #0
 8000bc0:	6078      	str	r0, [r7, #4]
  __HAL_LOCK(hpcd);
 8000bc2:	687b      	ldr	r3, [r7, #4]
 8000bc4:	f893 3290 	ldrb.w	r3, [r3, #656]	@ 0x290
 8000bc8:	2b01      	cmp	r3, #1
 8000bca:	d101      	bne.n	8000bd0 <HAL_PCD_Start+0x16>
 8000bcc:	2302      	movs	r3, #2
 8000bce:	e016      	b.n	8000bfe <HAL_PCD_Start+0x44>
 8000bd0:	687b      	ldr	r3, [r7, #4]
 8000bd2:	2201      	movs	r2, #1
 8000bd4:	f883 2290 	strb.w	r2, [r3, #656]	@ 0x290
  __HAL_PCD_ENABLE(hpcd);
 8000bd8:	687b      	ldr	r3, [r7, #4]
 8000bda:	681b      	ldr	r3, [r3, #0]
 8000bdc:	4618      	mov	r0, r3
 8000bde:	f002 fc06 	bl	80033ee <USB_EnableGlobalInt>

#if defined (USB)
  HAL_PCDEx_SetConnectionState(hpcd, 1U);
 8000be2:	2101      	movs	r1, #1
 8000be4:	6878      	ldr	r0, [r7, #4]
 8000be6:	f006 fd1c 	bl	8007622 <HAL_PCDEx_SetConnectionState>
#endif /* defined (USB) */

  (void)USB_DevConnect(hpcd->Instance);
 8000bea:	687b      	ldr	r3, [r7, #4]
 8000bec:	681b      	ldr	r3, [r3, #0]
 8000bee:	4618      	mov	r0, r3
 8000bf0:	f004 fec3 	bl	800597a <USB_DevConnect>
  __HAL_UNLOCK(hpcd);
 8000bf4:	687b      	ldr	r3, [r7, #4]
 8000bf6:	2200      	movs	r2, #0
 8000bf8:	f883 2290 	strb.w	r2, [r3, #656]	@ 0x290

  return HAL_OK;
 8000bfc:	2300      	movs	r3, #0
}
 8000bfe:	4618      	mov	r0, r3
 8000c00:	3708      	adds	r7, #8
 8000c02:	46bd      	mov	sp, r7
 8000c04:	bd80      	pop	{r7, pc}

08000c06 <HAL_PCD_IRQHandler>:
  * @brief  This function handles PCD interrupt request.
  * @param  hpcd PCD handle
  * @retval HAL status
  */
void HAL_PCD_IRQHandler(PCD_HandleTypeDef *hpcd)
{
 8000c06:	b580      	push	{r7, lr}
 8000c08:	b088      	sub	sp, #32
 8000c0a:	af00      	add	r7, sp, #0
 8000c0c:	6078      	str	r0, [r7, #4]
  uint32_t wIstr = USB_ReadInterrupts(hpcd->Instance);
 8000c0e:	687b      	ldr	r3, [r7, #4]
 8000c10:	681b      	ldr	r3, [r3, #0]
 8000c12:	4618      	mov	r0, r3
 8000c14:	f004 fec5 	bl	80059a2 <USB_ReadInterrupts>
 8000c18:	61b8      	str	r0, [r7, #24]
  uint16_t store_ep[8];
  uint8_t i;

  if ((wIstr & USB_ISTR_CTR) == USB_ISTR_CTR)
 8000c1a:	69bb      	ldr	r3, [r7, #24]
 8000c1c:	f403 4300 	and.w	r3, r3, #32768	@ 0x8000
 8000c20:	2b00      	cmp	r3, #0
 8000c22:	d003      	beq.n	8000c2c <HAL_PCD_IRQHandler+0x26>
  {
    /* servicing of the endpoint correct transfer interrupt */
    /* clear of the CTR flag into the sub */
    (void)PCD_EP_ISR_Handler(hpcd);
 8000c24:	6878      	ldr	r0, [r7, #4]
 8000c26:	f000 fb03 	bl	8001230 <PCD_EP_ISR_Handler>

    return;
 8000c2a:	e119      	b.n	8000e60 <HAL_PCD_IRQHandler+0x25a>
  }

  if ((wIstr & USB_ISTR_RESET) == USB_ISTR_RESET)
 8000c2c:	69bb      	ldr	r3, [r7, #24]
 8000c2e:	f403 6380 	and.w	r3, r3, #1024	@ 0x400
 8000c32:	2b00      	cmp	r3, #0
 8000c34:	d013      	beq.n	8000c5e <HAL_PCD_IRQHandler+0x58>
  {
    __HAL_PCD_CLEAR_FLAG(hpcd, USB_ISTR_RESET);
 8000c36:	687b      	ldr	r3, [r7, #4]
 8000c38:	681b      	ldr	r3, [r3, #0]
 8000c3a:	f8b3 3044 	ldrh.w	r3, [r3, #68]	@ 0x44
 8000c3e:	b29a      	uxth	r2, r3
 8000c40:	687b      	ldr	r3, [r7, #4]
 8000c42:	681b      	ldr	r3, [r3, #0]
 8000c44:	f422 6280 	bic.w	r2, r2, #1024	@ 0x400
 8000c48:	b292      	uxth	r2, r2
 8000c4a:	f8a3 2044 	strh.w	r2, [r3, #68]	@ 0x44

#if (USE_HAL_PCD_REGISTER_CALLBACKS == 1U)
    hpcd->ResetCallback(hpcd);
#else
    HAL_PCD_ResetCallback(hpcd);
 8000c4e:	6878      	ldr	r0, [r7, #4]
 8000c50:	f006 fb15 	bl	800727e <HAL_PCD_ResetCallback>
#endif /* USE_HAL_PCD_REGISTER_CALLBACKS */

    (void)HAL_PCD_SetAddress(hpcd, 0U);
 8000c54:	2100      	movs	r1, #0
 8000c56:	6878      	ldr	r0, [r7, #4]
 8000c58:	f000 f905 	bl	8000e66 <HAL_PCD_SetAddress>

    return;
 8000c5c:	e100      	b.n	8000e60 <HAL_PCD_IRQHandler+0x25a>
  }

  if ((wIstr & USB_ISTR_PMAOVR) == USB_ISTR_PMAOVR)
 8000c5e:	69bb      	ldr	r3, [r7, #24]
 8000c60:	f403 4380 	and.w	r3, r3, #16384	@ 0x4000
 8000c64:	2b00      	cmp	r3, #0
 8000c66:	d00c      	beq.n	8000c82 <HAL_PCD_IRQHandler+0x7c>
  {
    __HAL_PCD_CLEAR_FLAG(hpcd, USB_ISTR_PMAOVR);
 8000c68:	687b      	ldr	r3, [r7, #4]
 8000c6a:	681b      	ldr	r3, [r3, #0]
 8000c6c:	f8b3 3044 	ldrh.w	r3, [r3, #68]	@ 0x44
 8000c70:	b29a      	uxth	r2, r3
 8000c72:	687b      	ldr	r3, [r7, #4]
 8000c74:	681b      	ldr	r3, [r3, #0]
 8000c76:	f422 4280 	bic.w	r2, r2, #16384	@ 0x4000
 8000c7a:	b292      	uxth	r2, r2
 8000c7c:	f8a3 2044 	strh.w	r2, [r3, #68]	@ 0x44

    return;
 8000c80:	e0ee      	b.n	8000e60 <HAL_PCD_IRQHandler+0x25a>
  }

  if ((wIstr & USB_ISTR_ERR) == USB_ISTR_ERR)
 8000c82:	69bb      	ldr	r3, [r7, #24]
 8000c84:	f403 5300 	and.w	r3, r3, #8192	@ 0x2000
 8000c88:	2b00      	cmp	r3, #0
 8000c8a:	d00c      	beq.n	8000ca6 <HAL_PCD_IRQHandler+0xa0>
  {
    __HAL_PCD_CLEAR_FLAG(hpcd, USB_ISTR_ERR);
 8000c8c:	687b      	ldr	r3, [r7, #4]
 8000c8e:	681b      	ldr	r3, [r3, #0]
 8000c90:	f8b3 3044 	ldrh.w	r3, [r3, #68]	@ 0x44
 8000c94:	b29a      	uxth	r2, r3
 8000c96:	687b      	ldr	r3, [r7, #4]
 8000c98:	681b      	ldr	r3, [r3, #0]
 8000c9a:	f422 5200 	bic.w	r2, r2, #8192	@ 0x2000
 8000c9e:	b292      	uxth	r2, r2
 8000ca0:	f8a3 2044 	strh.w	r2, [r3, #68]	@ 0x44

    return;
 8000ca4:	e0dc      	b.n	8000e60 <HAL_PCD_IRQHandler+0x25a>
  }

  if ((wIstr & USB_ISTR_WKUP) == USB_ISTR_WKUP)
 8000ca6:	69bb      	ldr	r3, [r7, #24]
 8000ca8:	f403 5380 	and.w	r3, r3, #4096	@ 0x1000
 8000cac:	2b00      	cmp	r3, #0
 8000cae:	d027      	beq.n	8000d00 <HAL_PCD_IRQHandler+0xfa>
  {
    hpcd->Instance->CNTR &= (uint16_t) ~(USB_CNTR_LP_MODE);
 8000cb0:	687b      	ldr	r3, [r7, #4]
 8000cb2:	681b      	ldr	r3, [r3, #0]
 8000cb4:	f8b3 3040 	ldrh.w	r3, [r3, #64]	@ 0x40
 8000cb8:	b29a      	uxth	r2, r3
 8000cba:	687b      	ldr	r3, [r7, #4]
 8000cbc:	681b      	ldr	r3, [r3, #0]
 8000cbe:	f022 0204 	bic.w	r2, r2, #4
 8000cc2:	b292      	uxth	r2, r2
 8000cc4:	f8a3 2040 	strh.w	r2, [r3, #64]	@ 0x40
    hpcd->Instance->CNTR &= (uint16_t) ~(USB_CNTR_FSUSP);
 8000cc8:	687b      	ldr	r3, [r7, #4]
 8000cca:	681b      	ldr	r3, [r3, #0]
 8000ccc:	f8b3 3040 	ldrh.w	r3, [r3, #64]	@ 0x40
 8000cd0:	b29a      	uxth	r2, r3
 8000cd2:	687b      	ldr	r3, [r7, #4]
 8000cd4:	681b      	ldr	r3, [r3, #0]
 8000cd6:	f022 0208 	bic.w	r2, r2, #8
 8000cda:	b292      	uxth	r2, r2
 8000cdc:	f8a3 2040 	strh.w	r2, [r3, #64]	@ 0x40

#if (USE_HAL_PCD_REGISTER_CALLBACKS == 1U)
    hpcd->ResumeCallback(hpcd);
#else
    HAL_PCD_ResumeCallback(hpcd);
 8000ce0:	6878      	ldr	r0, [r7, #4]
 8000ce2:	f006 fb05 	bl	80072f0 <HAL_PCD_ResumeCallback>
#endif /* USE_HAL_PCD_REGISTER_CALLBACKS */

    __HAL_PCD_CLEAR_FLAG(hpcd, USB_ISTR_WKUP);
 8000ce6:	687b      	ldr	r3, [r7, #4]
 8000ce8:	681b      	ldr	r3, [r3, #0]
 8000cea:	f8b3 3044 	ldrh.w	r3, [r3, #68]	@ 0x44
 8000cee:	b29a      	uxth	r2, r3
 8000cf0:	687b      	ldr	r3, [r7, #4]
 8000cf2:	681b      	ldr	r3, [r3, #0]
 8000cf4:	f422 5280 	bic.w	r2, r2, #4096	@ 0x1000
 8000cf8:	b292      	uxth	r2, r2
 8000cfa:	f8a3 2044 	strh.w	r2, [r3, #68]	@ 0x44

    return;
 8000cfe:	e0af      	b.n	8000e60 <HAL_PCD_IRQHandler+0x25a>
  }

  if ((wIstr & USB_ISTR_SUSP) == USB_ISTR_SUSP)
 8000d00:	69bb      	ldr	r3, [r7, #24]
 8000d02:	f403 6300 	and.w	r3, r3, #2048	@ 0x800
 8000d06:	2b00      	cmp	r3, #0
 8000d08:	f000 8083 	beq.w	8000e12 <HAL_PCD_IRQHandler+0x20c>
  {
    /* WA: To Clear Wakeup flag if raised with suspend signal */

    /* Store Endpoint registers */
    for (i = 0U; i < 8U; i++)
 8000d0c:	2300      	movs	r3, #0
 8000d0e:	77fb      	strb	r3, [r7, #31]
 8000d10:	e010      	b.n	8000d34 <HAL_PCD_IRQHandler+0x12e>
    {
      store_ep[i] = PCD_GET_ENDPOINT(hpcd->Instance, i);
 8000d12:	687b      	ldr	r3, [r7, #4]
 8000d14:	681b      	ldr	r3, [r3, #0]
 8000d16:	461a      	mov	r2, r3
 8000d18:	7ffb      	ldrb	r3, [r7, #31]
 8000d1a:	009b      	lsls	r3, r3, #2
 8000d1c:	441a      	add	r2, r3
 8000d1e:	7ffb      	ldrb	r3, [r7, #31]
 8000d20:	8812      	ldrh	r2, [r2, #0]
 8000d22:	b292      	uxth	r2, r2
 8000d24:	005b      	lsls	r3, r3, #1
 8000d26:	3320      	adds	r3, #32
 8000d28:	443b      	add	r3, r7
 8000d2a:	f823 2c18 	strh.w	r2, [r3, #-24]
    for (i = 0U; i < 8U; i++)
 8000d2e:	7ffb      	ldrb	r3, [r7, #31]
 8000d30:	3301      	adds	r3, #1
 8000d32:	77fb      	strb	r3, [r7, #31]
 8000d34:	7ffb      	ldrb	r3, [r7, #31]
 8000d36:	2b07      	cmp	r3, #7
 8000d38:	d9eb      	bls.n	8000d12 <HAL_PCD_IRQHandler+0x10c>
    }

    /* FORCE RESET */
    hpcd->Instance->CNTR |= (uint16_t)(USB_CNTR_FRES);
 8000d3a:	687b      	ldr	r3, [r7, #4]
 8000d3c:	681b      	ldr	r3, [r3, #0]
 8000d3e:	f8b3 3040 	ldrh.w	r3, [r3, #64]	@ 0x40
 8000d42:	b29a      	uxth	r2, r3
 8000d44:	687b      	ldr	r3, [r7, #4]
 8000d46:	681b      	ldr	r3, [r3, #0]
 8000d48:	f042 0201 	orr.w	r2, r2, #1
 8000d4c:	b292      	uxth	r2, r2
 8000d4e:	f8a3 2040 	strh.w	r2, [r3, #64]	@ 0x40

    /* CLEAR RESET */
    hpcd->Instance->CNTR &= (uint16_t)(~USB_CNTR_FRES);
 8000d52:	687b      	ldr	r3, [r7, #4]
 8000d54:	681b      	ldr	r3, [r3, #0]
 8000d56:	f8b3 3040 	ldrh.w	r3, [r3, #64]	@ 0x40
 8000d5a:	b29a      	uxth	r2, r3
 8000d5c:	687b      	ldr	r3, [r7, #4]
 8000d5e:	681b      	ldr	r3, [r3, #0]
 8000d60:	f022 0201 	bic.w	r2, r2, #1
 8000d64:	b292      	uxth	r2, r2
 8000d66:	f8a3 2040 	strh.w	r2, [r3, #64]	@ 0x40

    /* wait for reset flag in ISTR */
    while ((hpcd->Instance->ISTR & USB_ISTR_RESET) == 0U)
 8000d6a:	bf00      	nop
 8000d6c:	687b      	ldr	r3, [r7, #4]
 8000d6e:	681b      	ldr	r3, [r3, #0]
 8000d70:	f8b3 3044 	ldrh.w	r3, [r3, #68]	@ 0x44
 8000d74:	b29b      	uxth	r3, r3
 8000d76:	f403 6380 	and.w	r3, r3, #1024	@ 0x400
 8000d7a:	2b00      	cmp	r3, #0
 8000d7c:	d0f6      	beq.n	8000d6c <HAL_PCD_IRQHandler+0x166>
    {
    }

    /* Clear Reset Flag */
    __HAL_PCD_CLEAR_FLAG(hpcd, USB_ISTR_RESET);
 8000d7e:	687b      	ldr	r3, [r7, #4]
 8000d80:	681b      	ldr	r3, [r3, #0]
 8000d82:	f8b3 3044 	ldrh.w	r3, [r3, #68]	@ 0x44
 8000d86:	b29a      	uxth	r2, r3
 8000d88:	687b      	ldr	r3, [r7, #4]
 8000d8a:	681b      	ldr	r3, [r3, #0]
 8000d8c:	f422 6280 	bic.w	r2, r2, #1024	@ 0x400
 8000d90:	b292      	uxth	r2, r2
 8000d92:	f8a3 2044 	strh.w	r2, [r3, #68]	@ 0x44

    /* Restore Registre */
    for (i = 0U; i < 8U; i++)
 8000d96:	2300      	movs	r3, #0
 8000d98:	77fb      	strb	r3, [r7, #31]
 8000d9a:	e00f      	b.n	8000dbc <HAL_PCD_IRQHandler+0x1b6>
    {
      PCD_SET_ENDPOINT(hpcd->Instance, i, store_ep[i]);
 8000d9c:	7ffb      	ldrb	r3, [r7, #31]
 8000d9e:	687a      	ldr	r2, [r7, #4]
 8000da0:	6812      	ldr	r2, [r2, #0]
 8000da2:	4611      	mov	r1, r2
 8000da4:	7ffa      	ldrb	r2, [r7, #31]
 8000da6:	0092      	lsls	r2, r2, #2
 8000da8:	440a      	add	r2, r1
 8000daa:	005b      	lsls	r3, r3, #1
 8000dac:	3320      	adds	r3, #32
 8000dae:	443b      	add	r3, r7
 8000db0:	f833 3c18 	ldrh.w	r3, [r3, #-24]
 8000db4:	8013      	strh	r3, [r2, #0]
    for (i = 0U; i < 8U; i++)
 8000db6:	7ffb      	ldrb	r3, [r7, #31]
 8000db8:	3301      	adds	r3, #1
 8000dba:	77fb      	strb	r3, [r7, #31]
 8000dbc:	7ffb      	ldrb	r3, [r7, #31]
 8000dbe:	2b07      	cmp	r3, #7
 8000dc0:	d9ec      	bls.n	8000d9c <HAL_PCD_IRQHandler+0x196>
    }

    /* Force low-power mode in the macrocell */
    hpcd->Instance->CNTR |= (uint16_t)USB_CNTR_FSUSP;
 8000dc2:	687b      	ldr	r3, [r7, #4]
 8000dc4:	681b      	ldr	r3, [r3, #0]
 8000dc6:	f8b3 3040 	ldrh.w	r3, [r3, #64]	@ 0x40
 8000dca:	b29a      	uxth	r2, r3
 8000dcc:	687b      	ldr	r3, [r7, #4]
 8000dce:	681b      	ldr	r3, [r3, #0]
 8000dd0:	f042 0208 	orr.w	r2, r2, #8
 8000dd4:	b292      	uxth	r2, r2
 8000dd6:	f8a3 2040 	strh.w	r2, [r3, #64]	@ 0x40

    /* clear of the ISTR bit must be done after setting of CNTR_FSUSP */
    __HAL_PCD_CLEAR_FLAG(hpcd, USB_ISTR_SUSP);
 8000dda:	687b      	ldr	r3, [r7, #4]
 8000ddc:	681b      	ldr	r3, [r3, #0]
 8000dde:	f8b3 3044 	ldrh.w	r3, [r3, #68]	@ 0x44
 8000de2:	b29a      	uxth	r2, r3
 8000de4:	687b      	ldr	r3, [r7, #4]
 8000de6:	681b      	ldr	r3, [r3, #0]
 8000de8:	f422 6200 	bic.w	r2, r2, #2048	@ 0x800
 8000dec:	b292      	uxth	r2, r2
 8000dee:	f8a3 2044 	strh.w	r2, [r3, #68]	@ 0x44

    hpcd->Instance->CNTR |= (uint16_t)USB_CNTR_LP_MODE;
 8000df2:	687b      	ldr	r3, [r7, #4]
 8000df4:	681b      	ldr	r3, [r3, #0]
 8000df6:	f8b3 3040 	ldrh.w	r3, [r3, #64]	@ 0x40
 8000dfa:	b29a      	uxth	r2, r3
 8000dfc:	687b      	ldr	r3, [r7, #4]
 8000dfe:	681b      	ldr	r3, [r3, #0]
 8000e00:	f042 0204 	orr.w	r2, r2, #4
 8000e04:	b292      	uxth	r2, r2
 8000e06:	f8a3 2040 	strh.w	r2, [r3, #64]	@ 0x40

#if (USE_HAL_PCD_REGISTER_CALLBACKS == 1U)
    hpcd->SuspendCallback(hpcd);
#else
    HAL_PCD_SuspendCallback(hpcd);
 8000e0a:	6878      	ldr	r0, [r7, #4]
 8000e0c:	f006 fa56 	bl	80072bc <HAL_PCD_SuspendCallback>
#endif /* USE_HAL_PCD_REGISTER_CALLBACKS */

    return;
 8000e10:	e026      	b.n	8000e60 <HAL_PCD_IRQHandler+0x25a>
  }

  if ((wIstr & USB_ISTR_SOF) == USB_ISTR_SOF)
 8000e12:	69bb      	ldr	r3, [r7, #24]
 8000e14:	f403 7300 	and.w	r3, r3, #512	@ 0x200
 8000e18:	2b00      	cmp	r3, #0
 8000e1a:	d00f      	beq.n	8000e3c <HAL_PCD_IRQHandler+0x236>
  {
    __HAL_PCD_CLEAR_FLAG(hpcd, USB_ISTR_SOF);
 8000e1c:	687b      	ldr	r3, [r7, #4]
 8000e1e:	681b      	ldr	r3, [r3, #0]
 8000e20:	f8b3 3044 	ldrh.w	r3, [r3, #68]	@ 0x44
 8000e24:	b29a      	uxth	r2, r3
 8000e26:	687b      	ldr	r3, [r7, #4]
 8000e28:	681b      	ldr	r3, [r3, #0]
 8000e2a:	f422 7200 	bic.w	r2, r2, #512	@ 0x200
 8000e2e:	b292      	uxth	r2, r2
 8000e30:	f8a3 2044 	strh.w	r2, [r3, #68]	@ 0x44

#if (USE_HAL_PCD_REGISTER_CALLBACKS == 1U)
    hpcd->SOFCallback(hpcd);
#else
    HAL_PCD_SOFCallback(hpcd);
 8000e34:	6878      	ldr	r0, [r7, #4]
 8000e36:	f006 fa14 	bl	8007262 <HAL_PCD_SOFCallback>
#endif /* USE_HAL_PCD_REGISTER_CALLBACKS */

    return;
 8000e3a:	e011      	b.n	8000e60 <HAL_PCD_IRQHandler+0x25a>
  }

  if ((wIstr & USB_ISTR_ESOF) == USB_ISTR_ESOF)
 8000e3c:	69bb      	ldr	r3, [r7, #24]
 8000e3e:	f403 7380 	and.w	r3, r3, #256	@ 0x100
 8000e42:	2b00      	cmp	r3, #0
 8000e44:	d00c      	beq.n	8000e60 <HAL_PCD_IRQHandler+0x25a>
  {
    /* clear ESOF flag in ISTR */
    __HAL_PCD_CLEAR_FLAG(hpcd, USB_ISTR_ESOF);
 8000e46:	687b      	ldr	r3, [r7, #4]
 8000e48:	681b      	ldr	r3, [r3, #0]
 8000e4a:	f8b3 3044 	ldrh.w	r3, [r3, #68]	@ 0x44
 8000e4e:	b29a      	uxth	r2, r3
 8000e50:	687b      	ldr	r3, [r7, #4]
 8000e52:	681b      	ldr	r3, [r3, #0]
 8000e54:	f422 7280 	bic.w	r2, r2, #256	@ 0x100
 8000e58:	b292      	uxth	r2, r2
 8000e5a:	f8a3 2044 	strh.w	r2, [r3, #68]	@ 0x44

    return;
 8000e5e:	bf00      	nop
  }
}
 8000e60:	3720      	adds	r7, #32
 8000e62:	46bd      	mov	sp, r7
 8000e64:	bd80      	pop	{r7, pc}

08000e66 <HAL_PCD_SetAddress>:
  * @param  hpcd PCD handle
  * @param  address new device address
  * @retval HAL status
  */
HAL_StatusTypeDef HAL_PCD_SetAddress(PCD_HandleTypeDef *hpcd, uint8_t address)
{
 8000e66:	b580      	push	{r7, lr}
 8000e68:	b082      	sub	sp, #8
 8000e6a:	af00      	add	r7, sp, #0
 8000e6c:	6078      	str	r0, [r7, #4]
 8000e6e:	460b      	mov	r3, r1
 8000e70:	70fb      	strb	r3, [r7, #3]
  __HAL_LOCK(hpcd);
 8000e72:	687b      	ldr	r3, [r7, #4]
 8000e74:	f893 3290 	ldrb.w	r3, [r3, #656]	@ 0x290
 8000e78:	2b01      	cmp	r3, #1
 8000e7a:	d101      	bne.n	8000e80 <HAL_PCD_SetAddress+0x1a>
 8000e7c:	2302      	movs	r3, #2
 8000e7e:	e012      	b.n	8000ea6 <HAL_PCD_SetAddress+0x40>
 8000e80:	687b      	ldr	r3, [r7, #4]
 8000e82:	2201      	movs	r2, #1
 8000e84:	f883 2290 	strb.w	r2, [r3, #656]	@ 0x290
  hpcd->USB_Address = address;
 8000e88:	687b      	ldr	r3, [r7, #4]
 8000e8a:	78fa      	ldrb	r2, [r7, #3]
 8000e8c:	735a      	strb	r2, [r3, #13]
  (void)USB_SetDevAddress(hpcd->Instance, address);
 8000e8e:	687b      	ldr	r3, [r7, #4]
 8000e90:	681b      	ldr	r3, [r3, #0]
 8000e92:	78fa      	ldrb	r2, [r7, #3]
 8000e94:	4611      	mov	r1, r2
 8000e96:	4618      	mov	r0, r3
 8000e98:	f004 fd5c 	bl	8005954 <USB_SetDevAddress>
  __HAL_UNLOCK(hpcd);
 8000e9c:	687b      	ldr	r3, [r7, #4]
 8000e9e:	2200      	movs	r2, #0
 8000ea0:	f883 2290 	strb.w	r2, [r3, #656]	@ 0x290

  return HAL_OK;
 8000ea4:	2300      	movs	r3, #0
}
 8000ea6:	4618      	mov	r0, r3
 8000ea8:	3708      	adds	r7, #8
 8000eaa:	46bd      	mov	sp, r7
 8000eac:	bd80      	pop	{r7, pc}

08000eae <HAL_PCD_EP_Open>:
  * @param  ep_type endpoint type
  * @retval HAL status
  */
HAL_StatusTypeDef HAL_PCD_EP_Open(PCD_HandleTypeDef *hpcd, uint8_t ep_addr,
                                  uint16_t ep_mps, uint8_t ep_type)
{
 8000eae:	b580      	push	{r7, lr}
 8000eb0:	b084      	sub	sp, #16
 8000eb2:	af00      	add	r7, sp, #0
 8000eb4:	6078      	str	r0, [r7, #4]
 8000eb6:	4608      	mov	r0, r1
 8000eb8:	4611      	mov	r1, r2
 8000eba:	461a      	mov	r2, r3
 8000ebc:	4603      	mov	r3, r0
 8000ebe:	70fb      	strb	r3, [r7, #3]
 8000ec0:	460b      	mov	r3, r1
 8000ec2:	803b      	strh	r3, [r7, #0]
 8000ec4:	4613      	mov	r3, r2
 8000ec6:	70bb      	strb	r3, [r7, #2]
  HAL_StatusTypeDef  ret = HAL_OK;
 8000ec8:	2300      	movs	r3, #0
 8000eca:	72fb      	strb	r3, [r7, #11]
  PCD_EPTypeDef *ep;

  if ((ep_addr & 0x80U) == 0x80U)
 8000ecc:	f997 3003 	ldrsb.w	r3, [r7, #3]
 8000ed0:	2b00      	cmp	r3, #0
 8000ed2:	da0e      	bge.n	8000ef2 <HAL_PCD_EP_Open+0x44>
  {
    ep = &hpcd->IN_ep[ep_addr & EP_ADDR_MSK];
 8000ed4:	78fb      	ldrb	r3, [r7, #3]
 8000ed6:	f003 0207 	and.w	r2, r3, #7
 8000eda:	4613      	mov	r3, r2
 8000edc:	009b      	lsls	r3, r3, #2
 8000ede:	4413      	add	r3, r2
 8000ee0:	00db      	lsls	r3, r3, #3
 8000ee2:	3310      	adds	r3, #16
 8000ee4:	687a      	ldr	r2, [r7, #4]
 8000ee6:	4413      	add	r3, r2
 8000ee8:	60fb      	str	r3, [r7, #12]
    ep->is_in = 1U;
 8000eea:	68fb      	ldr	r3, [r7, #12]
 8000eec:	2201      	movs	r2, #1
 8000eee:	705a      	strb	r2, [r3, #1]
 8000ef0:	e00e      	b.n	8000f10 <HAL_PCD_EP_Open+0x62>
  }
  else
  {
    ep = &hpcd->OUT_ep[ep_addr & EP_ADDR_MSK];
 8000ef2:	78fb      	ldrb	r3, [r7, #3]
 8000ef4:	f003 0207 	and.w	r2, r3, #7
 8000ef8:	4613      	mov	r3, r2
 8000efa:	009b      	lsls	r3, r3, #2
 8000efc:	4413      	add	r3, r2
 8000efe:	00db      	lsls	r3, r3, #3
 8000f00:	f503 73a8 	add.w	r3, r3, #336	@ 0x150
 8000f04:	687a      	ldr	r2, [r7, #4]
 8000f06:	4413      	add	r3, r2
 8000f08:	60fb      	str	r3, [r7, #12]
    ep->is_in = 0U;
 8000f0a:	68fb      	ldr	r3, [r7, #12]
 8000f0c:	2200      	movs	r2, #0
 8000f0e:	705a      	strb	r2, [r3, #1]
  }

  ep->num = ep_addr & EP_ADDR_MSK;
 8000f10:	78fb      	ldrb	r3, [r7, #3]
 8000f12:	f003 0307 	and.w	r3, r3, #7
 8000f16:	b2da      	uxtb	r2, r3
 8000f18:	68fb      	ldr	r3, [r7, #12]
 8000f1a:	701a      	strb	r2, [r3, #0]
  ep->maxpacket = ep_mps;
 8000f1c:	883a      	ldrh	r2, [r7, #0]
 8000f1e:	68fb      	ldr	r3, [r7, #12]
 8000f20:	611a      	str	r2, [r3, #16]
  ep->type = ep_type;
 8000f22:	68fb      	ldr	r3, [r7, #12]
 8000f24:	78ba      	ldrb	r2, [r7, #2]
 8000f26:	70da      	strb	r2, [r3, #3]
    ep->tx_fifo_num = ep->num;
  }
#endif /* defined (USB_OTG_FS) */

  /* Set initial data PID. */
  if (ep_type == EP_TYPE_BULK)
 8000f28:	78bb      	ldrb	r3, [r7, #2]
 8000f2a:	2b02      	cmp	r3, #2
 8000f2c:	d102      	bne.n	8000f34 <HAL_PCD_EP_Open+0x86>
  {
    ep->data_pid_start = 0U;
 8000f2e:	68fb      	ldr	r3, [r7, #12]
 8000f30:	2200      	movs	r2, #0
 8000f32:	711a      	strb	r2, [r3, #4]
  }

  __HAL_LOCK(hpcd);
 8000f34:	687b      	ldr	r3, [r7, #4]
 8000f36:	f893 3290 	ldrb.w	r3, [r3, #656]	@ 0x290
 8000f3a:	2b01      	cmp	r3, #1
 8000f3c:	d101      	bne.n	8000f42 <HAL_PCD_EP_Open+0x94>
 8000f3e:	2302      	movs	r3, #2
 8000f40:	e00e      	b.n	8000f60 <HAL_PCD_EP_Open+0xb2>
 8000f42:	687b      	ldr	r3, [r7, #4]
 8000f44:	2201      	movs	r2, #1
 8000f46:	f883 2290 	strb.w	r2, [r3, #656]	@ 0x290
  (void)USB_ActivateEndpoint(hpcd->Instance, ep);
 8000f4a:	687b      	ldr	r3, [r7, #4]
 8000f4c:	681b      	ldr	r3, [r3, #0]
 8000f4e:	68f9      	ldr	r1, [r7, #12]
 8000f50:	4618      	mov	r0, r3
 8000f52:	f002 faa5 	bl	80034a0 <USB_ActivateEndpoint>
  __HAL_UNLOCK(hpcd);
 8000f56:	687b      	ldr	r3, [r7, #4]
 8000f58:	2200      	movs	r2, #0
 8000f5a:	f883 2290 	strb.w	r2, [r3, #656]	@ 0x290

  return ret;
 8000f5e:	7afb      	ldrb	r3, [r7, #11]
}
 8000f60:	4618      	mov	r0, r3
 8000f62:	3710      	adds	r7, #16
 8000f64:	46bd      	mov	sp, r7
 8000f66:	bd80      	pop	{r7, pc}

08000f68 <HAL_PCD_EP_Close>:
  * @param  hpcd PCD handle
  * @param  ep_addr endpoint address
  * @retval HAL status
  */
HAL_StatusTypeDef HAL_PCD_EP_Close(PCD_HandleTypeDef *hpcd, uint8_t ep_addr)
{
 8000f68:	b580      	push	{r7, lr}
 8000f6a:	b084      	sub	sp, #16
 8000f6c:	af00      	add	r7, sp, #0
 8000f6e:	6078      	str	r0, [r7, #4]
 8000f70:	460b      	mov	r3, r1
 8000f72:	70fb      	strb	r3, [r7, #3]
  PCD_EPTypeDef *ep;

  if ((ep_addr & 0x80U) == 0x80U)
 8000f74:	f997 3003 	ldrsb.w	r3, [r7, #3]
 8000f78:	2b00      	cmp	r3, #0
 8000f7a:	da0e      	bge.n	8000f9a <HAL_PCD_EP_Close+0x32>
  {
    ep = &hpcd->IN_ep[ep_addr & EP_ADDR_MSK];
 8000f7c:	78fb      	ldrb	r3, [r7, #3]
 8000f7e:	f003 0207 	and.w	r2, r3, #7
 8000f82:	4613      	mov	r3, r2
 8000f84:	009b      	lsls	r3, r3, #2
 8000f86:	4413      	add	r3, r2
 8000f88:	00db      	lsls	r3, r3, #3
 8000f8a:	3310      	adds	r3, #16
 8000f8c:	687a      	ldr	r2, [r7, #4]
 8000f8e:	4413      	add	r3, r2
 8000f90:	60fb      	str	r3, [r7, #12]
    ep->is_in = 1U;
 8000f92:	68fb      	ldr	r3, [r7, #12]
 8000f94:	2201      	movs	r2, #1
 8000f96:	705a      	strb	r2, [r3, #1]
 8000f98:	e00e      	b.n	8000fb8 <HAL_PCD_EP_Close+0x50>
  }
  else
  {
    ep = &hpcd->OUT_ep[ep_addr & EP_ADDR_MSK];
 8000f9a:	78fb      	ldrb	r3, [r7, #3]
 8000f9c:	f003 0207 	and.w	r2, r3, #7
 8000fa0:	4613      	mov	r3, r2
 8000fa2:	009b      	lsls	r3, r3, #2
 8000fa4:	4413      	add	r3, r2
 8000fa6:	00db      	lsls	r3, r3, #3
 8000fa8:	f503 73a8 	add.w	r3, r3, #336	@ 0x150
 8000fac:	687a      	ldr	r2, [r7, #4]
 8000fae:	4413      	add	r3, r2
 8000fb0:	60fb      	str	r3, [r7, #12]
    ep->is_in = 0U;
 8000fb2:	68fb      	ldr	r3, [r7, #12]
 8000fb4:	2200      	movs	r2, #0
 8000fb6:	705a      	strb	r2, [r3, #1]
  }
  ep->num = ep_addr & EP_ADDR_MSK;
 8000fb8:	78fb      	ldrb	r3, [r7, #3]
 8000fba:	f003 0307 	and.w	r3, r3, #7
 8000fbe:	b2da      	uxtb	r2, r3
 8000fc0:	68fb      	ldr	r3, [r7, #12]
 8000fc2:	701a      	strb	r2, [r3, #0]

  __HAL_LOCK(hpcd);
 8000fc4:	687b      	ldr	r3, [r7, #4]
 8000fc6:	f893 3290 	ldrb.w	r3, [r3, #656]	@ 0x290
 8000fca:	2b01      	cmp	r3, #1
 8000fcc:	d101      	bne.n	8000fd2 <HAL_PCD_EP_Close+0x6a>
 8000fce:	2302      	movs	r3, #2
 8000fd0:	e00e      	b.n	8000ff0 <HAL_PCD_EP_Close+0x88>
 8000fd2:	687b      	ldr	r3, [r7, #4]
 8000fd4:	2201      	movs	r2, #1
 8000fd6:	f883 2290 	strb.w	r2, [r3, #656]	@ 0x290
  (void)USB_DeactivateEndpoint(hpcd->Instance, ep);
 8000fda:	687b      	ldr	r3, [r7, #4]
 8000fdc:	681b      	ldr	r3, [r3, #0]
 8000fde:	68f9      	ldr	r1, [r7, #12]
 8000fe0:	4618      	mov	r0, r3
 8000fe2:	f002 fe1d 	bl	8003c20 <USB_DeactivateEndpoint>
  __HAL_UNLOCK(hpcd);
 8000fe6:	687b      	ldr	r3, [r7, #4]
 8000fe8:	2200      	movs	r2, #0
 8000fea:	f883 2290 	strb.w	r2, [r3, #656]	@ 0x290
  return HAL_OK;
 8000fee:	2300      	movs	r3, #0
}
 8000ff0:	4618      	mov	r0, r3
 8000ff2:	3710      	adds	r7, #16
 8000ff4:	46bd      	mov	sp, r7
 8000ff6:	bd80      	pop	{r7, pc}

08000ff8 <HAL_PCD_EP_Receive>:
  * @param  pBuf pointer to the reception buffer
  * @param  len amount of data to be received
  * @retval HAL status
  */
HAL_StatusTypeDef HAL_PCD_EP_Receive(PCD_HandleTypeDef *hpcd, uint8_t ep_addr, uint8_t *pBuf, uint32_t len)
{
 8000ff8:	b580      	push	{r7, lr}
 8000ffa:	b086      	sub	sp, #24
 8000ffc:	af00      	add	r7, sp, #0
 8000ffe:	60f8      	str	r0, [r7, #12]
 8001000:	607a      	str	r2, [r7, #4]
 8001002:	603b      	str	r3, [r7, #0]
 8001004:	460b      	mov	r3, r1
 8001006:	72fb      	strb	r3, [r7, #11]
  PCD_EPTypeDef *ep;

  ep = &hpcd->OUT_ep[ep_addr & EP_ADDR_MSK];
 8001008:	7afb      	ldrb	r3, [r7, #11]
 800100a:	f003 0207 	and.w	r2, r3, #7
 800100e:	4613      	mov	r3, r2
 8001010:	009b      	lsls	r3, r3, #2
 8001012:	4413      	add	r3, r2
 8001014:	00db      	lsls	r3, r3, #3
 8001016:	f503 73a8 	add.w	r3, r3, #336	@ 0x150
 800101a:	68fa      	ldr	r2, [r7, #12]
 800101c:	4413      	add	r3, r2
 800101e:	617b      	str	r3, [r7, #20]

  /*setup and start the Xfer */
  ep->xfer_buff = pBuf;
 8001020:	697b      	ldr	r3, [r7, #20]
 8001022:	687a      	ldr	r2, [r7, #4]
 8001024:	615a      	str	r2, [r3, #20]
  ep->xfer_len = len;
 8001026:	697b      	ldr	r3, [r7, #20]
 8001028:	683a      	ldr	r2, [r7, #0]
 800102a:	619a      	str	r2, [r3, #24]
  ep->xfer_count = 0U;
 800102c:	697b      	ldr	r3, [r7, #20]
 800102e:	2200      	movs	r2, #0
 8001030:	61da      	str	r2, [r3, #28]
  ep->is_in = 0U;
 8001032:	697b      	ldr	r3, [r7, #20]
 8001034:	2200      	movs	r2, #0
 8001036:	705a      	strb	r2, [r3, #1]
  ep->num = ep_addr & EP_ADDR_MSK;
 8001038:	7afb      	ldrb	r3, [r7, #11]
 800103a:	f003 0307 	and.w	r3, r3, #7
 800103e:	b2da      	uxtb	r2, r3
 8001040:	697b      	ldr	r3, [r7, #20]
 8001042:	701a      	strb	r2, [r3, #0]

  (void)USB_EPStartXfer(hpcd->Instance, ep);
 8001044:	68fb      	ldr	r3, [r7, #12]
 8001046:	681b      	ldr	r3, [r3, #0]
 8001048:	6979      	ldr	r1, [r7, #20]
 800104a:	4618      	mov	r0, r3
 800104c:	f002 ffd4 	bl	8003ff8 <USB_EPStartXfer>

  return HAL_OK;
 8001050:	2300      	movs	r3, #0
}
 8001052:	4618      	mov	r0, r3
 8001054:	3718      	adds	r7, #24
 8001056:	46bd      	mov	sp, r7
 8001058:	bd80      	pop	{r7, pc}

0800105a <HAL_PCD_EP_Transmit>:
  * @param  pBuf pointer to the transmission buffer
  * @param  len amount of data to be sent
  * @retval HAL status
  */
HAL_StatusTypeDef HAL_PCD_EP_Transmit(PCD_HandleTypeDef *hpcd, uint8_t ep_addr, uint8_t *pBuf, uint32_t len)
{
 800105a:	b580      	push	{r7, lr}
 800105c:	b086      	sub	sp, #24
 800105e:	af00      	add	r7, sp, #0
 8001060:	60f8      	str	r0, [r7, #12]
 8001062:	607a      	str	r2, [r7, #4]
 8001064:	603b      	str	r3, [r7, #0]
 8001066:	460b      	mov	r3, r1
 8001068:	72fb      	strb	r3, [r7, #11]
  PCD_EPTypeDef *ep;

  ep = &hpcd->IN_ep[ep_addr & EP_ADDR_MSK];
 800106a:	7afb      	ldrb	r3, [r7, #11]
 800106c:	f003 0207 	and.w	r2, r3, #7
 8001070:	4613      	mov	r3, r2
 8001072:	009b      	lsls	r3, r3, #2
 8001074:	4413      	add	r3, r2
 8001076:	00db      	lsls	r3, r3, #3
 8001078:	3310      	adds	r3, #16
 800107a:	68fa      	ldr	r2, [r7, #12]
 800107c:	4413      	add	r3, r2
 800107e:	617b      	str	r3, [r7, #20]

  /*setup and start the Xfer */
  ep->xfer_buff = pBuf;
 8001080:	697b      	ldr	r3, [r7, #20]
 8001082:	687a      	ldr	r2, [r7, #4]
 8001084:	615a      	str	r2, [r3, #20]
  ep->xfer_len = len;
 8001086:	697b      	ldr	r3, [r7, #20]
 8001088:	683a      	ldr	r2, [r7, #0]
 800108a:	619a      	str	r2, [r3, #24]
#if defined (USB)
  ep->xfer_fill_db = 1U;
 800108c:	697b      	ldr	r3, [r7, #20]
 800108e:	2201      	movs	r2, #1
 8001090:	f883 2024 	strb.w	r2, [r3, #36]	@ 0x24
  ep->xfer_len_db = len;
 8001094:	697b      	ldr	r3, [r7, #20]
 8001096:	683a      	ldr	r2, [r7, #0]
 8001098:	621a      	str	r2, [r3, #32]
#endif /* defined (USB) */
  ep->xfer_count = 0U;
 800109a:	697b      	ldr	r3, [r7, #20]
 800109c:	2200      	movs	r2, #0
 800109e:	61da      	str	r2, [r3, #28]
  ep->is_in = 1U;
 80010a0:	697b      	ldr	r3, [r7, #20]
 80010a2:	2201      	movs	r2, #1
 80010a4:	705a      	strb	r2, [r3, #1]
  ep->num = ep_addr & EP_ADDR_MSK;
 80010a6:	7afb      	ldrb	r3, [r7, #11]
 80010a8:	f003 0307 	and.w	r3, r3, #7
 80010ac:	b2da      	uxtb	r2, r3
 80010ae:	697b      	ldr	r3, [r7, #20]
 80010b0:	701a      	strb	r2, [r3, #0]

  (void)USB_EPStartXfer(hpcd->Instance, ep);
 80010b2:	68fb      	ldr	r3, [r7, #12]
 80010b4:	681b      	ldr	r3, [r3, #0]
 80010b6:	6979      	ldr	r1, [r7, #20]
 80010b8:	4618      	mov	r0, r3
 80010ba:	f002 ff9d 	bl	8003ff8 <USB_EPStartXfer>

  return HAL_OK;
 80010be:	2300      	movs	r3, #0
}
 80010c0:	4618      	mov	r0, r3
 80010c2:	3718      	adds	r7, #24
 80010c4:	46bd      	mov	sp, r7
 80010c6:	bd80      	pop	{r7, pc}

080010c8 <HAL_PCD_EP_SetStall>:
  * @param  hpcd PCD handle
  * @param  ep_addr endpoint address
  * @retval HAL status
  */
HAL_StatusTypeDef HAL_PCD_EP_SetStall(PCD_HandleTypeDef *hpcd, uint8_t ep_addr)
{
 80010c8:	b580      	push	{r7, lr}
 80010ca:	b084      	sub	sp, #16
 80010cc:	af00      	add	r7, sp, #0
 80010ce:	6078      	str	r0, [r7, #4]
 80010d0:	460b      	mov	r3, r1
 80010d2:	70fb      	strb	r3, [r7, #3]
  PCD_EPTypeDef *ep;

  if (((uint32_t)ep_addr & EP_ADDR_MSK) > hpcd->Init.dev_endpoints)
 80010d4:	78fb      	ldrb	r3, [r7, #3]
 80010d6:	f003 0307 	and.w	r3, r3, #7
 80010da:	687a      	ldr	r2, [r7, #4]
 80010dc:	7912      	ldrb	r2, [r2, #4]
 80010de:	4293      	cmp	r3, r2
 80010e0:	d901      	bls.n	80010e6 <HAL_PCD_EP_SetStall+0x1e>
  {
    return HAL_ERROR;
 80010e2:	2301      	movs	r3, #1
 80010e4:	e04c      	b.n	8001180 <HAL_PCD_EP_SetStall+0xb8>
  }

  if ((0x80U & ep_addr) == 0x80U)
 80010e6:	f997 3003 	ldrsb.w	r3, [r7, #3]
 80010ea:	2b00      	cmp	r3, #0
 80010ec:	da0e      	bge.n	800110c <HAL_PCD_EP_SetStall+0x44>
  {
    ep = &hpcd->IN_ep[ep_addr & EP_ADDR_MSK];
 80010ee:	78fb      	ldrb	r3, [r7, #3]
 80010f0:	f003 0207 	and.w	r2, r3, #7
 80010f4:	4613      	mov	r3, r2
 80010f6:	009b      	lsls	r3, r3, #2
 80010f8:	4413      	add	r3, r2
 80010fa:	00db      	lsls	r3, r3, #3
 80010fc:	3310      	adds	r3, #16
 80010fe:	687a      	ldr	r2, [r7, #4]
 8001100:	4413      	add	r3, r2
 8001102:	60fb      	str	r3, [r7, #12]
    ep->is_in = 1U;
 8001104:	68fb      	ldr	r3, [r7, #12]
 8001106:	2201      	movs	r2, #1
 8001108:	705a      	strb	r2, [r3, #1]
 800110a:	e00c      	b.n	8001126 <HAL_PCD_EP_SetStall+0x5e>
  }
  else
  {
    ep = &hpcd->OUT_ep[ep_addr];
 800110c:	78fa      	ldrb	r2, [r7, #3]
 800110e:	4613      	mov	r3, r2
 8001110:	009b      	lsls	r3, r3, #2
 8001112:	4413      	add	r3, r2
 8001114:	00db      	lsls	r3, r3, #3
 8001116:	f503 73a8 	add.w	r3, r3, #336	@ 0x150
 800111a:	687a      	ldr	r2, [r7, #4]
 800111c:	4413      	add	r3, r2
 800111e:	60fb      	str	r3, [r7, #12]
    ep->is_in = 0U;
 8001120:	68fb      	ldr	r3, [r7, #12]
 8001122:	2200      	movs	r2, #0
 8001124:	705a      	strb	r2, [r3, #1]
  }

  ep->is_stall = 1U;
 8001126:	68fb      	ldr	r3, [r7, #12]
 8001128:	2201      	movs	r2, #1
 800112a:	709a      	strb	r2, [r3, #2]
  ep->num = ep_addr & EP_ADDR_MSK;
 800112c:	78fb      	ldrb	r3, [r7, #3]
 800112e:	f003 0307 	and.w	r3, r3, #7
 8001132:	b2da      	uxtb	r2, r3
 8001134:	68fb      	ldr	r3, [r7, #12]
 8001136:	701a      	strb	r2, [r3, #0]

  __HAL_LOCK(hpcd);
 8001138:	687b      	ldr	r3, [r7, #4]
 800113a:	f893 3290 	ldrb.w	r3, [r3, #656]	@ 0x290
 800113e:	2b01      	cmp	r3, #1
 8001140:	d101      	bne.n	8001146 <HAL_PCD_EP_SetStall+0x7e>
 8001142:	2302      	movs	r3, #2
 8001144:	e01c      	b.n	8001180 <HAL_PCD_EP_SetStall+0xb8>
 8001146:	687b      	ldr	r3, [r7, #4]
 8001148:	2201      	movs	r2, #1
 800114a:	f883 2290 	strb.w	r2, [r3, #656]	@ 0x290

  (void)USB_EPSetStall(hpcd->Instance, ep);
 800114e:	687b      	ldr	r3, [r7, #4]
 8001150:	681b      	ldr	r3, [r3, #0]
 8001152:	68f9      	ldr	r1, [r7, #12]
 8001154:	4618      	mov	r0, r3
 8001156:	f004 fb00 	bl	800575a <USB_EPSetStall>

  if ((ep_addr & EP_ADDR_MSK) == 0U)
 800115a:	78fb      	ldrb	r3, [r7, #3]
 800115c:	f003 0307 	and.w	r3, r3, #7
 8001160:	2b00      	cmp	r3, #0
 8001162:	d108      	bne.n	8001176 <HAL_PCD_EP_SetStall+0xae>
  {
    (void)USB_EP0_OutStart(hpcd->Instance, (uint8_t *)hpcd->Setup);
 8001164:	687b      	ldr	r3, [r7, #4]
 8001166:	681a      	ldr	r2, [r3, #0]
 8001168:	687b      	ldr	r3, [r7, #4]
 800116a:	f503 7326 	add.w	r3, r3, #664	@ 0x298
 800116e:	4619      	mov	r1, r3
 8001170:	4610      	mov	r0, r2
 8001172:	f004 fc25 	bl	80059c0 <USB_EP0_OutStart>
  }

  __HAL_UNLOCK(hpcd);
 8001176:	687b      	ldr	r3, [r7, #4]
 8001178:	2200      	movs	r2, #0
 800117a:	f883 2290 	strb.w	r2, [r3, #656]	@ 0x290

  return HAL_OK;
 800117e:	2300      	movs	r3, #0
}
 8001180:	4618      	mov	r0, r3
 8001182:	3710      	adds	r7, #16
 8001184:	46bd      	mov	sp, r7
 8001186:	bd80      	pop	{r7, pc}

08001188 <HAL_PCD_EP_ClrStall>:
  * @param  hpcd PCD handle
  * @param  ep_addr endpoint address
  * @retval HAL status
  */
HAL_StatusTypeDef HAL_PCD_EP_ClrStall(PCD_HandleTypeDef *hpcd, uint8_t ep_addr)
{
 8001188:	b580      	push	{r7, lr}
 800118a:	b084      	sub	sp, #16
 800118c:	af00      	add	r7, sp, #0
 800118e:	6078      	str	r0, [r7, #4]
 8001190:	460b      	mov	r3, r1
 8001192:	70fb      	strb	r3, [r7, #3]
  PCD_EPTypeDef *ep;

  if (((uint32_t)ep_addr & 0x0FU) > hpcd->Init.dev_endpoints)
 8001194:	78fb      	ldrb	r3, [r7, #3]
 8001196:	f003 030f 	and.w	r3, r3, #15
 800119a:	687a      	ldr	r2, [r7, #4]
 800119c:	7912      	ldrb	r2, [r2, #4]
 800119e:	4293      	cmp	r3, r2
 80011a0:	d901      	bls.n	80011a6 <HAL_PCD_EP_ClrStall+0x1e>
  {
    return HAL_ERROR;
 80011a2:	2301      	movs	r3, #1
 80011a4:	e040      	b.n	8001228 <HAL_PCD_EP_ClrStall+0xa0>
  }

  if ((0x80U & ep_addr) == 0x80U)
 80011a6:	f997 3003 	ldrsb.w	r3, [r7, #3]
 80011aa:	2b00      	cmp	r3, #0
 80011ac:	da0e      	bge.n	80011cc <HAL_PCD_EP_ClrStall+0x44>
  {
    ep = &hpcd->IN_ep[ep_addr & EP_ADDR_MSK];
 80011ae:	78fb      	ldrb	r3, [r7, #3]
 80011b0:	f003 0207 	and.w	r2, r3, #7
 80011b4:	4613      	mov	r3, r2
 80011b6:	009b      	lsls	r3, r3, #2
 80011b8:	4413      	add	r3, r2
 80011ba:	00db      	lsls	r3, r3, #3
 80011bc:	3310      	adds	r3, #16
 80011be:	687a      	ldr	r2, [r7, #4]
 80011c0:	4413      	add	r3, r2
 80011c2:	60fb      	str	r3, [r7, #12]
    ep->is_in = 1U;
 80011c4:	68fb      	ldr	r3, [r7, #12]
 80011c6:	2201      	movs	r2, #1
 80011c8:	705a      	strb	r2, [r3, #1]
 80011ca:	e00e      	b.n	80011ea <HAL_PCD_EP_ClrStall+0x62>
  }
  else
  {
    ep = &hpcd->OUT_ep[ep_addr & EP_ADDR_MSK];
 80011cc:	78fb      	ldrb	r3, [r7, #3]
 80011ce:	f003 0207 	and.w	r2, r3, #7
 80011d2:	4613      	mov	r3, r2
 80011d4:	009b      	lsls	r3, r3, #2
 80011d6:	4413      	add	r3, r2
 80011d8:	00db      	lsls	r3, r3, #3
 80011da:	f503 73a8 	add.w	r3, r3, #336	@ 0x150
 80011de:	687a      	ldr	r2, [r7, #4]
 80011e0:	4413      	add	r3, r2
 80011e2:	60fb      	str	r3, [r7, #12]
    ep->is_in = 0U;
 80011e4:	68fb      	ldr	r3, [r7, #12]
 80011e6:	2200      	movs	r2, #0
 80011e8:	705a      	strb	r2, [r3, #1]
  }

  ep->is_stall = 0U;
 80011ea:	68fb      	ldr	r3, [r7, #12]
 80011ec:	2200      	movs	r2, #0
 80011ee:	709a      	strb	r2, [r3, #2]
  ep->num = ep_addr & EP_ADDR_MSK;
 80011f0:	78fb      	ldrb	r3, [r7, #3]
 80011f2:	f003 0307 	and.w	r3, r3, #7
 80011f6:	b2da      	uxtb	r2, r3
 80011f8:	68fb      	ldr	r3, [r7, #12]
 80011fa:	701a      	strb	r2, [r3, #0]

  __HAL_LOCK(hpcd);
 80011fc:	687b      	ldr	r3, [r7, #4]
 80011fe:	f893 3290 	ldrb.w	r3, [r3, #656]	@ 0x290
 8001202:	2b01      	cmp	r3, #1
 8001204:	d101      	bne.n	800120a <HAL_PCD_EP_ClrStall+0x82>
 8001206:	2302      	movs	r3, #2
 8001208:	e00e      	b.n	8001228 <HAL_PCD_EP_ClrStall+0xa0>
 800120a:	687b      	ldr	r3, [r7, #4]
 800120c:	2201      	movs	r2, #1
 800120e:	f883 2290 	strb.w	r2, [r3, #656]	@ 0x290
  (void)USB_EPClearStall(hpcd->Instance, ep);
 8001212:	687b      	ldr	r3, [r7, #4]
 8001214:	681b      	ldr	r3, [r3, #0]
 8001216:	68f9      	ldr	r1, [r7, #12]
 8001218:	4618      	mov	r0, r3
 800121a:	f004 faee 	bl	80057fa <USB_EPClearStall>
  __HAL_UNLOCK(hpcd);
 800121e:	687b      	ldr	r3, [r7, #4]
 8001220:	2200      	movs	r2, #0
 8001222:	f883 2290 	strb.w	r2, [r3, #656]	@ 0x290

  return HAL_OK;
 8001226:	2300      	movs	r3, #0
}
 8001228:	4618      	mov	r0, r3
 800122a:	3710      	adds	r7, #16
 800122c:	46bd      	mov	sp, r7
 800122e:	bd80      	pop	{r7, pc}

08001230 <PCD_EP_ISR_Handler>:
  * @brief  This function handles PCD Endpoint interrupt request.
  * @param  hpcd PCD handle
  * @retval HAL status
  */
static HAL_StatusTypeDef PCD_EP_ISR_Handler(PCD_HandleTypeDef *hpcd)
{
 8001230:	b580      	push	{r7, lr}
 8001232:	b096      	sub	sp, #88	@ 0x58
 8001234:	af00      	add	r7, sp, #0
 8001236:	6078      	str	r0, [r7, #4]
#if (USE_USB_DOUBLE_BUFFER != 1U)
  count = 0U;
#endif /* USE_USB_DOUBLE_BUFFER */

  /* stay in loop while pending interrupts */
  while ((hpcd->Instance->ISTR & USB_ISTR_CTR) != 0U)
 8001238:	e3bb      	b.n	80019b2 <PCD_EP_ISR_Handler+0x782>
  {
    wIstr = hpcd->Instance->ISTR;
 800123a:	687b      	ldr	r3, [r7, #4]
 800123c:	681b      	ldr	r3, [r3, #0]
 800123e:	f8b3 3044 	ldrh.w	r3, [r3, #68]	@ 0x44
 8001242:	f8a7 304e 	strh.w	r3, [r7, #78]	@ 0x4e

    /* extract highest priority endpoint number */
    epindex = (uint8_t)(wIstr & USB_ISTR_EP_ID);
 8001246:	f8b7 304e 	ldrh.w	r3, [r7, #78]	@ 0x4e
 800124a:	b2db      	uxtb	r3, r3
 800124c:	f003 030f 	and.w	r3, r3, #15
 8001250:	f887 304d 	strb.w	r3, [r7, #77]	@ 0x4d

    if (epindex == 0U)
 8001254:	f897 304d 	ldrb.w	r3, [r7, #77]	@ 0x4d
 8001258:	2b00      	cmp	r3, #0
 800125a:	f040 8175 	bne.w	8001548 <PCD_EP_ISR_Handler+0x318>
    {
      /* Decode and service control endpoint interrupt */

      /* DIR bit = origin of the interrupt */
      if ((wIstr & USB_ISTR_DIR) == 0U)
 800125e:	f8b7 304e 	ldrh.w	r3, [r7, #78]	@ 0x4e
 8001262:	f003 0310 	and.w	r3, r3, #16
 8001266:	2b00      	cmp	r3, #0
 8001268:	d14e      	bne.n	8001308 <PCD_EP_ISR_Handler+0xd8>
      {
        /* DIR = 0 */

        /* DIR = 0 => IN  int */
        /* DIR = 0 implies that (EP_CTR_TX = 1) always */
        PCD_CLEAR_TX_EP_CTR(hpcd->Instance, PCD_ENDP0);
 800126a:	687b      	ldr	r3, [r7, #4]
 800126c:	681b      	ldr	r3, [r3, #0]
 800126e:	881b      	ldrh	r3, [r3, #0]
 8001270:	b29b      	uxth	r3, r3
 8001272:	f423 43e1 	bic.w	r3, r3, #28800	@ 0x7080
 8001276:	f023 0370 	bic.w	r3, r3, #112	@ 0x70
 800127a:	81fb      	strh	r3, [r7, #14]
 800127c:	687b      	ldr	r3, [r7, #4]
 800127e:	681a      	ldr	r2, [r3, #0]
 8001280:	89fb      	ldrh	r3, [r7, #14]
 8001282:	ea6f 4343 	mvn.w	r3, r3, lsl #17
 8001286:	ea6f 4353 	mvn.w	r3, r3, lsr #17
 800128a:	b29b      	uxth	r3, r3
 800128c:	8013      	strh	r3, [r2, #0]
        ep = &hpcd->IN_ep[0];
 800128e:	687b      	ldr	r3, [r7, #4]
 8001290:	3310      	adds	r3, #16
 8001292:	657b      	str	r3, [r7, #84]	@ 0x54

        ep->xfer_count = PCD_GET_EP_TX_CNT(hpcd->Instance, ep->num);
 8001294:	687b      	ldr	r3, [r7, #4]
 8001296:	681b      	ldr	r3, [r3, #0]
 8001298:	f8b3 3050 	ldrh.w	r3, [r3, #80]	@ 0x50
 800129c:	b29b      	uxth	r3, r3
 800129e:	461a      	mov	r2, r3
 80012a0:	6d7b      	ldr	r3, [r7, #84]	@ 0x54
 80012a2:	781b      	ldrb	r3, [r3, #0]
 80012a4:	00db      	lsls	r3, r3, #3
 80012a6:	4413      	add	r3, r2
 80012a8:	3302      	adds	r3, #2
 80012aa:	005b      	lsls	r3, r3, #1
 80012ac:	687a      	ldr	r2, [r7, #4]
 80012ae:	6812      	ldr	r2, [r2, #0]
 80012b0:	4413      	add	r3, r2
 80012b2:	f503 6380 	add.w	r3, r3, #1024	@ 0x400
 80012b6:	881b      	ldrh	r3, [r3, #0]
 80012b8:	f3c3 0209 	ubfx	r2, r3, #0, #10
 80012bc:	6d7b      	ldr	r3, [r7, #84]	@ 0x54
 80012be:	61da      	str	r2, [r3, #28]
        ep->xfer_buff += ep->xfer_count;
 80012c0:	6d7b      	ldr	r3, [r7, #84]	@ 0x54
 80012c2:	695a      	ldr	r2, [r3, #20]
 80012c4:	6d7b      	ldr	r3, [r7, #84]	@ 0x54
 80012c6:	69db      	ldr	r3, [r3, #28]
 80012c8:	441a      	add	r2, r3
 80012ca:	6d7b      	ldr	r3, [r7, #84]	@ 0x54
 80012cc:	615a      	str	r2, [r3, #20]

        /* TX COMPLETE */
#if (USE_HAL_PCD_REGISTER_CALLBACKS == 1U)
        hpcd->DataInStageCallback(hpcd, 0U);
#else
        HAL_PCD_DataInStageCallback(hpcd, 0U);
 80012ce:	2100      	movs	r1, #0
 80012d0:	6878      	ldr	r0, [r7, #4]
 80012d2:	f005 ffac 	bl	800722e <HAL_PCD_DataInStageCallback>
#endif /* USE_HAL_PCD_REGISTER_CALLBACKS */

        if ((hpcd->USB_Address > 0U) && (ep->xfer_len == 0U))
 80012d6:	687b      	ldr	r3, [r7, #4]
 80012d8:	7b5b      	ldrb	r3, [r3, #13]
 80012da:	b2db      	uxtb	r3, r3
 80012dc:	2b00      	cmp	r3, #0
 80012de:	f000 8368 	beq.w	80019b2 <PCD_EP_ISR_Handler+0x782>
 80012e2:	6d7b      	ldr	r3, [r7, #84]	@ 0x54
 80012e4:	699b      	ldr	r3, [r3, #24]
 80012e6:	2b00      	cmp	r3, #0
 80012e8:	f040 8363 	bne.w	80019b2 <PCD_EP_ISR_Handler+0x782>
        {
          hpcd->Instance->DADDR = ((uint16_t)hpcd->USB_Address | USB_DADDR_EF);
 80012ec:	687b      	ldr	r3, [r7, #4]
 80012ee:	7b5b      	ldrb	r3, [r3, #13]
 80012f0:	b2db      	uxtb	r3, r3
 80012f2:	f063 037f 	orn	r3, r3, #127	@ 0x7f
 80012f6:	b2da      	uxtb	r2, r3
 80012f8:	687b      	ldr	r3, [r7, #4]
 80012fa:	681b      	ldr	r3, [r3, #0]
 80012fc:	f8a3 204c 	strh.w	r2, [r3, #76]	@ 0x4c
          hpcd->USB_Address = 0U;
 8001300:	687b      	ldr	r3, [r7, #4]
 8001302:	2200      	movs	r2, #0
 8001304:	735a      	strb	r2, [r3, #13]
 8001306:	e354      	b.n	80019b2 <PCD_EP_ISR_Handler+0x782>
      {
        /* DIR = 1 */

        /* DIR = 1 & CTR_RX => SETUP or OUT int */
        /* DIR = 1 & (CTR_TX | CTR_RX) => 2 int pending */
        ep = &hpcd->OUT_ep[0];
 8001308:	687b      	ldr	r3, [r7, #4]
 800130a:	f503 73a8 	add.w	r3, r3, #336	@ 0x150
 800130e:	657b      	str	r3, [r7, #84]	@ 0x54
        wEPVal = PCD_GET_ENDPOINT(hpcd->Instance, PCD_ENDP0);
 8001310:	687b      	ldr	r3, [r7, #4]
 8001312:	681b      	ldr	r3, [r3, #0]
 8001314:	881b      	ldrh	r3, [r3, #0]
 8001316:	f8a7 304a 	strh.w	r3, [r7, #74]	@ 0x4a

        if ((wEPVal & USB_EP_SETUP) != 0U)
 800131a:	f8b7 304a 	ldrh.w	r3, [r7, #74]	@ 0x4a
 800131e:	f403 6300 	and.w	r3, r3, #2048	@ 0x800
 8001322:	2b00      	cmp	r3, #0
 8001324:	d034      	beq.n	8001390 <PCD_EP_ISR_Handler+0x160>
        {
          /* Get SETUP Packet */
          ep->xfer_count = PCD_GET_EP_RX_CNT(hpcd->Instance, ep->num);
 8001326:	687b      	ldr	r3, [r7, #4]
 8001328:	681b      	ldr	r3, [r3, #0]
 800132a:	f8b3 3050 	ldrh.w	r3, [r3, #80]	@ 0x50
 800132e:	b29b      	uxth	r3, r3
 8001330:	461a      	mov	r2, r3
 8001332:	6d7b      	ldr	r3, [r7, #84]	@ 0x54
 8001334:	781b      	ldrb	r3, [r3, #0]
 8001336:	00db      	lsls	r3, r3, #3
 8001338:	4413      	add	r3, r2
 800133a:	3306      	adds	r3, #6
 800133c:	005b      	lsls	r3, r3, #1
 800133e:	687a      	ldr	r2, [r7, #4]
 8001340:	6812      	ldr	r2, [r2, #0]
 8001342:	4413      	add	r3, r2
 8001344:	f503 6380 	add.w	r3, r3, #1024	@ 0x400
 8001348:	881b      	ldrh	r3, [r3, #0]
 800134a:	f3c3 0209 	ubfx	r2, r3, #0, #10
 800134e:	6d7b      	ldr	r3, [r7, #84]	@ 0x54
 8001350:	61da      	str	r2, [r3, #28]

          USB_ReadPMA(hpcd->Instance, (uint8_t *)hpcd->Setup,
 8001352:	687b      	ldr	r3, [r7, #4]
 8001354:	6818      	ldr	r0, [r3, #0]
 8001356:	687b      	ldr	r3, [r7, #4]
 8001358:	f503 7126 	add.w	r1, r3, #664	@ 0x298
 800135c:	6d7b      	ldr	r3, [r7, #84]	@ 0x54
 800135e:	88da      	ldrh	r2, [r3, #6]
                      ep->pmaadress, (uint16_t)ep->xfer_count);
 8001360:	6d7b      	ldr	r3, [r7, #84]	@ 0x54
 8001362:	69db      	ldr	r3, [r3, #28]
          USB_ReadPMA(hpcd->Instance, (uint8_t *)hpcd->Setup,
 8001364:	b29b      	uxth	r3, r3
 8001366:	f004 fb7b 	bl	8005a60 <USB_ReadPMA>

          /* SETUP bit kept frozen while CTR_RX = 1 */
          PCD_CLEAR_RX_EP_CTR(hpcd->Instance, PCD_ENDP0);
 800136a:	687b      	ldr	r3, [r7, #4]
 800136c:	681b      	ldr	r3, [r3, #0]
 800136e:	881b      	ldrh	r3, [r3, #0]
 8001370:	b29a      	uxth	r2, r3
 8001372:	f640 738f 	movw	r3, #3983	@ 0xf8f
 8001376:	4013      	ands	r3, r2
 8001378:	823b      	strh	r3, [r7, #16]
 800137a:	687b      	ldr	r3, [r7, #4]
 800137c:	681b      	ldr	r3, [r3, #0]
 800137e:	8a3a      	ldrh	r2, [r7, #16]
 8001380:	f042 0280 	orr.w	r2, r2, #128	@ 0x80
 8001384:	b292      	uxth	r2, r2
 8001386:	801a      	strh	r2, [r3, #0]

          /* Process SETUP Packet*/
#if (USE_HAL_PCD_REGISTER_CALLBACKS == 1U)
          hpcd->SetupStageCallback(hpcd);
#else
          HAL_PCD_SetupStageCallback(hpcd);
 8001388:	6878      	ldr	r0, [r7, #4]
 800138a:	f005 ff23 	bl	80071d4 <HAL_PCD_SetupStageCallback>
 800138e:	e310      	b.n	80019b2 <PCD_EP_ISR_Handler+0x782>
#endif /* USE_HAL_PCD_REGISTER_CALLBACKS */
        }
        else if ((wEPVal & USB_EP_CTR_RX) != 0U)
 8001390:	f9b7 304a 	ldrsh.w	r3, [r7, #74]	@ 0x4a
 8001394:	2b00      	cmp	r3, #0
 8001396:	f280 830c 	bge.w	80019b2 <PCD_EP_ISR_Handler+0x782>
        {
          PCD_CLEAR_RX_EP_CTR(hpcd->Instance, PCD_ENDP0);
 800139a:	687b      	ldr	r3, [r7, #4]
 800139c:	681b      	ldr	r3, [r3, #0]
 800139e:	881b      	ldrh	r3, [r3, #0]
 80013a0:	b29a      	uxth	r2, r3
 80013a2:	f640 738f 	movw	r3, #3983	@ 0xf8f
 80013a6:	4013      	ands	r3, r2
 80013a8:	83fb      	strh	r3, [r7, #30]
 80013aa:	687b      	ldr	r3, [r7, #4]
 80013ac:	681b      	ldr	r3, [r3, #0]
 80013ae:	8bfa      	ldrh	r2, [r7, #30]
 80013b0:	f042 0280 	orr.w	r2, r2, #128	@ 0x80
 80013b4:	b292      	uxth	r2, r2
 80013b6:	801a      	strh	r2, [r3, #0]

          /* Get Control Data OUT Packet */
          ep->xfer_count = PCD_GET_EP_RX_CNT(hpcd->Instance, ep->num);
 80013b8:	687b      	ldr	r3, [r7, #4]
 80013ba:	681b      	ldr	r3, [r3, #0]
 80013bc:	f8b3 3050 	ldrh.w	r3, [r3, #80]	@ 0x50
 80013c0:	b29b      	uxth	r3, r3
 80013c2:	461a      	mov	r2, r3
 80013c4:	6d7b      	ldr	r3, [r7, #84]	@ 0x54
 80013c6:	781b      	ldrb	r3, [r3, #0]
 80013c8:	00db      	lsls	r3, r3, #3
 80013ca:	4413      	add	r3, r2
 80013cc:	3306      	adds	r3, #6
 80013ce:	005b      	lsls	r3, r3, #1
 80013d0:	687a      	ldr	r2, [r7, #4]
 80013d2:	6812      	ldr	r2, [r2, #0]
 80013d4:	4413      	add	r3, r2
 80013d6:	f503 6380 	add.w	r3, r3, #1024	@ 0x400
 80013da:	881b      	ldrh	r3, [r3, #0]
 80013dc:	f3c3 0209 	ubfx	r2, r3, #0, #10
 80013e0:	6d7b      	ldr	r3, [r7, #84]	@ 0x54
 80013e2:	61da      	str	r2, [r3, #28]

          if ((ep->xfer_count != 0U) && (ep->xfer_buff != 0U))
 80013e4:	6d7b      	ldr	r3, [r7, #84]	@ 0x54
 80013e6:	69db      	ldr	r3, [r3, #28]
 80013e8:	2b00      	cmp	r3, #0
 80013ea:	d019      	beq.n	8001420 <PCD_EP_ISR_Handler+0x1f0>
 80013ec:	6d7b      	ldr	r3, [r7, #84]	@ 0x54
 80013ee:	695b      	ldr	r3, [r3, #20]
 80013f0:	2b00      	cmp	r3, #0
 80013f2:	d015      	beq.n	8001420 <PCD_EP_ISR_Handler+0x1f0>
          {
            USB_ReadPMA(hpcd->Instance, ep->xfer_buff,
 80013f4:	687b      	ldr	r3, [r7, #4]
 80013f6:	6818      	ldr	r0, [r3, #0]
 80013f8:	6d7b      	ldr	r3, [r7, #84]	@ 0x54
 80013fa:	6959      	ldr	r1, [r3, #20]
 80013fc:	6d7b      	ldr	r3, [r7, #84]	@ 0x54
 80013fe:	88da      	ldrh	r2, [r3, #6]
                        ep->pmaadress, (uint16_t)ep->xfer_count);
 8001400:	6d7b      	ldr	r3, [r7, #84]	@ 0x54
 8001402:	69db      	ldr	r3, [r3, #28]
            USB_ReadPMA(hpcd->Instance, ep->xfer_buff,
 8001404:	b29b      	uxth	r3, r3
 8001406:	f004 fb2b 	bl	8005a60 <USB_ReadPMA>

            ep->xfer_buff += ep->xfer_count;
 800140a:	6d7b      	ldr	r3, [r7, #84]	@ 0x54
 800140c:	695a      	ldr	r2, [r3, #20]
 800140e:	6d7b      	ldr	r3, [r7, #84]	@ 0x54
 8001410:	69db      	ldr	r3, [r3, #28]
 8001412:	441a      	add	r2, r3
 8001414:	6d7b      	ldr	r3, [r7, #84]	@ 0x54
 8001416:	615a      	str	r2, [r3, #20]

            /* Process Control Data OUT Packet */
#if (USE_HAL_PCD_REGISTER_CALLBACKS == 1U)
            hpcd->DataOutStageCallback(hpcd, 0U);
#else
            HAL_PCD_DataOutStageCallback(hpcd, 0U);
 8001418:	2100      	movs	r1, #0
 800141a:	6878      	ldr	r0, [r7, #4]
 800141c:	f005 feec 	bl	80071f8 <HAL_PCD_DataOutStageCallback>
#endif /* USE_HAL_PCD_REGISTER_CALLBACKS */
          }

          wEPVal = (uint16_t)PCD_GET_ENDPOINT(hpcd->Instance, PCD_ENDP0);
 8001420:	687b      	ldr	r3, [r7, #4]
 8001422:	681b      	ldr	r3, [r3, #0]
 8001424:	881b      	ldrh	r3, [r3, #0]
 8001426:	f8a7 304a 	strh.w	r3, [r7, #74]	@ 0x4a

          if (((wEPVal & USB_EP_SETUP) == 0U) && ((wEPVal & USB_EP_RX_STRX) != USB_EP_RX_VALID))
 800142a:	f8b7 304a 	ldrh.w	r3, [r7, #74]	@ 0x4a
 800142e:	f403 6300 	and.w	r3, r3, #2048	@ 0x800
 8001432:	2b00      	cmp	r3, #0
 8001434:	f040 82bd 	bne.w	80019b2 <PCD_EP_ISR_Handler+0x782>
 8001438:	f8b7 304a 	ldrh.w	r3, [r7, #74]	@ 0x4a
 800143c:	f403 5340 	and.w	r3, r3, #12288	@ 0x3000
 8001440:	f5b3 5f40 	cmp.w	r3, #12288	@ 0x3000
 8001444:	f000 82b5 	beq.w	80019b2 <PCD_EP_ISR_Handler+0x782>
          {
            PCD_SET_EP_RX_CNT(hpcd->Instance, PCD_ENDP0, ep->maxpacket);
 8001448:	687b      	ldr	r3, [r7, #4]
 800144a:	681b      	ldr	r3, [r3, #0]
 800144c:	61bb      	str	r3, [r7, #24]
 800144e:	687b      	ldr	r3, [r7, #4]
 8001450:	681b      	ldr	r3, [r3, #0]
 8001452:	f8b3 3050 	ldrh.w	r3, [r3, #80]	@ 0x50
 8001456:	b29b      	uxth	r3, r3
 8001458:	461a      	mov	r2, r3
 800145a:	69bb      	ldr	r3, [r7, #24]
 800145c:	4413      	add	r3, r2
 800145e:	61bb      	str	r3, [r7, #24]
 8001460:	69bb      	ldr	r3, [r7, #24]
 8001462:	f203 430c 	addw	r3, r3, #1036	@ 0x40c
 8001466:	617b      	str	r3, [r7, #20]
 8001468:	697b      	ldr	r3, [r7, #20]
 800146a:	881b      	ldrh	r3, [r3, #0]
 800146c:	b29b      	uxth	r3, r3
 800146e:	f3c3 0309 	ubfx	r3, r3, #0, #10
 8001472:	b29a      	uxth	r2, r3
 8001474:	697b      	ldr	r3, [r7, #20]
 8001476:	801a      	strh	r2, [r3, #0]
 8001478:	6d7b      	ldr	r3, [r7, #84]	@ 0x54
 800147a:	691b      	ldr	r3, [r3, #16]
 800147c:	2b3e      	cmp	r3, #62	@ 0x3e
 800147e:	d91d      	bls.n	80014bc <PCD_EP_ISR_Handler+0x28c>
 8001480:	6d7b      	ldr	r3, [r7, #84]	@ 0x54
 8001482:	691b      	ldr	r3, [r3, #16]
 8001484:	095b      	lsrs	r3, r3, #5
 8001486:	647b      	str	r3, [r7, #68]	@ 0x44
 8001488:	6d7b      	ldr	r3, [r7, #84]	@ 0x54
 800148a:	691b      	ldr	r3, [r3, #16]
 800148c:	f003 031f 	and.w	r3, r3, #31
 8001490:	2b00      	cmp	r3, #0
 8001492:	d102      	bne.n	800149a <PCD_EP_ISR_Handler+0x26a>
 8001494:	6c7b      	ldr	r3, [r7, #68]	@ 0x44
 8001496:	3b01      	subs	r3, #1
 8001498:	647b      	str	r3, [r7, #68]	@ 0x44
 800149a:	697b      	ldr	r3, [r7, #20]
 800149c:	881b      	ldrh	r3, [r3, #0]
 800149e:	b29a      	uxth	r2, r3
 80014a0:	6c7b      	ldr	r3, [r7, #68]	@ 0x44
 80014a2:	b29b      	uxth	r3, r3
 80014a4:	029b      	lsls	r3, r3, #10
 80014a6:	b29b      	uxth	r3, r3
 80014a8:	4313      	orrs	r3, r2
 80014aa:	b29b      	uxth	r3, r3
 80014ac:	ea6f 4343 	mvn.w	r3, r3, lsl #17
 80014b0:	ea6f 4353 	mvn.w	r3, r3, lsr #17
 80014b4:	b29a      	uxth	r2, r3
 80014b6:	697b      	ldr	r3, [r7, #20]
 80014b8:	801a      	strh	r2, [r3, #0]
 80014ba:	e026      	b.n	800150a <PCD_EP_ISR_Handler+0x2da>
 80014bc:	6d7b      	ldr	r3, [r7, #84]	@ 0x54
 80014be:	691b      	ldr	r3, [r3, #16]
 80014c0:	2b00      	cmp	r3, #0
 80014c2:	d10a      	bne.n	80014da <PCD_EP_ISR_Handler+0x2aa>
 80014c4:	697b      	ldr	r3, [r7, #20]
 80014c6:	881b      	ldrh	r3, [r3, #0]
 80014c8:	b29b      	uxth	r3, r3
 80014ca:	ea6f 4343 	mvn.w	r3, r3, lsl #17
 80014ce:	ea6f 4353 	mvn.w	r3, r3, lsr #17
 80014d2:	b29a      	uxth	r2, r3
 80014d4:	697b      	ldr	r3, [r7, #20]
 80014d6:	801a      	strh	r2, [r3, #0]
 80014d8:	e017      	b.n	800150a <PCD_EP_ISR_Handler+0x2da>
 80014da:	6d7b      	ldr	r3, [r7, #84]	@ 0x54
 80014dc:	691b      	ldr	r3, [r3, #16]
 80014de:	085b      	lsrs	r3, r3, #1
 80014e0:	647b      	str	r3, [r7, #68]	@ 0x44
 80014e2:	6d7b      	ldr	r3, [r7, #84]	@ 0x54
 80014e4:	691b      	ldr	r3, [r3, #16]
 80014e6:	f003 0301 	and.w	r3, r3, #1
 80014ea:	2b00      	cmp	r3, #0
 80014ec:	d002      	beq.n	80014f4 <PCD_EP_ISR_Handler+0x2c4>
 80014ee:	6c7b      	ldr	r3, [r7, #68]	@ 0x44
 80014f0:	3301      	adds	r3, #1
 80014f2:	647b      	str	r3, [r7, #68]	@ 0x44
 80014f4:	697b      	ldr	r3, [r7, #20]
 80014f6:	881b      	ldrh	r3, [r3, #0]
 80014f8:	b29a      	uxth	r2, r3
 80014fa:	6c7b      	ldr	r3, [r7, #68]	@ 0x44
 80014fc:	b29b      	uxth	r3, r3
 80014fe:	029b      	lsls	r3, r3, #10
 8001500:	b29b      	uxth	r3, r3
 8001502:	4313      	orrs	r3, r2
 8001504:	b29a      	uxth	r2, r3
 8001506:	697b      	ldr	r3, [r7, #20]
 8001508:	801a      	strh	r2, [r3, #0]
            PCD_SET_EP_RX_STATUS(hpcd->Instance, PCD_ENDP0, USB_EP_RX_VALID);
 800150a:	687b      	ldr	r3, [r7, #4]
 800150c:	681b      	ldr	r3, [r3, #0]
 800150e:	881b      	ldrh	r3, [r3, #0]
 8001510:	b29b      	uxth	r3, r3
 8001512:	f423 4380 	bic.w	r3, r3, #16384	@ 0x4000
 8001516:	f023 0370 	bic.w	r3, r3, #112	@ 0x70
 800151a:	827b      	strh	r3, [r7, #18]
 800151c:	8a7b      	ldrh	r3, [r7, #18]
 800151e:	f483 5380 	eor.w	r3, r3, #4096	@ 0x1000
 8001522:	827b      	strh	r3, [r7, #18]
 8001524:	8a7b      	ldrh	r3, [r7, #18]
 8001526:	f483 5300 	eor.w	r3, r3, #8192	@ 0x2000
 800152a:	827b      	strh	r3, [r7, #18]
 800152c:	687b      	ldr	r3, [r7, #4]
 800152e:	681a      	ldr	r2, [r3, #0]
 8001530:	8a7b      	ldrh	r3, [r7, #18]
 8001532:	f043 437f 	orr.w	r3, r3, #4278190080	@ 0xff000000
 8001536:	f443 037f 	orr.w	r3, r3, #16711680	@ 0xff0000
 800153a:	f443 4300 	orr.w	r3, r3, #32768	@ 0x8000
 800153e:	f043 0380 	orr.w	r3, r3, #128	@ 0x80
 8001542:	b29b      	uxth	r3, r3
 8001544:	8013      	strh	r3, [r2, #0]
 8001546:	e234      	b.n	80019b2 <PCD_EP_ISR_Handler+0x782>
    }
    else
    {
      /* Decode and service non control endpoints interrupt */
      /* process related endpoint register */
      wEPVal = PCD_GET_ENDPOINT(hpcd->Instance, epindex);
 8001548:	687b      	ldr	r3, [r7, #4]
 800154a:	681b      	ldr	r3, [r3, #0]
 800154c:	461a      	mov	r2, r3
 800154e:	f897 304d 	ldrb.w	r3, [r7, #77]	@ 0x4d
 8001552:	009b      	lsls	r3, r3, #2
 8001554:	4413      	add	r3, r2
 8001556:	881b      	ldrh	r3, [r3, #0]
 8001558:	f8a7 304a 	strh.w	r3, [r7, #74]	@ 0x4a

      if ((wEPVal & USB_EP_CTR_RX) != 0U)
 800155c:	f9b7 304a 	ldrsh.w	r3, [r7, #74]	@ 0x4a
 8001560:	2b00      	cmp	r3, #0
 8001562:	f280 80fc 	bge.w	800175e <PCD_EP_ISR_Handler+0x52e>
      {
        /* clear int flag */
        PCD_CLEAR_RX_EP_CTR(hpcd->Instance, epindex);
 8001566:	687b      	ldr	r3, [r7, #4]
 8001568:	681b      	ldr	r3, [r3, #0]
 800156a:	461a      	mov	r2, r3
 800156c:	f897 304d 	ldrb.w	r3, [r7, #77]	@ 0x4d
 8001570:	009b      	lsls	r3, r3, #2
 8001572:	4413      	add	r3, r2
 8001574:	881b      	ldrh	r3, [r3, #0]
 8001576:	b29a      	uxth	r2, r3
 8001578:	f640 738f 	movw	r3, #3983	@ 0xf8f
 800157c:	4013      	ands	r3, r2
 800157e:	f8a7 3048 	strh.w	r3, [r7, #72]	@ 0x48
 8001582:	687b      	ldr	r3, [r7, #4]
 8001584:	681b      	ldr	r3, [r3, #0]
 8001586:	461a      	mov	r2, r3
 8001588:	f897 304d 	ldrb.w	r3, [r7, #77]	@ 0x4d
 800158c:	009b      	lsls	r3, r3, #2
 800158e:	4413      	add	r3, r2
 8001590:	f8b7 2048 	ldrh.w	r2, [r7, #72]	@ 0x48
 8001594:	f042 0280 	orr.w	r2, r2, #128	@ 0x80
 8001598:	b292      	uxth	r2, r2
 800159a:	801a      	strh	r2, [r3, #0]
        ep = &hpcd->OUT_ep[epindex];
 800159c:	f897 204d 	ldrb.w	r2, [r7, #77]	@ 0x4d
 80015a0:	4613      	mov	r3, r2
 80015a2:	009b      	lsls	r3, r3, #2
 80015a4:	4413      	add	r3, r2
 80015a6:	00db      	lsls	r3, r3, #3
 80015a8:	f503 73a8 	add.w	r3, r3, #336	@ 0x150
 80015ac:	687a      	ldr	r2, [r7, #4]
 80015ae:	4413      	add	r3, r2
 80015b0:	657b      	str	r3, [r7, #84]	@ 0x54

        /* OUT Single Buffering */
        if (ep->doublebuffer == 0U)
 80015b2:	6d7b      	ldr	r3, [r7, #84]	@ 0x54
 80015b4:	7b1b      	ldrb	r3, [r3, #12]
 80015b6:	2b00      	cmp	r3, #0
 80015b8:	d125      	bne.n	8001606 <PCD_EP_ISR_Handler+0x3d6>
        {
          count = (uint16_t)PCD_GET_EP_RX_CNT(hpcd->Instance, ep->num);
 80015ba:	687b      	ldr	r3, [r7, #4]
 80015bc:	681b      	ldr	r3, [r3, #0]
 80015be:	f8b3 3050 	ldrh.w	r3, [r3, #80]	@ 0x50
 80015c2:	b29b      	uxth	r3, r3
 80015c4:	461a      	mov	r2, r3
 80015c6:	6d7b      	ldr	r3, [r7, #84]	@ 0x54
 80015c8:	781b      	ldrb	r3, [r3, #0]
 80015ca:	00db      	lsls	r3, r3, #3
 80015cc:	4413      	add	r3, r2
 80015ce:	3306      	adds	r3, #6
 80015d0:	005b      	lsls	r3, r3, #1
 80015d2:	687a      	ldr	r2, [r7, #4]
 80015d4:	6812      	ldr	r2, [r2, #0]
 80015d6:	4413      	add	r3, r2
 80015d8:	f503 6380 	add.w	r3, r3, #1024	@ 0x400
 80015dc:	881b      	ldrh	r3, [r3, #0]
 80015de:	f3c3 0309 	ubfx	r3, r3, #0, #10
 80015e2:	f8a7 3050 	strh.w	r3, [r7, #80]	@ 0x50

          if (count != 0U)
 80015e6:	f8b7 3050 	ldrh.w	r3, [r7, #80]	@ 0x50
 80015ea:	2b00      	cmp	r3, #0
 80015ec:	f000 8092 	beq.w	8001714 <PCD_EP_ISR_Handler+0x4e4>
          {
            USB_ReadPMA(hpcd->Instance, ep->xfer_buff, ep->pmaadress, count);
 80015f0:	687b      	ldr	r3, [r7, #4]
 80015f2:	6818      	ldr	r0, [r3, #0]
 80015f4:	6d7b      	ldr	r3, [r7, #84]	@ 0x54
 80015f6:	6959      	ldr	r1, [r3, #20]
 80015f8:	6d7b      	ldr	r3, [r7, #84]	@ 0x54
 80015fa:	88da      	ldrh	r2, [r3, #6]
 80015fc:	f8b7 3050 	ldrh.w	r3, [r7, #80]	@ 0x50
 8001600:	f004 fa2e 	bl	8005a60 <USB_ReadPMA>
 8001604:	e086      	b.n	8001714 <PCD_EP_ISR_Handler+0x4e4>
        }
#if (USE_USB_DOUBLE_BUFFER == 1U)
        else
        {
          /* manage double buffer bulk out */
          if (ep->type == EP_TYPE_BULK)
 8001606:	6d7b      	ldr	r3, [r7, #84]	@ 0x54
 8001608:	78db      	ldrb	r3, [r3, #3]
 800160a:	2b02      	cmp	r3, #2
 800160c:	d10a      	bne.n	8001624 <PCD_EP_ISR_Handler+0x3f4>
          {
            count = HAL_PCD_EP_DB_Receive(hpcd, ep, wEPVal);
 800160e:	f8b7 304a 	ldrh.w	r3, [r7, #74]	@ 0x4a
 8001612:	461a      	mov	r2, r3
 8001614:	6d79      	ldr	r1, [r7, #84]	@ 0x54
 8001616:	6878      	ldr	r0, [r7, #4]
 8001618:	f000 f9d9 	bl	80019ce <HAL_PCD_EP_DB_Receive>
 800161c:	4603      	mov	r3, r0
 800161e:	f8a7 3050 	strh.w	r3, [r7, #80]	@ 0x50
 8001622:	e077      	b.n	8001714 <PCD_EP_ISR_Handler+0x4e4>
          }
          else /* manage double buffer iso out */
          {
            /* free EP OUT Buffer */
            PCD_FREE_USER_BUFFER(hpcd->Instance, ep->num, 0U);
 8001624:	687b      	ldr	r3, [r7, #4]
 8001626:	681b      	ldr	r3, [r3, #0]
 8001628:	461a      	mov	r2, r3
 800162a:	6d7b      	ldr	r3, [r7, #84]	@ 0x54
 800162c:	781b      	ldrb	r3, [r3, #0]
 800162e:	009b      	lsls	r3, r3, #2
 8001630:	4413      	add	r3, r2
 8001632:	881b      	ldrh	r3, [r3, #0]
 8001634:	b29b      	uxth	r3, r3
 8001636:	f423 43e0 	bic.w	r3, r3, #28672	@ 0x7000
 800163a:	f023 0370 	bic.w	r3, r3, #112	@ 0x70
 800163e:	f8a7 3052 	strh.w	r3, [r7, #82]	@ 0x52
 8001642:	687b      	ldr	r3, [r7, #4]
 8001644:	681b      	ldr	r3, [r3, #0]
 8001646:	461a      	mov	r2, r3
 8001648:	6d7b      	ldr	r3, [r7, #84]	@ 0x54
 800164a:	781b      	ldrb	r3, [r3, #0]
 800164c:	009b      	lsls	r3, r3, #2
 800164e:	441a      	add	r2, r3
 8001650:	f8b7 3052 	ldrh.w	r3, [r7, #82]	@ 0x52
 8001654:	f043 437f 	orr.w	r3, r3, #4278190080	@ 0xff000000
 8001658:	f443 037f 	orr.w	r3, r3, #16711680	@ 0xff0000
 800165c:	f443 4300 	orr.w	r3, r3, #32768	@ 0x8000
 8001660:	f043 03c0 	orr.w	r3, r3, #192	@ 0xc0
 8001664:	b29b      	uxth	r3, r3
 8001666:	8013      	strh	r3, [r2, #0]

            if ((PCD_GET_ENDPOINT(hpcd->Instance, ep->num) & USB_EP_DTOG_RX) != 0U)
 8001668:	687b      	ldr	r3, [r7, #4]
 800166a:	681b      	ldr	r3, [r3, #0]
 800166c:	461a      	mov	r2, r3
 800166e:	6d7b      	ldr	r3, [r7, #84]	@ 0x54
 8001670:	781b      	ldrb	r3, [r3, #0]
 8001672:	009b      	lsls	r3, r3, #2
 8001674:	4413      	add	r3, r2
 8001676:	881b      	ldrh	r3, [r3, #0]
 8001678:	b29b      	uxth	r3, r3
 800167a:	f403 4380 	and.w	r3, r3, #16384	@ 0x4000
 800167e:	2b00      	cmp	r3, #0
 8001680:	d024      	beq.n	80016cc <PCD_EP_ISR_Handler+0x49c>
            {
              /* read from endpoint BUF0Addr buffer */
              count = (uint16_t)PCD_GET_EP_DBUF0_CNT(hpcd->Instance, ep->num);
 8001682:	687b      	ldr	r3, [r7, #4]
 8001684:	681b      	ldr	r3, [r3, #0]
 8001686:	f8b3 3050 	ldrh.w	r3, [r3, #80]	@ 0x50
 800168a:	b29b      	uxth	r3, r3
 800168c:	461a      	mov	r2, r3
 800168e:	6d7b      	ldr	r3, [r7, #84]	@ 0x54
 8001690:	781b      	ldrb	r3, [r3, #0]
 8001692:	00db      	lsls	r3, r3, #3
 8001694:	4413      	add	r3, r2
 8001696:	3302      	adds	r3, #2
 8001698:	005b      	lsls	r3, r3, #1
 800169a:	687a      	ldr	r2, [r7, #4]
 800169c:	6812      	ldr	r2, [r2, #0]
 800169e:	4413      	add	r3, r2
 80016a0:	f503 6380 	add.w	r3, r3, #1024	@ 0x400
 80016a4:	881b      	ldrh	r3, [r3, #0]
 80016a6:	f3c3 0309 	ubfx	r3, r3, #0, #10
 80016aa:	f8a7 3050 	strh.w	r3, [r7, #80]	@ 0x50

              if (count != 0U)
 80016ae:	f8b7 3050 	ldrh.w	r3, [r7, #80]	@ 0x50
 80016b2:	2b00      	cmp	r3, #0
 80016b4:	d02e      	beq.n	8001714 <PCD_EP_ISR_Handler+0x4e4>
              {
                USB_ReadPMA(hpcd->Instance, ep->xfer_buff, ep->pmaaddr0, count);
 80016b6:	687b      	ldr	r3, [r7, #4]
 80016b8:	6818      	ldr	r0, [r3, #0]
 80016ba:	6d7b      	ldr	r3, [r7, #84]	@ 0x54
 80016bc:	6959      	ldr	r1, [r3, #20]
 80016be:	6d7b      	ldr	r3, [r7, #84]	@ 0x54
 80016c0:	891a      	ldrh	r2, [r3, #8]
 80016c2:	f8b7 3050 	ldrh.w	r3, [r7, #80]	@ 0x50
 80016c6:	f004 f9cb 	bl	8005a60 <USB_ReadPMA>
 80016ca:	e023      	b.n	8001714 <PCD_EP_ISR_Handler+0x4e4>
              }
            }
            else
            {
              /* read from endpoint BUF1Addr buffer */
              count = (uint16_t)PCD_GET_EP_DBUF1_CNT(hpcd->Instance, ep->num);
 80016cc:	687b      	ldr	r3, [r7, #4]
 80016ce:	681b      	ldr	r3, [r3, #0]
 80016d0:	f8b3 3050 	ldrh.w	r3, [r3, #80]	@ 0x50
 80016d4:	b29b      	uxth	r3, r3
 80016d6:	461a      	mov	r2, r3
 80016d8:	6d7b      	ldr	r3, [r7, #84]	@ 0x54
 80016da:	781b      	ldrb	r3, [r3, #0]
 80016dc:	00db      	lsls	r3, r3, #3
 80016de:	4413      	add	r3, r2
 80016e0:	3306      	adds	r3, #6
 80016e2:	005b      	lsls	r3, r3, #1
 80016e4:	687a      	ldr	r2, [r7, #4]
 80016e6:	6812      	ldr	r2, [r2, #0]
 80016e8:	4413      	add	r3, r2
 80016ea:	f503 6380 	add.w	r3, r3, #1024	@ 0x400
 80016ee:	881b      	ldrh	r3, [r3, #0]
 80016f0:	f3c3 0309 	ubfx	r3, r3, #0, #10
 80016f4:	f8a7 3050 	strh.w	r3, [r7, #80]	@ 0x50

              if (count != 0U)
 80016f8:	f8b7 3050 	ldrh.w	r3, [r7, #80]	@ 0x50
 80016fc:	2b00      	cmp	r3, #0
 80016fe:	d009      	beq.n	8001714 <PCD_EP_ISR_Handler+0x4e4>
              {
                USB_ReadPMA(hpcd->Instance, ep->xfer_buff, ep->pmaaddr1, count);
 8001700:	687b      	ldr	r3, [r7, #4]
 8001702:	6818      	ldr	r0, [r3, #0]
 8001704:	6d7b      	ldr	r3, [r7, #84]	@ 0x54
 8001706:	6959      	ldr	r1, [r3, #20]
 8001708:	6d7b      	ldr	r3, [r7, #84]	@ 0x54
 800170a:	895a      	ldrh	r2, [r3, #10]
 800170c:	f8b7 3050 	ldrh.w	r3, [r7, #80]	@ 0x50
 8001710:	f004 f9a6 	bl	8005a60 <USB_ReadPMA>
          }
        }
#endif /* (USE_USB_DOUBLE_BUFFER == 1U) */

        /* multi-packet on the NON control OUT endpoint */
        ep->xfer_count += count;
 8001714:	6d7b      	ldr	r3, [r7, #84]	@ 0x54
 8001716:	69da      	ldr	r2, [r3, #28]
 8001718:	f8b7 3050 	ldrh.w	r3, [r7, #80]	@ 0x50
 800171c:	441a      	add	r2, r3
 800171e:	6d7b      	ldr	r3, [r7, #84]	@ 0x54
 8001720:	61da      	str	r2, [r3, #28]
        ep->xfer_buff += count;
 8001722:	6d7b      	ldr	r3, [r7, #84]	@ 0x54
 8001724:	695a      	ldr	r2, [r3, #20]
 8001726:	f8b7 3050 	ldrh.w	r3, [r7, #80]	@ 0x50
 800172a:	441a      	add	r2, r3
 800172c:	6d7b      	ldr	r3, [r7, #84]	@ 0x54
 800172e:	615a      	str	r2, [r3, #20]

        if ((ep->xfer_len == 0U) || (count < ep->maxpacket))
 8001730:	6d7b      	ldr	r3, [r7, #84]	@ 0x54
 8001732:	699b      	ldr	r3, [r3, #24]
 8001734:	2b00      	cmp	r3, #0
 8001736:	d005      	beq.n	8001744 <PCD_EP_ISR_Handler+0x514>
 8001738:	f8b7 2050 	ldrh.w	r2, [r7, #80]	@ 0x50
 800173c:	6d7b      	ldr	r3, [r7, #84]	@ 0x54
 800173e:	691b      	ldr	r3, [r3, #16]
 8001740:	429a      	cmp	r2, r3
 8001742:	d206      	bcs.n	8001752 <PCD_EP_ISR_Handler+0x522>
        {
          /* RX COMPLETE */
#if (USE_HAL_PCD_REGISTER_CALLBACKS == 1U)
          hpcd->DataOutStageCallback(hpcd, ep->num);
#else
          HAL_PCD_DataOutStageCallback(hpcd, ep->num);
 8001744:	6d7b      	ldr	r3, [r7, #84]	@ 0x54
 8001746:	781b      	ldrb	r3, [r3, #0]
 8001748:	4619      	mov	r1, r3
 800174a:	6878      	ldr	r0, [r7, #4]
 800174c:	f005 fd54 	bl	80071f8 <HAL_PCD_DataOutStageCallback>
 8001750:	e005      	b.n	800175e <PCD_EP_ISR_Handler+0x52e>
#endif /* USE_HAL_PCD_REGISTER_CALLBACKS */
        }
        else
        {
          (void)USB_EPStartXfer(hpcd->Instance, ep);
 8001752:	687b      	ldr	r3, [r7, #4]
 8001754:	681b      	ldr	r3, [r3, #0]
 8001756:	6d79      	ldr	r1, [r7, #84]	@ 0x54
 8001758:	4618      	mov	r0, r3
 800175a:	f002 fc4d 	bl	8003ff8 <USB_EPStartXfer>
        }
      }

      if ((wEPVal & USB_EP_CTR_TX) != 0U)
 800175e:	f8b7 304a 	ldrh.w	r3, [r7, #74]	@ 0x4a
 8001762:	f003 0380 	and.w	r3, r3, #128	@ 0x80
 8001766:	2b00      	cmp	r3, #0
 8001768:	f000 8123 	beq.w	80019b2 <PCD_EP_ISR_Handler+0x782>
      {
        ep = &hpcd->IN_ep[epindex];
 800176c:	f897 204d 	ldrb.w	r2, [r7, #77]	@ 0x4d
 8001770:	4613      	mov	r3, r2
 8001772:	009b      	lsls	r3, r3, #2
 8001774:	4413      	add	r3, r2
 8001776:	00db      	lsls	r3, r3, #3
 8001778:	3310      	adds	r3, #16
 800177a:	687a      	ldr	r2, [r7, #4]
 800177c:	4413      	add	r3, r2
 800177e:	657b      	str	r3, [r7, #84]	@ 0x54

        /* clear int flag */
        PCD_CLEAR_TX_EP_CTR(hpcd->Instance, epindex);
 8001780:	687b      	ldr	r3, [r7, #4]
 8001782:	681b      	ldr	r3, [r3, #0]
 8001784:	461a      	mov	r2, r3
 8001786:	f897 304d 	ldrb.w	r3, [r7, #77]	@ 0x4d
 800178a:	009b      	lsls	r3, r3, #2
 800178c:	4413      	add	r3, r2
 800178e:	881b      	ldrh	r3, [r3, #0]
 8001790:	b29b      	uxth	r3, r3
 8001792:	f423 43e1 	bic.w	r3, r3, #28800	@ 0x7080
 8001796:	f023 0370 	bic.w	r3, r3, #112	@ 0x70
 800179a:	f8a7 3042 	strh.w	r3, [r7, #66]	@ 0x42
 800179e:	687b      	ldr	r3, [r7, #4]
 80017a0:	681b      	ldr	r3, [r3, #0]
 80017a2:	461a      	mov	r2, r3
 80017a4:	f897 304d 	ldrb.w	r3, [r7, #77]	@ 0x4d
 80017a8:	009b      	lsls	r3, r3, #2
 80017aa:	441a      	add	r2, r3
 80017ac:	f8b7 3042 	ldrh.w	r3, [r7, #66]	@ 0x42
 80017b0:	ea6f 4343 	mvn.w	r3, r3, lsl #17
 80017b4:	ea6f 4353 	mvn.w	r3, r3, lsr #17
 80017b8:	b29b      	uxth	r3, r3
 80017ba:	8013      	strh	r3, [r2, #0]

        if (ep->type == EP_TYPE_ISOC)
 80017bc:	6d7b      	ldr	r3, [r7, #84]	@ 0x54
 80017be:	78db      	ldrb	r3, [r3, #3]
 80017c0:	2b01      	cmp	r3, #1
 80017c2:	f040 80a2 	bne.w	800190a <PCD_EP_ISR_Handler+0x6da>
        {
          ep->xfer_len = 0U;
 80017c6:	6d7b      	ldr	r3, [r7, #84]	@ 0x54
 80017c8:	2200      	movs	r2, #0
 80017ca:	619a      	str	r2, [r3, #24]

#if (USE_USB_DOUBLE_BUFFER == 1U)
          if (ep->doublebuffer != 0U)
 80017cc:	6d7b      	ldr	r3, [r7, #84]	@ 0x54
 80017ce:	7b1b      	ldrb	r3, [r3, #12]
 80017d0:	2b00      	cmp	r3, #0
 80017d2:	f000 8093 	beq.w	80018fc <PCD_EP_ISR_Handler+0x6cc>
          {
            if ((wEPVal & USB_EP_DTOG_TX) != 0U)
 80017d6:	f8b7 304a 	ldrh.w	r3, [r7, #74]	@ 0x4a
 80017da:	f003 0340 	and.w	r3, r3, #64	@ 0x40
 80017de:	2b00      	cmp	r3, #0
 80017e0:	d046      	beq.n	8001870 <PCD_EP_ISR_Handler+0x640>
            {
              PCD_SET_EP_DBUF0_CNT(hpcd->Instance, ep->num, ep->is_in, 0U);
 80017e2:	6d7b      	ldr	r3, [r7, #84]	@ 0x54
 80017e4:	785b      	ldrb	r3, [r3, #1]
 80017e6:	2b00      	cmp	r3, #0
 80017e8:	d126      	bne.n	8001838 <PCD_EP_ISR_Handler+0x608>
 80017ea:	687b      	ldr	r3, [r7, #4]
 80017ec:	681b      	ldr	r3, [r3, #0]
 80017ee:	627b      	str	r3, [r7, #36]	@ 0x24
 80017f0:	687b      	ldr	r3, [r7, #4]
 80017f2:	681b      	ldr	r3, [r3, #0]
 80017f4:	f8b3 3050 	ldrh.w	r3, [r3, #80]	@ 0x50
 80017f8:	b29b      	uxth	r3, r3
 80017fa:	461a      	mov	r2, r3
 80017fc:	6a7b      	ldr	r3, [r7, #36]	@ 0x24
 80017fe:	4413      	add	r3, r2
 8001800:	627b      	str	r3, [r7, #36]	@ 0x24
 8001802:	6d7b      	ldr	r3, [r7, #84]	@ 0x54
 8001804:	781b      	ldrb	r3, [r3, #0]
 8001806:	011a      	lsls	r2, r3, #4
 8001808:	6a7b      	ldr	r3, [r7, #36]	@ 0x24
 800180a:	4413      	add	r3, r2
 800180c:	f203 4304 	addw	r3, r3, #1028	@ 0x404
 8001810:	623b      	str	r3, [r7, #32]
 8001812:	6a3b      	ldr	r3, [r7, #32]
 8001814:	881b      	ldrh	r3, [r3, #0]
 8001816:	b29b      	uxth	r3, r3
 8001818:	f3c3 0309 	ubfx	r3, r3, #0, #10
 800181c:	b29a      	uxth	r2, r3
 800181e:	6a3b      	ldr	r3, [r7, #32]
 8001820:	801a      	strh	r2, [r3, #0]
 8001822:	6a3b      	ldr	r3, [r7, #32]
 8001824:	881b      	ldrh	r3, [r3, #0]
 8001826:	b29b      	uxth	r3, r3
 8001828:	ea6f 4343 	mvn.w	r3, r3, lsl #17
 800182c:	ea6f 4353 	mvn.w	r3, r3, lsr #17
 8001830:	b29a      	uxth	r2, r3
 8001832:	6a3b      	ldr	r3, [r7, #32]
 8001834:	801a      	strh	r2, [r3, #0]
 8001836:	e061      	b.n	80018fc <PCD_EP_ISR_Handler+0x6cc>
 8001838:	6d7b      	ldr	r3, [r7, #84]	@ 0x54
 800183a:	785b      	ldrb	r3, [r3, #1]
 800183c:	2b01      	cmp	r3, #1
 800183e:	d15d      	bne.n	80018fc <PCD_EP_ISR_Handler+0x6cc>
 8001840:	687b      	ldr	r3, [r7, #4]
 8001842:	681b      	ldr	r3, [r3, #0]
 8001844:	62fb      	str	r3, [r7, #44]	@ 0x2c
 8001846:	687b      	ldr	r3, [r7, #4]
 8001848:	681b      	ldr	r3, [r3, #0]
 800184a:	f8b3 3050 	ldrh.w	r3, [r3, #80]	@ 0x50
 800184e:	b29b      	uxth	r3, r3
 8001850:	461a      	mov	r2, r3
 8001852:	6afb      	ldr	r3, [r7, #44]	@ 0x2c
 8001854:	4413      	add	r3, r2
 8001856:	62fb      	str	r3, [r7, #44]	@ 0x2c
 8001858:	6d7b      	ldr	r3, [r7, #84]	@ 0x54
 800185a:	781b      	ldrb	r3, [r3, #0]
 800185c:	011a      	lsls	r2, r3, #4
 800185e:	6afb      	ldr	r3, [r7, #44]	@ 0x2c
 8001860:	4413      	add	r3, r2
 8001862:	f203 4304 	addw	r3, r3, #1028	@ 0x404
 8001866:	62bb      	str	r3, [r7, #40]	@ 0x28
 8001868:	6abb      	ldr	r3, [r7, #40]	@ 0x28
 800186a:	2200      	movs	r2, #0
 800186c:	801a      	strh	r2, [r3, #0]
 800186e:	e045      	b.n	80018fc <PCD_EP_ISR_Handler+0x6cc>
            }
            else
            {
              PCD_SET_EP_DBUF1_CNT(hpcd->Instance, ep->num, ep->is_in, 0U);
 8001870:	687b      	ldr	r3, [r7, #4]
 8001872:	681b      	ldr	r3, [r3, #0]
 8001874:	63fb      	str	r3, [r7, #60]	@ 0x3c
 8001876:	6d7b      	ldr	r3, [r7, #84]	@ 0x54
 8001878:	785b      	ldrb	r3, [r3, #1]
 800187a:	2b00      	cmp	r3, #0
 800187c:	d126      	bne.n	80018cc <PCD_EP_ISR_Handler+0x69c>
 800187e:	687b      	ldr	r3, [r7, #4]
 8001880:	681b      	ldr	r3, [r3, #0]
 8001882:	637b      	str	r3, [r7, #52]	@ 0x34
 8001884:	687b      	ldr	r3, [r7, #4]
 8001886:	681b      	ldr	r3, [r3, #0]
 8001888:	f8b3 3050 	ldrh.w	r3, [r3, #80]	@ 0x50
 800188c:	b29b      	uxth	r3, r3
 800188e:	461a      	mov	r2, r3
 8001890:	6b7b      	ldr	r3, [r7, #52]	@ 0x34
 8001892:	4413      	add	r3, r2
 8001894:	637b      	str	r3, [r7, #52]	@ 0x34
 8001896:	6d7b      	ldr	r3, [r7, #84]	@ 0x54
 8001898:	781b      	ldrb	r3, [r3, #0]
 800189a:	011a      	lsls	r2, r3, #4
 800189c:	6b7b      	ldr	r3, [r7, #52]	@ 0x34
 800189e:	4413      	add	r3, r2
 80018a0:	f203 430c 	addw	r3, r3, #1036	@ 0x40c
 80018a4:	633b      	str	r3, [r7, #48]	@ 0x30
 80018a6:	6b3b      	ldr	r3, [r7, #48]	@ 0x30
 80018a8:	881b      	ldrh	r3, [r3, #0]
 80018aa:	b29b      	uxth	r3, r3
 80018ac:	f3c3 0309 	ubfx	r3, r3, #0, #10
 80018b0:	b29a      	uxth	r2, r3
 80018b2:	6b3b      	ldr	r3, [r7, #48]	@ 0x30
 80018b4:	801a      	strh	r2, [r3, #0]
 80018b6:	6b3b      	ldr	r3, [r7, #48]	@ 0x30
 80018b8:	881b      	ldrh	r3, [r3, #0]
 80018ba:	b29b      	uxth	r3, r3
 80018bc:	ea6f 4343 	mvn.w	r3, r3, lsl #17
 80018c0:	ea6f 4353 	mvn.w	r3, r3, lsr #17
 80018c4:	b29a      	uxth	r2, r3
 80018c6:	6b3b      	ldr	r3, [r7, #48]	@ 0x30
 80018c8:	801a      	strh	r2, [r3, #0]
 80018ca:	e017      	b.n	80018fc <PCD_EP_ISR_Handler+0x6cc>
 80018cc:	6d7b      	ldr	r3, [r7, #84]	@ 0x54
 80018ce:	785b      	ldrb	r3, [r3, #1]
 80018d0:	2b01      	cmp	r3, #1
 80018d2:	d113      	bne.n	80018fc <PCD_EP_ISR_Handler+0x6cc>
 80018d4:	687b      	ldr	r3, [r7, #4]
 80018d6:	681b      	ldr	r3, [r3, #0]
 80018d8:	f8b3 3050 	ldrh.w	r3, [r3, #80]	@ 0x50
 80018dc:	b29b      	uxth	r3, r3
 80018de:	461a      	mov	r2, r3
 80018e0:	6bfb      	ldr	r3, [r7, #60]	@ 0x3c
 80018e2:	4413      	add	r3, r2
 80018e4:	63fb      	str	r3, [r7, #60]	@ 0x3c
 80018e6:	6d7b      	ldr	r3, [r7, #84]	@ 0x54
 80018e8:	781b      	ldrb	r3, [r3, #0]
 80018ea:	011a      	lsls	r2, r3, #4
 80018ec:	6bfb      	ldr	r3, [r7, #60]	@ 0x3c
 80018ee:	4413      	add	r3, r2
 80018f0:	f203 430c 	addw	r3, r3, #1036	@ 0x40c
 80018f4:	63bb      	str	r3, [r7, #56]	@ 0x38
 80018f6:	6bbb      	ldr	r3, [r7, #56]	@ 0x38
 80018f8:	2200      	movs	r2, #0
 80018fa:	801a      	strh	r2, [r3, #0]

          /* TX COMPLETE */
#if (USE_HAL_PCD_REGISTER_CALLBACKS == 1U)
          hpcd->DataInStageCallback(hpcd, ep->num);
#else
          HAL_PCD_DataInStageCallback(hpcd, ep->num);
 80018fc:	6d7b      	ldr	r3, [r7, #84]	@ 0x54
 80018fe:	781b      	ldrb	r3, [r3, #0]
 8001900:	4619      	mov	r1, r3
 8001902:	6878      	ldr	r0, [r7, #4]
 8001904:	f005 fc93 	bl	800722e <HAL_PCD_DataInStageCallback>
 8001908:	e053      	b.n	80019b2 <PCD_EP_ISR_Handler+0x782>
#endif /* USE_HAL_PCD_REGISTER_CALLBACKS */
        }
        else
        {
          /* Manage Single Buffer Transaction */
          if ((wEPVal & USB_EP_KIND) == 0U)
 800190a:	f8b7 304a 	ldrh.w	r3, [r7, #74]	@ 0x4a
 800190e:	f403 7380 	and.w	r3, r3, #256	@ 0x100
 8001912:	2b00      	cmp	r3, #0
 8001914:	d146      	bne.n	80019a4 <PCD_EP_ISR_Handler+0x774>
          {
            /* multi-packet on the NON control IN endpoint */
            TxPctSize = (uint16_t)PCD_GET_EP_TX_CNT(hpcd->Instance, ep->num);
 8001916:	687b      	ldr	r3, [r7, #4]
 8001918:	681b      	ldr	r3, [r3, #0]
 800191a:	f8b3 3050 	ldrh.w	r3, [r3, #80]	@ 0x50
 800191e:	b29b      	uxth	r3, r3
 8001920:	461a      	mov	r2, r3
 8001922:	6d7b      	ldr	r3, [r7, #84]	@ 0x54
 8001924:	781b      	ldrb	r3, [r3, #0]
 8001926:	00db      	lsls	r3, r3, #3
 8001928:	4413      	add	r3, r2
 800192a:	3302      	adds	r3, #2
 800192c:	005b      	lsls	r3, r3, #1
 800192e:	687a      	ldr	r2, [r7, #4]
 8001930:	6812      	ldr	r2, [r2, #0]
 8001932:	4413      	add	r3, r2
 8001934:	f503 6380 	add.w	r3, r3, #1024	@ 0x400
 8001938:	881b      	ldrh	r3, [r3, #0]
 800193a:	f3c3 0309 	ubfx	r3, r3, #0, #10
 800193e:	f8a7 3040 	strh.w	r3, [r7, #64]	@ 0x40

            if (ep->xfer_len > TxPctSize)
 8001942:	6d7b      	ldr	r3, [r7, #84]	@ 0x54
 8001944:	699a      	ldr	r2, [r3, #24]
 8001946:	f8b7 3040 	ldrh.w	r3, [r7, #64]	@ 0x40
 800194a:	429a      	cmp	r2, r3
 800194c:	d907      	bls.n	800195e <PCD_EP_ISR_Handler+0x72e>
            {
              ep->xfer_len -= TxPctSize;
 800194e:	6d7b      	ldr	r3, [r7, #84]	@ 0x54
 8001950:	699a      	ldr	r2, [r3, #24]
 8001952:	f8b7 3040 	ldrh.w	r3, [r7, #64]	@ 0x40
 8001956:	1ad2      	subs	r2, r2, r3
 8001958:	6d7b      	ldr	r3, [r7, #84]	@ 0x54
 800195a:	619a      	str	r2, [r3, #24]
 800195c:	e002      	b.n	8001964 <PCD_EP_ISR_Handler+0x734>
            }
            else
            {
              ep->xfer_len = 0U;
 800195e:	6d7b      	ldr	r3, [r7, #84]	@ 0x54
 8001960:	2200      	movs	r2, #0
 8001962:	619a      	str	r2, [r3, #24]
            }

            /* Zero Length Packet? */
            if (ep->xfer_len == 0U)
 8001964:	6d7b      	ldr	r3, [r7, #84]	@ 0x54
 8001966:	699b      	ldr	r3, [r3, #24]
 8001968:	2b00      	cmp	r3, #0
 800196a:	d106      	bne.n	800197a <PCD_EP_ISR_Handler+0x74a>
            {
              /* TX COMPLETE */
#if (USE_HAL_PCD_REGISTER_CALLBACKS == 1U)
              hpcd->DataInStageCallback(hpcd, ep->num);
#else
              HAL_PCD_DataInStageCallback(hpcd, ep->num);
 800196c:	6d7b      	ldr	r3, [r7, #84]	@ 0x54
 800196e:	781b      	ldrb	r3, [r3, #0]
 8001970:	4619      	mov	r1, r3
 8001972:	6878      	ldr	r0, [r7, #4]
 8001974:	f005 fc5b 	bl	800722e <HAL_PCD_DataInStageCallback>
 8001978:	e01b      	b.n	80019b2 <PCD_EP_ISR_Handler+0x782>
#endif /* USE_HAL_PCD_REGISTER_CALLBACKS */
            }
            else
            {
              /* Transfer is not yet Done */
              ep->xfer_buff += TxPctSize;
 800197a:	6d7b      	ldr	r3, [r7, #84]	@ 0x54
 800197c:	695a      	ldr	r2, [r3, #20]
 800197e:	f8b7 3040 	ldrh.w	r3, [r7, #64]	@ 0x40
 8001982:	441a      	add	r2, r3
 8001984:	6d7b      	ldr	r3, [r7, #84]	@ 0x54
 8001986:	615a      	str	r2, [r3, #20]
              ep->xfer_count += TxPctSize;
 8001988:	6d7b      	ldr	r3, [r7, #84]	@ 0x54
 800198a:	69da      	ldr	r2, [r3, #28]
 800198c:	f8b7 3040 	ldrh.w	r3, [r7, #64]	@ 0x40
 8001990:	441a      	add	r2, r3
 8001992:	6d7b      	ldr	r3, [r7, #84]	@ 0x54
 8001994:	61da      	str	r2, [r3, #28]
              (void)USB_EPStartXfer(hpcd->Instance, ep);
 8001996:	687b      	ldr	r3, [r7, #4]
 8001998:	681b      	ldr	r3, [r3, #0]
 800199a:	6d79      	ldr	r1, [r7, #84]	@ 0x54
 800199c:	4618      	mov	r0, r3
 800199e:	f002 fb2b 	bl	8003ff8 <USB_EPStartXfer>
 80019a2:	e006      	b.n	80019b2 <PCD_EP_ISR_Handler+0x782>
          }
#if (USE_USB_DOUBLE_BUFFER == 1U)
          /* Double Buffer bulk IN (bulk transfer Len > Ep_Mps) */
          else
          {
            (void)HAL_PCD_EP_DB_Transmit(hpcd, ep, wEPVal);
 80019a4:	f8b7 304a 	ldrh.w	r3, [r7, #74]	@ 0x4a
 80019a8:	461a      	mov	r2, r3
 80019aa:	6d79      	ldr	r1, [r7, #84]	@ 0x54
 80019ac:	6878      	ldr	r0, [r7, #4]
 80019ae:	f000 f91b 	bl	8001be8 <HAL_PCD_EP_DB_Transmit>
  while ((hpcd->Instance->ISTR & USB_ISTR_CTR) != 0U)
 80019b2:	687b      	ldr	r3, [r7, #4]
 80019b4:	681b      	ldr	r3, [r3, #0]
 80019b6:	f8b3 3044 	ldrh.w	r3, [r3, #68]	@ 0x44
 80019ba:	b29b      	uxth	r3, r3
 80019bc:	b21b      	sxth	r3, r3
 80019be:	2b00      	cmp	r3, #0
 80019c0:	f6ff ac3b 	blt.w	800123a <PCD_EP_ISR_Handler+0xa>
        }
      }
    }
  }

  return HAL_OK;
 80019c4:	2300      	movs	r3, #0
}
 80019c6:	4618      	mov	r0, r3
 80019c8:	3758      	adds	r7, #88	@ 0x58
 80019ca:	46bd      	mov	sp, r7
 80019cc:	bd80      	pop	{r7, pc}

080019ce <HAL_PCD_EP_DB_Receive>:
  * @param  wEPVal Last snapshot of EPRx register value taken in ISR
  * @retval HAL status
  */
static uint16_t HAL_PCD_EP_DB_Receive(PCD_HandleTypeDef *hpcd,
                                      PCD_EPTypeDef *ep, uint16_t wEPVal)
{
 80019ce:	b580      	push	{r7, lr}
 80019d0:	b088      	sub	sp, #32
 80019d2:	af00      	add	r7, sp, #0
 80019d4:	60f8      	str	r0, [r7, #12]
 80019d6:	60b9      	str	r1, [r7, #8]
 80019d8:	4613      	mov	r3, r2
 80019da:	80fb      	strh	r3, [r7, #6]
  uint16_t count;

  /* Manage Buffer0 OUT */
  if ((wEPVal & USB_EP_DTOG_RX) != 0U)
 80019dc:	88fb      	ldrh	r3, [r7, #6]
 80019de:	f403 4380 	and.w	r3, r3, #16384	@ 0x4000
 80019e2:	2b00      	cmp	r3, #0
 80019e4:	d07e      	beq.n	8001ae4 <HAL_PCD_EP_DB_Receive+0x116>
  {
    /* Get count of received Data on buffer0 */
    count = (uint16_t)PCD_GET_EP_DBUF0_CNT(hpcd->Instance, ep->num);
 80019e6:	68fb      	ldr	r3, [r7, #12]
 80019e8:	681b      	ldr	r3, [r3, #0]
 80019ea:	f8b3 3050 	ldrh.w	r3, [r3, #80]	@ 0x50
 80019ee:	b29b      	uxth	r3, r3
 80019f0:	461a      	mov	r2, r3
 80019f2:	68bb      	ldr	r3, [r7, #8]
 80019f4:	781b      	ldrb	r3, [r3, #0]
 80019f6:	00db      	lsls	r3, r3, #3
 80019f8:	4413      	add	r3, r2
 80019fa:	3302      	adds	r3, #2
 80019fc:	005b      	lsls	r3, r3, #1
 80019fe:	68fa      	ldr	r2, [r7, #12]
 8001a00:	6812      	ldr	r2, [r2, #0]
 8001a02:	4413      	add	r3, r2
 8001a04:	f503 6380 	add.w	r3, r3, #1024	@ 0x400
 8001a08:	881b      	ldrh	r3, [r3, #0]
 8001a0a:	f3c3 0309 	ubfx	r3, r3, #0, #10
 8001a0e:	837b      	strh	r3, [r7, #26]

    if (ep->xfer_len >= count)
 8001a10:	68bb      	ldr	r3, [r7, #8]
 8001a12:	699a      	ldr	r2, [r3, #24]
 8001a14:	8b7b      	ldrh	r3, [r7, #26]
 8001a16:	429a      	cmp	r2, r3
 8001a18:	d306      	bcc.n	8001a28 <HAL_PCD_EP_DB_Receive+0x5a>
    {
      ep->xfer_len -= count;
 8001a1a:	68bb      	ldr	r3, [r7, #8]
 8001a1c:	699a      	ldr	r2, [r3, #24]
 8001a1e:	8b7b      	ldrh	r3, [r7, #26]
 8001a20:	1ad2      	subs	r2, r2, r3
 8001a22:	68bb      	ldr	r3, [r7, #8]
 8001a24:	619a      	str	r2, [r3, #24]
 8001a26:	e002      	b.n	8001a2e <HAL_PCD_EP_DB_Receive+0x60>
    }
    else
    {
      ep->xfer_len = 0U;
 8001a28:	68bb      	ldr	r3, [r7, #8]
 8001a2a:	2200      	movs	r2, #0
 8001a2c:	619a      	str	r2, [r3, #24]
    }

    if (ep->xfer_len == 0U)
 8001a2e:	68bb      	ldr	r3, [r7, #8]
 8001a30:	699b      	ldr	r3, [r3, #24]
 8001a32:	2b00      	cmp	r3, #0
 8001a34:	d123      	bne.n	8001a7e <HAL_PCD_EP_DB_Receive+0xb0>
    {
      /* set NAK to OUT endpoint since double buffer is enabled */
      PCD_SET_EP_RX_STATUS(hpcd->Instance, ep->num, USB_EP_RX_NAK);
 8001a36:	68fb      	ldr	r3, [r7, #12]
 8001a38:	681b      	ldr	r3, [r3, #0]
 8001a3a:	461a      	mov	r2, r3
 8001a3c:	68bb      	ldr	r3, [r7, #8]
 8001a3e:	781b      	ldrb	r3, [r3, #0]
 8001a40:	009b      	lsls	r3, r3, #2
 8001a42:	4413      	add	r3, r2
 8001a44:	881b      	ldrh	r3, [r3, #0]
 8001a46:	b29b      	uxth	r3, r3
 8001a48:	f423 4380 	bic.w	r3, r3, #16384	@ 0x4000
 8001a4c:	f023 0370 	bic.w	r3, r3, #112	@ 0x70
 8001a50:	833b      	strh	r3, [r7, #24]
 8001a52:	8b3b      	ldrh	r3, [r7, #24]
 8001a54:	f483 5300 	eor.w	r3, r3, #8192	@ 0x2000
 8001a58:	833b      	strh	r3, [r7, #24]
 8001a5a:	68fb      	ldr	r3, [r7, #12]
 8001a5c:	681b      	ldr	r3, [r3, #0]
 8001a5e:	461a      	mov	r2, r3
 8001a60:	68bb      	ldr	r3, [r7, #8]
 8001a62:	781b      	ldrb	r3, [r3, #0]
 8001a64:	009b      	lsls	r3, r3, #2
 8001a66:	441a      	add	r2, r3
 8001a68:	8b3b      	ldrh	r3, [r7, #24]
 8001a6a:	f043 437f 	orr.w	r3, r3, #4278190080	@ 0xff000000
 8001a6e:	f443 037f 	orr.w	r3, r3, #16711680	@ 0xff0000
 8001a72:	f443 4300 	orr.w	r3, r3, #32768	@ 0x8000
 8001a76:	f043 0380 	orr.w	r3, r3, #128	@ 0x80
 8001a7a:	b29b      	uxth	r3, r3
 8001a7c:	8013      	strh	r3, [r2, #0]
    }

    /* Check if Buffer1 is in blocked state which requires to toggle */
    if ((wEPVal & USB_EP_DTOG_TX) != 0U)
 8001a7e:	88fb      	ldrh	r3, [r7, #6]
 8001a80:	f003 0340 	and.w	r3, r3, #64	@ 0x40
 8001a84:	2b00      	cmp	r3, #0
 8001a86:	d01f      	beq.n	8001ac8 <HAL_PCD_EP_DB_Receive+0xfa>
    {
      PCD_FREE_USER_BUFFER(hpcd->Instance, ep->num, 0U);
 8001a88:	68fb      	ldr	r3, [r7, #12]
 8001a8a:	681b      	ldr	r3, [r3, #0]
 8001a8c:	461a      	mov	r2, r3
 8001a8e:	68bb      	ldr	r3, [r7, #8]
 8001a90:	781b      	ldrb	r3, [r3, #0]
 8001a92:	009b      	lsls	r3, r3, #2
 8001a94:	4413      	add	r3, r2
 8001a96:	881b      	ldrh	r3, [r3, #0]
 8001a98:	b29b      	uxth	r3, r3
 8001a9a:	f423 43e0 	bic.w	r3, r3, #28672	@ 0x7000
 8001a9e:	f023 0370 	bic.w	r3, r3, #112	@ 0x70
 8001aa2:	82fb      	strh	r3, [r7, #22]
 8001aa4:	68fb      	ldr	r3, [r7, #12]
 8001aa6:	681b      	ldr	r3, [r3, #0]
 8001aa8:	461a      	mov	r2, r3
 8001aaa:	68bb      	ldr	r3, [r7, #8]
 8001aac:	781b      	ldrb	r3, [r3, #0]
 8001aae:	009b      	lsls	r3, r3, #2
 8001ab0:	441a      	add	r2, r3
 8001ab2:	8afb      	ldrh	r3, [r7, #22]
 8001ab4:	f043 437f 	orr.w	r3, r3, #4278190080	@ 0xff000000
 8001ab8:	f443 037f 	orr.w	r3, r3, #16711680	@ 0xff0000
 8001abc:	f443 4300 	orr.w	r3, r3, #32768	@ 0x8000
 8001ac0:	f043 03c0 	orr.w	r3, r3, #192	@ 0xc0
 8001ac4:	b29b      	uxth	r3, r3
 8001ac6:	8013      	strh	r3, [r2, #0]
    }

    if (count != 0U)
 8001ac8:	8b7b      	ldrh	r3, [r7, #26]
 8001aca:	2b00      	cmp	r3, #0
 8001acc:	f000 8087 	beq.w	8001bde <HAL_PCD_EP_DB_Receive+0x210>
    {
      USB_ReadPMA(hpcd->Instance, ep->xfer_buff, ep->pmaaddr0, count);
 8001ad0:	68fb      	ldr	r3, [r7, #12]
 8001ad2:	6818      	ldr	r0, [r3, #0]
 8001ad4:	68bb      	ldr	r3, [r7, #8]
 8001ad6:	6959      	ldr	r1, [r3, #20]
 8001ad8:	68bb      	ldr	r3, [r7, #8]
 8001ada:	891a      	ldrh	r2, [r3, #8]
 8001adc:	8b7b      	ldrh	r3, [r7, #26]
 8001ade:	f003 ffbf 	bl	8005a60 <USB_ReadPMA>
 8001ae2:	e07c      	b.n	8001bde <HAL_PCD_EP_DB_Receive+0x210>
  }
  /* Manage Buffer 1 DTOG_RX=0 */
  else
  {
    /* Get count of received data */
    count = (uint16_t)PCD_GET_EP_DBUF1_CNT(hpcd->Instance, ep->num);
 8001ae4:	68fb      	ldr	r3, [r7, #12]
 8001ae6:	681b      	ldr	r3, [r3, #0]
 8001ae8:	f8b3 3050 	ldrh.w	r3, [r3, #80]	@ 0x50
 8001aec:	b29b      	uxth	r3, r3
 8001aee:	461a      	mov	r2, r3
 8001af0:	68bb      	ldr	r3, [r7, #8]
 8001af2:	781b      	ldrb	r3, [r3, #0]
 8001af4:	00db      	lsls	r3, r3, #3
 8001af6:	4413      	add	r3, r2
 8001af8:	3306      	adds	r3, #6
 8001afa:	005b      	lsls	r3, r3, #1
 8001afc:	68fa      	ldr	r2, [r7, #12]
 8001afe:	6812      	ldr	r2, [r2, #0]
 8001b00:	4413      	add	r3, r2
 8001b02:	f503 6380 	add.w	r3, r3, #1024	@ 0x400
 8001b06:	881b      	ldrh	r3, [r3, #0]
 8001b08:	f3c3 0309 	ubfx	r3, r3, #0, #10
 8001b0c:	837b      	strh	r3, [r7, #26]

    if (ep->xfer_len >= count)
 8001b0e:	68bb      	ldr	r3, [r7, #8]
 8001b10:	699a      	ldr	r2, [r3, #24]
 8001b12:	8b7b      	ldrh	r3, [r7, #26]
 8001b14:	429a      	cmp	r2, r3
 8001b16:	d306      	bcc.n	8001b26 <HAL_PCD_EP_DB_Receive+0x158>
    {
      ep->xfer_len -= count;
 8001b18:	68bb      	ldr	r3, [r7, #8]
 8001b1a:	699a      	ldr	r2, [r3, #24]
 8001b1c:	8b7b      	ldrh	r3, [r7, #26]
 8001b1e:	1ad2      	subs	r2, r2, r3
 8001b20:	68bb      	ldr	r3, [r7, #8]
 8001b22:	619a      	str	r2, [r3, #24]
 8001b24:	e002      	b.n	8001b2c <HAL_PCD_EP_DB_Receive+0x15e>
    }
    else
    {
      ep->xfer_len = 0U;
 8001b26:	68bb      	ldr	r3, [r7, #8]
 8001b28:	2200      	movs	r2, #0
 8001b2a:	619a      	str	r2, [r3, #24]
    }

    if (ep->xfer_len == 0U)
 8001b2c:	68bb      	ldr	r3, [r7, #8]
 8001b2e:	699b      	ldr	r3, [r3, #24]
 8001b30:	2b00      	cmp	r3, #0
 8001b32:	d123      	bne.n	8001b7c <HAL_PCD_EP_DB_Receive+0x1ae>
    {
      /* set NAK on the current endpoint */
      PCD_SET_EP_RX_STATUS(hpcd->Instance, ep->num, USB_EP_RX_NAK);
 8001b34:	68fb      	ldr	r3, [r7, #12]
 8001b36:	681b      	ldr	r3, [r3, #0]
 8001b38:	461a      	mov	r2, r3
 8001b3a:	68bb      	ldr	r3, [r7, #8]
 8001b3c:	781b      	ldrb	r3, [r3, #0]
 8001b3e:	009b      	lsls	r3, r3, #2
 8001b40:	4413      	add	r3, r2
 8001b42:	881b      	ldrh	r3, [r3, #0]
 8001b44:	b29b      	uxth	r3, r3
 8001b46:	f423 4380 	bic.w	r3, r3, #16384	@ 0x4000
 8001b4a:	f023 0370 	bic.w	r3, r3, #112	@ 0x70
 8001b4e:	83fb      	strh	r3, [r7, #30]
 8001b50:	8bfb      	ldrh	r3, [r7, #30]
 8001b52:	f483 5300 	eor.w	r3, r3, #8192	@ 0x2000
 8001b56:	83fb      	strh	r3, [r7, #30]
 8001b58:	68fb      	ldr	r3, [r7, #12]
 8001b5a:	681b      	ldr	r3, [r3, #0]
 8001b5c:	461a      	mov	r2, r3
 8001b5e:	68bb      	ldr	r3, [r7, #8]
 8001b60:	781b      	ldrb	r3, [r3, #0]
 8001b62:	009b      	lsls	r3, r3, #2
 8001b64:	441a      	add	r2, r3
 8001b66:	8bfb      	ldrh	r3, [r7, #30]
 8001b68:	f043 437f 	orr.w	r3, r3, #4278190080	@ 0xff000000
 8001b6c:	f443 037f 	orr.w	r3, r3, #16711680	@ 0xff0000
 8001b70:	f443 4300 	orr.w	r3, r3, #32768	@ 0x8000
 8001b74:	f043 0380 	orr.w	r3, r3, #128	@ 0x80
 8001b78:	b29b      	uxth	r3, r3
 8001b7a:	8013      	strh	r3, [r2, #0]
    }

    /*Need to FreeUser Buffer*/
    if ((wEPVal & USB_EP_DTOG_TX) == 0U)
 8001b7c:	88fb      	ldrh	r3, [r7, #6]
 8001b7e:	f003 0340 	and.w	r3, r3, #64	@ 0x40
 8001b82:	2b00      	cmp	r3, #0
 8001b84:	d11f      	bne.n	8001bc6 <HAL_PCD_EP_DB_Receive+0x1f8>
    {
      PCD_FREE_USER_BUFFER(hpcd->Instance, ep->num, 0U);
 8001b86:	68fb      	ldr	r3, [r7, #12]
 8001b88:	681b      	ldr	r3, [r3, #0]
 8001b8a:	461a      	mov	r2, r3
 8001b8c:	68bb      	ldr	r3, [r7, #8]
 8001b8e:	781b      	ldrb	r3, [r3, #0]
 8001b90:	009b      	lsls	r3, r3, #2
 8001b92:	4413      	add	r3, r2
 8001b94:	881b      	ldrh	r3, [r3, #0]
 8001b96:	b29b      	uxth	r3, r3
 8001b98:	f423 43e0 	bic.w	r3, r3, #28672	@ 0x7000
 8001b9c:	f023 0370 	bic.w	r3, r3, #112	@ 0x70
 8001ba0:	83bb      	strh	r3, [r7, #28]
 8001ba2:	68fb      	ldr	r3, [r7, #12]
 8001ba4:	681b      	ldr	r3, [r3, #0]
 8001ba6:	461a      	mov	r2, r3
 8001ba8:	68bb      	ldr	r3, [r7, #8]
 8001baa:	781b      	ldrb	r3, [r3, #0]
 8001bac:	009b      	lsls	r3, r3, #2
 8001bae:	441a      	add	r2, r3
 8001bb0:	8bbb      	ldrh	r3, [r7, #28]
 8001bb2:	f043 437f 	orr.w	r3, r3, #4278190080	@ 0xff000000
 8001bb6:	f443 037f 	orr.w	r3, r3, #16711680	@ 0xff0000
 8001bba:	f443 4300 	orr.w	r3, r3, #32768	@ 0x8000
 8001bbe:	f043 03c0 	orr.w	r3, r3, #192	@ 0xc0
 8001bc2:	b29b      	uxth	r3, r3
 8001bc4:	8013      	strh	r3, [r2, #0]
    }

    if (count != 0U)
 8001bc6:	8b7b      	ldrh	r3, [r7, #26]
 8001bc8:	2b00      	cmp	r3, #0
 8001bca:	d008      	beq.n	8001bde <HAL_PCD_EP_DB_Receive+0x210>
    {
      USB_ReadPMA(hpcd->Instance, ep->xfer_buff, ep->pmaaddr1, count);
 8001bcc:	68fb      	ldr	r3, [r7, #12]
 8001bce:	6818      	ldr	r0, [r3, #0]
 8001bd0:	68bb      	ldr	r3, [r7, #8]
 8001bd2:	6959      	ldr	r1, [r3, #20]
 8001bd4:	68bb      	ldr	r3, [r7, #8]
 8001bd6:	895a      	ldrh	r2, [r3, #10]
 8001bd8:	8b7b      	ldrh	r3, [r7, #26]
 8001bda:	f003 ff41 	bl	8005a60 <USB_ReadPMA>
    }
  }

  return count;
 8001bde:	8b7b      	ldrh	r3, [r7, #26]
}
 8001be0:	4618      	mov	r0, r3
 8001be2:	3720      	adds	r7, #32
 8001be4:	46bd      	mov	sp, r7
 8001be6:	bd80      	pop	{r7, pc}

08001be8 <HAL_PCD_EP_DB_Transmit>:
  * @param  wEPVal Last snapshot of EPRx register value taken in ISR
  * @retval HAL status
  */
static HAL_StatusTypeDef HAL_PCD_EP_DB_Transmit(PCD_HandleTypeDef *hpcd,
                                                PCD_EPTypeDef *ep, uint16_t wEPVal)
{
 8001be8:	b580      	push	{r7, lr}
 8001bea:	b0a4      	sub	sp, #144	@ 0x90
 8001bec:	af00      	add	r7, sp, #0
 8001bee:	60f8      	str	r0, [r7, #12]
 8001bf0:	60b9      	str	r1, [r7, #8]
 8001bf2:	4613      	mov	r3, r2
 8001bf4:	80fb      	strh	r3, [r7, #6]
  uint32_t len;
  uint16_t TxPctSize;

  /* Data Buffer0 ACK received */
  if ((wEPVal & USB_EP_DTOG_TX) != 0U)
 8001bf6:	88fb      	ldrh	r3, [r7, #6]
 8001bf8:	f003 0340 	and.w	r3, r3, #64	@ 0x40
 8001bfc:	2b00      	cmp	r3, #0
 8001bfe:	f000 81dd 	beq.w	8001fbc <HAL_PCD_EP_DB_Transmit+0x3d4>
  {
    /* multi-packet on the NON control IN endpoint */
    TxPctSize = (uint16_t)PCD_GET_EP_DBUF0_CNT(hpcd->Instance, ep->num);
 8001c02:	68fb      	ldr	r3, [r7, #12]
 8001c04:	681b      	ldr	r3, [r3, #0]
 8001c06:	f8b3 3050 	ldrh.w	r3, [r3, #80]	@ 0x50
 8001c0a:	b29b      	uxth	r3, r3
 8001c0c:	461a      	mov	r2, r3
 8001c0e:	68bb      	ldr	r3, [r7, #8]
 8001c10:	781b      	ldrb	r3, [r3, #0]
 8001c12:	00db      	lsls	r3, r3, #3
 8001c14:	4413      	add	r3, r2
 8001c16:	3302      	adds	r3, #2
 8001c18:	005b      	lsls	r3, r3, #1
 8001c1a:	68fa      	ldr	r2, [r7, #12]
 8001c1c:	6812      	ldr	r2, [r2, #0]
 8001c1e:	4413      	add	r3, r2
 8001c20:	f503 6380 	add.w	r3, r3, #1024	@ 0x400
 8001c24:	881b      	ldrh	r3, [r3, #0]
 8001c26:	f3c3 0309 	ubfx	r3, r3, #0, #10
 8001c2a:	f8a7 3086 	strh.w	r3, [r7, #134]	@ 0x86

    if (ep->xfer_len > TxPctSize)
 8001c2e:	68bb      	ldr	r3, [r7, #8]
 8001c30:	699a      	ldr	r2, [r3, #24]
 8001c32:	f8b7 3086 	ldrh.w	r3, [r7, #134]	@ 0x86
 8001c36:	429a      	cmp	r2, r3
 8001c38:	d907      	bls.n	8001c4a <HAL_PCD_EP_DB_Transmit+0x62>
    {
      ep->xfer_len -= TxPctSize;
 8001c3a:	68bb      	ldr	r3, [r7, #8]
 8001c3c:	699a      	ldr	r2, [r3, #24]
 8001c3e:	f8b7 3086 	ldrh.w	r3, [r7, #134]	@ 0x86
 8001c42:	1ad2      	subs	r2, r2, r3
 8001c44:	68bb      	ldr	r3, [r7, #8]
 8001c46:	619a      	str	r2, [r3, #24]
 8001c48:	e002      	b.n	8001c50 <HAL_PCD_EP_DB_Transmit+0x68>
    }
    else
    {
      ep->xfer_len = 0U;
 8001c4a:	68bb      	ldr	r3, [r7, #8]
 8001c4c:	2200      	movs	r2, #0
 8001c4e:	619a      	str	r2, [r3, #24]
    }

    /* Transfer is completed */
    if (ep->xfer_len == 0U)
 8001c50:	68bb      	ldr	r3, [r7, #8]
 8001c52:	699b      	ldr	r3, [r3, #24]
 8001c54:	2b00      	cmp	r3, #0
 8001c56:	f040 80b9 	bne.w	8001dcc <HAL_PCD_EP_DB_Transmit+0x1e4>
    {
      PCD_SET_EP_DBUF0_CNT(hpcd->Instance, ep->num, ep->is_in, 0U);
 8001c5a:	68bb      	ldr	r3, [r7, #8]
 8001c5c:	785b      	ldrb	r3, [r3, #1]
 8001c5e:	2b00      	cmp	r3, #0
 8001c60:	d126      	bne.n	8001cb0 <HAL_PCD_EP_DB_Transmit+0xc8>
 8001c62:	68fb      	ldr	r3, [r7, #12]
 8001c64:	681b      	ldr	r3, [r3, #0]
 8001c66:	62fb      	str	r3, [r7, #44]	@ 0x2c
 8001c68:	68fb      	ldr	r3, [r7, #12]
 8001c6a:	681b      	ldr	r3, [r3, #0]
 8001c6c:	f8b3 3050 	ldrh.w	r3, [r3, #80]	@ 0x50
 8001c70:	b29b      	uxth	r3, r3
 8001c72:	461a      	mov	r2, r3
 8001c74:	6afb      	ldr	r3, [r7, #44]	@ 0x2c
 8001c76:	4413      	add	r3, r2
 8001c78:	62fb      	str	r3, [r7, #44]	@ 0x2c
 8001c7a:	68bb      	ldr	r3, [r7, #8]
 8001c7c:	781b      	ldrb	r3, [r3, #0]
 8001c7e:	011a      	lsls	r2, r3, #4
 8001c80:	6afb      	ldr	r3, [r7, #44]	@ 0x2c
 8001c82:	4413      	add	r3, r2
 8001c84:	f203 4304 	addw	r3, r3, #1028	@ 0x404
 8001c88:	62bb      	str	r3, [r7, #40]	@ 0x28
 8001c8a:	6abb      	ldr	r3, [r7, #40]	@ 0x28
 8001c8c:	881b      	ldrh	r3, [r3, #0]
 8001c8e:	b29b      	uxth	r3, r3
 8001c90:	f3c3 0309 	ubfx	r3, r3, #0, #10
 8001c94:	b29a      	uxth	r2, r3
 8001c96:	6abb      	ldr	r3, [r7, #40]	@ 0x28
 8001c98:	801a      	strh	r2, [r3, #0]
 8001c9a:	6abb      	ldr	r3, [r7, #40]	@ 0x28
 8001c9c:	881b      	ldrh	r3, [r3, #0]
 8001c9e:	b29b      	uxth	r3, r3
 8001ca0:	ea6f 4343 	mvn.w	r3, r3, lsl #17
 8001ca4:	ea6f 4353 	mvn.w	r3, r3, lsr #17
 8001ca8:	b29a      	uxth	r2, r3
 8001caa:	6abb      	ldr	r3, [r7, #40]	@ 0x28
 8001cac:	801a      	strh	r2, [r3, #0]
 8001cae:	e01a      	b.n	8001ce6 <HAL_PCD_EP_DB_Transmit+0xfe>
 8001cb0:	68bb      	ldr	r3, [r7, #8]
 8001cb2:	785b      	ldrb	r3, [r3, #1]
 8001cb4:	2b01      	cmp	r3, #1
 8001cb6:	d116      	bne.n	8001ce6 <HAL_PCD_EP_DB_Transmit+0xfe>
 8001cb8:	68fb      	ldr	r3, [r7, #12]
 8001cba:	681b      	ldr	r3, [r3, #0]
 8001cbc:	637b      	str	r3, [r7, #52]	@ 0x34
 8001cbe:	68fb      	ldr	r3, [r7, #12]
 8001cc0:	681b      	ldr	r3, [r3, #0]
 8001cc2:	f8b3 3050 	ldrh.w	r3, [r3, #80]	@ 0x50
 8001cc6:	b29b      	uxth	r3, r3
 8001cc8:	461a      	mov	r2, r3
 8001cca:	6b7b      	ldr	r3, [r7, #52]	@ 0x34
 8001ccc:	4413      	add	r3, r2
 8001cce:	637b      	str	r3, [r7, #52]	@ 0x34
 8001cd0:	68bb      	ldr	r3, [r7, #8]
 8001cd2:	781b      	ldrb	r3, [r3, #0]
 8001cd4:	011a      	lsls	r2, r3, #4
 8001cd6:	6b7b      	ldr	r3, [r7, #52]	@ 0x34
 8001cd8:	4413      	add	r3, r2
 8001cda:	f203 4304 	addw	r3, r3, #1028	@ 0x404
 8001cde:	633b      	str	r3, [r7, #48]	@ 0x30
 8001ce0:	6b3b      	ldr	r3, [r7, #48]	@ 0x30
 8001ce2:	2200      	movs	r2, #0
 8001ce4:	801a      	strh	r2, [r3, #0]
      PCD_SET_EP_DBUF1_CNT(hpcd->Instance, ep->num, ep->is_in, 0U);
 8001ce6:	68fb      	ldr	r3, [r7, #12]
 8001ce8:	681b      	ldr	r3, [r3, #0]
 8001cea:	627b      	str	r3, [r7, #36]	@ 0x24
 8001cec:	68bb      	ldr	r3, [r7, #8]
 8001cee:	785b      	ldrb	r3, [r3, #1]
 8001cf0:	2b00      	cmp	r3, #0
 8001cf2:	d126      	bne.n	8001d42 <HAL_PCD_EP_DB_Transmit+0x15a>
 8001cf4:	68fb      	ldr	r3, [r7, #12]
 8001cf6:	681b      	ldr	r3, [r3, #0]
 8001cf8:	61fb      	str	r3, [r7, #28]
 8001cfa:	68fb      	ldr	r3, [r7, #12]
 8001cfc:	681b      	ldr	r3, [r3, #0]
 8001cfe:	f8b3 3050 	ldrh.w	r3, [r3, #80]	@ 0x50
 8001d02:	b29b      	uxth	r3, r3
 8001d04:	461a      	mov	r2, r3
 8001d06:	69fb      	ldr	r3, [r7, #28]
 8001d08:	4413      	add	r3, r2
 8001d0a:	61fb      	str	r3, [r7, #28]
 8001d0c:	68bb      	ldr	r3, [r7, #8]
 8001d0e:	781b      	ldrb	r3, [r3, #0]
 8001d10:	011a      	lsls	r2, r3, #4
 8001d12:	69fb      	ldr	r3, [r7, #28]
 8001d14:	4413      	add	r3, r2
 8001d16:	f203 430c 	addw	r3, r3, #1036	@ 0x40c
 8001d1a:	61bb      	str	r3, [r7, #24]
 8001d1c:	69bb      	ldr	r3, [r7, #24]
 8001d1e:	881b      	ldrh	r3, [r3, #0]
 8001d20:	b29b      	uxth	r3, r3
 8001d22:	f3c3 0309 	ubfx	r3, r3, #0, #10
 8001d26:	b29a      	uxth	r2, r3
 8001d28:	69bb      	ldr	r3, [r7, #24]
 8001d2a:	801a      	strh	r2, [r3, #0]
 8001d2c:	69bb      	ldr	r3, [r7, #24]
 8001d2e:	881b      	ldrh	r3, [r3, #0]
 8001d30:	b29b      	uxth	r3, r3
 8001d32:	ea6f 4343 	mvn.w	r3, r3, lsl #17
 8001d36:	ea6f 4353 	mvn.w	r3, r3, lsr #17
 8001d3a:	b29a      	uxth	r2, r3
 8001d3c:	69bb      	ldr	r3, [r7, #24]
 8001d3e:	801a      	strh	r2, [r3, #0]
 8001d40:	e017      	b.n	8001d72 <HAL_PCD_EP_DB_Transmit+0x18a>
 8001d42:	68bb      	ldr	r3, [r7, #8]
 8001d44:	785b      	ldrb	r3, [r3, #1]
 8001d46:	2b01      	cmp	r3, #1
 8001d48:	d113      	bne.n	8001d72 <HAL_PCD_EP_DB_Transmit+0x18a>
 8001d4a:	68fb      	ldr	r3, [r7, #12]
 8001d4c:	681b      	ldr	r3, [r3, #0]
 8001d4e:	f8b3 3050 	ldrh.w	r3, [r3, #80]	@ 0x50
 8001d52:	b29b      	uxth	r3, r3
 8001d54:	461a      	mov	r2, r3
 8001d56:	6a7b      	ldr	r3, [r7, #36]	@ 0x24
 8001d58:	4413      	add	r3, r2
 8001d5a:	627b      	str	r3, [r7, #36]	@ 0x24
 8001d5c:	68bb      	ldr	r3, [r7, #8]
 8001d5e:	781b      	ldrb	r3, [r3, #0]
 8001d60:	011a      	lsls	r2, r3, #4
 8001d62:	6a7b      	ldr	r3, [r7, #36]	@ 0x24
 8001d64:	4413      	add	r3, r2
 8001d66:	f203 430c 	addw	r3, r3, #1036	@ 0x40c
 8001d6a:	623b      	str	r3, [r7, #32]
 8001d6c:	6a3b      	ldr	r3, [r7, #32]
 8001d6e:	2200      	movs	r2, #0
 8001d70:	801a      	strh	r2, [r3, #0]

      /* TX COMPLETE */
#if (USE_HAL_PCD_REGISTER_CALLBACKS == 1U)
      hpcd->DataInStageCallback(hpcd, ep->num);
#else
      HAL_PCD_DataInStageCallback(hpcd, ep->num);
 8001d72:	68bb      	ldr	r3, [r7, #8]
 8001d74:	781b      	ldrb	r3, [r3, #0]
 8001d76:	4619      	mov	r1, r3
 8001d78:	68f8      	ldr	r0, [r7, #12]
 8001d7a:	f005 fa58 	bl	800722e <HAL_PCD_DataInStageCallback>
#endif /* USE_HAL_PCD_REGISTER_CALLBACKS */

      if ((wEPVal & USB_EP_DTOG_RX) != 0U)
 8001d7e:	88fb      	ldrh	r3, [r7, #6]
 8001d80:	f403 4380 	and.w	r3, r3, #16384	@ 0x4000
 8001d84:	2b00      	cmp	r3, #0
 8001d86:	f000 82fc 	beq.w	8002382 <HAL_PCD_EP_DB_Transmit+0x79a>
      {
        PCD_FREE_USER_BUFFER(hpcd->Instance, ep->num, 1U);
 8001d8a:	68fb      	ldr	r3, [r7, #12]
 8001d8c:	681b      	ldr	r3, [r3, #0]
 8001d8e:	461a      	mov	r2, r3
 8001d90:	68bb      	ldr	r3, [r7, #8]
 8001d92:	781b      	ldrb	r3, [r3, #0]
 8001d94:	009b      	lsls	r3, r3, #2
 8001d96:	4413      	add	r3, r2
 8001d98:	881b      	ldrh	r3, [r3, #0]
 8001d9a:	b29b      	uxth	r3, r3
 8001d9c:	f423 43e0 	bic.w	r3, r3, #28672	@ 0x7000
 8001da0:	f023 0370 	bic.w	r3, r3, #112	@ 0x70
 8001da4:	82fb      	strh	r3, [r7, #22]
 8001da6:	68fb      	ldr	r3, [r7, #12]
 8001da8:	681b      	ldr	r3, [r3, #0]
 8001daa:	461a      	mov	r2, r3
 8001dac:	68bb      	ldr	r3, [r7, #8]
 8001dae:	781b      	ldrb	r3, [r3, #0]
 8001db0:	009b      	lsls	r3, r3, #2
 8001db2:	441a      	add	r2, r3
 8001db4:	8afb      	ldrh	r3, [r7, #22]
 8001db6:	f043 437f 	orr.w	r3, r3, #4278190080	@ 0xff000000
 8001dba:	f443 037f 	orr.w	r3, r3, #16711680	@ 0xff0000
 8001dbe:	f443 4340 	orr.w	r3, r3, #49152	@ 0xc000
 8001dc2:	f043 0380 	orr.w	r3, r3, #128	@ 0x80
 8001dc6:	b29b      	uxth	r3, r3
 8001dc8:	8013      	strh	r3, [r2, #0]
 8001dca:	e2da      	b.n	8002382 <HAL_PCD_EP_DB_Transmit+0x79a>
      }
    }
    else /* Transfer is not yet Done */
    {
      /* need to Free USB Buff */
      if ((wEPVal & USB_EP_DTOG_RX) != 0U)
 8001dcc:	88fb      	ldrh	r3, [r7, #6]
 8001dce:	f403 4380 	and.w	r3, r3, #16384	@ 0x4000
 8001dd2:	2b00      	cmp	r3, #0
 8001dd4:	d021      	beq.n	8001e1a <HAL_PCD_EP_DB_Transmit+0x232>
      {
        PCD_FREE_USER_BUFFER(hpcd->Instance, ep->num, 1U);
 8001dd6:	68fb      	ldr	r3, [r7, #12]
 8001dd8:	681b      	ldr	r3, [r3, #0]
 8001dda:	461a      	mov	r2, r3
 8001ddc:	68bb      	ldr	r3, [r7, #8]
 8001dde:	781b      	ldrb	r3, [r3, #0]
 8001de0:	009b      	lsls	r3, r3, #2
 8001de2:	4413      	add	r3, r2
 8001de4:	881b      	ldrh	r3, [r3, #0]
 8001de6:	b29b      	uxth	r3, r3
 8001de8:	f423 43e0 	bic.w	r3, r3, #28672	@ 0x7000
 8001dec:	f023 0370 	bic.w	r3, r3, #112	@ 0x70
 8001df0:	f8a7 308a 	strh.w	r3, [r7, #138]	@ 0x8a
 8001df4:	68fb      	ldr	r3, [r7, #12]
 8001df6:	681b      	ldr	r3, [r3, #0]
 8001df8:	461a      	mov	r2, r3
 8001dfa:	68bb      	ldr	r3, [r7, #8]
 8001dfc:	781b      	ldrb	r3, [r3, #0]
 8001dfe:	009b      	lsls	r3, r3, #2
 8001e00:	441a      	add	r2, r3
 8001e02:	f8b7 308a 	ldrh.w	r3, [r7, #138]	@ 0x8a
 8001e06:	f043 437f 	orr.w	r3, r3, #4278190080	@ 0xff000000
 8001e0a:	f443 037f 	orr.w	r3, r3, #16711680	@ 0xff0000
 8001e0e:	f443 4340 	orr.w	r3, r3, #49152	@ 0xc000
 8001e12:	f043 0380 	orr.w	r3, r3, #128	@ 0x80
 8001e16:	b29b      	uxth	r3, r3
 8001e18:	8013      	strh	r3, [r2, #0]
      }

      /* Still there is data to Fill in the next Buffer */
      if (ep->xfer_fill_db == 1U)
 8001e1a:	68bb      	ldr	r3, [r7, #8]
 8001e1c:	f893 3024 	ldrb.w	r3, [r3, #36]	@ 0x24
 8001e20:	2b01      	cmp	r3, #1
 8001e22:	f040 82ae 	bne.w	8002382 <HAL_PCD_EP_DB_Transmit+0x79a>
      {
        ep->xfer_buff += TxPctSize;
 8001e26:	68bb      	ldr	r3, [r7, #8]
 8001e28:	695a      	ldr	r2, [r3, #20]
 8001e2a:	f8b7 3086 	ldrh.w	r3, [r7, #134]	@ 0x86
 8001e2e:	441a      	add	r2, r3
 8001e30:	68bb      	ldr	r3, [r7, #8]
 8001e32:	615a      	str	r2, [r3, #20]
        ep->xfer_count += TxPctSize;
 8001e34:	68bb      	ldr	r3, [r7, #8]
 8001e36:	69da      	ldr	r2, [r3, #28]
 8001e38:	f8b7 3086 	ldrh.w	r3, [r7, #134]	@ 0x86
 8001e3c:	441a      	add	r2, r3
 8001e3e:	68bb      	ldr	r3, [r7, #8]
 8001e40:	61da      	str	r2, [r3, #28]

        /* Calculate the len of the new buffer to fill */
        if (ep->xfer_len_db >= ep->maxpacket)
 8001e42:	68bb      	ldr	r3, [r7, #8]
 8001e44:	6a1a      	ldr	r2, [r3, #32]
 8001e46:	68bb      	ldr	r3, [r7, #8]
 8001e48:	691b      	ldr	r3, [r3, #16]
 8001e4a:	429a      	cmp	r2, r3
 8001e4c:	d30b      	bcc.n	8001e66 <HAL_PCD_EP_DB_Transmit+0x27e>
        {
          len = ep->maxpacket;
 8001e4e:	68bb      	ldr	r3, [r7, #8]
 8001e50:	691b      	ldr	r3, [r3, #16]
 8001e52:	f8c7 308c 	str.w	r3, [r7, #140]	@ 0x8c
          ep->xfer_len_db -= len;
 8001e56:	68bb      	ldr	r3, [r7, #8]
 8001e58:	6a1a      	ldr	r2, [r3, #32]
 8001e5a:	f8d7 308c 	ldr.w	r3, [r7, #140]	@ 0x8c
 8001e5e:	1ad2      	subs	r2, r2, r3
 8001e60:	68bb      	ldr	r3, [r7, #8]
 8001e62:	621a      	str	r2, [r3, #32]
 8001e64:	e017      	b.n	8001e96 <HAL_PCD_EP_DB_Transmit+0x2ae>
        }
        else if (ep->xfer_len_db == 0U)
 8001e66:	68bb      	ldr	r3, [r7, #8]
 8001e68:	6a1b      	ldr	r3, [r3, #32]
 8001e6a:	2b00      	cmp	r3, #0
 8001e6c:	d108      	bne.n	8001e80 <HAL_PCD_EP_DB_Transmit+0x298>
        {
          len = TxPctSize;
 8001e6e:	f8b7 3086 	ldrh.w	r3, [r7, #134]	@ 0x86
 8001e72:	f8c7 308c 	str.w	r3, [r7, #140]	@ 0x8c
          ep->xfer_fill_db = 0U;
 8001e76:	68bb      	ldr	r3, [r7, #8]
 8001e78:	2200      	movs	r2, #0
 8001e7a:	f883 2024 	strb.w	r2, [r3, #36]	@ 0x24
 8001e7e:	e00a      	b.n	8001e96 <HAL_PCD_EP_DB_Transmit+0x2ae>
        }
        else
        {
          ep->xfer_fill_db = 0U;
 8001e80:	68bb      	ldr	r3, [r7, #8]
 8001e82:	2200      	movs	r2, #0
 8001e84:	f883 2024 	strb.w	r2, [r3, #36]	@ 0x24
          len = ep->xfer_len_db;
 8001e88:	68bb      	ldr	r3, [r7, #8]
 8001e8a:	6a1b      	ldr	r3, [r3, #32]
 8001e8c:	f8c7 308c 	str.w	r3, [r7, #140]	@ 0x8c
          ep->xfer_len_db = 0U;
 8001e90:	68bb      	ldr	r3, [r7, #8]
 8001e92:	2200      	movs	r2, #0
 8001e94:	621a      	str	r2, [r3, #32]
        }

        /* Write remaining Data to Buffer */
        /* Set the Double buffer counter for pma buffer1 */
        PCD_SET_EP_DBUF0_CNT(hpcd->Instance, ep->num, ep->is_in, len);
 8001e96:	68bb      	ldr	r3, [r7, #8]
 8001e98:	785b      	ldrb	r3, [r3, #1]
 8001e9a:	2b00      	cmp	r3, #0
 8001e9c:	d165      	bne.n	8001f6a <HAL_PCD_EP_DB_Transmit+0x382>
 8001e9e:	68fb      	ldr	r3, [r7, #12]
 8001ea0:	681b      	ldr	r3, [r3, #0]
 8001ea2:	63fb      	str	r3, [r7, #60]	@ 0x3c
 8001ea4:	68fb      	ldr	r3, [r7, #12]
 8001ea6:	681b      	ldr	r3, [r3, #0]
 8001ea8:	f8b3 3050 	ldrh.w	r3, [r3, #80]	@ 0x50
 8001eac:	b29b      	uxth	r3, r3
 8001eae:	461a      	mov	r2, r3
 8001eb0:	6bfb      	ldr	r3, [r7, #60]	@ 0x3c
 8001eb2:	4413      	add	r3, r2
 8001eb4:	63fb      	str	r3, [r7, #60]	@ 0x3c
 8001eb6:	68bb      	ldr	r3, [r7, #8]
 8001eb8:	781b      	ldrb	r3, [r3, #0]
 8001eba:	011a      	lsls	r2, r3, #4
 8001ebc:	6bfb      	ldr	r3, [r7, #60]	@ 0x3c
 8001ebe:	4413      	add	r3, r2
 8001ec0:	f203 4304 	addw	r3, r3, #1028	@ 0x404
 8001ec4:	63bb      	str	r3, [r7, #56]	@ 0x38
 8001ec6:	6bbb      	ldr	r3, [r7, #56]	@ 0x38
 8001ec8:	881b      	ldrh	r3, [r3, #0]
 8001eca:	b29b      	uxth	r3, r3
 8001ecc:	f3c3 0309 	ubfx	r3, r3, #0, #10
 8001ed0:	b29a      	uxth	r2, r3
 8001ed2:	6bbb      	ldr	r3, [r7, #56]	@ 0x38
 8001ed4:	801a      	strh	r2, [r3, #0]
 8001ed6:	f8d7 308c 	ldr.w	r3, [r7, #140]	@ 0x8c
 8001eda:	2b3e      	cmp	r3, #62	@ 0x3e
 8001edc:	d91d      	bls.n	8001f1a <HAL_PCD_EP_DB_Transmit+0x332>
 8001ede:	f8d7 308c 	ldr.w	r3, [r7, #140]	@ 0x8c
 8001ee2:	095b      	lsrs	r3, r3, #5
 8001ee4:	64bb      	str	r3, [r7, #72]	@ 0x48
 8001ee6:	f8d7 308c 	ldr.w	r3, [r7, #140]	@ 0x8c
 8001eea:	f003 031f 	and.w	r3, r3, #31
 8001eee:	2b00      	cmp	r3, #0
 8001ef0:	d102      	bne.n	8001ef8 <HAL_PCD_EP_DB_Transmit+0x310>
 8001ef2:	6cbb      	ldr	r3, [r7, #72]	@ 0x48
 8001ef4:	3b01      	subs	r3, #1
 8001ef6:	64bb      	str	r3, [r7, #72]	@ 0x48
 8001ef8:	6bbb      	ldr	r3, [r7, #56]	@ 0x38
 8001efa:	881b      	ldrh	r3, [r3, #0]
 8001efc:	b29a      	uxth	r2, r3
 8001efe:	6cbb      	ldr	r3, [r7, #72]	@ 0x48
 8001f00:	b29b      	uxth	r3, r3
 8001f02:	029b      	lsls	r3, r3, #10
 8001f04:	b29b      	uxth	r3, r3
 8001f06:	4313      	orrs	r3, r2
 8001f08:	b29b      	uxth	r3, r3
 8001f0a:	ea6f 4343 	mvn.w	r3, r3, lsl #17
 8001f0e:	ea6f 4353 	mvn.w	r3, r3, lsr #17
 8001f12:	b29a      	uxth	r2, r3
 8001f14:	6bbb      	ldr	r3, [r7, #56]	@ 0x38
 8001f16:	801a      	strh	r2, [r3, #0]
 8001f18:	e044      	b.n	8001fa4 <HAL_PCD_EP_DB_Transmit+0x3bc>
 8001f1a:	f8d7 308c 	ldr.w	r3, [r7, #140]	@ 0x8c
 8001f1e:	2b00      	cmp	r3, #0
 8001f20:	d10a      	bne.n	8001f38 <HAL_PCD_EP_DB_Transmit+0x350>
 8001f22:	6bbb      	ldr	r3, [r7, #56]	@ 0x38
 8001f24:	881b      	ldrh	r3, [r3, #0]
 8001f26:	b29b      	uxth	r3, r3
 8001f28:	ea6f 4343 	mvn.w	r3, r3, lsl #17
 8001f2c:	ea6f 4353 	mvn.w	r3, r3, lsr #17
 8001f30:	b29a      	uxth	r2, r3
 8001f32:	6bbb      	ldr	r3, [r7, #56]	@ 0x38
 8001f34:	801a      	strh	r2, [r3, #0]
 8001f36:	e035      	b.n	8001fa4 <HAL_PCD_EP_DB_Transmit+0x3bc>
 8001f38:	f8d7 308c 	ldr.w	r3, [r7, #140]	@ 0x8c
 8001f3c:	085b      	lsrs	r3, r3, #1
 8001f3e:	64bb      	str	r3, [r7, #72]	@ 0x48
 8001f40:	f8d7 308c 	ldr.w	r3, [r7, #140]	@ 0x8c
 8001f44:	f003 0301 	and.w	r3, r3, #1
 8001f48:	2b00      	cmp	r3, #0
 8001f4a:	d002      	beq.n	8001f52 <HAL_PCD_EP_DB_Transmit+0x36a>
 8001f4c:	6cbb      	ldr	r3, [r7, #72]	@ 0x48
 8001f4e:	3301      	adds	r3, #1
 8001f50:	64bb      	str	r3, [r7, #72]	@ 0x48
 8001f52:	6bbb      	ldr	r3, [r7, #56]	@ 0x38
 8001f54:	881b      	ldrh	r3, [r3, #0]
 8001f56:	b29a      	uxth	r2, r3
 8001f58:	6cbb      	ldr	r3, [r7, #72]	@ 0x48
 8001f5a:	b29b      	uxth	r3, r3
 8001f5c:	029b      	lsls	r3, r3, #10
 8001f5e:	b29b      	uxth	r3, r3
 8001f60:	4313      	orrs	r3, r2
 8001f62:	b29a      	uxth	r2, r3
 8001f64:	6bbb      	ldr	r3, [r7, #56]	@ 0x38
 8001f66:	801a      	strh	r2, [r3, #0]
 8001f68:	e01c      	b.n	8001fa4 <HAL_PCD_EP_DB_Transmit+0x3bc>
 8001f6a:	68bb      	ldr	r3, [r7, #8]
 8001f6c:	785b      	ldrb	r3, [r3, #1]
 8001f6e:	2b01      	cmp	r3, #1
 8001f70:	d118      	bne.n	8001fa4 <HAL_PCD_EP_DB_Transmit+0x3bc>
 8001f72:	68fb      	ldr	r3, [r7, #12]
 8001f74:	681b      	ldr	r3, [r3, #0]
 8001f76:	647b      	str	r3, [r7, #68]	@ 0x44
 8001f78:	68fb      	ldr	r3, [r7, #12]
 8001f7a:	681b      	ldr	r3, [r3, #0]
 8001f7c:	f8b3 3050 	ldrh.w	r3, [r3, #80]	@ 0x50
 8001f80:	b29b      	uxth	r3, r3
 8001f82:	461a      	mov	r2, r3
 8001f84:	6c7b      	ldr	r3, [r7, #68]	@ 0x44
 8001f86:	4413      	add	r3, r2
 8001f88:	647b      	str	r3, [r7, #68]	@ 0x44
 8001f8a:	68bb      	ldr	r3, [r7, #8]
 8001f8c:	781b      	ldrb	r3, [r3, #0]
 8001f8e:	011a      	lsls	r2, r3, #4
 8001f90:	6c7b      	ldr	r3, [r7, #68]	@ 0x44
 8001f92:	4413      	add	r3, r2
 8001f94:	f203 4304 	addw	r3, r3, #1028	@ 0x404
 8001f98:	643b      	str	r3, [r7, #64]	@ 0x40
 8001f9a:	f8d7 308c 	ldr.w	r3, [r7, #140]	@ 0x8c
 8001f9e:	b29a      	uxth	r2, r3
 8001fa0:	6c3b      	ldr	r3, [r7, #64]	@ 0x40
 8001fa2:	801a      	strh	r2, [r3, #0]

        /* Copy user buffer to USB PMA */
        USB_WritePMA(hpcd->Instance, ep->xfer_buff,  ep->pmaaddr0, (uint16_t)len);
 8001fa4:	68fb      	ldr	r3, [r7, #12]
 8001fa6:	6818      	ldr	r0, [r3, #0]
 8001fa8:	68bb      	ldr	r3, [r7, #8]
 8001faa:	6959      	ldr	r1, [r3, #20]
 8001fac:	68bb      	ldr	r3, [r7, #8]
 8001fae:	891a      	ldrh	r2, [r3, #8]
 8001fb0:	f8d7 308c 	ldr.w	r3, [r7, #140]	@ 0x8c
 8001fb4:	b29b      	uxth	r3, r3
 8001fb6:	f003 fd0e 	bl	80059d6 <USB_WritePMA>
 8001fba:	e1e2      	b.n	8002382 <HAL_PCD_EP_DB_Transmit+0x79a>
    }
  }
  else /* Data Buffer1 ACK received */
  {
    /* multi-packet on the NON control IN endpoint */
    TxPctSize = (uint16_t)PCD_GET_EP_DBUF1_CNT(hpcd->Instance, ep->num);
 8001fbc:	68fb      	ldr	r3, [r7, #12]
 8001fbe:	681b      	ldr	r3, [r3, #0]
 8001fc0:	f8b3 3050 	ldrh.w	r3, [r3, #80]	@ 0x50
 8001fc4:	b29b      	uxth	r3, r3
 8001fc6:	461a      	mov	r2, r3
 8001fc8:	68bb      	ldr	r3, [r7, #8]
 8001fca:	781b      	ldrb	r3, [r3, #0]
 8001fcc:	00db      	lsls	r3, r3, #3
 8001fce:	4413      	add	r3, r2
 8001fd0:	3306      	adds	r3, #6
 8001fd2:	005b      	lsls	r3, r3, #1
 8001fd4:	68fa      	ldr	r2, [r7, #12]
 8001fd6:	6812      	ldr	r2, [r2, #0]
 8001fd8:	4413      	add	r3, r2
 8001fda:	f503 6380 	add.w	r3, r3, #1024	@ 0x400
 8001fde:	881b      	ldrh	r3, [r3, #0]
 8001fe0:	f3c3 0309 	ubfx	r3, r3, #0, #10
 8001fe4:	f8a7 3086 	strh.w	r3, [r7, #134]	@ 0x86

    if (ep->xfer_len >= TxPctSize)
 8001fe8:	68bb      	ldr	r3, [r7, #8]
 8001fea:	699a      	ldr	r2, [r3, #24]
 8001fec:	f8b7 3086 	ldrh.w	r3, [r7, #134]	@ 0x86
 8001ff0:	429a      	cmp	r2, r3
 8001ff2:	d307      	bcc.n	8002004 <HAL_PCD_EP_DB_Transmit+0x41c>
    {
      ep->xfer_len -= TxPctSize;
 8001ff4:	68bb      	ldr	r3, [r7, #8]
 8001ff6:	699a      	ldr	r2, [r3, #24]
 8001ff8:	f8b7 3086 	ldrh.w	r3, [r7, #134]	@ 0x86
 8001ffc:	1ad2      	subs	r2, r2, r3
 8001ffe:	68bb      	ldr	r3, [r7, #8]
 8002000:	619a      	str	r2, [r3, #24]
 8002002:	e002      	b.n	800200a <HAL_PCD_EP_DB_Transmit+0x422>
    }
    else
    {
      ep->xfer_len = 0U;
 8002004:	68bb      	ldr	r3, [r7, #8]
 8002006:	2200      	movs	r2, #0
 8002008:	619a      	str	r2, [r3, #24]
    }

    /* Transfer is completed */
    if (ep->xfer_len == 0U)
 800200a:	68bb      	ldr	r3, [r7, #8]
 800200c:	699b      	ldr	r3, [r3, #24]
 800200e:	2b00      	cmp	r3, #0
 8002010:	f040 80c0 	bne.w	8002194 <HAL_PCD_EP_DB_Transmit+0x5ac>
    {
      PCD_SET_EP_DBUF0_CNT(hpcd->Instance, ep->num, ep->is_in, 0U);
 8002014:	68bb      	ldr	r3, [r7, #8]
 8002016:	785b      	ldrb	r3, [r3, #1]
 8002018:	2b00      	cmp	r3, #0
 800201a:	d126      	bne.n	800206a <HAL_PCD_EP_DB_Transmit+0x482>
 800201c:	68fb      	ldr	r3, [r7, #12]
 800201e:	681b      	ldr	r3, [r3, #0]
 8002020:	67fb      	str	r3, [r7, #124]	@ 0x7c
 8002022:	68fb      	ldr	r3, [r7, #12]
 8002024:	681b      	ldr	r3, [r3, #0]
 8002026:	f8b3 3050 	ldrh.w	r3, [r3, #80]	@ 0x50
 800202a:	b29b      	uxth	r3, r3
 800202c:	461a      	mov	r2, r3
 800202e:	6ffb      	ldr	r3, [r7, #124]	@ 0x7c
 8002030:	4413      	add	r3, r2
 8002032:	67fb      	str	r3, [r7, #124]	@ 0x7c
 8002034:	68bb      	ldr	r3, [r7, #8]
 8002036:	781b      	ldrb	r3, [r3, #0]
 8002038:	011a      	lsls	r2, r3, #4
 800203a:	6ffb      	ldr	r3, [r7, #124]	@ 0x7c
 800203c:	4413      	add	r3, r2
 800203e:	f203 4304 	addw	r3, r3, #1028	@ 0x404
 8002042:	67bb      	str	r3, [r7, #120]	@ 0x78
 8002044:	6fbb      	ldr	r3, [r7, #120]	@ 0x78
 8002046:	881b      	ldrh	r3, [r3, #0]
 8002048:	b29b      	uxth	r3, r3
 800204a:	f3c3 0309 	ubfx	r3, r3, #0, #10
 800204e:	b29a      	uxth	r2, r3
 8002050:	6fbb      	ldr	r3, [r7, #120]	@ 0x78
 8002052:	801a      	strh	r2, [r3, #0]
 8002054:	6fbb      	ldr	r3, [r7, #120]	@ 0x78
 8002056:	881b      	ldrh	r3, [r3, #0]
 8002058:	b29b      	uxth	r3, r3
 800205a:	ea6f 4343 	mvn.w	r3, r3, lsl #17
 800205e:	ea6f 4353 	mvn.w	r3, r3, lsr #17
 8002062:	b29a      	uxth	r2, r3
 8002064:	6fbb      	ldr	r3, [r7, #120]	@ 0x78
 8002066:	801a      	strh	r2, [r3, #0]
 8002068:	e01a      	b.n	80020a0 <HAL_PCD_EP_DB_Transmit+0x4b8>
 800206a:	68bb      	ldr	r3, [r7, #8]
 800206c:	785b      	ldrb	r3, [r3, #1]
 800206e:	2b01      	cmp	r3, #1
 8002070:	d116      	bne.n	80020a0 <HAL_PCD_EP_DB_Transmit+0x4b8>
 8002072:	68fb      	ldr	r3, [r7, #12]
 8002074:	681b      	ldr	r3, [r3, #0]
 8002076:	667b      	str	r3, [r7, #100]	@ 0x64
 8002078:	68fb      	ldr	r3, [r7, #12]
 800207a:	681b      	ldr	r3, [r3, #0]
 800207c:	f8b3 3050 	ldrh.w	r3, [r3, #80]	@ 0x50
 8002080:	b29b      	uxth	r3, r3
 8002082:	461a      	mov	r2, r3
 8002084:	6e7b      	ldr	r3, [r7, #100]	@ 0x64
 8002086:	4413      	add	r3, r2
 8002088:	667b      	str	r3, [r7, #100]	@ 0x64
 800208a:	68bb      	ldr	r3, [r7, #8]
 800208c:	781b      	ldrb	r3, [r3, #0]
 800208e:	011a      	lsls	r2, r3, #4
 8002090:	6e7b      	ldr	r3, [r7, #100]	@ 0x64
 8002092:	4413      	add	r3, r2
 8002094:	f203 4304 	addw	r3, r3, #1028	@ 0x404
 8002098:	663b      	str	r3, [r7, #96]	@ 0x60
 800209a:	6e3b      	ldr	r3, [r7, #96]	@ 0x60
 800209c:	2200      	movs	r2, #0
 800209e:	801a      	strh	r2, [r3, #0]
      PCD_SET_EP_DBUF1_CNT(hpcd->Instance, ep->num, ep->is_in, 0U);
 80020a0:	68fb      	ldr	r3, [r7, #12]
 80020a2:	681b      	ldr	r3, [r3, #0]
 80020a4:	677b      	str	r3, [r7, #116]	@ 0x74
 80020a6:	68bb      	ldr	r3, [r7, #8]
 80020a8:	785b      	ldrb	r3, [r3, #1]
 80020aa:	2b00      	cmp	r3, #0
 80020ac:	d12b      	bne.n	8002106 <HAL_PCD_EP_DB_Transmit+0x51e>
 80020ae:	68fb      	ldr	r3, [r7, #12]
 80020b0:	681b      	ldr	r3, [r3, #0]
 80020b2:	66fb      	str	r3, [r7, #108]	@ 0x6c
 80020b4:	68fb      	ldr	r3, [r7, #12]
 80020b6:	681b      	ldr	r3, [r3, #0]
 80020b8:	f8b3 3050 	ldrh.w	r3, [r3, #80]	@ 0x50
 80020bc:	b29b      	uxth	r3, r3
 80020be:	461a      	mov	r2, r3
 80020c0:	6efb      	ldr	r3, [r7, #108]	@ 0x6c
 80020c2:	4413      	add	r3, r2
 80020c4:	66fb      	str	r3, [r7, #108]	@ 0x6c
 80020c6:	68bb      	ldr	r3, [r7, #8]
 80020c8:	781b      	ldrb	r3, [r3, #0]
 80020ca:	011a      	lsls	r2, r3, #4
 80020cc:	6efb      	ldr	r3, [r7, #108]	@ 0x6c
 80020ce:	4413      	add	r3, r2
 80020d0:	f203 430c 	addw	r3, r3, #1036	@ 0x40c
 80020d4:	f8c7 3080 	str.w	r3, [r7, #128]	@ 0x80
 80020d8:	f8d7 3080 	ldr.w	r3, [r7, #128]	@ 0x80
 80020dc:	881b      	ldrh	r3, [r3, #0]
 80020de:	b29b      	uxth	r3, r3
 80020e0:	f3c3 0309 	ubfx	r3, r3, #0, #10
 80020e4:	b29a      	uxth	r2, r3
 80020e6:	f8d7 3080 	ldr.w	r3, [r7, #128]	@ 0x80
 80020ea:	801a      	strh	r2, [r3, #0]
 80020ec:	f8d7 3080 	ldr.w	r3, [r7, #128]	@ 0x80
 80020f0:	881b      	ldrh	r3, [r3, #0]
 80020f2:	b29b      	uxth	r3, r3
 80020f4:	ea6f 4343 	mvn.w	r3, r3, lsl #17
 80020f8:	ea6f 4353 	mvn.w	r3, r3, lsr #17
 80020fc:	b29a      	uxth	r2, r3
 80020fe:	f8d7 3080 	ldr.w	r3, [r7, #128]	@ 0x80
 8002102:	801a      	strh	r2, [r3, #0]
 8002104:	e017      	b.n	8002136 <HAL_PCD_EP_DB_Transmit+0x54e>
 8002106:	68bb      	ldr	r3, [r7, #8]
 8002108:	785b      	ldrb	r3, [r3, #1]
 800210a:	2b01      	cmp	r3, #1
 800210c:	d113      	bne.n	8002136 <HAL_PCD_EP_DB_Transmit+0x54e>
 800210e:	68fb      	ldr	r3, [r7, #12]
 8002110:	681b      	ldr	r3, [r3, #0]
 8002112:	f8b3 3050 	ldrh.w	r3, [r3, #80]	@ 0x50
 8002116:	b29b      	uxth	r3, r3
 8002118:	461a      	mov	r2, r3
 800211a:	6f7b      	ldr	r3, [r7, #116]	@ 0x74
 800211c:	4413      	add	r3, r2
 800211e:	677b      	str	r3, [r7, #116]	@ 0x74
 8002120:	68bb      	ldr	r3, [r7, #8]
 8002122:	781b      	ldrb	r3, [r3, #0]
 8002124:	011a      	lsls	r2, r3, #4
 8002126:	6f7b      	ldr	r3, [r7, #116]	@ 0x74
 8002128:	4413      	add	r3, r2
 800212a:	f203 430c 	addw	r3, r3, #1036	@ 0x40c
 800212e:	673b      	str	r3, [r7, #112]	@ 0x70
 8002130:	6f3b      	ldr	r3, [r7, #112]	@ 0x70
 8002132:	2200      	movs	r2, #0
 8002134:	801a      	strh	r2, [r3, #0]

      /* TX COMPLETE */
#if (USE_HAL_PCD_REGISTER_CALLBACKS == 1U)
      hpcd->DataInStageCallback(hpcd, ep->num);
#else
      HAL_PCD_DataInStageCallback(hpcd, ep->num);
 8002136:	68bb      	ldr	r3, [r7, #8]
 8002138:	781b      	ldrb	r3, [r3, #0]
 800213a:	4619      	mov	r1, r3
 800213c:	68f8      	ldr	r0, [r7, #12]
 800213e:	f005 f876 	bl	800722e <HAL_PCD_DataInStageCallback>
#endif /* USE_HAL_PCD_REGISTER_CALLBACKS */

      /* need to Free USB Buff */
      if ((wEPVal & USB_EP_DTOG_RX) == 0U)
 8002142:	88fb      	ldrh	r3, [r7, #6]
 8002144:	f403 4380 	and.w	r3, r3, #16384	@ 0x4000
 8002148:	2b00      	cmp	r3, #0
 800214a:	f040 811a 	bne.w	8002382 <HAL_PCD_EP_DB_Transmit+0x79a>
      {
        PCD_FREE_USER_BUFFER(hpcd->Instance, ep->num, 1U);
 800214e:	68fb      	ldr	r3, [r7, #12]
 8002150:	681b      	ldr	r3, [r3, #0]
 8002152:	461a      	mov	r2, r3
 8002154:	68bb      	ldr	r3, [r7, #8]
 8002156:	781b      	ldrb	r3, [r3, #0]
 8002158:	009b      	lsls	r3, r3, #2
 800215a:	4413      	add	r3, r2
 800215c:	881b      	ldrh	r3, [r3, #0]
 800215e:	b29b      	uxth	r3, r3
 8002160:	f423 43e0 	bic.w	r3, r3, #28672	@ 0x7000
 8002164:	f023 0370 	bic.w	r3, r3, #112	@ 0x70
 8002168:	f8a7 3088 	strh.w	r3, [r7, #136]	@ 0x88
 800216c:	68fb      	ldr	r3, [r7, #12]
 800216e:	681b      	ldr	r3, [r3, #0]
 8002170:	461a      	mov	r2, r3
 8002172:	68bb      	ldr	r3, [r7, #8]
 8002174:	781b      	ldrb	r3, [r3, #0]
 8002176:	009b      	lsls	r3, r3, #2
 8002178:	441a      	add	r2, r3
 800217a:	f8b7 3088 	ldrh.w	r3, [r7, #136]	@ 0x88
 800217e:	f043 437f 	orr.w	r3, r3, #4278190080	@ 0xff000000
 8002182:	f443 037f 	orr.w	r3, r3, #16711680	@ 0xff0000
 8002186:	f443 4340 	orr.w	r3, r3, #49152	@ 0xc000
 800218a:	f043 0380 	orr.w	r3, r3, #128	@ 0x80
 800218e:	b29b      	uxth	r3, r3
 8002190:	8013      	strh	r3, [r2, #0]
 8002192:	e0f6      	b.n	8002382 <HAL_PCD_EP_DB_Transmit+0x79a>
      }
    }
    else /* Transfer is not yet Done */
    {
      /* need to Free USB Buff */
      if ((wEPVal & USB_EP_DTOG_RX) == 0U)
 8002194:	88fb      	ldrh	r3, [r7, #6]
 8002196:	f403 4380 	and.w	r3, r3, #16384	@ 0x4000
 800219a:	2b00      	cmp	r3, #0
 800219c:	d121      	bne.n	80021e2 <HAL_PCD_EP_DB_Transmit+0x5fa>
      {
        PCD_FREE_USER_BUFFER(hpcd->Instance, ep->num, 1U);
 800219e:	68fb      	ldr	r3, [r7, #12]
 80021a0:	681b      	ldr	r3, [r3, #0]
 80021a2:	461a      	mov	r2, r3
 80021a4:	68bb      	ldr	r3, [r7, #8]
 80021a6:	781b      	ldrb	r3, [r3, #0]
 80021a8:	009b      	lsls	r3, r3, #2
 80021aa:	4413      	add	r3, r2
 80021ac:	881b      	ldrh	r3, [r3, #0]
 80021ae:	b29b      	uxth	r3, r3
 80021b0:	f423 43e0 	bic.w	r3, r3, #28672	@ 0x7000
 80021b4:	f023 0370 	bic.w	r3, r3, #112	@ 0x70
 80021b8:	f8a7 304e 	strh.w	r3, [r7, #78]	@ 0x4e
 80021bc:	68fb      	ldr	r3, [r7, #12]
 80021be:	681b      	ldr	r3, [r3, #0]
 80021c0:	461a      	mov	r2, r3
 80021c2:	68bb      	ldr	r3, [r7, #8]
 80021c4:	781b      	ldrb	r3, [r3, #0]
 80021c6:	009b      	lsls	r3, r3, #2
 80021c8:	441a      	add	r2, r3
 80021ca:	f8b7 304e 	ldrh.w	r3, [r7, #78]	@ 0x4e
 80021ce:	f043 437f 	orr.w	r3, r3, #4278190080	@ 0xff000000
 80021d2:	f443 037f 	orr.w	r3, r3, #16711680	@ 0xff0000
 80021d6:	f443 4340 	orr.w	r3, r3, #49152	@ 0xc000
 80021da:	f043 0380 	orr.w	r3, r3, #128	@ 0x80
 80021de:	b29b      	uxth	r3, r3
 80021e0:	8013      	strh	r3, [r2, #0]
      }

      /* Still there is data to Fill in the next Buffer */
      if (ep->xfer_fill_db == 1U)
 80021e2:	68bb      	ldr	r3, [r7, #8]
 80021e4:	f893 3024 	ldrb.w	r3, [r3, #36]	@ 0x24
 80021e8:	2b01      	cmp	r3, #1
 80021ea:	f040 80ca 	bne.w	8002382 <HAL_PCD_EP_DB_Transmit+0x79a>
      {
        ep->xfer_buff += TxPctSize;
 80021ee:	68bb      	ldr	r3, [r7, #8]
 80021f0:	695a      	ldr	r2, [r3, #20]
 80021f2:	f8b7 3086 	ldrh.w	r3, [r7, #134]	@ 0x86
 80021f6:	441a      	add	r2, r3
 80021f8:	68bb      	ldr	r3, [r7, #8]
 80021fa:	615a      	str	r2, [r3, #20]
        ep->xfer_count += TxPctSize;
 80021fc:	68bb      	ldr	r3, [r7, #8]
 80021fe:	69da      	ldr	r2, [r3, #28]
 8002200:	f8b7 3086 	ldrh.w	r3, [r7, #134]	@ 0x86
 8002204:	441a      	add	r2, r3
 8002206:	68bb      	ldr	r3, [r7, #8]
 8002208:	61da      	str	r2, [r3, #28]

        /* Calculate the len of the new buffer to fill */
        if (ep->xfer_len_db >= ep->maxpacket)
 800220a:	68bb      	ldr	r3, [r7, #8]
 800220c:	6a1a      	ldr	r2, [r3, #32]
 800220e:	68bb      	ldr	r3, [r7, #8]
 8002210:	691b      	ldr	r3, [r3, #16]
 8002212:	429a      	cmp	r2, r3
 8002214:	d30b      	bcc.n	800222e <HAL_PCD_EP_DB_Transmit+0x646>
        {
          len = ep->maxpacket;
 8002216:	68bb      	ldr	r3, [r7, #8]
 8002218:	691b      	ldr	r3, [r3, #16]
 800221a:	f8c7 308c 	str.w	r3, [r7, #140]	@ 0x8c
          ep->xfer_len_db -= len;
 800221e:	68bb      	ldr	r3, [r7, #8]
 8002220:	6a1a      	ldr	r2, [r3, #32]
 8002222:	f8d7 308c 	ldr.w	r3, [r7, #140]	@ 0x8c
 8002226:	1ad2      	subs	r2, r2, r3
 8002228:	68bb      	ldr	r3, [r7, #8]
 800222a:	621a      	str	r2, [r3, #32]
 800222c:	e017      	b.n	800225e <HAL_PCD_EP_DB_Transmit+0x676>
        }
        else if (ep->xfer_len_db == 0U)
 800222e:	68bb      	ldr	r3, [r7, #8]
 8002230:	6a1b      	ldr	r3, [r3, #32]
 8002232:	2b00      	cmp	r3, #0
 8002234:	d108      	bne.n	8002248 <HAL_PCD_EP_DB_Transmit+0x660>
        {
          len = TxPctSize;
 8002236:	f8b7 3086 	ldrh.w	r3, [r7, #134]	@ 0x86
 800223a:	f8c7 308c 	str.w	r3, [r7, #140]	@ 0x8c
          ep->xfer_fill_db = 0U;
 800223e:	68bb      	ldr	r3, [r7, #8]
 8002240:	2200      	movs	r2, #0
 8002242:	f883 2024 	strb.w	r2, [r3, #36]	@ 0x24
 8002246:	e00a      	b.n	800225e <HAL_PCD_EP_DB_Transmit+0x676>
        }
        else
        {
          len = ep->xfer_len_db;
 8002248:	68bb      	ldr	r3, [r7, #8]
 800224a:	6a1b      	ldr	r3, [r3, #32]
 800224c:	f8c7 308c 	str.w	r3, [r7, #140]	@ 0x8c
          ep->xfer_len_db = 0U;
 8002250:	68bb      	ldr	r3, [r7, #8]
 8002252:	2200      	movs	r2, #0
 8002254:	621a      	str	r2, [r3, #32]
          ep->xfer_fill_db = 0;
 8002256:	68bb      	ldr	r3, [r7, #8]
 8002258:	2200      	movs	r2, #0
 800225a:	f883 2024 	strb.w	r2, [r3, #36]	@ 0x24
        }

        /* Set the Double buffer counter for pmabuffer1 */
        PCD_SET_EP_DBUF1_CNT(hpcd->Instance, ep->num, ep->is_in, len);
 800225e:	68fb      	ldr	r3, [r7, #12]
 8002260:	681b      	ldr	r3, [r3, #0]
 8002262:	657b      	str	r3, [r7, #84]	@ 0x54
 8002264:	68bb      	ldr	r3, [r7, #8]
 8002266:	785b      	ldrb	r3, [r3, #1]
 8002268:	2b00      	cmp	r3, #0
 800226a:	d165      	bne.n	8002338 <HAL_PCD_EP_DB_Transmit+0x750>
 800226c:	68fb      	ldr	r3, [r7, #12]
 800226e:	681b      	ldr	r3, [r3, #0]
 8002270:	65fb      	str	r3, [r7, #92]	@ 0x5c
 8002272:	68fb      	ldr	r3, [r7, #12]
 8002274:	681b      	ldr	r3, [r3, #0]
 8002276:	f8b3 3050 	ldrh.w	r3, [r3, #80]	@ 0x50
 800227a:	b29b      	uxth	r3, r3
 800227c:	461a      	mov	r2, r3
 800227e:	6dfb      	ldr	r3, [r7, #92]	@ 0x5c
 8002280:	4413      	add	r3, r2
 8002282:	65fb      	str	r3, [r7, #92]	@ 0x5c
 8002284:	68bb      	ldr	r3, [r7, #8]
 8002286:	781b      	ldrb	r3, [r3, #0]
 8002288:	011a      	lsls	r2, r3, #4
 800228a:	6dfb      	ldr	r3, [r7, #92]	@ 0x5c
 800228c:	4413      	add	r3, r2
 800228e:	f203 430c 	addw	r3, r3, #1036	@ 0x40c
 8002292:	65bb      	str	r3, [r7, #88]	@ 0x58
 8002294:	6dbb      	ldr	r3, [r7, #88]	@ 0x58
 8002296:	881b      	ldrh	r3, [r3, #0]
 8002298:	b29b      	uxth	r3, r3
 800229a:	f3c3 0309 	ubfx	r3, r3, #0, #10
 800229e:	b29a      	uxth	r2, r3
 80022a0:	6dbb      	ldr	r3, [r7, #88]	@ 0x58
 80022a2:	801a      	strh	r2, [r3, #0]
 80022a4:	f8d7 308c 	ldr.w	r3, [r7, #140]	@ 0x8c
 80022a8:	2b3e      	cmp	r3, #62	@ 0x3e
 80022aa:	d91d      	bls.n	80022e8 <HAL_PCD_EP_DB_Transmit+0x700>
 80022ac:	f8d7 308c 	ldr.w	r3, [r7, #140]	@ 0x8c
 80022b0:	095b      	lsrs	r3, r3, #5
 80022b2:	66bb      	str	r3, [r7, #104]	@ 0x68
 80022b4:	f8d7 308c 	ldr.w	r3, [r7, #140]	@ 0x8c
 80022b8:	f003 031f 	and.w	r3, r3, #31
 80022bc:	2b00      	cmp	r3, #0
 80022be:	d102      	bne.n	80022c6 <HAL_PCD_EP_DB_Transmit+0x6de>
 80022c0:	6ebb      	ldr	r3, [r7, #104]	@ 0x68
 80022c2:	3b01      	subs	r3, #1
 80022c4:	66bb      	str	r3, [r7, #104]	@ 0x68
 80022c6:	6dbb      	ldr	r3, [r7, #88]	@ 0x58
 80022c8:	881b      	ldrh	r3, [r3, #0]
 80022ca:	b29a      	uxth	r2, r3
 80022cc:	6ebb      	ldr	r3, [r7, #104]	@ 0x68
 80022ce:	b29b      	uxth	r3, r3
 80022d0:	029b      	lsls	r3, r3, #10
 80022d2:	b29b      	uxth	r3, r3
 80022d4:	4313      	orrs	r3, r2
 80022d6:	b29b      	uxth	r3, r3
 80022d8:	ea6f 4343 	mvn.w	r3, r3, lsl #17
 80022dc:	ea6f 4353 	mvn.w	r3, r3, lsr #17
 80022e0:	b29a      	uxth	r2, r3
 80022e2:	6dbb      	ldr	r3, [r7, #88]	@ 0x58
 80022e4:	801a      	strh	r2, [r3, #0]
 80022e6:	e041      	b.n	800236c <HAL_PCD_EP_DB_Transmit+0x784>
 80022e8:	f8d7 308c 	ldr.w	r3, [r7, #140]	@ 0x8c
 80022ec:	2b00      	cmp	r3, #0
 80022ee:	d10a      	bne.n	8002306 <HAL_PCD_EP_DB_Transmit+0x71e>
 80022f0:	6dbb      	ldr	r3, [r7, #88]	@ 0x58
 80022f2:	881b      	ldrh	r3, [r3, #0]
 80022f4:	b29b      	uxth	r3, r3
 80022f6:	ea6f 4343 	mvn.w	r3, r3, lsl #17
 80022fa:	ea6f 4353 	mvn.w	r3, r3, lsr #17
 80022fe:	b29a      	uxth	r2, r3
 8002300:	6dbb      	ldr	r3, [r7, #88]	@ 0x58
 8002302:	801a      	strh	r2, [r3, #0]
 8002304:	e032      	b.n	800236c <HAL_PCD_EP_DB_Transmit+0x784>
 8002306:	f8d7 308c 	ldr.w	r3, [r7, #140]	@ 0x8c
 800230a:	085b      	lsrs	r3, r3, #1
 800230c:	66bb      	str	r3, [r7, #104]	@ 0x68
 800230e:	f8d7 308c 	ldr.w	r3, [r7, #140]	@ 0x8c
 8002312:	f003 0301 	and.w	r3, r3, #1
 8002316:	2b00      	cmp	r3, #0
 8002318:	d002      	beq.n	8002320 <HAL_PCD_EP_DB_Transmit+0x738>
 800231a:	6ebb      	ldr	r3, [r7, #104]	@ 0x68
 800231c:	3301      	adds	r3, #1
 800231e:	66bb      	str	r3, [r7, #104]	@ 0x68
 8002320:	6dbb      	ldr	r3, [r7, #88]	@ 0x58
 8002322:	881b      	ldrh	r3, [r3, #0]
 8002324:	b29a      	uxth	r2, r3
 8002326:	6ebb      	ldr	r3, [r7, #104]	@ 0x68
 8002328:	b29b      	uxth	r3, r3
 800232a:	029b      	lsls	r3, r3, #10
 800232c:	b29b      	uxth	r3, r3
 800232e:	4313      	orrs	r3, r2
 8002330:	b29a      	uxth	r2, r3
 8002332:	6dbb      	ldr	r3, [r7, #88]	@ 0x58
 8002334:	801a      	strh	r2, [r3, #0]
 8002336:	e019      	b.n	800236c <HAL_PCD_EP_DB_Transmit+0x784>
 8002338:	68bb      	ldr	r3, [r7, #8]
 800233a:	785b      	ldrb	r3, [r3, #1]
 800233c:	2b01      	cmp	r3, #1
 800233e:	d115      	bne.n	800236c <HAL_PCD_EP_DB_Transmit+0x784>
 8002340:	68fb      	ldr	r3, [r7, #12]
 8002342:	681b      	ldr	r3, [r3, #0]
 8002344:	f8b3 3050 	ldrh.w	r3, [r3, #80]	@ 0x50
 8002348:	b29b      	uxth	r3, r3
 800234a:	461a      	mov	r2, r3
 800234c:	6d7b      	ldr	r3, [r7, #84]	@ 0x54
 800234e:	4413      	add	r3, r2
 8002350:	657b      	str	r3, [r7, #84]	@ 0x54
 8002352:	68bb      	ldr	r3, [r7, #8]
 8002354:	781b      	ldrb	r3, [r3, #0]
 8002356:	011a      	lsls	r2, r3, #4
 8002358:	6d7b      	ldr	r3, [r7, #84]	@ 0x54
 800235a:	4413      	add	r3, r2
 800235c:	f203 430c 	addw	r3, r3, #1036	@ 0x40c
 8002360:	653b      	str	r3, [r7, #80]	@ 0x50
 8002362:	f8d7 308c 	ldr.w	r3, [r7, #140]	@ 0x8c
 8002366:	b29a      	uxth	r2, r3
 8002368:	6d3b      	ldr	r3, [r7, #80]	@ 0x50
 800236a:	801a      	strh	r2, [r3, #0]

        /* Copy the user buffer to USB PMA */
        USB_WritePMA(hpcd->Instance, ep->xfer_buff,  ep->pmaaddr1, (uint16_t)len);
 800236c:	68fb      	ldr	r3, [r7, #12]
 800236e:	6818      	ldr	r0, [r3, #0]
 8002370:	68bb      	ldr	r3, [r7, #8]
 8002372:	6959      	ldr	r1, [r3, #20]
 8002374:	68bb      	ldr	r3, [r7, #8]
 8002376:	895a      	ldrh	r2, [r3, #10]
 8002378:	f8d7 308c 	ldr.w	r3, [r7, #140]	@ 0x8c
 800237c:	b29b      	uxth	r3, r3
 800237e:	f003 fb2a 	bl	80059d6 <USB_WritePMA>
      }
    }
  }

  /*enable endpoint IN*/
  PCD_SET_EP_TX_STATUS(hpcd->Instance, ep->num, USB_EP_TX_VALID);
 8002382:	68fb      	ldr	r3, [r7, #12]
 8002384:	681b      	ldr	r3, [r3, #0]
 8002386:	461a      	mov	r2, r3
 8002388:	68bb      	ldr	r3, [r7, #8]
 800238a:	781b      	ldrb	r3, [r3, #0]
 800238c:	009b      	lsls	r3, r3, #2
 800238e:	4413      	add	r3, r2
 8002390:	881b      	ldrh	r3, [r3, #0]
 8002392:	b29b      	uxth	r3, r3
 8002394:	f423 43e0 	bic.w	r3, r3, #28672	@ 0x7000
 8002398:	f023 0340 	bic.w	r3, r3, #64	@ 0x40
 800239c:	82bb      	strh	r3, [r7, #20]
 800239e:	8abb      	ldrh	r3, [r7, #20]
 80023a0:	f083 0310 	eor.w	r3, r3, #16
 80023a4:	82bb      	strh	r3, [r7, #20]
 80023a6:	8abb      	ldrh	r3, [r7, #20]
 80023a8:	f083 0320 	eor.w	r3, r3, #32
 80023ac:	82bb      	strh	r3, [r7, #20]
 80023ae:	68fb      	ldr	r3, [r7, #12]
 80023b0:	681b      	ldr	r3, [r3, #0]
 80023b2:	461a      	mov	r2, r3
 80023b4:	68bb      	ldr	r3, [r7, #8]
 80023b6:	781b      	ldrb	r3, [r3, #0]
 80023b8:	009b      	lsls	r3, r3, #2
 80023ba:	441a      	add	r2, r3
 80023bc:	8abb      	ldrh	r3, [r7, #20]
 80023be:	f043 437f 	orr.w	r3, r3, #4278190080	@ 0xff000000
 80023c2:	f443 037f 	orr.w	r3, r3, #16711680	@ 0xff0000
 80023c6:	f443 4300 	orr.w	r3, r3, #32768	@ 0x8000
 80023ca:	f043 0380 	orr.w	r3, r3, #128	@ 0x80
 80023ce:	b29b      	uxth	r3, r3
 80023d0:	8013      	strh	r3, [r2, #0]

  return HAL_OK;
 80023d2:	2300      	movs	r3, #0
}
 80023d4:	4618      	mov	r0, r3
 80023d6:	3790      	adds	r7, #144	@ 0x90
 80023d8:	46bd      	mov	sp, r7
 80023da:	bd80      	pop	{r7, pc}

080023dc <HAL_PCDEx_PMAConfig>:
  * @retval HAL status
  */

HAL_StatusTypeDef  HAL_PCDEx_PMAConfig(PCD_HandleTypeDef *hpcd, uint16_t ep_addr,
                                       uint16_t ep_kind, uint32_t pmaadress)
{
 80023dc:	b480      	push	{r7}
 80023de:	b087      	sub	sp, #28
 80023e0:	af00      	add	r7, sp, #0
 80023e2:	60f8      	str	r0, [r7, #12]
 80023e4:	607b      	str	r3, [r7, #4]
 80023e6:	460b      	mov	r3, r1
 80023e8:	817b      	strh	r3, [r7, #10]
 80023ea:	4613      	mov	r3, r2
 80023ec:	813b      	strh	r3, [r7, #8]
  PCD_EPTypeDef *ep;

  /* initialize ep structure*/
  if ((0x80U & ep_addr) == 0x80U)
 80023ee:	897b      	ldrh	r3, [r7, #10]
 80023f0:	f003 0380 	and.w	r3, r3, #128	@ 0x80
 80023f4:	b29b      	uxth	r3, r3
 80023f6:	2b00      	cmp	r3, #0
 80023f8:	d00b      	beq.n	8002412 <HAL_PCDEx_PMAConfig+0x36>
  {
    ep = &hpcd->IN_ep[ep_addr & EP_ADDR_MSK];
 80023fa:	897b      	ldrh	r3, [r7, #10]
 80023fc:	f003 0207 	and.w	r2, r3, #7
 8002400:	4613      	mov	r3, r2
 8002402:	009b      	lsls	r3, r3, #2
 8002404:	4413      	add	r3, r2
 8002406:	00db      	lsls	r3, r3, #3
 8002408:	3310      	adds	r3, #16
 800240a:	68fa      	ldr	r2, [r7, #12]
 800240c:	4413      	add	r3, r2
 800240e:	617b      	str	r3, [r7, #20]
 8002410:	e009      	b.n	8002426 <HAL_PCDEx_PMAConfig+0x4a>
  }
  else
  {
    ep = &hpcd->OUT_ep[ep_addr];
 8002412:	897a      	ldrh	r2, [r7, #10]
 8002414:	4613      	mov	r3, r2
 8002416:	009b      	lsls	r3, r3, #2
 8002418:	4413      	add	r3, r2
 800241a:	00db      	lsls	r3, r3, #3
 800241c:	f503 73a8 	add.w	r3, r3, #336	@ 0x150
 8002420:	68fa      	ldr	r2, [r7, #12]
 8002422:	4413      	add	r3, r2
 8002424:	617b      	str	r3, [r7, #20]
  }

  /* Here we check if the endpoint is single or double Buffer*/
  if (ep_kind == PCD_SNG_BUF)
 8002426:	893b      	ldrh	r3, [r7, #8]
 8002428:	2b00      	cmp	r3, #0
 800242a:	d107      	bne.n	800243c <HAL_PCDEx_PMAConfig+0x60>
  {
    /* Single Buffer */
    ep->doublebuffer = 0U;
 800242c:	697b      	ldr	r3, [r7, #20]
 800242e:	2200      	movs	r2, #0
 8002430:	731a      	strb	r2, [r3, #12]
    /* Configure the PMA */
    ep->pmaadress = (uint16_t)pmaadress;
 8002432:	687b      	ldr	r3, [r7, #4]
 8002434:	b29a      	uxth	r2, r3
 8002436:	697b      	ldr	r3, [r7, #20]
 8002438:	80da      	strh	r2, [r3, #6]
 800243a:	e00b      	b.n	8002454 <HAL_PCDEx_PMAConfig+0x78>
  }
#if (USE_USB_DOUBLE_BUFFER == 1U)
  else /* USB_DBL_BUF */
  {
    /* Double Buffer Endpoint */
    ep->doublebuffer = 1U;
 800243c:	697b      	ldr	r3, [r7, #20]
 800243e:	2201      	movs	r2, #1
 8002440:	731a      	strb	r2, [r3, #12]
    /* Configure the PMA */
    ep->pmaaddr0 = (uint16_t)(pmaadress & 0xFFFFU);
 8002442:	687b      	ldr	r3, [r7, #4]
 8002444:	b29a      	uxth	r2, r3
 8002446:	697b      	ldr	r3, [r7, #20]
 8002448:	811a      	strh	r2, [r3, #8]
    ep->pmaaddr1 = (uint16_t)((pmaadress & 0xFFFF0000U) >> 16);
 800244a:	687b      	ldr	r3, [r7, #4]
 800244c:	0c1b      	lsrs	r3, r3, #16
 800244e:	b29a      	uxth	r2, r3
 8002450:	697b      	ldr	r3, [r7, #20]
 8002452:	815a      	strh	r2, [r3, #10]
  }
#endif /* (USE_USB_DOUBLE_BUFFER == 1U) */

  return HAL_OK;
 8002454:	2300      	movs	r3, #0
}
 8002456:	4618      	mov	r0, r3
 8002458:	371c      	adds	r7, #28
 800245a:	46bd      	mov	sp, r7
 800245c:	bc80      	pop	{r7}
 800245e:	4770      	bx	lr

08002460 <HAL_RCC_OscConfig>:
  *         supported by this macro. User should request a transition to HSE Off
  *         first and then HSE On or HSE Bypass.
  * @retval HAL status
  */
HAL_StatusTypeDef HAL_RCC_OscConfig(RCC_OscInitTypeDef  *RCC_OscInitStruct)
{
 8002460:	b580      	push	{r7, lr}
 8002462:	b086      	sub	sp, #24
 8002464:	af00      	add	r7, sp, #0
 8002466:	6078      	str	r0, [r7, #4]
  uint32_t tickstart;
  uint32_t pll_config;

  /* Check Null pointer */
  if (RCC_OscInitStruct == NULL)
 8002468:	687b      	ldr	r3, [r7, #4]
 800246a:	2b00      	cmp	r3, #0
 800246c:	d101      	bne.n	8002472 <HAL_RCC_OscConfig+0x12>
  {
    return HAL_ERROR;
 800246e:	2301      	movs	r3, #1
 8002470:	e272      	b.n	8002958 <HAL_RCC_OscConfig+0x4f8>

  /* Check the parameters */
  assert_param(IS_RCC_OSCILLATORTYPE(RCC_OscInitStruct->OscillatorType));

  /*------------------------------- HSE Configuration ------------------------*/
  if (((RCC_OscInitStruct->OscillatorType) & RCC_OSCILLATORTYPE_HSE) == RCC_OSCILLATORTYPE_HSE)
 8002472:	687b      	ldr	r3, [r7, #4]
 8002474:	681b      	ldr	r3, [r3, #0]
 8002476:	f003 0301 	and.w	r3, r3, #1
 800247a:	2b00      	cmp	r3, #0
 800247c:	f000 8087 	beq.w	800258e <HAL_RCC_OscConfig+0x12e>
  {
    /* Check the parameters */
    assert_param(IS_RCC_HSE(RCC_OscInitStruct->HSEState));

    /* When the HSE is used as system clock or clock source for PLL in these cases it is not allowed to be disabled */
    if ((__HAL_RCC_GET_SYSCLK_SOURCE() == RCC_SYSCLKSOURCE_STATUS_HSE)
 8002480:	4b92      	ldr	r3, [pc, #584]	@ (80026cc <HAL_RCC_OscConfig+0x26c>)
 8002482:	685b      	ldr	r3, [r3, #4]
 8002484:	f003 030c 	and.w	r3, r3, #12
 8002488:	2b04      	cmp	r3, #4
 800248a:	d00c      	beq.n	80024a6 <HAL_RCC_OscConfig+0x46>
        || ((__HAL_RCC_GET_SYSCLK_SOURCE() == RCC_SYSCLKSOURCE_STATUS_PLLCLK) && (__HAL_RCC_GET_PLL_OSCSOURCE() == RCC_PLLSOURCE_HSE)))
 800248c:	4b8f      	ldr	r3, [pc, #572]	@ (80026cc <HAL_RCC_OscConfig+0x26c>)
 800248e:	685b      	ldr	r3, [r3, #4]
 8002490:	f003 030c 	and.w	r3, r3, #12
 8002494:	2b08      	cmp	r3, #8
 8002496:	d112      	bne.n	80024be <HAL_RCC_OscConfig+0x5e>
 8002498:	4b8c      	ldr	r3, [pc, #560]	@ (80026cc <HAL_RCC_OscConfig+0x26c>)
 800249a:	685b      	ldr	r3, [r3, #4]
 800249c:	f403 3380 	and.w	r3, r3, #65536	@ 0x10000
 80024a0:	f5b3 3f80 	cmp.w	r3, #65536	@ 0x10000
 80024a4:	d10b      	bne.n	80024be <HAL_RCC_OscConfig+0x5e>
    {
      if ((__HAL_RCC_GET_FLAG(RCC_FLAG_HSERDY) != RESET) && (RCC_OscInitStruct->HSEState == RCC_HSE_OFF))
 80024a6:	4b89      	ldr	r3, [pc, #548]	@ (80026cc <HAL_RCC_OscConfig+0x26c>)
 80024a8:	681b      	ldr	r3, [r3, #0]
 80024aa:	f403 3300 	and.w	r3, r3, #131072	@ 0x20000
 80024ae:	2b00      	cmp	r3, #0
 80024b0:	d06c      	beq.n	800258c <HAL_RCC_OscConfig+0x12c>
 80024b2:	687b      	ldr	r3, [r7, #4]
 80024b4:	685b      	ldr	r3, [r3, #4]
 80024b6:	2b00      	cmp	r3, #0
 80024b8:	d168      	bne.n	800258c <HAL_RCC_OscConfig+0x12c>
      {
        return HAL_ERROR;
 80024ba:	2301      	movs	r3, #1
 80024bc:	e24c      	b.n	8002958 <HAL_RCC_OscConfig+0x4f8>
      }
    }
    else
    {
      /* Set the new HSE configuration ---------------------------------------*/
      __HAL_RCC_HSE_CONFIG(RCC_OscInitStruct->HSEState);
 80024be:	687b      	ldr	r3, [r7, #4]
 80024c0:	685b      	ldr	r3, [r3, #4]
 80024c2:	f5b3 3f80 	cmp.w	r3, #65536	@ 0x10000
 80024c6:	d106      	bne.n	80024d6 <HAL_RCC_OscConfig+0x76>
 80024c8:	4b80      	ldr	r3, [pc, #512]	@ (80026cc <HAL_RCC_OscConfig+0x26c>)
 80024ca:	681b      	ldr	r3, [r3, #0]
 80024cc:	4a7f      	ldr	r2, [pc, #508]	@ (80026cc <HAL_RCC_OscConfig+0x26c>)
 80024ce:	f443 3380 	orr.w	r3, r3, #65536	@ 0x10000
 80024d2:	6013      	str	r3, [r2, #0]
 80024d4:	e02e      	b.n	8002534 <HAL_RCC_OscConfig+0xd4>
 80024d6:	687b      	ldr	r3, [r7, #4]
 80024d8:	685b      	ldr	r3, [r3, #4]
 80024da:	2b00      	cmp	r3, #0
 80024dc:	d10c      	bne.n	80024f8 <HAL_RCC_OscConfig+0x98>
 80024de:	4b7b      	ldr	r3, [pc, #492]	@ (80026cc <HAL_RCC_OscConfig+0x26c>)
 80024e0:	681b      	ldr	r3, [r3, #0]
 80024e2:	4a7a      	ldr	r2, [pc, #488]	@ (80026cc <HAL_RCC_OscConfig+0x26c>)
 80024e4:	f423 3380 	bic.w	r3, r3, #65536	@ 0x10000
 80024e8:	6013      	str	r3, [r2, #0]
 80024ea:	4b78      	ldr	r3, [pc, #480]	@ (80026cc <HAL_RCC_OscConfig+0x26c>)
 80024ec:	681b      	ldr	r3, [r3, #0]
 80024ee:	4a77      	ldr	r2, [pc, #476]	@ (80026cc <HAL_RCC_OscConfig+0x26c>)
 80024f0:	f423 2380 	bic.w	r3, r3, #262144	@ 0x40000
 80024f4:	6013      	str	r3, [r2, #0]
 80024f6:	e01d      	b.n	8002534 <HAL_RCC_OscConfig+0xd4>
 80024f8:	687b      	ldr	r3, [r7, #4]
 80024fa:	685b      	ldr	r3, [r3, #4]
 80024fc:	f5b3 2fa0 	cmp.w	r3, #327680	@ 0x50000
 8002500:	d10c      	bne.n	800251c <HAL_RCC_OscConfig+0xbc>
 8002502:	4b72      	ldr	r3, [pc, #456]	@ (80026cc <HAL_RCC_OscConfig+0x26c>)
 8002504:	681b      	ldr	r3, [r3, #0]
 8002506:	4a71      	ldr	r2, [pc, #452]	@ (80026cc <HAL_RCC_OscConfig+0x26c>)
 8002508:	f443 2380 	orr.w	r3, r3, #262144	@ 0x40000
 800250c:	6013      	str	r3, [r2, #0]
 800250e:	4b6f      	ldr	r3, [pc, #444]	@ (80026cc <HAL_RCC_OscConfig+0x26c>)
 8002510:	681b      	ldr	r3, [r3, #0]
 8002512:	4a6e      	ldr	r2, [pc, #440]	@ (80026cc <HAL_RCC_OscConfig+0x26c>)
 8002514:	f443 3380 	orr.w	r3, r3, #65536	@ 0x10000
 8002518:	6013      	str	r3, [r2, #0]
 800251a:	e00b      	b.n	8002534 <HAL_RCC_OscConfig+0xd4>
 800251c:	4b6b      	ldr	r3, [pc, #428]	@ (80026cc <HAL_RCC_OscConfig+0x26c>)
 800251e:	681b      	ldr	r3, [r3, #0]
 8002520:	4a6a      	ldr	r2, [pc, #424]	@ (80026cc <HAL_RCC_OscConfig+0x26c>)
 8002522:	f423 3380 	bic.w	r3, r3, #65536	@ 0x10000
 8002526:	6013      	str	r3, [r2, #0]
 8002528:	4b68      	ldr	r3, [pc, #416]	@ (80026cc <HAL_RCC_OscConfig+0x26c>)
 800252a:	681b      	ldr	r3, [r3, #0]
 800252c:	4a67      	ldr	r2, [pc, #412]	@ (80026cc <HAL_RCC_OscConfig+0x26c>)
 800252e:	f423 2380 	bic.w	r3, r3, #262144	@ 0x40000
 8002532:	6013      	str	r3, [r2, #0]


      /* Check the HSE State */
      if (RCC_OscInitStruct->HSEState != RCC_HSE_OFF)
 8002534:	687b      	ldr	r3, [r7, #4]
 8002536:	685b      	ldr	r3, [r3, #4]
 8002538:	2b00      	cmp	r3, #0
 800253a:	d013      	beq.n	8002564 <HAL_RCC_OscConfig+0x104>
      {
        /* Get Start Tick */
        tickstart = HAL_GetTick();
 800253c:	f7fe f930 	bl	80007a0 <HAL_GetTick>
 8002540:	6138      	str	r0, [r7, #16]

        /* Wait till HSE is ready */
        while (__HAL_RCC_GET_FLAG(RCC_FLAG_HSERDY) == RESET)
 8002542:	e008      	b.n	8002556 <HAL_RCC_OscConfig+0xf6>
        {
          if ((HAL_GetTick() - tickstart) > HSE_TIMEOUT_VALUE)
 8002544:	f7fe f92c 	bl	80007a0 <HAL_GetTick>
 8002548:	4602      	mov	r2, r0
 800254a:	693b      	ldr	r3, [r7, #16]
 800254c:	1ad3      	subs	r3, r2, r3
 800254e:	2b64      	cmp	r3, #100	@ 0x64
 8002550:	d901      	bls.n	8002556 <HAL_RCC_OscConfig+0xf6>
          {
            return HAL_TIMEOUT;
 8002552:	2303      	movs	r3, #3
 8002554:	e200      	b.n	8002958 <HAL_RCC_OscConfig+0x4f8>
        while (__HAL_RCC_GET_FLAG(RCC_FLAG_HSERDY) == RESET)
 8002556:	4b5d      	ldr	r3, [pc, #372]	@ (80026cc <HAL_RCC_OscConfig+0x26c>)
 8002558:	681b      	ldr	r3, [r3, #0]
 800255a:	f403 3300 	and.w	r3, r3, #131072	@ 0x20000
 800255e:	2b00      	cmp	r3, #0
 8002560:	d0f0      	beq.n	8002544 <HAL_RCC_OscConfig+0xe4>
 8002562:	e014      	b.n	800258e <HAL_RCC_OscConfig+0x12e>
        }
      }
      else
      {
        /* Get Start Tick */
        tickstart = HAL_GetTick();
 8002564:	f7fe f91c 	bl	80007a0 <HAL_GetTick>
 8002568:	6138      	str	r0, [r7, #16]

        /* Wait till HSE is disabled */
        while (__HAL_RCC_GET_FLAG(RCC_FLAG_HSERDY) != RESET)
 800256a:	e008      	b.n	800257e <HAL_RCC_OscConfig+0x11e>
        {
          if ((HAL_GetTick() - tickstart) > HSE_TIMEOUT_VALUE)
 800256c:	f7fe f918 	bl	80007a0 <HAL_GetTick>
 8002570:	4602      	mov	r2, r0
 8002572:	693b      	ldr	r3, [r7, #16]
 8002574:	1ad3      	subs	r3, r2, r3
 8002576:	2b64      	cmp	r3, #100	@ 0x64
 8002578:	d901      	bls.n	800257e <HAL_RCC_OscConfig+0x11e>
          {
            return HAL_TIMEOUT;
 800257a:	2303      	movs	r3, #3
 800257c:	e1ec      	b.n	8002958 <HAL_RCC_OscConfig+0x4f8>
        while (__HAL_RCC_GET_FLAG(RCC_FLAG_HSERDY) != RESET)
 800257e:	4b53      	ldr	r3, [pc, #332]	@ (80026cc <HAL_RCC_OscConfig+0x26c>)
 8002580:	681b      	ldr	r3, [r3, #0]
 8002582:	f403 3300 	and.w	r3, r3, #131072	@ 0x20000
 8002586:	2b00      	cmp	r3, #0
 8002588:	d1f0      	bne.n	800256c <HAL_RCC_OscConfig+0x10c>
 800258a:	e000      	b.n	800258e <HAL_RCC_OscConfig+0x12e>
      if ((__HAL_RCC_GET_FLAG(RCC_FLAG_HSERDY) != RESET) && (RCC_OscInitStruct->HSEState == RCC_HSE_OFF))
 800258c:	bf00      	nop
        }
      }
    }
  }
  /*----------------------------- HSI Configuration --------------------------*/
  if (((RCC_OscInitStruct->OscillatorType) & RCC_OSCILLATORTYPE_HSI) == RCC_OSCILLATORTYPE_HSI)
 800258e:	687b      	ldr	r3, [r7, #4]
 8002590:	681b      	ldr	r3, [r3, #0]
 8002592:	f003 0302 	and.w	r3, r3, #2
 8002596:	2b00      	cmp	r3, #0
 8002598:	d063      	beq.n	8002662 <HAL_RCC_OscConfig+0x202>
    /* Check the parameters */
    assert_param(IS_RCC_HSI(RCC_OscInitStruct->HSIState));
    assert_param(IS_RCC_CALIBRATION_VALUE(RCC_OscInitStruct->HSICalibrationValue));

    /* Check if HSI is used as system clock or as PLL source when PLL is selected as system clock */
    if ((__HAL_RCC_GET_SYSCLK_SOURCE() == RCC_SYSCLKSOURCE_STATUS_HSI)
 800259a:	4b4c      	ldr	r3, [pc, #304]	@ (80026cc <HAL_RCC_OscConfig+0x26c>)
 800259c:	685b      	ldr	r3, [r3, #4]
 800259e:	f003 030c 	and.w	r3, r3, #12
 80025a2:	2b00      	cmp	r3, #0
 80025a4:	d00b      	beq.n	80025be <HAL_RCC_OscConfig+0x15e>
        || ((__HAL_RCC_GET_SYSCLK_SOURCE() == RCC_SYSCLKSOURCE_STATUS_PLLCLK) && (__HAL_RCC_GET_PLL_OSCSOURCE() == RCC_PLLSOURCE_HSI_DIV2)))
 80025a6:	4b49      	ldr	r3, [pc, #292]	@ (80026cc <HAL_RCC_OscConfig+0x26c>)
 80025a8:	685b      	ldr	r3, [r3, #4]
 80025aa:	f003 030c 	and.w	r3, r3, #12
 80025ae:	2b08      	cmp	r3, #8
 80025b0:	d11c      	bne.n	80025ec <HAL_RCC_OscConfig+0x18c>
 80025b2:	4b46      	ldr	r3, [pc, #280]	@ (80026cc <HAL_RCC_OscConfig+0x26c>)
 80025b4:	685b      	ldr	r3, [r3, #4]
 80025b6:	f403 3380 	and.w	r3, r3, #65536	@ 0x10000
 80025ba:	2b00      	cmp	r3, #0
 80025bc:	d116      	bne.n	80025ec <HAL_RCC_OscConfig+0x18c>
    {
      /* When HSI is used as system clock it will not disabled */
      if ((__HAL_RCC_GET_FLAG(RCC_FLAG_HSIRDY) != RESET) && (RCC_OscInitStruct->HSIState != RCC_HSI_ON))
 80025be:	4b43      	ldr	r3, [pc, #268]	@ (80026cc <HAL_RCC_OscConfig+0x26c>)
 80025c0:	681b      	ldr	r3, [r3, #0]
 80025c2:	f003 0302 	and.w	r3, r3, #2
 80025c6:	2b00      	cmp	r3, #0
 80025c8:	d005      	beq.n	80025d6 <HAL_RCC_OscConfig+0x176>
 80025ca:	687b      	ldr	r3, [r7, #4]
 80025cc:	691b      	ldr	r3, [r3, #16]
 80025ce:	2b01      	cmp	r3, #1
 80025d0:	d001      	beq.n	80025d6 <HAL_RCC_OscConfig+0x176>
      {
        return HAL_ERROR;
 80025d2:	2301      	movs	r3, #1
 80025d4:	e1c0      	b.n	8002958 <HAL_RCC_OscConfig+0x4f8>
      }
      /* Otherwise, just the calibration is allowed */
      else
      {
        /* Adjusts the Internal High Speed oscillator (HSI) calibration value.*/
        __HAL_RCC_HSI_CALIBRATIONVALUE_ADJUST(RCC_OscInitStruct->HSICalibrationValue);
 80025d6:	4b3d      	ldr	r3, [pc, #244]	@ (80026cc <HAL_RCC_OscConfig+0x26c>)
 80025d8:	681b      	ldr	r3, [r3, #0]
 80025da:	f023 02f8 	bic.w	r2, r3, #248	@ 0xf8
 80025de:	687b      	ldr	r3, [r7, #4]
 80025e0:	695b      	ldr	r3, [r3, #20]
 80025e2:	00db      	lsls	r3, r3, #3
 80025e4:	4939      	ldr	r1, [pc, #228]	@ (80026cc <HAL_RCC_OscConfig+0x26c>)
 80025e6:	4313      	orrs	r3, r2
 80025e8:	600b      	str	r3, [r1, #0]
      if ((__HAL_RCC_GET_FLAG(RCC_FLAG_HSIRDY) != RESET) && (RCC_OscInitStruct->HSIState != RCC_HSI_ON))
 80025ea:	e03a      	b.n	8002662 <HAL_RCC_OscConfig+0x202>
      }
    }
    else
    {
      /* Check the HSI State */
      if (RCC_OscInitStruct->HSIState != RCC_HSI_OFF)
 80025ec:	687b      	ldr	r3, [r7, #4]
 80025ee:	691b      	ldr	r3, [r3, #16]
 80025f0:	2b00      	cmp	r3, #0
 80025f2:	d020      	beq.n	8002636 <HAL_RCC_OscConfig+0x1d6>
      {
        /* Enable the Internal High Speed oscillator (HSI). */
        __HAL_RCC_HSI_ENABLE();
 80025f4:	4b36      	ldr	r3, [pc, #216]	@ (80026d0 <HAL_RCC_OscConfig+0x270>)
 80025f6:	2201      	movs	r2, #1
 80025f8:	601a      	str	r2, [r3, #0]

        /* Get Start Tick */
        tickstart = HAL_GetTick();
 80025fa:	f7fe f8d1 	bl	80007a0 <HAL_GetTick>
 80025fe:	6138      	str	r0, [r7, #16]

        /* Wait till HSI is ready */
        while (__HAL_RCC_GET_FLAG(RCC_FLAG_HSIRDY) == RESET)
 8002600:	e008      	b.n	8002614 <HAL_RCC_OscConfig+0x1b4>
        {
          if ((HAL_GetTick() - tickstart) > HSI_TIMEOUT_VALUE)
 8002602:	f7fe f8cd 	bl	80007a0 <HAL_GetTick>
 8002606:	4602      	mov	r2, r0
 8002608:	693b      	ldr	r3, [r7, #16]
 800260a:	1ad3      	subs	r3, r2, r3
 800260c:	2b02      	cmp	r3, #2
 800260e:	d901      	bls.n	8002614 <HAL_RCC_OscConfig+0x1b4>
          {
            return HAL_TIMEOUT;
 8002610:	2303      	movs	r3, #3
 8002612:	e1a1      	b.n	8002958 <HAL_RCC_OscConfig+0x4f8>
        while (__HAL_RCC_GET_FLAG(RCC_FLAG_HSIRDY) == RESET)
 8002614:	4b2d      	ldr	r3, [pc, #180]	@ (80026cc <HAL_RCC_OscConfig+0x26c>)
 8002616:	681b      	ldr	r3, [r3, #0]
 8002618:	f003 0302 	and.w	r3, r3, #2
 800261c:	2b00      	cmp	r3, #0
 800261e:	d0f0      	beq.n	8002602 <HAL_RCC_OscConfig+0x1a2>
          }
        }

        /* Adjusts the Internal High Speed oscillator (HSI) calibration value.*/
        __HAL_RCC_HSI_CALIBRATIONVALUE_ADJUST(RCC_OscInitStruct->HSICalibrationValue);
 8002620:	4b2a      	ldr	r3, [pc, #168]	@ (80026cc <HAL_RCC_OscConfig+0x26c>)
 8002622:	681b      	ldr	r3, [r3, #0]
 8002624:	f023 02f8 	bic.w	r2, r3, #248	@ 0xf8
 8002628:	687b      	ldr	r3, [r7, #4]
 800262a:	695b      	ldr	r3, [r3, #20]
 800262c:	00db      	lsls	r3, r3, #3
 800262e:	4927      	ldr	r1, [pc, #156]	@ (80026cc <HAL_RCC_OscConfig+0x26c>)
 8002630:	4313      	orrs	r3, r2
 8002632:	600b      	str	r3, [r1, #0]
 8002634:	e015      	b.n	8002662 <HAL_RCC_OscConfig+0x202>
      }
      else
      {
        /* Disable the Internal High Speed oscillator (HSI). */
        __HAL_RCC_HSI_DISABLE();
 8002636:	4b26      	ldr	r3, [pc, #152]	@ (80026d0 <HAL_RCC_OscConfig+0x270>)
 8002638:	2200      	movs	r2, #0
 800263a:	601a      	str	r2, [r3, #0]

        /* Get Start Tick */
        tickstart = HAL_GetTick();
 800263c:	f7fe f8b0 	bl	80007a0 <HAL_GetTick>
 8002640:	6138      	str	r0, [r7, #16]

        /* Wait till HSI is disabled */
        while (__HAL_RCC_GET_FLAG(RCC_FLAG_HSIRDY) != RESET)
 8002642:	e008      	b.n	8002656 <HAL_RCC_OscConfig+0x1f6>
        {
          if ((HAL_GetTick() - tickstart) > HSI_TIMEOUT_VALUE)
 8002644:	f7fe f8ac 	bl	80007a0 <HAL_GetTick>
 8002648:	4602      	mov	r2, r0
 800264a:	693b      	ldr	r3, [r7, #16]
 800264c:	1ad3      	subs	r3, r2, r3
 800264e:	2b02      	cmp	r3, #2
 8002650:	d901      	bls.n	8002656 <HAL_RCC_OscConfig+0x1f6>
          {
            return HAL_TIMEOUT;
 8002652:	2303      	movs	r3, #3
 8002654:	e180      	b.n	8002958 <HAL_RCC_OscConfig+0x4f8>
        while (__HAL_RCC_GET_FLAG(RCC_FLAG_HSIRDY) != RESET)
 8002656:	4b1d      	ldr	r3, [pc, #116]	@ (80026cc <HAL_RCC_OscConfig+0x26c>)
 8002658:	681b      	ldr	r3, [r3, #0]
 800265a:	f003 0302 	and.w	r3, r3, #2
 800265e:	2b00      	cmp	r3, #0
 8002660:	d1f0      	bne.n	8002644 <HAL_RCC_OscConfig+0x1e4>
        }
      }
    }
  }
  /*------------------------------ LSI Configuration -------------------------*/
  if (((RCC_OscInitStruct->OscillatorType) & RCC_OSCILLATORTYPE_LSI) == RCC_OSCILLATORTYPE_LSI)
 8002662:	687b      	ldr	r3, [r7, #4]
 8002664:	681b      	ldr	r3, [r3, #0]
 8002666:	f003 0308 	and.w	r3, r3, #8
 800266a:	2b00      	cmp	r3, #0
 800266c:	d03a      	beq.n	80026e4 <HAL_RCC_OscConfig+0x284>
  {
    /* Check the parameters */
    assert_param(IS_RCC_LSI(RCC_OscInitStruct->LSIState));

    /* Check the LSI State */
    if (RCC_OscInitStruct->LSIState != RCC_LSI_OFF)
 800266e:	687b      	ldr	r3, [r7, #4]
 8002670:	699b      	ldr	r3, [r3, #24]
 8002672:	2b00      	cmp	r3, #0
 8002674:	d019      	beq.n	80026aa <HAL_RCC_OscConfig+0x24a>
    {
      /* Enable the Internal Low Speed oscillator (LSI). */
      __HAL_RCC_LSI_ENABLE();
 8002676:	4b17      	ldr	r3, [pc, #92]	@ (80026d4 <HAL_RCC_OscConfig+0x274>)
 8002678:	2201      	movs	r2, #1
 800267a:	601a      	str	r2, [r3, #0]

      /* Get Start Tick */
      tickstart = HAL_GetTick();
 800267c:	f7fe f890 	bl	80007a0 <HAL_GetTick>
 8002680:	6138      	str	r0, [r7, #16]

      /* Wait till LSI is ready */
      while (__HAL_RCC_GET_FLAG(RCC_FLAG_LSIRDY) == RESET)
 8002682:	e008      	b.n	8002696 <HAL_RCC_OscConfig+0x236>
      {
        if ((HAL_GetTick() - tickstart) > LSI_TIMEOUT_VALUE)
 8002684:	f7fe f88c 	bl	80007a0 <HAL_GetTick>
 8002688:	4602      	mov	r2, r0
 800268a:	693b      	ldr	r3, [r7, #16]
 800268c:	1ad3      	subs	r3, r2, r3
 800268e:	2b02      	cmp	r3, #2
 8002690:	d901      	bls.n	8002696 <HAL_RCC_OscConfig+0x236>
        {
          return HAL_TIMEOUT;
 8002692:	2303      	movs	r3, #3
 8002694:	e160      	b.n	8002958 <HAL_RCC_OscConfig+0x4f8>
      while (__HAL_RCC_GET_FLAG(RCC_FLAG_LSIRDY) == RESET)
 8002696:	4b0d      	ldr	r3, [pc, #52]	@ (80026cc <HAL_RCC_OscConfig+0x26c>)
 8002698:	6a5b      	ldr	r3, [r3, #36]	@ 0x24
 800269a:	f003 0302 	and.w	r3, r3, #2
 800269e:	2b00      	cmp	r3, #0
 80026a0:	d0f0      	beq.n	8002684 <HAL_RCC_OscConfig+0x224>
        }
      }
      /*  To have a fully stabilized clock in the specified range, a software delay of 1ms
          should be added.*/
      RCC_Delay(1);
 80026a2:	2001      	movs	r0, #1
 80026a4:	f000 fa9c 	bl	8002be0 <RCC_Delay>
 80026a8:	e01c      	b.n	80026e4 <HAL_RCC_OscConfig+0x284>
    }
    else
    {
      /* Disable the Internal Low Speed oscillator (LSI). */
      __HAL_RCC_LSI_DISABLE();
 80026aa:	4b0a      	ldr	r3, [pc, #40]	@ (80026d4 <HAL_RCC_OscConfig+0x274>)
 80026ac:	2200      	movs	r2, #0
 80026ae:	601a      	str	r2, [r3, #0]

      /* Get Start Tick */
      tickstart = HAL_GetTick();
 80026b0:	f7fe f876 	bl	80007a0 <HAL_GetTick>
 80026b4:	6138      	str	r0, [r7, #16]

      /* Wait till LSI is disabled */
      while (__HAL_RCC_GET_FLAG(RCC_FLAG_LSIRDY) != RESET)
 80026b6:	e00f      	b.n	80026d8 <HAL_RCC_OscConfig+0x278>
      {
        if ((HAL_GetTick() - tickstart) > LSI_TIMEOUT_VALUE)
 80026b8:	f7fe f872 	bl	80007a0 <HAL_GetTick>
 80026bc:	4602      	mov	r2, r0
 80026be:	693b      	ldr	r3, [r7, #16]
 80026c0:	1ad3      	subs	r3, r2, r3
 80026c2:	2b02      	cmp	r3, #2
 80026c4:	d908      	bls.n	80026d8 <HAL_RCC_OscConfig+0x278>
        {
          return HAL_TIMEOUT;
 80026c6:	2303      	movs	r3, #3
 80026c8:	e146      	b.n	8002958 <HAL_RCC_OscConfig+0x4f8>
 80026ca:	bf00      	nop
 80026cc:	40021000 	.word	0x40021000
 80026d0:	42420000 	.word	0x42420000
 80026d4:	42420480 	.word	0x42420480
      while (__HAL_RCC_GET_FLAG(RCC_FLAG_LSIRDY) != RESET)
 80026d8:	4b92      	ldr	r3, [pc, #584]	@ (8002924 <HAL_RCC_OscConfig+0x4c4>)
 80026da:	6a5b      	ldr	r3, [r3, #36]	@ 0x24
 80026dc:	f003 0302 	and.w	r3, r3, #2
 80026e0:	2b00      	cmp	r3, #0
 80026e2:	d1e9      	bne.n	80026b8 <HAL_RCC_OscConfig+0x258>
        }
      }
    }
  }
  /*------------------------------ LSE Configuration -------------------------*/
  if (((RCC_OscInitStruct->OscillatorType) & RCC_OSCILLATORTYPE_LSE) == RCC_OSCILLATORTYPE_LSE)
 80026e4:	687b      	ldr	r3, [r7, #4]
 80026e6:	681b      	ldr	r3, [r3, #0]
 80026e8:	f003 0304 	and.w	r3, r3, #4
 80026ec:	2b00      	cmp	r3, #0
 80026ee:	f000 80a6 	beq.w	800283e <HAL_RCC_OscConfig+0x3de>
  {
    FlagStatus       pwrclkchanged = RESET;
 80026f2:	2300      	movs	r3, #0
 80026f4:	75fb      	strb	r3, [r7, #23]
    /* Check the parameters */
    assert_param(IS_RCC_LSE(RCC_OscInitStruct->LSEState));

    /* Update LSE configuration in Backup Domain control register    */
    /* Requires to enable write access to Backup Domain of necessary */
    if (__HAL_RCC_PWR_IS_CLK_DISABLED())
 80026f6:	4b8b      	ldr	r3, [pc, #556]	@ (8002924 <HAL_RCC_OscConfig+0x4c4>)
 80026f8:	69db      	ldr	r3, [r3, #28]
 80026fa:	f003 5380 	and.w	r3, r3, #268435456	@ 0x10000000
 80026fe:	2b00      	cmp	r3, #0
 8002700:	d10d      	bne.n	800271e <HAL_RCC_OscConfig+0x2be>
    {
      __HAL_RCC_PWR_CLK_ENABLE();
 8002702:	4b88      	ldr	r3, [pc, #544]	@ (8002924 <HAL_RCC_OscConfig+0x4c4>)
 8002704:	69db      	ldr	r3, [r3, #28]
 8002706:	4a87      	ldr	r2, [pc, #540]	@ (8002924 <HAL_RCC_OscConfig+0x4c4>)
 8002708:	f043 5380 	orr.w	r3, r3, #268435456	@ 0x10000000
 800270c:	61d3      	str	r3, [r2, #28]
 800270e:	4b85      	ldr	r3, [pc, #532]	@ (8002924 <HAL_RCC_OscConfig+0x4c4>)
 8002710:	69db      	ldr	r3, [r3, #28]
 8002712:	f003 5380 	and.w	r3, r3, #268435456	@ 0x10000000
 8002716:	60bb      	str	r3, [r7, #8]
 8002718:	68bb      	ldr	r3, [r7, #8]
      pwrclkchanged = SET;
 800271a:	2301      	movs	r3, #1
 800271c:	75fb      	strb	r3, [r7, #23]
    }

    if (HAL_IS_BIT_CLR(PWR->CR, PWR_CR_DBP))
 800271e:	4b82      	ldr	r3, [pc, #520]	@ (8002928 <HAL_RCC_OscConfig+0x4c8>)
 8002720:	681b      	ldr	r3, [r3, #0]
 8002722:	f403 7380 	and.w	r3, r3, #256	@ 0x100
 8002726:	2b00      	cmp	r3, #0
 8002728:	d118      	bne.n	800275c <HAL_RCC_OscConfig+0x2fc>
    {
      /* Enable write access to Backup domain */
      SET_BIT(PWR->CR, PWR_CR_DBP);
 800272a:	4b7f      	ldr	r3, [pc, #508]	@ (8002928 <HAL_RCC_OscConfig+0x4c8>)
 800272c:	681b      	ldr	r3, [r3, #0]
 800272e:	4a7e      	ldr	r2, [pc, #504]	@ (8002928 <HAL_RCC_OscConfig+0x4c8>)
 8002730:	f443 7380 	orr.w	r3, r3, #256	@ 0x100
 8002734:	6013      	str	r3, [r2, #0]

      /* Wait for Backup domain Write protection disable */
      tickstart = HAL_GetTick();
 8002736:	f7fe f833 	bl	80007a0 <HAL_GetTick>
 800273a:	6138      	str	r0, [r7, #16]

      while (HAL_IS_BIT_CLR(PWR->CR, PWR_CR_DBP))
 800273c:	e008      	b.n	8002750 <HAL_RCC_OscConfig+0x2f0>
      {
        if ((HAL_GetTick() - tickstart) > RCC_DBP_TIMEOUT_VALUE)
 800273e:	f7fe f82f 	bl	80007a0 <HAL_GetTick>
 8002742:	4602      	mov	r2, r0
 8002744:	693b      	ldr	r3, [r7, #16]
 8002746:	1ad3      	subs	r3, r2, r3
 8002748:	2b64      	cmp	r3, #100	@ 0x64
 800274a:	d901      	bls.n	8002750 <HAL_RCC_OscConfig+0x2f0>
        {
          return HAL_TIMEOUT;
 800274c:	2303      	movs	r3, #3
 800274e:	e103      	b.n	8002958 <HAL_RCC_OscConfig+0x4f8>
      while (HAL_IS_BIT_CLR(PWR->CR, PWR_CR_DBP))
 8002750:	4b75      	ldr	r3, [pc, #468]	@ (8002928 <HAL_RCC_OscConfig+0x4c8>)
 8002752:	681b      	ldr	r3, [r3, #0]
 8002754:	f403 7380 	and.w	r3, r3, #256	@ 0x100
 8002758:	2b00      	cmp	r3, #0
 800275a:	d0f0      	beq.n	800273e <HAL_RCC_OscConfig+0x2de>
        }
      }
    }

    /* Set the new LSE configuration -----------------------------------------*/
    __HAL_RCC_LSE_CONFIG(RCC_OscInitStruct->LSEState);
 800275c:	687b      	ldr	r3, [r7, #4]
 800275e:	68db      	ldr	r3, [r3, #12]
 8002760:	2b01      	cmp	r3, #1
 8002762:	d106      	bne.n	8002772 <HAL_RCC_OscConfig+0x312>
 8002764:	4b6f      	ldr	r3, [pc, #444]	@ (8002924 <HAL_RCC_OscConfig+0x4c4>)
 8002766:	6a1b      	ldr	r3, [r3, #32]
 8002768:	4a6e      	ldr	r2, [pc, #440]	@ (8002924 <HAL_RCC_OscConfig+0x4c4>)
 800276a:	f043 0301 	orr.w	r3, r3, #1
 800276e:	6213      	str	r3, [r2, #32]
 8002770:	e02d      	b.n	80027ce <HAL_RCC_OscConfig+0x36e>
 8002772:	687b      	ldr	r3, [r7, #4]
 8002774:	68db      	ldr	r3, [r3, #12]
 8002776:	2b00      	cmp	r3, #0
 8002778:	d10c      	bne.n	8002794 <HAL_RCC_OscConfig+0x334>
 800277a:	4b6a      	ldr	r3, [pc, #424]	@ (8002924 <HAL_RCC_OscConfig+0x4c4>)
 800277c:	6a1b      	ldr	r3, [r3, #32]
 800277e:	4a69      	ldr	r2, [pc, #420]	@ (8002924 <HAL_RCC_OscConfig+0x4c4>)
 8002780:	f023 0301 	bic.w	r3, r3, #1
 8002784:	6213      	str	r3, [r2, #32]
 8002786:	4b67      	ldr	r3, [pc, #412]	@ (8002924 <HAL_RCC_OscConfig+0x4c4>)
 8002788:	6a1b      	ldr	r3, [r3, #32]
 800278a:	4a66      	ldr	r2, [pc, #408]	@ (8002924 <HAL_RCC_OscConfig+0x4c4>)
 800278c:	f023 0304 	bic.w	r3, r3, #4
 8002790:	6213      	str	r3, [r2, #32]
 8002792:	e01c      	b.n	80027ce <HAL_RCC_OscConfig+0x36e>
 8002794:	687b      	ldr	r3, [r7, #4]
 8002796:	68db      	ldr	r3, [r3, #12]
 8002798:	2b05      	cmp	r3, #5
 800279a:	d10c      	bne.n	80027b6 <HAL_RCC_OscConfig+0x356>
 800279c:	4b61      	ldr	r3, [pc, #388]	@ (8002924 <HAL_RCC_OscConfig+0x4c4>)
 800279e:	6a1b      	ldr	r3, [r3, #32]
 80027a0:	4a60      	ldr	r2, [pc, #384]	@ (8002924 <HAL_RCC_OscConfig+0x4c4>)
 80027a2:	f043 0304 	orr.w	r3, r3, #4
 80027a6:	6213      	str	r3, [r2, #32]
 80027a8:	4b5e      	ldr	r3, [pc, #376]	@ (8002924 <HAL_RCC_OscConfig+0x4c4>)
 80027aa:	6a1b      	ldr	r3, [r3, #32]
 80027ac:	4a5d      	ldr	r2, [pc, #372]	@ (8002924 <HAL_RCC_OscConfig+0x4c4>)
 80027ae:	f043 0301 	orr.w	r3, r3, #1
 80027b2:	6213      	str	r3, [r2, #32]
 80027b4:	e00b      	b.n	80027ce <HAL_RCC_OscConfig+0x36e>
 80027b6:	4b5b      	ldr	r3, [pc, #364]	@ (8002924 <HAL_RCC_OscConfig+0x4c4>)
 80027b8:	6a1b      	ldr	r3, [r3, #32]
 80027ba:	4a5a      	ldr	r2, [pc, #360]	@ (8002924 <HAL_RCC_OscConfig+0x4c4>)
 80027bc:	f023 0301 	bic.w	r3, r3, #1
 80027c0:	6213      	str	r3, [r2, #32]
 80027c2:	4b58      	ldr	r3, [pc, #352]	@ (8002924 <HAL_RCC_OscConfig+0x4c4>)
 80027c4:	6a1b      	ldr	r3, [r3, #32]
 80027c6:	4a57      	ldr	r2, [pc, #348]	@ (8002924 <HAL_RCC_OscConfig+0x4c4>)
 80027c8:	f023 0304 	bic.w	r3, r3, #4
 80027cc:	6213      	str	r3, [r2, #32]
    /* Check the LSE State */
    if (RCC_OscInitStruct->LSEState != RCC_LSE_OFF)
 80027ce:	687b      	ldr	r3, [r7, #4]
 80027d0:	68db      	ldr	r3, [r3, #12]
 80027d2:	2b00      	cmp	r3, #0
 80027d4:	d015      	beq.n	8002802 <HAL_RCC_OscConfig+0x3a2>
    {
      /* Get Start Tick */
      tickstart = HAL_GetTick();
 80027d6:	f7fd ffe3 	bl	80007a0 <HAL_GetTick>
 80027da:	6138      	str	r0, [r7, #16]

      /* Wait till LSE is ready */
      while (__HAL_RCC_GET_FLAG(RCC_FLAG_LSERDY) == RESET)
 80027dc:	e00a      	b.n	80027f4 <HAL_RCC_OscConfig+0x394>
      {
        if ((HAL_GetTick() - tickstart) > RCC_LSE_TIMEOUT_VALUE)
 80027de:	f7fd ffdf 	bl	80007a0 <HAL_GetTick>
 80027e2:	4602      	mov	r2, r0
 80027e4:	693b      	ldr	r3, [r7, #16]
 80027e6:	1ad3      	subs	r3, r2, r3
 80027e8:	f241 3288 	movw	r2, #5000	@ 0x1388
 80027ec:	4293      	cmp	r3, r2
 80027ee:	d901      	bls.n	80027f4 <HAL_RCC_OscConfig+0x394>
        {
          return HAL_TIMEOUT;
 80027f0:	2303      	movs	r3, #3
 80027f2:	e0b1      	b.n	8002958 <HAL_RCC_OscConfig+0x4f8>
      while (__HAL_RCC_GET_FLAG(RCC_FLAG_LSERDY) == RESET)
 80027f4:	4b4b      	ldr	r3, [pc, #300]	@ (8002924 <HAL_RCC_OscConfig+0x4c4>)
 80027f6:	6a1b      	ldr	r3, [r3, #32]
 80027f8:	f003 0302 	and.w	r3, r3, #2
 80027fc:	2b00      	cmp	r3, #0
 80027fe:	d0ee      	beq.n	80027de <HAL_RCC_OscConfig+0x37e>
 8002800:	e014      	b.n	800282c <HAL_RCC_OscConfig+0x3cc>
      }
    }
    else
    {
      /* Get Start Tick */
      tickstart = HAL_GetTick();
 8002802:	f7fd ffcd 	bl	80007a0 <HAL_GetTick>
 8002806:	6138      	str	r0, [r7, #16]

      /* Wait till LSE is disabled */
      while (__HAL_RCC_GET_FLAG(RCC_FLAG_LSERDY) != RESET)
 8002808:	e00a      	b.n	8002820 <HAL_RCC_OscConfig+0x3c0>
      {
        if ((HAL_GetTick() - tickstart) > RCC_LSE_TIMEOUT_VALUE)
 800280a:	f7fd ffc9 	bl	80007a0 <HAL_GetTick>
 800280e:	4602      	mov	r2, r0
 8002810:	693b      	ldr	r3, [r7, #16]
 8002812:	1ad3      	subs	r3, r2, r3
 8002814:	f241 3288 	movw	r2, #5000	@ 0x1388
 8002818:	4293      	cmp	r3, r2
 800281a:	d901      	bls.n	8002820 <HAL_RCC_OscConfig+0x3c0>
        {
          return HAL_TIMEOUT;
 800281c:	2303      	movs	r3, #3
 800281e:	e09b      	b.n	8002958 <HAL_RCC_OscConfig+0x4f8>
      while (__HAL_RCC_GET_FLAG(RCC_FLAG_LSERDY) != RESET)
 8002820:	4b40      	ldr	r3, [pc, #256]	@ (8002924 <HAL_RCC_OscConfig+0x4c4>)
 8002822:	6a1b      	ldr	r3, [r3, #32]
 8002824:	f003 0302 	and.w	r3, r3, #2
 8002828:	2b00      	cmp	r3, #0
 800282a:	d1ee      	bne.n	800280a <HAL_RCC_OscConfig+0x3aa>
        }
      }
    }

    /* Require to disable power clock if necessary */
    if (pwrclkchanged == SET)
 800282c:	7dfb      	ldrb	r3, [r7, #23]
 800282e:	2b01      	cmp	r3, #1
 8002830:	d105      	bne.n	800283e <HAL_RCC_OscConfig+0x3de>
    {
      __HAL_RCC_PWR_CLK_DISABLE();
 8002832:	4b3c      	ldr	r3, [pc, #240]	@ (8002924 <HAL_RCC_OscConfig+0x4c4>)
 8002834:	69db      	ldr	r3, [r3, #28]
 8002836:	4a3b      	ldr	r2, [pc, #236]	@ (8002924 <HAL_RCC_OscConfig+0x4c4>)
 8002838:	f023 5380 	bic.w	r3, r3, #268435456	@ 0x10000000
 800283c:	61d3      	str	r3, [r2, #28]

#endif /* RCC_CR_PLL2ON */
  /*-------------------------------- PLL Configuration -----------------------*/
  /* Check the parameters */
  assert_param(IS_RCC_PLL(RCC_OscInitStruct->PLL.PLLState));
  if ((RCC_OscInitStruct->PLL.PLLState) != RCC_PLL_NONE)
 800283e:	687b      	ldr	r3, [r7, #4]
 8002840:	69db      	ldr	r3, [r3, #28]
 8002842:	2b00      	cmp	r3, #0
 8002844:	f000 8087 	beq.w	8002956 <HAL_RCC_OscConfig+0x4f6>
  {
    /* Check if the PLL is used as system clock or not */
    if (__HAL_RCC_GET_SYSCLK_SOURCE() != RCC_SYSCLKSOURCE_STATUS_PLLCLK)
 8002848:	4b36      	ldr	r3, [pc, #216]	@ (8002924 <HAL_RCC_OscConfig+0x4c4>)
 800284a:	685b      	ldr	r3, [r3, #4]
 800284c:	f003 030c 	and.w	r3, r3, #12
 8002850:	2b08      	cmp	r3, #8
 8002852:	d061      	beq.n	8002918 <HAL_RCC_OscConfig+0x4b8>
    {
      if ((RCC_OscInitStruct->PLL.PLLState) == RCC_PLL_ON)
 8002854:	687b      	ldr	r3, [r7, #4]
 8002856:	69db      	ldr	r3, [r3, #28]
 8002858:	2b02      	cmp	r3, #2
 800285a:	d146      	bne.n	80028ea <HAL_RCC_OscConfig+0x48a>
        /* Check the parameters */
        assert_param(IS_RCC_PLLSOURCE(RCC_OscInitStruct->PLL.PLLSource));
        assert_param(IS_RCC_PLL_MUL(RCC_OscInitStruct->PLL.PLLMUL));

        /* Disable the main PLL. */
        __HAL_RCC_PLL_DISABLE();
 800285c:	4b33      	ldr	r3, [pc, #204]	@ (800292c <HAL_RCC_OscConfig+0x4cc>)
 800285e:	2200      	movs	r2, #0
 8002860:	601a      	str	r2, [r3, #0]

        /* Get Start Tick */
        tickstart = HAL_GetTick();
 8002862:	f7fd ff9d 	bl	80007a0 <HAL_GetTick>
 8002866:	6138      	str	r0, [r7, #16]

        /* Wait till PLL is disabled */
        while (__HAL_RCC_GET_FLAG(RCC_FLAG_PLLRDY)  != RESET)
 8002868:	e008      	b.n	800287c <HAL_RCC_OscConfig+0x41c>
        {
          if ((HAL_GetTick() - tickstart) > PLL_TIMEOUT_VALUE)
 800286a:	f7fd ff99 	bl	80007a0 <HAL_GetTick>
 800286e:	4602      	mov	r2, r0
 8002870:	693b      	ldr	r3, [r7, #16]
 8002872:	1ad3      	subs	r3, r2, r3
 8002874:	2b02      	cmp	r3, #2
 8002876:	d901      	bls.n	800287c <HAL_RCC_OscConfig+0x41c>
          {
            return HAL_TIMEOUT;
 8002878:	2303      	movs	r3, #3
 800287a:	e06d      	b.n	8002958 <HAL_RCC_OscConfig+0x4f8>
        while (__HAL_RCC_GET_FLAG(RCC_FLAG_PLLRDY)  != RESET)
 800287c:	4b29      	ldr	r3, [pc, #164]	@ (8002924 <HAL_RCC_OscConfig+0x4c4>)
 800287e:	681b      	ldr	r3, [r3, #0]
 8002880:	f003 7300 	and.w	r3, r3, #33554432	@ 0x2000000
 8002884:	2b00      	cmp	r3, #0
 8002886:	d1f0      	bne.n	800286a <HAL_RCC_OscConfig+0x40a>
          }
        }

        /* Configure the HSE prediv factor --------------------------------*/
        /* It can be written only when the PLL is disabled. Not used in PLL source is different than HSE */
        if (RCC_OscInitStruct->PLL.PLLSource == RCC_PLLSOURCE_HSE)
 8002888:	687b      	ldr	r3, [r7, #4]
 800288a:	6a1b      	ldr	r3, [r3, #32]
 800288c:	f5b3 3f80 	cmp.w	r3, #65536	@ 0x10000
 8002890:	d108      	bne.n	80028a4 <HAL_RCC_OscConfig+0x444>
          /* Set PREDIV1 source */
          SET_BIT(RCC->CFGR2, RCC_OscInitStruct->Prediv1Source);
#endif /* RCC_CFGR2_PREDIV1SRC */

          /* Set PREDIV1 Value */
          __HAL_RCC_HSE_PREDIV_CONFIG(RCC_OscInitStruct->HSEPredivValue);
 8002892:	4b24      	ldr	r3, [pc, #144]	@ (8002924 <HAL_RCC_OscConfig+0x4c4>)
 8002894:	685b      	ldr	r3, [r3, #4]
 8002896:	f423 3200 	bic.w	r2, r3, #131072	@ 0x20000
 800289a:	687b      	ldr	r3, [r7, #4]
 800289c:	689b      	ldr	r3, [r3, #8]
 800289e:	4921      	ldr	r1, [pc, #132]	@ (8002924 <HAL_RCC_OscConfig+0x4c4>)
 80028a0:	4313      	orrs	r3, r2
 80028a2:	604b      	str	r3, [r1, #4]
        }

        /* Configure the main PLL clock source and multiplication factors. */
        __HAL_RCC_PLL_CONFIG(RCC_OscInitStruct->PLL.PLLSource,
 80028a4:	4b1f      	ldr	r3, [pc, #124]	@ (8002924 <HAL_RCC_OscConfig+0x4c4>)
 80028a6:	685b      	ldr	r3, [r3, #4]
 80028a8:	f423 1274 	bic.w	r2, r3, #3997696	@ 0x3d0000
 80028ac:	687b      	ldr	r3, [r7, #4]
 80028ae:	6a19      	ldr	r1, [r3, #32]
 80028b0:	687b      	ldr	r3, [r7, #4]
 80028b2:	6a5b      	ldr	r3, [r3, #36]	@ 0x24
 80028b4:	430b      	orrs	r3, r1
 80028b6:	491b      	ldr	r1, [pc, #108]	@ (8002924 <HAL_RCC_OscConfig+0x4c4>)
 80028b8:	4313      	orrs	r3, r2
 80028ba:	604b      	str	r3, [r1, #4]
                             RCC_OscInitStruct->PLL.PLLMUL);
        /* Enable the main PLL. */
        __HAL_RCC_PLL_ENABLE();
 80028bc:	4b1b      	ldr	r3, [pc, #108]	@ (800292c <HAL_RCC_OscConfig+0x4cc>)
 80028be:	2201      	movs	r2, #1
 80028c0:	601a      	str	r2, [r3, #0]

        /* Get Start Tick */
        tickstart = HAL_GetTick();
 80028c2:	f7fd ff6d 	bl	80007a0 <HAL_GetTick>
 80028c6:	6138      	str	r0, [r7, #16]

        /* Wait till PLL is ready */
        while (__HAL_RCC_GET_FLAG(RCC_FLAG_PLLRDY)  == RESET)
 80028c8:	e008      	b.n	80028dc <HAL_RCC_OscConfig+0x47c>
        {
          if ((HAL_GetTick() - tickstart) > PLL_TIMEOUT_VALUE)
 80028ca:	f7fd ff69 	bl	80007a0 <HAL_GetTick>
 80028ce:	4602      	mov	r2, r0
 80028d0:	693b      	ldr	r3, [r7, #16]
 80028d2:	1ad3      	subs	r3, r2, r3
 80028d4:	2b02      	cmp	r3, #2
 80028d6:	d901      	bls.n	80028dc <HAL_RCC_OscConfig+0x47c>
          {
            return HAL_TIMEOUT;
 80028d8:	2303      	movs	r3, #3
 80028da:	e03d      	b.n	8002958 <HAL_RCC_OscConfig+0x4f8>
        while (__HAL_RCC_GET_FLAG(RCC_FLAG_PLLRDY)  == RESET)
 80028dc:	4b11      	ldr	r3, [pc, #68]	@ (8002924 <HAL_RCC_OscConfig+0x4c4>)
 80028de:	681b      	ldr	r3, [r3, #0]
 80028e0:	f003 7300 	and.w	r3, r3, #33554432	@ 0x2000000
 80028e4:	2b00      	cmp	r3, #0
 80028e6:	d0f0      	beq.n	80028ca <HAL_RCC_OscConfig+0x46a>
 80028e8:	e035      	b.n	8002956 <HAL_RCC_OscConfig+0x4f6>
        }
      }
      else
      {
        /* Disable the main PLL. */
        __HAL_RCC_PLL_DISABLE();
 80028ea:	4b10      	ldr	r3, [pc, #64]	@ (800292c <HAL_RCC_OscConfig+0x4cc>)
 80028ec:	2200      	movs	r2, #0
 80028ee:	601a      	str	r2, [r3, #0]

        /* Get Start Tick */
        tickstart = HAL_GetTick();
 80028f0:	f7fd ff56 	bl	80007a0 <HAL_GetTick>
 80028f4:	6138      	str	r0, [r7, #16]

        /* Wait till PLL is disabled */
        while (__HAL_RCC_GET_FLAG(RCC_FLAG_PLLRDY)  != RESET)
 80028f6:	e008      	b.n	800290a <HAL_RCC_OscConfig+0x4aa>
        {
          if ((HAL_GetTick() - tickstart) > PLL_TIMEOUT_VALUE)
 80028f8:	f7fd ff52 	bl	80007a0 <HAL_GetTick>
 80028fc:	4602      	mov	r2, r0
 80028fe:	693b      	ldr	r3, [r7, #16]
 8002900:	1ad3      	subs	r3, r2, r3
 8002902:	2b02      	cmp	r3, #2
 8002904:	d901      	bls.n	800290a <HAL_RCC_OscConfig+0x4aa>
          {
            return HAL_TIMEOUT;
 8002906:	2303      	movs	r3, #3
 8002908:	e026      	b.n	8002958 <HAL_RCC_OscConfig+0x4f8>
        while (__HAL_RCC_GET_FLAG(RCC_FLAG_PLLRDY)  != RESET)
 800290a:	4b06      	ldr	r3, [pc, #24]	@ (8002924 <HAL_RCC_OscConfig+0x4c4>)
 800290c:	681b      	ldr	r3, [r3, #0]
 800290e:	f003 7300 	and.w	r3, r3, #33554432	@ 0x2000000
 8002912:	2b00      	cmp	r3, #0
 8002914:	d1f0      	bne.n	80028f8 <HAL_RCC_OscConfig+0x498>
 8002916:	e01e      	b.n	8002956 <HAL_RCC_OscConfig+0x4f6>
      }
    }
    else
    {
      /* Check if there is a request to disable the PLL used as System clock source */
      if ((RCC_OscInitStruct->PLL.PLLState) == RCC_PLL_OFF)
 8002918:	687b      	ldr	r3, [r7, #4]
 800291a:	69db      	ldr	r3, [r3, #28]
 800291c:	2b01      	cmp	r3, #1
 800291e:	d107      	bne.n	8002930 <HAL_RCC_OscConfig+0x4d0>
      {
        return HAL_ERROR;
 8002920:	2301      	movs	r3, #1
 8002922:	e019      	b.n	8002958 <HAL_RCC_OscConfig+0x4f8>
 8002924:	40021000 	.word	0x40021000
 8002928:	40007000 	.word	0x40007000
 800292c:	42420060 	.word	0x42420060
      }
      else
      {
        /* Do not return HAL_ERROR if request repeats the current configuration */
        pll_config = RCC->CFGR;
 8002930:	4b0b      	ldr	r3, [pc, #44]	@ (8002960 <HAL_RCC_OscConfig+0x500>)
 8002932:	685b      	ldr	r3, [r3, #4]
 8002934:	60fb      	str	r3, [r7, #12]
        if ((READ_BIT(pll_config, RCC_CFGR_PLLSRC) != RCC_OscInitStruct->PLL.PLLSource) ||
 8002936:	68fb      	ldr	r3, [r7, #12]
 8002938:	f403 3280 	and.w	r2, r3, #65536	@ 0x10000
 800293c:	687b      	ldr	r3, [r7, #4]
 800293e:	6a1b      	ldr	r3, [r3, #32]
 8002940:	429a      	cmp	r2, r3
 8002942:	d106      	bne.n	8002952 <HAL_RCC_OscConfig+0x4f2>
            (READ_BIT(pll_config, RCC_CFGR_PLLMULL) != RCC_OscInitStruct->PLL.PLLMUL))
 8002944:	68fb      	ldr	r3, [r7, #12]
 8002946:	f403 1270 	and.w	r2, r3, #3932160	@ 0x3c0000
 800294a:	687b      	ldr	r3, [r7, #4]
 800294c:	6a5b      	ldr	r3, [r3, #36]	@ 0x24
        if ((READ_BIT(pll_config, RCC_CFGR_PLLSRC) != RCC_OscInitStruct->PLL.PLLSource) ||
 800294e:	429a      	cmp	r2, r3
 8002950:	d001      	beq.n	8002956 <HAL_RCC_OscConfig+0x4f6>
        {
          return HAL_ERROR;
 8002952:	2301      	movs	r3, #1
 8002954:	e000      	b.n	8002958 <HAL_RCC_OscConfig+0x4f8>
        }
      }
    }
  }

  return HAL_OK;
 8002956:	2300      	movs	r3, #0
}
 8002958:	4618      	mov	r0, r3
 800295a:	3718      	adds	r7, #24
 800295c:	46bd      	mov	sp, r7
 800295e:	bd80      	pop	{r7, pc}
 8002960:	40021000 	.word	0x40021000

08002964 <HAL_RCC_ClockConfig>:
  *         You can use @ref HAL_RCC_GetClockConfig() function to know which clock is
  *         currently used as system clock source.
  * @retval HAL status
  */
HAL_StatusTypeDef HAL_RCC_ClockConfig(RCC_ClkInitTypeDef  *RCC_ClkInitStruct, uint32_t FLatency)
{
 8002964:	b580      	push	{r7, lr}
 8002966:	b084      	sub	sp, #16
 8002968:	af00      	add	r7, sp, #0
 800296a:	6078      	str	r0, [r7, #4]
 800296c:	6039      	str	r1, [r7, #0]
  uint32_t tickstart;

  /* Check Null pointer */
  if (RCC_ClkInitStruct == NULL)
 800296e:	687b      	ldr	r3, [r7, #4]
 8002970:	2b00      	cmp	r3, #0
 8002972:	d101      	bne.n	8002978 <HAL_RCC_ClockConfig+0x14>
  {
    return HAL_ERROR;
 8002974:	2301      	movs	r3, #1
 8002976:	e0d0      	b.n	8002b1a <HAL_RCC_ClockConfig+0x1b6>
  must be correctly programmed according to the frequency of the CPU clock
    (HCLK) of the device. */

#if defined(FLASH_ACR_LATENCY)
  /* Increasing the number of wait states because of higher CPU frequency */
  if (FLatency > __HAL_FLASH_GET_LATENCY())
 8002978:	4b6a      	ldr	r3, [pc, #424]	@ (8002b24 <HAL_RCC_ClockConfig+0x1c0>)
 800297a:	681b      	ldr	r3, [r3, #0]
 800297c:	f003 0307 	and.w	r3, r3, #7
 8002980:	683a      	ldr	r2, [r7, #0]
 8002982:	429a      	cmp	r2, r3
 8002984:	d910      	bls.n	80029a8 <HAL_RCC_ClockConfig+0x44>
  {
    /* Program the new number of wait states to the LATENCY bits in the FLASH_ACR register */
    __HAL_FLASH_SET_LATENCY(FLatency);
 8002986:	4b67      	ldr	r3, [pc, #412]	@ (8002b24 <HAL_RCC_ClockConfig+0x1c0>)
 8002988:	681b      	ldr	r3, [r3, #0]
 800298a:	f023 0207 	bic.w	r2, r3, #7
 800298e:	4965      	ldr	r1, [pc, #404]	@ (8002b24 <HAL_RCC_ClockConfig+0x1c0>)
 8002990:	683b      	ldr	r3, [r7, #0]
 8002992:	4313      	orrs	r3, r2
 8002994:	600b      	str	r3, [r1, #0]

    /* Check that the new number of wait states is taken into account to access the Flash
    memory by reading the FLASH_ACR register */
    if (__HAL_FLASH_GET_LATENCY() != FLatency)
 8002996:	4b63      	ldr	r3, [pc, #396]	@ (8002b24 <HAL_RCC_ClockConfig+0x1c0>)
 8002998:	681b      	ldr	r3, [r3, #0]
 800299a:	f003 0307 	and.w	r3, r3, #7
 800299e:	683a      	ldr	r2, [r7, #0]
 80029a0:	429a      	cmp	r2, r3
 80029a2:	d001      	beq.n	80029a8 <HAL_RCC_ClockConfig+0x44>
  {
    return HAL_ERROR;
 80029a4:	2301      	movs	r3, #1
 80029a6:	e0b8      	b.n	8002b1a <HAL_RCC_ClockConfig+0x1b6>
  }
}

#endif /* FLASH_ACR_LATENCY */
/*-------------------------- HCLK Configuration --------------------------*/
if (((RCC_ClkInitStruct->ClockType) & RCC_CLOCKTYPE_HCLK) == RCC_CLOCKTYPE_HCLK)
 80029a8:	687b      	ldr	r3, [r7, #4]
 80029aa:	681b      	ldr	r3, [r3, #0]
 80029ac:	f003 0302 	and.w	r3, r3, #2
 80029b0:	2b00      	cmp	r3, #0
 80029b2:	d020      	beq.n	80029f6 <HAL_RCC_ClockConfig+0x92>
  {
    /* Set the highest APBx dividers in order to ensure that we do not go through
    a non-spec phase whatever we decrease or increase HCLK. */
    if (((RCC_ClkInitStruct->ClockType) & RCC_CLOCKTYPE_PCLK1) == RCC_CLOCKTYPE_PCLK1)
 80029b4:	687b      	ldr	r3, [r7, #4]
 80029b6:	681b      	ldr	r3, [r3, #0]
 80029b8:	f003 0304 	and.w	r3, r3, #4
 80029bc:	2b00      	cmp	r3, #0
 80029be:	d005      	beq.n	80029cc <HAL_RCC_ClockConfig+0x68>
    {
      MODIFY_REG(RCC->CFGR, RCC_CFGR_PPRE1, RCC_HCLK_DIV16);
 80029c0:	4b59      	ldr	r3, [pc, #356]	@ (8002b28 <HAL_RCC_ClockConfig+0x1c4>)
 80029c2:	685b      	ldr	r3, [r3, #4]
 80029c4:	4a58      	ldr	r2, [pc, #352]	@ (8002b28 <HAL_RCC_ClockConfig+0x1c4>)
 80029c6:	f443 63e0 	orr.w	r3, r3, #1792	@ 0x700
 80029ca:	6053      	str	r3, [r2, #4]
    }

    if (((RCC_ClkInitStruct->ClockType) & RCC_CLOCKTYPE_PCLK2) == RCC_CLOCKTYPE_PCLK2)
 80029cc:	687b      	ldr	r3, [r7, #4]
 80029ce:	681b      	ldr	r3, [r3, #0]
 80029d0:	f003 0308 	and.w	r3, r3, #8
 80029d4:	2b00      	cmp	r3, #0
 80029d6:	d005      	beq.n	80029e4 <HAL_RCC_ClockConfig+0x80>
    {
      MODIFY_REG(RCC->CFGR, RCC_CFGR_PPRE2, (RCC_HCLK_DIV16 << 3));
 80029d8:	4b53      	ldr	r3, [pc, #332]	@ (8002b28 <HAL_RCC_ClockConfig+0x1c4>)
 80029da:	685b      	ldr	r3, [r3, #4]
 80029dc:	4a52      	ldr	r2, [pc, #328]	@ (8002b28 <HAL_RCC_ClockConfig+0x1c4>)
 80029de:	f443 5360 	orr.w	r3, r3, #14336	@ 0x3800
 80029e2:	6053      	str	r3, [r2, #4]
    }

    /* Set the new HCLK clock divider */
    assert_param(IS_RCC_HCLK(RCC_ClkInitStruct->AHBCLKDivider));
    MODIFY_REG(RCC->CFGR, RCC_CFGR_HPRE, RCC_ClkInitStruct->AHBCLKDivider);
 80029e4:	4b50      	ldr	r3, [pc, #320]	@ (8002b28 <HAL_RCC_ClockConfig+0x1c4>)
 80029e6:	685b      	ldr	r3, [r3, #4]
 80029e8:	f023 02f0 	bic.w	r2, r3, #240	@ 0xf0
 80029ec:	687b      	ldr	r3, [r7, #4]
 80029ee:	689b      	ldr	r3, [r3, #8]
 80029f0:	494d      	ldr	r1, [pc, #308]	@ (8002b28 <HAL_RCC_ClockConfig+0x1c4>)
 80029f2:	4313      	orrs	r3, r2
 80029f4:	604b      	str	r3, [r1, #4]
  }

  /*------------------------- SYSCLK Configuration ---------------------------*/
  if (((RCC_ClkInitStruct->ClockType) & RCC_CLOCKTYPE_SYSCLK) == RCC_CLOCKTYPE_SYSCLK)
 80029f6:	687b      	ldr	r3, [r7, #4]
 80029f8:	681b      	ldr	r3, [r3, #0]
 80029fa:	f003 0301 	and.w	r3, r3, #1
 80029fe:	2b00      	cmp	r3, #0
 8002a00:	d040      	beq.n	8002a84 <HAL_RCC_ClockConfig+0x120>
  {
    assert_param(IS_RCC_SYSCLKSOURCE(RCC_ClkInitStruct->SYSCLKSource));

    /* HSE is selected as System Clock Source */
    if (RCC_ClkInitStruct->SYSCLKSource == RCC_SYSCLKSOURCE_HSE)
 8002a02:	687b      	ldr	r3, [r7, #4]
 8002a04:	685b      	ldr	r3, [r3, #4]
 8002a06:	2b01      	cmp	r3, #1
 8002a08:	d107      	bne.n	8002a1a <HAL_RCC_ClockConfig+0xb6>
    {
      /* Check the HSE ready flag */
      if (__HAL_RCC_GET_FLAG(RCC_FLAG_HSERDY) == RESET)
 8002a0a:	4b47      	ldr	r3, [pc, #284]	@ (8002b28 <HAL_RCC_ClockConfig+0x1c4>)
 8002a0c:	681b      	ldr	r3, [r3, #0]
 8002a0e:	f403 3300 	and.w	r3, r3, #131072	@ 0x20000
 8002a12:	2b00      	cmp	r3, #0
 8002a14:	d115      	bne.n	8002a42 <HAL_RCC_ClockConfig+0xde>
      {
        return HAL_ERROR;
 8002a16:	2301      	movs	r3, #1
 8002a18:	e07f      	b.n	8002b1a <HAL_RCC_ClockConfig+0x1b6>
      }
    }
    /* PLL is selected as System Clock Source */
    else if (RCC_ClkInitStruct->SYSCLKSource == RCC_SYSCLKSOURCE_PLLCLK)
 8002a1a:	687b      	ldr	r3, [r7, #4]
 8002a1c:	685b      	ldr	r3, [r3, #4]
 8002a1e:	2b02      	cmp	r3, #2
 8002a20:	d107      	bne.n	8002a32 <HAL_RCC_ClockConfig+0xce>
    {
      /* Check the PLL ready flag */
      if (__HAL_RCC_GET_FLAG(RCC_FLAG_PLLRDY) == RESET)
 8002a22:	4b41      	ldr	r3, [pc, #260]	@ (8002b28 <HAL_RCC_ClockConfig+0x1c4>)
 8002a24:	681b      	ldr	r3, [r3, #0]
 8002a26:	f003 7300 	and.w	r3, r3, #33554432	@ 0x2000000
 8002a2a:	2b00      	cmp	r3, #0
 8002a2c:	d109      	bne.n	8002a42 <HAL_RCC_ClockConfig+0xde>
      {
        return HAL_ERROR;
 8002a2e:	2301      	movs	r3, #1
 8002a30:	e073      	b.n	8002b1a <HAL_RCC_ClockConfig+0x1b6>
    }
    /* HSI is selected as System Clock Source */
    else
    {
      /* Check the HSI ready flag */
      if (__HAL_RCC_GET_FLAG(RCC_FLAG_HSIRDY) == RESET)
 8002a32:	4b3d      	ldr	r3, [pc, #244]	@ (8002b28 <HAL_RCC_ClockConfig+0x1c4>)
 8002a34:	681b      	ldr	r3, [r3, #0]
 8002a36:	f003 0302 	and.w	r3, r3, #2
 8002a3a:	2b00      	cmp	r3, #0
 8002a3c:	d101      	bne.n	8002a42 <HAL_RCC_ClockConfig+0xde>
      {
        return HAL_ERROR;
 8002a3e:	2301      	movs	r3, #1
 8002a40:	e06b      	b.n	8002b1a <HAL_RCC_ClockConfig+0x1b6>
      }
    }
    __HAL_RCC_SYSCLK_CONFIG(RCC_ClkInitStruct->SYSCLKSource);
 8002a42:	4b39      	ldr	r3, [pc, #228]	@ (8002b28 <HAL_RCC_ClockConfig+0x1c4>)
 8002a44:	685b      	ldr	r3, [r3, #4]
 8002a46:	f023 0203 	bic.w	r2, r3, #3
 8002a4a:	687b      	ldr	r3, [r7, #4]
 8002a4c:	685b      	ldr	r3, [r3, #4]
 8002a4e:	4936      	ldr	r1, [pc, #216]	@ (8002b28 <HAL_RCC_ClockConfig+0x1c4>)
 8002a50:	4313      	orrs	r3, r2
 8002a52:	604b      	str	r3, [r1, #4]

    /* Get Start Tick */
    tickstart = HAL_GetTick();
 8002a54:	f7fd fea4 	bl	80007a0 <HAL_GetTick>
 8002a58:	60f8      	str	r0, [r7, #12]

    while (__HAL_RCC_GET_SYSCLK_SOURCE() != (RCC_ClkInitStruct->SYSCLKSource << RCC_CFGR_SWS_Pos))
 8002a5a:	e00a      	b.n	8002a72 <HAL_RCC_ClockConfig+0x10e>
    {
      if ((HAL_GetTick() - tickstart) > CLOCKSWITCH_TIMEOUT_VALUE)
 8002a5c:	f7fd fea0 	bl	80007a0 <HAL_GetTick>
 8002a60:	4602      	mov	r2, r0
 8002a62:	68fb      	ldr	r3, [r7, #12]
 8002a64:	1ad3      	subs	r3, r2, r3
 8002a66:	f241 3288 	movw	r2, #5000	@ 0x1388
 8002a6a:	4293      	cmp	r3, r2
 8002a6c:	d901      	bls.n	8002a72 <HAL_RCC_ClockConfig+0x10e>
      {
        return HAL_TIMEOUT;
 8002a6e:	2303      	movs	r3, #3
 8002a70:	e053      	b.n	8002b1a <HAL_RCC_ClockConfig+0x1b6>
    while (__HAL_RCC_GET_SYSCLK_SOURCE() != (RCC_ClkInitStruct->SYSCLKSource << RCC_CFGR_SWS_Pos))
 8002a72:	4b2d      	ldr	r3, [pc, #180]	@ (8002b28 <HAL_RCC_ClockConfig+0x1c4>)
 8002a74:	685b      	ldr	r3, [r3, #4]
 8002a76:	f003 020c 	and.w	r2, r3, #12
 8002a7a:	687b      	ldr	r3, [r7, #4]
 8002a7c:	685b      	ldr	r3, [r3, #4]
 8002a7e:	009b      	lsls	r3, r3, #2
 8002a80:	429a      	cmp	r2, r3
 8002a82:	d1eb      	bne.n	8002a5c <HAL_RCC_ClockConfig+0xf8>
    }
  }

#if defined(FLASH_ACR_LATENCY)
  /* Decreasing the number of wait states because of lower CPU frequency */
  if (FLatency < __HAL_FLASH_GET_LATENCY())
 8002a84:	4b27      	ldr	r3, [pc, #156]	@ (8002b24 <HAL_RCC_ClockConfig+0x1c0>)
 8002a86:	681b      	ldr	r3, [r3, #0]
 8002a88:	f003 0307 	and.w	r3, r3, #7
 8002a8c:	683a      	ldr	r2, [r7, #0]
 8002a8e:	429a      	cmp	r2, r3
 8002a90:	d210      	bcs.n	8002ab4 <HAL_RCC_ClockConfig+0x150>
  {
    /* Program the new number of wait states to the LATENCY bits in the FLASH_ACR register */
    __HAL_FLASH_SET_LATENCY(FLatency);
 8002a92:	4b24      	ldr	r3, [pc, #144]	@ (8002b24 <HAL_RCC_ClockConfig+0x1c0>)
 8002a94:	681b      	ldr	r3, [r3, #0]
 8002a96:	f023 0207 	bic.w	r2, r3, #7
 8002a9a:	4922      	ldr	r1, [pc, #136]	@ (8002b24 <HAL_RCC_ClockConfig+0x1c0>)
 8002a9c:	683b      	ldr	r3, [r7, #0]
 8002a9e:	4313      	orrs	r3, r2
 8002aa0:	600b      	str	r3, [r1, #0]

    /* Check that the new number of wait states is taken into account to access the Flash
    memory by reading the FLASH_ACR register */
    if (__HAL_FLASH_GET_LATENCY() != FLatency)
 8002aa2:	4b20      	ldr	r3, [pc, #128]	@ (8002b24 <HAL_RCC_ClockConfig+0x1c0>)
 8002aa4:	681b      	ldr	r3, [r3, #0]
 8002aa6:	f003 0307 	and.w	r3, r3, #7
 8002aaa:	683a      	ldr	r2, [r7, #0]
 8002aac:	429a      	cmp	r2, r3
 8002aae:	d001      	beq.n	8002ab4 <HAL_RCC_ClockConfig+0x150>
  {
    return HAL_ERROR;
 8002ab0:	2301      	movs	r3, #1
 8002ab2:	e032      	b.n	8002b1a <HAL_RCC_ClockConfig+0x1b6>
  }
}
#endif /* FLASH_ACR_LATENCY */

/*-------------------------- PCLK1 Configuration ---------------------------*/
if (((RCC_ClkInitStruct->ClockType) & RCC_CLOCKTYPE_PCLK1) == RCC_CLOCKTYPE_PCLK1)
 8002ab4:	687b      	ldr	r3, [r7, #4]
 8002ab6:	681b      	ldr	r3, [r3, #0]
 8002ab8:	f003 0304 	and.w	r3, r3, #4
 8002abc:	2b00      	cmp	r3, #0
 8002abe:	d008      	beq.n	8002ad2 <HAL_RCC_ClockConfig+0x16e>
  {
    assert_param(IS_RCC_PCLK(RCC_ClkInitStruct->APB1CLKDivider));
    MODIFY_REG(RCC->CFGR, RCC_CFGR_PPRE1, RCC_ClkInitStruct->APB1CLKDivider);
 8002ac0:	4b19      	ldr	r3, [pc, #100]	@ (8002b28 <HAL_RCC_ClockConfig+0x1c4>)
 8002ac2:	685b      	ldr	r3, [r3, #4]
 8002ac4:	f423 62e0 	bic.w	r2, r3, #1792	@ 0x700
 8002ac8:	687b      	ldr	r3, [r7, #4]
 8002aca:	68db      	ldr	r3, [r3, #12]
 8002acc:	4916      	ldr	r1, [pc, #88]	@ (8002b28 <HAL_RCC_ClockConfig+0x1c4>)
 8002ace:	4313      	orrs	r3, r2
 8002ad0:	604b      	str	r3, [r1, #4]
  }

  /*-------------------------- PCLK2 Configuration ---------------------------*/
  if (((RCC_ClkInitStruct->ClockType) & RCC_CLOCKTYPE_PCLK2) == RCC_CLOCKTYPE_PCLK2)
 8002ad2:	687b      	ldr	r3, [r7, #4]
 8002ad4:	681b      	ldr	r3, [r3, #0]
 8002ad6:	f003 0308 	and.w	r3, r3, #8
 8002ada:	2b00      	cmp	r3, #0
 8002adc:	d009      	beq.n	8002af2 <HAL_RCC_ClockConfig+0x18e>
  {
    assert_param(IS_RCC_PCLK(RCC_ClkInitStruct->APB2CLKDivider));
    MODIFY_REG(RCC->CFGR, RCC_CFGR_PPRE2, ((RCC_ClkInitStruct->APB2CLKDivider) << 3));
 8002ade:	4b12      	ldr	r3, [pc, #72]	@ (8002b28 <HAL_RCC_ClockConfig+0x1c4>)
 8002ae0:	685b      	ldr	r3, [r3, #4]
 8002ae2:	f423 5260 	bic.w	r2, r3, #14336	@ 0x3800
 8002ae6:	687b      	ldr	r3, [r7, #4]
 8002ae8:	691b      	ldr	r3, [r3, #16]
 8002aea:	00db      	lsls	r3, r3, #3
 8002aec:	490e      	ldr	r1, [pc, #56]	@ (8002b28 <HAL_RCC_ClockConfig+0x1c4>)
 8002aee:	4313      	orrs	r3, r2
 8002af0:	604b      	str	r3, [r1, #4]
  }

  /* Update the SystemCoreClock global variable */
  SystemCoreClock = HAL_RCC_GetSysClockFreq() >> AHBPrescTable[(RCC->CFGR & RCC_CFGR_HPRE) >> RCC_CFGR_HPRE_Pos];
 8002af2:	f000 f821 	bl	8002b38 <HAL_RCC_GetSysClockFreq>
 8002af6:	4602      	mov	r2, r0
 8002af8:	4b0b      	ldr	r3, [pc, #44]	@ (8002b28 <HAL_RCC_ClockConfig+0x1c4>)
 8002afa:	685b      	ldr	r3, [r3, #4]
 8002afc:	091b      	lsrs	r3, r3, #4
 8002afe:	f003 030f 	and.w	r3, r3, #15
 8002b02:	490a      	ldr	r1, [pc, #40]	@ (8002b2c <HAL_RCC_ClockConfig+0x1c8>)
 8002b04:	5ccb      	ldrb	r3, [r1, r3]
 8002b06:	fa22 f303 	lsr.w	r3, r2, r3
 8002b0a:	4a09      	ldr	r2, [pc, #36]	@ (8002b30 <HAL_RCC_ClockConfig+0x1cc>)
 8002b0c:	6013      	str	r3, [r2, #0]

  /* Configure the source of time base considering new system clocks settings*/
  HAL_InitTick(uwTickPrio);
 8002b0e:	4b09      	ldr	r3, [pc, #36]	@ (8002b34 <HAL_RCC_ClockConfig+0x1d0>)
 8002b10:	681b      	ldr	r3, [r3, #0]
 8002b12:	4618      	mov	r0, r3
 8002b14:	f7fd fe02 	bl	800071c <HAL_InitTick>

  return HAL_OK;
 8002b18:	2300      	movs	r3, #0
}
 8002b1a:	4618      	mov	r0, r3
 8002b1c:	3710      	adds	r7, #16
 8002b1e:	46bd      	mov	sp, r7
 8002b20:	bd80      	pop	{r7, pc}
 8002b22:	bf00      	nop
 8002b24:	40022000 	.word	0x40022000
 8002b28:	40021000 	.word	0x40021000
 8002b2c:	08007734 	.word	0x08007734
 8002b30:	20000000 	.word	0x20000000
 8002b34:	20000004 	.word	0x20000004

08002b38 <HAL_RCC_GetSysClockFreq>:
  *         right SYSCLK value. Otherwise, any configuration based on this function will be incorrect.
  *
  * @retval SYSCLK frequency
  */
uint32_t HAL_RCC_GetSysClockFreq(void)
{
 8002b38:	b480      	push	{r7}
 8002b3a:	b087      	sub	sp, #28
 8002b3c:	af00      	add	r7, sp, #0
#else
  static const uint8_t aPredivFactorTable[2U] = {1, 2};
#endif /*RCC_CFGR2_PREDIV1*/

#endif
  uint32_t tmpreg = 0U, prediv = 0U, pllclk = 0U, pllmul = 0U;
 8002b3e:	2300      	movs	r3, #0
 8002b40:	60fb      	str	r3, [r7, #12]
 8002b42:	2300      	movs	r3, #0
 8002b44:	60bb      	str	r3, [r7, #8]
 8002b46:	2300      	movs	r3, #0
 8002b48:	617b      	str	r3, [r7, #20]
 8002b4a:	2300      	movs	r3, #0
 8002b4c:	607b      	str	r3, [r7, #4]
  uint32_t sysclockfreq = 0U;
 8002b4e:	2300      	movs	r3, #0
 8002b50:	613b      	str	r3, [r7, #16]
#if defined(RCC_CFGR2_PREDIV1SRC)
  uint32_t prediv2 = 0U, pll2mul = 0U;
#endif /*RCC_CFGR2_PREDIV1SRC*/

  tmpreg = RCC->CFGR;
 8002b52:	4b1e      	ldr	r3, [pc, #120]	@ (8002bcc <HAL_RCC_GetSysClockFreq+0x94>)
 8002b54:	685b      	ldr	r3, [r3, #4]
 8002b56:	60fb      	str	r3, [r7, #12]

  /* Get SYSCLK source -------------------------------------------------------*/
  switch (tmpreg & RCC_CFGR_SWS)
 8002b58:	68fb      	ldr	r3, [r7, #12]
 8002b5a:	f003 030c 	and.w	r3, r3, #12
 8002b5e:	2b04      	cmp	r3, #4
 8002b60:	d002      	beq.n	8002b68 <HAL_RCC_GetSysClockFreq+0x30>
 8002b62:	2b08      	cmp	r3, #8
 8002b64:	d003      	beq.n	8002b6e <HAL_RCC_GetSysClockFreq+0x36>
 8002b66:	e027      	b.n	8002bb8 <HAL_RCC_GetSysClockFreq+0x80>
  {
    case RCC_SYSCLKSOURCE_STATUS_HSE:  /* HSE used as system clock */
    {
      sysclockfreq = HSE_VALUE;
 8002b68:	4b19      	ldr	r3, [pc, #100]	@ (8002bd0 <HAL_RCC_GetSysClockFreq+0x98>)
 8002b6a:	613b      	str	r3, [r7, #16]
      break;
 8002b6c:	e027      	b.n	8002bbe <HAL_RCC_GetSysClockFreq+0x86>
    }
    case RCC_SYSCLKSOURCE_STATUS_PLLCLK:  /* PLL used as system clock */
    {
      pllmul = aPLLMULFactorTable[(uint32_t)(tmpreg & RCC_CFGR_PLLMULL) >> RCC_CFGR_PLLMULL_Pos];
 8002b6e:	68fb      	ldr	r3, [r7, #12]
 8002b70:	0c9b      	lsrs	r3, r3, #18
 8002b72:	f003 030f 	and.w	r3, r3, #15
 8002b76:	4a17      	ldr	r2, [pc, #92]	@ (8002bd4 <HAL_RCC_GetSysClockFreq+0x9c>)
 8002b78:	5cd3      	ldrb	r3, [r2, r3]
 8002b7a:	607b      	str	r3, [r7, #4]
      if ((tmpreg & RCC_CFGR_PLLSRC) != RCC_PLLSOURCE_HSI_DIV2)
 8002b7c:	68fb      	ldr	r3, [r7, #12]
 8002b7e:	f403 3380 	and.w	r3, r3, #65536	@ 0x10000
 8002b82:	2b00      	cmp	r3, #0
 8002b84:	d010      	beq.n	8002ba8 <HAL_RCC_GetSysClockFreq+0x70>
      {
#if defined(RCC_CFGR2_PREDIV1)
        prediv = aPredivFactorTable[(uint32_t)(RCC->CFGR2 & RCC_CFGR2_PREDIV1) >> RCC_CFGR2_PREDIV1_Pos];
#else
        prediv = aPredivFactorTable[(uint32_t)(RCC->CFGR & RCC_CFGR_PLLXTPRE) >> RCC_CFGR_PLLXTPRE_Pos];
 8002b86:	4b11      	ldr	r3, [pc, #68]	@ (8002bcc <HAL_RCC_GetSysClockFreq+0x94>)
 8002b88:	685b      	ldr	r3, [r3, #4]
 8002b8a:	0c5b      	lsrs	r3, r3, #17
 8002b8c:	f003 0301 	and.w	r3, r3, #1
 8002b90:	4a11      	ldr	r2, [pc, #68]	@ (8002bd8 <HAL_RCC_GetSysClockFreq+0xa0>)
 8002b92:	5cd3      	ldrb	r3, [r2, r3]
 8002b94:	60bb      	str	r3, [r7, #8]
        {
          pllclk = pllclk / 2;
        }
#else
        /* HSE used as PLL clock source : PLLCLK = HSE/PREDIV1 * PLLMUL */
        pllclk = (uint32_t)((HSE_VALUE  * pllmul) / prediv);
 8002b96:	687b      	ldr	r3, [r7, #4]
 8002b98:	4a0d      	ldr	r2, [pc, #52]	@ (8002bd0 <HAL_RCC_GetSysClockFreq+0x98>)
 8002b9a:	fb03 f202 	mul.w	r2, r3, r2
 8002b9e:	68bb      	ldr	r3, [r7, #8]
 8002ba0:	fbb2 f3f3 	udiv	r3, r2, r3
 8002ba4:	617b      	str	r3, [r7, #20]
 8002ba6:	e004      	b.n	8002bb2 <HAL_RCC_GetSysClockFreq+0x7a>
#endif /*RCC_CFGR2_PREDIV1SRC*/
      }
      else
      {
        /* HSI used as PLL clock source : PLLCLK = HSI/2 * PLLMUL */
        pllclk = (uint32_t)((HSI_VALUE >> 1) * pllmul);
 8002ba8:	687b      	ldr	r3, [r7, #4]
 8002baa:	4a0c      	ldr	r2, [pc, #48]	@ (8002bdc <HAL_RCC_GetSysClockFreq+0xa4>)
 8002bac:	fb02 f303 	mul.w	r3, r2, r3
 8002bb0:	617b      	str	r3, [r7, #20]
      }
      sysclockfreq = pllclk;
 8002bb2:	697b      	ldr	r3, [r7, #20]
 8002bb4:	613b      	str	r3, [r7, #16]
      break;
 8002bb6:	e002      	b.n	8002bbe <HAL_RCC_GetSysClockFreq+0x86>
    }
    case RCC_SYSCLKSOURCE_STATUS_HSI:  /* HSI used as system clock source */
    default: /* HSI used as system clock */
    {
      sysclockfreq = HSI_VALUE;
 8002bb8:	4b05      	ldr	r3, [pc, #20]	@ (8002bd0 <HAL_RCC_GetSysClockFreq+0x98>)
 8002bba:	613b      	str	r3, [r7, #16]
      break;
 8002bbc:	bf00      	nop
    }
  }
  return sysclockfreq;
 8002bbe:	693b      	ldr	r3, [r7, #16]
}
 8002bc0:	4618      	mov	r0, r3
 8002bc2:	371c      	adds	r7, #28
 8002bc4:	46bd      	mov	sp, r7
 8002bc6:	bc80      	pop	{r7}
 8002bc8:	4770      	bx	lr
 8002bca:	bf00      	nop
 8002bcc:	40021000 	.word	0x40021000
 8002bd0:	007a1200 	.word	0x007a1200
 8002bd4:	0800774c 	.word	0x0800774c
 8002bd8:	0800775c 	.word	0x0800775c
 8002bdc:	003d0900 	.word	0x003d0900

08002be0 <RCC_Delay>:
  * @brief  This function provides delay (in milliseconds) based on CPU cycles method.
  * @param  mdelay: specifies the delay time length, in milliseconds.
  * @retval None
  */
static void RCC_Delay(uint32_t mdelay)
{
 8002be0:	b480      	push	{r7}
 8002be2:	b085      	sub	sp, #20
 8002be4:	af00      	add	r7, sp, #0
 8002be6:	6078      	str	r0, [r7, #4]
  __IO uint32_t Delay = mdelay * (SystemCoreClock / 8U / 1000U);
 8002be8:	4b0a      	ldr	r3, [pc, #40]	@ (8002c14 <RCC_Delay+0x34>)
 8002bea:	681b      	ldr	r3, [r3, #0]
 8002bec:	4a0a      	ldr	r2, [pc, #40]	@ (8002c18 <RCC_Delay+0x38>)
 8002bee:	fba2 2303 	umull	r2, r3, r2, r3
 8002bf2:	0a5b      	lsrs	r3, r3, #9
 8002bf4:	687a      	ldr	r2, [r7, #4]
 8002bf6:	fb02 f303 	mul.w	r3, r2, r3
 8002bfa:	60fb      	str	r3, [r7, #12]
  do
  {
    __NOP();
 8002bfc:	bf00      	nop
  }
  while (Delay --);
 8002bfe:	68fb      	ldr	r3, [r7, #12]
 8002c00:	1e5a      	subs	r2, r3, #1
 8002c02:	60fa      	str	r2, [r7, #12]
 8002c04:	2b00      	cmp	r3, #0
 8002c06:	d1f9      	bne.n	8002bfc <RCC_Delay+0x1c>
}
 8002c08:	bf00      	nop
 8002c0a:	bf00      	nop
 8002c0c:	3714      	adds	r7, #20
 8002c0e:	46bd      	mov	sp, r7
 8002c10:	bc80      	pop	{r7}
 8002c12:	4770      	bx	lr
 8002c14:	20000000 	.word	0x20000000
 8002c18:	10624dd3 	.word	0x10624dd3

08002c1c <HAL_RCCEx_PeriphCLKConfig>:
  *         manually disable it.
  *
  * @retval HAL status
  */
HAL_StatusTypeDef HAL_RCCEx_PeriphCLKConfig(RCC_PeriphCLKInitTypeDef  *PeriphClkInit)
{
 8002c1c:	b580      	push	{r7, lr}
 8002c1e:	b086      	sub	sp, #24
 8002c20:	af00      	add	r7, sp, #0
 8002c22:	6078      	str	r0, [r7, #4]
  uint32_t tickstart = 0U, temp_reg = 0U;
 8002c24:	2300      	movs	r3, #0
 8002c26:	613b      	str	r3, [r7, #16]
 8002c28:	2300      	movs	r3, #0
 8002c2a:	60fb      	str	r3, [r7, #12]

  /* Check the parameters */
  assert_param(IS_RCC_PERIPHCLOCK(PeriphClkInit->PeriphClockSelection));

  /*------------------------------- RTC/LCD Configuration ------------------------*/
  if ((((PeriphClkInit->PeriphClockSelection) & RCC_PERIPHCLK_RTC) == RCC_PERIPHCLK_RTC))
 8002c2c:	687b      	ldr	r3, [r7, #4]
 8002c2e:	681b      	ldr	r3, [r3, #0]
 8002c30:	f003 0301 	and.w	r3, r3, #1
 8002c34:	2b00      	cmp	r3, #0
 8002c36:	d07d      	beq.n	8002d34 <HAL_RCCEx_PeriphCLKConfig+0x118>
  {
    FlagStatus pwrclkchanged = RESET;
 8002c38:	2300      	movs	r3, #0
 8002c3a:	75fb      	strb	r3, [r7, #23]
    assert_param(IS_RCC_RTCCLKSOURCE(PeriphClkInit->RTCClockSelection));

    /* As soon as function is called to change RTC clock source, activation of the
       power domain is done. */
    /* Requires to enable write access to Backup Domain of necessary */
    if (__HAL_RCC_PWR_IS_CLK_DISABLED())
 8002c3c:	4b4f      	ldr	r3, [pc, #316]	@ (8002d7c <HAL_RCCEx_PeriphCLKConfig+0x160>)
 8002c3e:	69db      	ldr	r3, [r3, #28]
 8002c40:	f003 5380 	and.w	r3, r3, #268435456	@ 0x10000000
 8002c44:	2b00      	cmp	r3, #0
 8002c46:	d10d      	bne.n	8002c64 <HAL_RCCEx_PeriphCLKConfig+0x48>
    {
      __HAL_RCC_PWR_CLK_ENABLE();
 8002c48:	4b4c      	ldr	r3, [pc, #304]	@ (8002d7c <HAL_RCCEx_PeriphCLKConfig+0x160>)
 8002c4a:	69db      	ldr	r3, [r3, #28]
 8002c4c:	4a4b      	ldr	r2, [pc, #300]	@ (8002d7c <HAL_RCCEx_PeriphCLKConfig+0x160>)
 8002c4e:	f043 5380 	orr.w	r3, r3, #268435456	@ 0x10000000
 8002c52:	61d3      	str	r3, [r2, #28]
 8002c54:	4b49      	ldr	r3, [pc, #292]	@ (8002d7c <HAL_RCCEx_PeriphCLKConfig+0x160>)
 8002c56:	69db      	ldr	r3, [r3, #28]
 8002c58:	f003 5380 	and.w	r3, r3, #268435456	@ 0x10000000
 8002c5c:	60bb      	str	r3, [r7, #8]
 8002c5e:	68bb      	ldr	r3, [r7, #8]
      pwrclkchanged = SET;
 8002c60:	2301      	movs	r3, #1
 8002c62:	75fb      	strb	r3, [r7, #23]
    }

    if (HAL_IS_BIT_CLR(PWR->CR, PWR_CR_DBP))
 8002c64:	4b46      	ldr	r3, [pc, #280]	@ (8002d80 <HAL_RCCEx_PeriphCLKConfig+0x164>)
 8002c66:	681b      	ldr	r3, [r3, #0]
 8002c68:	f403 7380 	and.w	r3, r3, #256	@ 0x100
 8002c6c:	2b00      	cmp	r3, #0
 8002c6e:	d118      	bne.n	8002ca2 <HAL_RCCEx_PeriphCLKConfig+0x86>
    {
      /* Enable write access to Backup domain */
      SET_BIT(PWR->CR, PWR_CR_DBP);
 8002c70:	4b43      	ldr	r3, [pc, #268]	@ (8002d80 <HAL_RCCEx_PeriphCLKConfig+0x164>)
 8002c72:	681b      	ldr	r3, [r3, #0]
 8002c74:	4a42      	ldr	r2, [pc, #264]	@ (8002d80 <HAL_RCCEx_PeriphCLKConfig+0x164>)
 8002c76:	f443 7380 	orr.w	r3, r3, #256	@ 0x100
 8002c7a:	6013      	str	r3, [r2, #0]

      /* Wait for Backup domain Write protection disable */
      tickstart = HAL_GetTick();
 8002c7c:	f7fd fd90 	bl	80007a0 <HAL_GetTick>
 8002c80:	6138      	str	r0, [r7, #16]

      while (HAL_IS_BIT_CLR(PWR->CR, PWR_CR_DBP))
 8002c82:	e008      	b.n	8002c96 <HAL_RCCEx_PeriphCLKConfig+0x7a>
      {
        if ((HAL_GetTick() - tickstart) > RCC_DBP_TIMEOUT_VALUE)
 8002c84:	f7fd fd8c 	bl	80007a0 <HAL_GetTick>
 8002c88:	4602      	mov	r2, r0
 8002c8a:	693b      	ldr	r3, [r7, #16]
 8002c8c:	1ad3      	subs	r3, r2, r3
 8002c8e:	2b64      	cmp	r3, #100	@ 0x64
 8002c90:	d901      	bls.n	8002c96 <HAL_RCCEx_PeriphCLKConfig+0x7a>
        {
          return HAL_TIMEOUT;
 8002c92:	2303      	movs	r3, #3
 8002c94:	e06d      	b.n	8002d72 <HAL_RCCEx_PeriphCLKConfig+0x156>
      while (HAL_IS_BIT_CLR(PWR->CR, PWR_CR_DBP))
 8002c96:	4b3a      	ldr	r3, [pc, #232]	@ (8002d80 <HAL_RCCEx_PeriphCLKConfig+0x164>)
 8002c98:	681b      	ldr	r3, [r3, #0]
 8002c9a:	f403 7380 	and.w	r3, r3, #256	@ 0x100
 8002c9e:	2b00      	cmp	r3, #0
 8002ca0:	d0f0      	beq.n	8002c84 <HAL_RCCEx_PeriphCLKConfig+0x68>
        }
      }
    }

    /* Reset the Backup domain only if the RTC Clock source selection is modified from reset value */
    temp_reg = (RCC->BDCR & RCC_BDCR_RTCSEL);
 8002ca2:	4b36      	ldr	r3, [pc, #216]	@ (8002d7c <HAL_RCCEx_PeriphCLKConfig+0x160>)
 8002ca4:	6a1b      	ldr	r3, [r3, #32]
 8002ca6:	f403 7340 	and.w	r3, r3, #768	@ 0x300
 8002caa:	60fb      	str	r3, [r7, #12]
    if ((temp_reg != 0x00000000U) && (temp_reg != (PeriphClkInit->RTCClockSelection & RCC_BDCR_RTCSEL)))
 8002cac:	68fb      	ldr	r3, [r7, #12]
 8002cae:	2b00      	cmp	r3, #0
 8002cb0:	d02e      	beq.n	8002d10 <HAL_RCCEx_PeriphCLKConfig+0xf4>
 8002cb2:	687b      	ldr	r3, [r7, #4]
 8002cb4:	685b      	ldr	r3, [r3, #4]
 8002cb6:	f403 7340 	and.w	r3, r3, #768	@ 0x300
 8002cba:	68fa      	ldr	r2, [r7, #12]
 8002cbc:	429a      	cmp	r2, r3
 8002cbe:	d027      	beq.n	8002d10 <HAL_RCCEx_PeriphCLKConfig+0xf4>
    {
      /* Store the content of BDCR register before the reset of Backup Domain */
      temp_reg = (RCC->BDCR & ~(RCC_BDCR_RTCSEL));
 8002cc0:	4b2e      	ldr	r3, [pc, #184]	@ (8002d7c <HAL_RCCEx_PeriphCLKConfig+0x160>)
 8002cc2:	6a1b      	ldr	r3, [r3, #32]
 8002cc4:	f423 7340 	bic.w	r3, r3, #768	@ 0x300
 8002cc8:	60fb      	str	r3, [r7, #12]
      /* RTC Clock selection can be changed only if the Backup Domain is reset */
      __HAL_RCC_BACKUPRESET_FORCE();
 8002cca:	4b2e      	ldr	r3, [pc, #184]	@ (8002d84 <HAL_RCCEx_PeriphCLKConfig+0x168>)
 8002ccc:	2201      	movs	r2, #1
 8002cce:	601a      	str	r2, [r3, #0]
      __HAL_RCC_BACKUPRESET_RELEASE();
 8002cd0:	4b2c      	ldr	r3, [pc, #176]	@ (8002d84 <HAL_RCCEx_PeriphCLKConfig+0x168>)
 8002cd2:	2200      	movs	r2, #0
 8002cd4:	601a      	str	r2, [r3, #0]
      /* Restore the Content of BDCR register */
      RCC->BDCR = temp_reg;
 8002cd6:	4a29      	ldr	r2, [pc, #164]	@ (8002d7c <HAL_RCCEx_PeriphCLKConfig+0x160>)
 8002cd8:	68fb      	ldr	r3, [r7, #12]
 8002cda:	6213      	str	r3, [r2, #32]

      /* Wait for LSERDY if LSE was enabled */
      if (HAL_IS_BIT_SET(temp_reg, RCC_BDCR_LSEON))
 8002cdc:	68fb      	ldr	r3, [r7, #12]
 8002cde:	f003 0301 	and.w	r3, r3, #1
 8002ce2:	2b00      	cmp	r3, #0
 8002ce4:	d014      	beq.n	8002d10 <HAL_RCCEx_PeriphCLKConfig+0xf4>
      {
        /* Get Start Tick */
        tickstart = HAL_GetTick();
 8002ce6:	f7fd fd5b 	bl	80007a0 <HAL_GetTick>
 8002cea:	6138      	str	r0, [r7, #16]

        /* Wait till LSE is ready */
        while (__HAL_RCC_GET_FLAG(RCC_FLAG_LSERDY) == RESET)
 8002cec:	e00a      	b.n	8002d04 <HAL_RCCEx_PeriphCLKConfig+0xe8>
        {
          if ((HAL_GetTick() - tickstart) > RCC_LSE_TIMEOUT_VALUE)
 8002cee:	f7fd fd57 	bl	80007a0 <HAL_GetTick>
 8002cf2:	4602      	mov	r2, r0
 8002cf4:	693b      	ldr	r3, [r7, #16]
 8002cf6:	1ad3      	subs	r3, r2, r3
 8002cf8:	f241 3288 	movw	r2, #5000	@ 0x1388
 8002cfc:	4293      	cmp	r3, r2
 8002cfe:	d901      	bls.n	8002d04 <HAL_RCCEx_PeriphCLKConfig+0xe8>
          {
            return HAL_TIMEOUT;
 8002d00:	2303      	movs	r3, #3
 8002d02:	e036      	b.n	8002d72 <HAL_RCCEx_PeriphCLKConfig+0x156>
        while (__HAL_RCC_GET_FLAG(RCC_FLAG_LSERDY) == RESET)
 8002d04:	4b1d      	ldr	r3, [pc, #116]	@ (8002d7c <HAL_RCCEx_PeriphCLKConfig+0x160>)
 8002d06:	6a1b      	ldr	r3, [r3, #32]
 8002d08:	f003 0302 	and.w	r3, r3, #2
 8002d0c:	2b00      	cmp	r3, #0
 8002d0e:	d0ee      	beq.n	8002cee <HAL_RCCEx_PeriphCLKConfig+0xd2>
          }
        }
      }
    }
    __HAL_RCC_RTC_CONFIG(PeriphClkInit->RTCClockSelection);
 8002d10:	4b1a      	ldr	r3, [pc, #104]	@ (8002d7c <HAL_RCCEx_PeriphCLKConfig+0x160>)
 8002d12:	6a1b      	ldr	r3, [r3, #32]
 8002d14:	f423 7240 	bic.w	r2, r3, #768	@ 0x300
 8002d18:	687b      	ldr	r3, [r7, #4]
 8002d1a:	685b      	ldr	r3, [r3, #4]
 8002d1c:	4917      	ldr	r1, [pc, #92]	@ (8002d7c <HAL_RCCEx_PeriphCLKConfig+0x160>)
 8002d1e:	4313      	orrs	r3, r2
 8002d20:	620b      	str	r3, [r1, #32]

    /* Require to disable power clock if necessary */
    if (pwrclkchanged == SET)
 8002d22:	7dfb      	ldrb	r3, [r7, #23]
 8002d24:	2b01      	cmp	r3, #1
 8002d26:	d105      	bne.n	8002d34 <HAL_RCCEx_PeriphCLKConfig+0x118>
    {
      __HAL_RCC_PWR_CLK_DISABLE();
 8002d28:	4b14      	ldr	r3, [pc, #80]	@ (8002d7c <HAL_RCCEx_PeriphCLKConfig+0x160>)
 8002d2a:	69db      	ldr	r3, [r3, #28]
 8002d2c:	4a13      	ldr	r2, [pc, #76]	@ (8002d7c <HAL_RCCEx_PeriphCLKConfig+0x160>)
 8002d2e:	f023 5380 	bic.w	r3, r3, #268435456	@ 0x10000000
 8002d32:	61d3      	str	r3, [r2, #28]
    }
  }

  /*------------------------------ ADC clock Configuration ------------------*/
  if (((PeriphClkInit->PeriphClockSelection) & RCC_PERIPHCLK_ADC) == RCC_PERIPHCLK_ADC)
 8002d34:	687b      	ldr	r3, [r7, #4]
 8002d36:	681b      	ldr	r3, [r3, #0]
 8002d38:	f003 0302 	and.w	r3, r3, #2
 8002d3c:	2b00      	cmp	r3, #0
 8002d3e:	d008      	beq.n	8002d52 <HAL_RCCEx_PeriphCLKConfig+0x136>
  {
    /* Check the parameters */
    assert_param(IS_RCC_ADCPLLCLK_DIV(PeriphClkInit->AdcClockSelection));

    /* Configure the ADC clock source */
    __HAL_RCC_ADC_CONFIG(PeriphClkInit->AdcClockSelection);
 8002d40:	4b0e      	ldr	r3, [pc, #56]	@ (8002d7c <HAL_RCCEx_PeriphCLKConfig+0x160>)
 8002d42:	685b      	ldr	r3, [r3, #4]
 8002d44:	f423 4240 	bic.w	r2, r3, #49152	@ 0xc000
 8002d48:	687b      	ldr	r3, [r7, #4]
 8002d4a:	689b      	ldr	r3, [r3, #8]
 8002d4c:	490b      	ldr	r1, [pc, #44]	@ (8002d7c <HAL_RCCEx_PeriphCLKConfig+0x160>)
 8002d4e:	4313      	orrs	r3, r2
 8002d50:	604b      	str	r3, [r1, #4]

#if defined(STM32F102x6) || defined(STM32F102xB) || defined(STM32F103x6)\
 || defined(STM32F103xB) || defined(STM32F103xE) || defined(STM32F103xG)\
 || defined(STM32F105xC) || defined(STM32F107xC)
  /*------------------------------ USB clock Configuration ------------------*/
  if (((PeriphClkInit->PeriphClockSelection) & RCC_PERIPHCLK_USB) == RCC_PERIPHCLK_USB)
 8002d52:	687b      	ldr	r3, [r7, #4]
 8002d54:	681b      	ldr	r3, [r3, #0]
 8002d56:	f003 0310 	and.w	r3, r3, #16
 8002d5a:	2b00      	cmp	r3, #0
 8002d5c:	d008      	beq.n	8002d70 <HAL_RCCEx_PeriphCLKConfig+0x154>
  {
    /* Check the parameters */
    assert_param(IS_RCC_USBPLLCLK_DIV(PeriphClkInit->UsbClockSelection));

    /* Configure the USB clock source */
    __HAL_RCC_USB_CONFIG(PeriphClkInit->UsbClockSelection);
 8002d5e:	4b07      	ldr	r3, [pc, #28]	@ (8002d7c <HAL_RCCEx_PeriphCLKConfig+0x160>)
 8002d60:	685b      	ldr	r3, [r3, #4]
 8002d62:	f423 0280 	bic.w	r2, r3, #4194304	@ 0x400000
 8002d66:	687b      	ldr	r3, [r7, #4]
 8002d68:	68db      	ldr	r3, [r3, #12]
 8002d6a:	4904      	ldr	r1, [pc, #16]	@ (8002d7c <HAL_RCCEx_PeriphCLKConfig+0x160>)
 8002d6c:	4313      	orrs	r3, r2
 8002d6e:	604b      	str	r3, [r1, #4]
  }
#endif /* STM32F102x6 || STM32F102xB || STM32F103x6 || STM32F103xB || STM32F103xE || STM32F103xG || STM32F105xC || STM32F107xC */

  return HAL_OK;
 8002d70:	2300      	movs	r3, #0
}
 8002d72:	4618      	mov	r0, r3
 8002d74:	3718      	adds	r7, #24
 8002d76:	46bd      	mov	sp, r7
 8002d78:	bd80      	pop	{r7, pc}
 8002d7a:	bf00      	nop
 8002d7c:	40021000 	.word	0x40021000
 8002d80:	40007000 	.word	0x40007000
 8002d84:	42420440 	.word	0x42420440

08002d88 <LL_GPIO_SetPinMode>:
  *         @arg @ref LL_GPIO_MODE_OUTPUT
  *         @arg @ref LL_GPIO_MODE_ALTERNATE
  * @retval None
  */
__STATIC_INLINE void LL_GPIO_SetPinMode(GPIO_TypeDef *GPIOx, uint32_t Pin, uint32_t Mode)
{
 8002d88:	b490      	push	{r4, r7}
 8002d8a:	b088      	sub	sp, #32
 8002d8c:	af00      	add	r7, sp, #0
 8002d8e:	60f8      	str	r0, [r7, #12]
 8002d90:	60b9      	str	r1, [r7, #8]
 8002d92:	607a      	str	r2, [r7, #4]
  register uint32_t *pReg = (uint32_t *)((uint32_t)((uint32_t)(&GPIOx->CRL) + (Pin >> 24)));
 8002d94:	68fb      	ldr	r3, [r7, #12]
 8002d96:	461a      	mov	r2, r3
 8002d98:	68bb      	ldr	r3, [r7, #8]
 8002d9a:	0e1b      	lsrs	r3, r3, #24
 8002d9c:	4413      	add	r3, r2
 8002d9e:	461c      	mov	r4, r3
  MODIFY_REG(*pReg, ((GPIO_CRL_CNF0 | GPIO_CRL_MODE0) << (POSITION_VAL(Pin) * 4U)), (Mode << (POSITION_VAL(Pin) * 4U)));
 8002da0:	6822      	ldr	r2, [r4, #0]
 8002da2:	68bb      	ldr	r3, [r7, #8]
 8002da4:	617b      	str	r3, [r7, #20]
  uint32_t result;

#if ((defined (__ARM_ARCH_7M__      ) && (__ARM_ARCH_7M__      == 1)) || \
     (defined (__ARM_ARCH_7EM__     ) && (__ARM_ARCH_7EM__     == 1)) || \
     (defined (__ARM_ARCH_8M_MAIN__ ) && (__ARM_ARCH_8M_MAIN__ == 1))    )
   __ASM volatile ("rbit %0, %1" : "=r" (result) : "r" (value) );
 8002da6:	697b      	ldr	r3, [r7, #20]
 8002da8:	fa93 f3a3 	rbit	r3, r3
 8002dac:	613b      	str	r3, [r7, #16]
    result |= value & 1U;
    s--;
  }
  result <<= s;                        /* shift when v's highest bits are zero */
#endif
  return result;
 8002dae:	693b      	ldr	r3, [r7, #16]
 8002db0:	fab3 f383 	clz	r3, r3
 8002db4:	b2db      	uxtb	r3, r3
 8002db6:	009b      	lsls	r3, r3, #2
 8002db8:	210f      	movs	r1, #15
 8002dba:	fa01 f303 	lsl.w	r3, r1, r3
 8002dbe:	43db      	mvns	r3, r3
 8002dc0:	401a      	ands	r2, r3
 8002dc2:	68bb      	ldr	r3, [r7, #8]
 8002dc4:	61fb      	str	r3, [r7, #28]
   __ASM volatile ("rbit %0, %1" : "=r" (result) : "r" (value) );
 8002dc6:	69fb      	ldr	r3, [r7, #28]
 8002dc8:	fa93 f3a3 	rbit	r3, r3
 8002dcc:	61bb      	str	r3, [r7, #24]
  return result;
 8002dce:	69bb      	ldr	r3, [r7, #24]
 8002dd0:	fab3 f383 	clz	r3, r3
 8002dd4:	b2db      	uxtb	r3, r3
 8002dd6:	009b      	lsls	r3, r3, #2
 8002dd8:	6879      	ldr	r1, [r7, #4]
 8002dda:	fa01 f303 	lsl.w	r3, r1, r3
 8002dde:	4313      	orrs	r3, r2
 8002de0:	6023      	str	r3, [r4, #0]
}
 8002de2:	bf00      	nop
 8002de4:	3720      	adds	r7, #32
 8002de6:	46bd      	mov	sp, r7
 8002de8:	bc90      	pop	{r4, r7}
 8002dea:	4770      	bx	lr

08002dec <LL_GPIO_SetPinSpeed>:
  *         @arg @ref LL_GPIO_SPEED_FREQ_MEDIUM
  *         @arg @ref LL_GPIO_SPEED_FREQ_HIGH
  * @retval None
  */
__STATIC_INLINE void LL_GPIO_SetPinSpeed(GPIO_TypeDef *GPIOx, uint32_t Pin, uint32_t  Speed)
{
 8002dec:	b490      	push	{r4, r7}
 8002dee:	b088      	sub	sp, #32
 8002df0:	af00      	add	r7, sp, #0
 8002df2:	60f8      	str	r0, [r7, #12]
 8002df4:	60b9      	str	r1, [r7, #8]
 8002df6:	607a      	str	r2, [r7, #4]
  register uint32_t *pReg = (uint32_t *)((uint32_t)((uint32_t)(&GPIOx->CRL) + (Pin >> 24)));
 8002df8:	68fb      	ldr	r3, [r7, #12]
 8002dfa:	461a      	mov	r2, r3
 8002dfc:	68bb      	ldr	r3, [r7, #8]
 8002dfe:	0e1b      	lsrs	r3, r3, #24
 8002e00:	4413      	add	r3, r2
 8002e02:	461c      	mov	r4, r3
  MODIFY_REG(*pReg, (GPIO_CRL_MODE0 << (POSITION_VAL(Pin) * 4U)),
 8002e04:	6822      	ldr	r2, [r4, #0]
 8002e06:	68bb      	ldr	r3, [r7, #8]
 8002e08:	617b      	str	r3, [r7, #20]
   __ASM volatile ("rbit %0, %1" : "=r" (result) : "r" (value) );
 8002e0a:	697b      	ldr	r3, [r7, #20]
 8002e0c:	fa93 f3a3 	rbit	r3, r3
 8002e10:	613b      	str	r3, [r7, #16]
  return result;
 8002e12:	693b      	ldr	r3, [r7, #16]
 8002e14:	fab3 f383 	clz	r3, r3
 8002e18:	b2db      	uxtb	r3, r3
 8002e1a:	009b      	lsls	r3, r3, #2
 8002e1c:	2103      	movs	r1, #3
 8002e1e:	fa01 f303 	lsl.w	r3, r1, r3
 8002e22:	43db      	mvns	r3, r3
 8002e24:	401a      	ands	r2, r3
 8002e26:	68bb      	ldr	r3, [r7, #8]
 8002e28:	61fb      	str	r3, [r7, #28]
   __ASM volatile ("rbit %0, %1" : "=r" (result) : "r" (value) );
 8002e2a:	69fb      	ldr	r3, [r7, #28]
 8002e2c:	fa93 f3a3 	rbit	r3, r3
 8002e30:	61bb      	str	r3, [r7, #24]
  return result;
 8002e32:	69bb      	ldr	r3, [r7, #24]
 8002e34:	fab3 f383 	clz	r3, r3
 8002e38:	b2db      	uxtb	r3, r3
 8002e3a:	009b      	lsls	r3, r3, #2
 8002e3c:	6879      	ldr	r1, [r7, #4]
 8002e3e:	fa01 f303 	lsl.w	r3, r1, r3
 8002e42:	4313      	orrs	r3, r2
 8002e44:	6023      	str	r3, [r4, #0]
             (Speed << (POSITION_VAL(Pin) * 4U)));
}
 8002e46:	bf00      	nop
 8002e48:	3720      	adds	r7, #32
 8002e4a:	46bd      	mov	sp, r7
 8002e4c:	bc90      	pop	{r4, r7}
 8002e4e:	4770      	bx	lr

08002e50 <LL_GPIO_SetPinOutputType>:
  *         @arg @ref LL_GPIO_OUTPUT_PUSHPULL
  *         @arg @ref LL_GPIO_OUTPUT_OPENDRAIN
  * @retval None
  */
__STATIC_INLINE void LL_GPIO_SetPinOutputType(GPIO_TypeDef *GPIOx, uint32_t Pin, uint32_t OutputType)
{
 8002e50:	b490      	push	{r4, r7}
 8002e52:	b088      	sub	sp, #32
 8002e54:	af00      	add	r7, sp, #0
 8002e56:	60f8      	str	r0, [r7, #12]
 8002e58:	60b9      	str	r1, [r7, #8]
 8002e5a:	607a      	str	r2, [r7, #4]
  register uint32_t *pReg = (uint32_t *)((uint32_t)((uint32_t)(&GPIOx->CRL) + (Pin >> 24)));
 8002e5c:	68fb      	ldr	r3, [r7, #12]
 8002e5e:	461a      	mov	r2, r3
 8002e60:	68bb      	ldr	r3, [r7, #8]
 8002e62:	0e1b      	lsrs	r3, r3, #24
 8002e64:	4413      	add	r3, r2
 8002e66:	461c      	mov	r4, r3
  MODIFY_REG(*pReg, (GPIO_CRL_CNF0_0 << (POSITION_VAL(Pin) * 4U)),
 8002e68:	6822      	ldr	r2, [r4, #0]
 8002e6a:	68bb      	ldr	r3, [r7, #8]
 8002e6c:	617b      	str	r3, [r7, #20]
   __ASM volatile ("rbit %0, %1" : "=r" (result) : "r" (value) );
 8002e6e:	697b      	ldr	r3, [r7, #20]
 8002e70:	fa93 f3a3 	rbit	r3, r3
 8002e74:	613b      	str	r3, [r7, #16]
  return result;
 8002e76:	693b      	ldr	r3, [r7, #16]
 8002e78:	fab3 f383 	clz	r3, r3
 8002e7c:	b2db      	uxtb	r3, r3
 8002e7e:	009b      	lsls	r3, r3, #2
 8002e80:	2104      	movs	r1, #4
 8002e82:	fa01 f303 	lsl.w	r3, r1, r3
 8002e86:	43db      	mvns	r3, r3
 8002e88:	401a      	ands	r2, r3
 8002e8a:	68bb      	ldr	r3, [r7, #8]
 8002e8c:	61fb      	str	r3, [r7, #28]
   __ASM volatile ("rbit %0, %1" : "=r" (result) : "r" (value) );
 8002e8e:	69fb      	ldr	r3, [r7, #28]
 8002e90:	fa93 f3a3 	rbit	r3, r3
 8002e94:	61bb      	str	r3, [r7, #24]
  return result;
 8002e96:	69bb      	ldr	r3, [r7, #24]
 8002e98:	fab3 f383 	clz	r3, r3
 8002e9c:	b2db      	uxtb	r3, r3
 8002e9e:	009b      	lsls	r3, r3, #2
 8002ea0:	6879      	ldr	r1, [r7, #4]
 8002ea2:	fa01 f303 	lsl.w	r3, r1, r3
 8002ea6:	4313      	orrs	r3, r2
 8002ea8:	6023      	str	r3, [r4, #0]
             (OutputType << (POSITION_VAL(Pin) * 4U)));
}
 8002eaa:	bf00      	nop
 8002eac:	3720      	adds	r7, #32
 8002eae:	46bd      	mov	sp, r7
 8002eb0:	bc90      	pop	{r4, r7}
 8002eb2:	4770      	bx	lr

08002eb4 <LL_GPIO_SetPinPull>:
  *         @arg @ref LL_GPIO_PULL_DOWN
  *         @arg @ref LL_GPIO_PULL_UP
  * @retval None
  */
__STATIC_INLINE void LL_GPIO_SetPinPull(GPIO_TypeDef *GPIOx, uint32_t Pin, uint32_t Pull)
{
 8002eb4:	b480      	push	{r7}
 8002eb6:	b087      	sub	sp, #28
 8002eb8:	af00      	add	r7, sp, #0
 8002eba:	60f8      	str	r0, [r7, #12]
 8002ebc:	60b9      	str	r1, [r7, #8]
 8002ebe:	607a      	str	r2, [r7, #4]
  MODIFY_REG(GPIOx->ODR, (Pin >> GPIO_PIN_MASK_POS), Pull << (POSITION_VAL(Pin >> GPIO_PIN_MASK_POS)));
 8002ec0:	68fb      	ldr	r3, [r7, #12]
 8002ec2:	68da      	ldr	r2, [r3, #12]
 8002ec4:	68bb      	ldr	r3, [r7, #8]
 8002ec6:	0a1b      	lsrs	r3, r3, #8
 8002ec8:	43db      	mvns	r3, r3
 8002eca:	401a      	ands	r2, r3
 8002ecc:	68bb      	ldr	r3, [r7, #8]
 8002ece:	0a1b      	lsrs	r3, r3, #8
 8002ed0:	617b      	str	r3, [r7, #20]
   __ASM volatile ("rbit %0, %1" : "=r" (result) : "r" (value) );
 8002ed2:	697b      	ldr	r3, [r7, #20]
 8002ed4:	fa93 f3a3 	rbit	r3, r3
 8002ed8:	613b      	str	r3, [r7, #16]
  return result;
 8002eda:	693b      	ldr	r3, [r7, #16]
 8002edc:	fab3 f383 	clz	r3, r3
 8002ee0:	b2db      	uxtb	r3, r3
 8002ee2:	4619      	mov	r1, r3
 8002ee4:	687b      	ldr	r3, [r7, #4]
 8002ee6:	408b      	lsls	r3, r1
 8002ee8:	431a      	orrs	r2, r3
 8002eea:	68fb      	ldr	r3, [r7, #12]
 8002eec:	60da      	str	r2, [r3, #12]
}
 8002eee:	bf00      	nop
 8002ef0:	371c      	adds	r7, #28
 8002ef2:	46bd      	mov	sp, r7
 8002ef4:	bc80      	pop	{r7}
 8002ef6:	4770      	bx	lr

08002ef8 <LL_GPIO_Init>:
  * @retval An ErrorStatus enumeration value:
  *          - SUCCESS: GPIO registers are initialized according to GPIO_InitStruct content
  *          - ERROR:   Not applicable
  */
ErrorStatus LL_GPIO_Init(GPIO_TypeDef *GPIOx, LL_GPIO_InitTypeDef *GPIO_InitStruct)
{
 8002ef8:	b580      	push	{r7, lr}
 8002efa:	b088      	sub	sp, #32
 8002efc:	af00      	add	r7, sp, #0
 8002efe:	6078      	str	r0, [r7, #4]
 8002f00:	6039      	str	r1, [r7, #0]
  assert_param(IS_LL_GPIO_PIN(GPIO_InitStruct->Pin));

  /* ------------------------- Configure the port pins ---------------- */
  /* Initialize  pinpos on first pin set */

  pinmask = ((GPIO_InitStruct->Pin) << GPIO_PIN_MASK_POS) >> GPIO_PIN_NB;
 8002f02:	683b      	ldr	r3, [r7, #0]
 8002f04:	681b      	ldr	r3, [r3, #0]
 8002f06:	021b      	lsls	r3, r3, #8
 8002f08:	0c1b      	lsrs	r3, r3, #16
 8002f0a:	617b      	str	r3, [r7, #20]
 8002f0c:	697b      	ldr	r3, [r7, #20]
 8002f0e:	613b      	str	r3, [r7, #16]
   __ASM volatile ("rbit %0, %1" : "=r" (result) : "r" (value) );
 8002f10:	693b      	ldr	r3, [r7, #16]
 8002f12:	fa93 f3a3 	rbit	r3, r3
 8002f16:	60fb      	str	r3, [r7, #12]
  return result;
 8002f18:	68fb      	ldr	r3, [r7, #12]
  pinpos = POSITION_VAL(pinmask);
 8002f1a:	fab3 f383 	clz	r3, r3
 8002f1e:	b2db      	uxtb	r3, r3
 8002f20:	61fb      	str	r3, [r7, #28]

  /* Configure the port pins */
  while ((pinmask  >> pinpos) != 0u)
 8002f22:	e044      	b.n	8002fae <LL_GPIO_Init+0xb6>
  {
    /* skip if bit is not set */
    if ((pinmask & (1u << pinpos)) != 0u)
 8002f24:	2201      	movs	r2, #1
 8002f26:	69fb      	ldr	r3, [r7, #28]
 8002f28:	409a      	lsls	r2, r3
 8002f2a:	697b      	ldr	r3, [r7, #20]
 8002f2c:	4013      	ands	r3, r2
 8002f2e:	2b00      	cmp	r3, #0
 8002f30:	d03a      	beq.n	8002fa8 <LL_GPIO_Init+0xb0>
    {
      /* Get current io position */
      if (pinpos < GPIO_PIN_MASK_POS)
 8002f32:	69fb      	ldr	r3, [r7, #28]
 8002f34:	2b07      	cmp	r3, #7
 8002f36:	d806      	bhi.n	8002f46 <LL_GPIO_Init+0x4e>
      {
        currentpin = (0x00000101uL << pinpos);
 8002f38:	f240 1201 	movw	r2, #257	@ 0x101
 8002f3c:	69fb      	ldr	r3, [r7, #28]
 8002f3e:	fa02 f303 	lsl.w	r3, r2, r3
 8002f42:	61bb      	str	r3, [r7, #24]
 8002f44:	e008      	b.n	8002f58 <LL_GPIO_Init+0x60>
      }
      else
      {
        currentpin = ((0x00010001u << (pinpos - GPIO_PIN_MASK_POS)) | 0x04000000u);
 8002f46:	69fb      	ldr	r3, [r7, #28]
 8002f48:	3b08      	subs	r3, #8
 8002f4a:	f04f 1201 	mov.w	r2, #65537	@ 0x10001
 8002f4e:	fa02 f303 	lsl.w	r3, r2, r3
 8002f52:	f043 6380 	orr.w	r3, r3, #67108864	@ 0x4000000
 8002f56:	61bb      	str	r3, [r7, #24]
      }

      if (GPIO_InitStruct->Mode == LL_GPIO_MODE_INPUT)
 8002f58:	683b      	ldr	r3, [r7, #0]
 8002f5a:	685b      	ldr	r3, [r3, #4]
 8002f5c:	2b08      	cmp	r3, #8
 8002f5e:	d106      	bne.n	8002f6e <LL_GPIO_Init+0x76>
      {
        /* Check The Pull parameter */
        assert_param(IS_LL_GPIO_PULL(GPIO_InitStruct->Pull));

        /* Pull-up Pull-down resistor configuration*/
        LL_GPIO_SetPinPull(GPIOx, currentpin, GPIO_InitStruct->Pull);
 8002f60:	683b      	ldr	r3, [r7, #0]
 8002f62:	691b      	ldr	r3, [r3, #16]
 8002f64:	461a      	mov	r2, r3
 8002f66:	69b9      	ldr	r1, [r7, #24]
 8002f68:	6878      	ldr	r0, [r7, #4]
 8002f6a:	f7ff ffa3 	bl	8002eb4 <LL_GPIO_SetPinPull>
      
      /* Check Pin Mode parameters */
      assert_param(IS_LL_GPIO_MODE(GPIO_InitStruct->Mode));
      
      /* Pin Mode configuration */
      LL_GPIO_SetPinMode(GPIOx, currentpin, GPIO_InitStruct->Mode);
 8002f6e:	683b      	ldr	r3, [r7, #0]
 8002f70:	685b      	ldr	r3, [r3, #4]
 8002f72:	461a      	mov	r2, r3
 8002f74:	69b9      	ldr	r1, [r7, #24]
 8002f76:	6878      	ldr	r0, [r7, #4]
 8002f78:	f7ff ff06 	bl	8002d88 <LL_GPIO_SetPinMode>

      if ((GPIO_InitStruct->Mode == LL_GPIO_MODE_OUTPUT) || (GPIO_InitStruct->Mode == LL_GPIO_MODE_ALTERNATE))
 8002f7c:	683b      	ldr	r3, [r7, #0]
 8002f7e:	685b      	ldr	r3, [r3, #4]
 8002f80:	2b01      	cmp	r3, #1
 8002f82:	d003      	beq.n	8002f8c <LL_GPIO_Init+0x94>
 8002f84:	683b      	ldr	r3, [r7, #0]
 8002f86:	685b      	ldr	r3, [r3, #4]
 8002f88:	2b09      	cmp	r3, #9
 8002f8a:	d10d      	bne.n	8002fa8 <LL_GPIO_Init+0xb0>
        /* Check speed and Output mode parameters */
        assert_param(IS_LL_GPIO_SPEED(GPIO_InitStruct->Speed));
        assert_param(IS_LL_GPIO_OUTPUT_TYPE(GPIO_InitStruct->OutputType));

        /* Speed mode configuration */
        LL_GPIO_SetPinSpeed(GPIOx, currentpin, GPIO_InitStruct->Speed);
 8002f8c:	683b      	ldr	r3, [r7, #0]
 8002f8e:	689b      	ldr	r3, [r3, #8]
 8002f90:	461a      	mov	r2, r3
 8002f92:	69b9      	ldr	r1, [r7, #24]
 8002f94:	6878      	ldr	r0, [r7, #4]
 8002f96:	f7ff ff29 	bl	8002dec <LL_GPIO_SetPinSpeed>

        /* Output mode configuration*/
        LL_GPIO_SetPinOutputType(GPIOx, currentpin, GPIO_InitStruct->OutputType);
 8002f9a:	683b      	ldr	r3, [r7, #0]
 8002f9c:	68db      	ldr	r3, [r3, #12]
 8002f9e:	461a      	mov	r2, r3
 8002fa0:	69b9      	ldr	r1, [r7, #24]
 8002fa2:	6878      	ldr	r0, [r7, #4]
 8002fa4:	f7ff ff54 	bl	8002e50 <LL_GPIO_SetPinOutputType>
      }
    }
    pinpos++;
 8002fa8:	69fb      	ldr	r3, [r7, #28]
 8002faa:	3301      	adds	r3, #1
 8002fac:	61fb      	str	r3, [r7, #28]
  while ((pinmask  >> pinpos) != 0u)
 8002fae:	697a      	ldr	r2, [r7, #20]
 8002fb0:	69fb      	ldr	r3, [r7, #28]
 8002fb2:	fa22 f303 	lsr.w	r3, r2, r3
 8002fb6:	2b00      	cmp	r3, #0
 8002fb8:	d1b4      	bne.n	8002f24 <LL_GPIO_Init+0x2c>
  }
  return (SUCCESS);
 8002fba:	2300      	movs	r3, #0
}
 8002fbc:	4618      	mov	r0, r3
 8002fbe:	3720      	adds	r7, #32
 8002fc0:	46bd      	mov	sp, r7
 8002fc2:	bd80      	pop	{r7, pc}

08002fc4 <LL_RCC_GetSysClkSource>:
  *         @arg @ref LL_RCC_SYS_CLKSOURCE_STATUS_HSI
  *         @arg @ref LL_RCC_SYS_CLKSOURCE_STATUS_HSE
  *         @arg @ref LL_RCC_SYS_CLKSOURCE_STATUS_PLL
  */
__STATIC_INLINE uint32_t LL_RCC_GetSysClkSource(void)
{
 8002fc4:	b480      	push	{r7}
 8002fc6:	af00      	add	r7, sp, #0
  return (uint32_t)(READ_BIT(RCC->CFGR, RCC_CFGR_SWS));
 8002fc8:	4b03      	ldr	r3, [pc, #12]	@ (8002fd8 <LL_RCC_GetSysClkSource+0x14>)
 8002fca:	685b      	ldr	r3, [r3, #4]
 8002fcc:	f003 030c 	and.w	r3, r3, #12
}
 8002fd0:	4618      	mov	r0, r3
 8002fd2:	46bd      	mov	sp, r7
 8002fd4:	bc80      	pop	{r7}
 8002fd6:	4770      	bx	lr
 8002fd8:	40021000 	.word	0x40021000

08002fdc <LL_RCC_GetAHBPrescaler>:
  *         @arg @ref LL_RCC_SYSCLK_DIV_128
  *         @arg @ref LL_RCC_SYSCLK_DIV_256
  *         @arg @ref LL_RCC_SYSCLK_DIV_512
  */
__STATIC_INLINE uint32_t LL_RCC_GetAHBPrescaler(void)
{
 8002fdc:	b480      	push	{r7}
 8002fde:	af00      	add	r7, sp, #0
  return (uint32_t)(READ_BIT(RCC->CFGR, RCC_CFGR_HPRE));
 8002fe0:	4b03      	ldr	r3, [pc, #12]	@ (8002ff0 <LL_RCC_GetAHBPrescaler+0x14>)
 8002fe2:	685b      	ldr	r3, [r3, #4]
 8002fe4:	f003 03f0 	and.w	r3, r3, #240	@ 0xf0
}
 8002fe8:	4618      	mov	r0, r3
 8002fea:	46bd      	mov	sp, r7
 8002fec:	bc80      	pop	{r7}
 8002fee:	4770      	bx	lr
 8002ff0:	40021000 	.word	0x40021000

08002ff4 <LL_RCC_GetAPB1Prescaler>:
  *         @arg @ref LL_RCC_APB1_DIV_4
  *         @arg @ref LL_RCC_APB1_DIV_8
  *         @arg @ref LL_RCC_APB1_DIV_16
  */
__STATIC_INLINE uint32_t LL_RCC_GetAPB1Prescaler(void)
{
 8002ff4:	b480      	push	{r7}
 8002ff6:	af00      	add	r7, sp, #0
  return (uint32_t)(READ_BIT(RCC->CFGR, RCC_CFGR_PPRE1));
 8002ff8:	4b03      	ldr	r3, [pc, #12]	@ (8003008 <LL_RCC_GetAPB1Prescaler+0x14>)
 8002ffa:	685b      	ldr	r3, [r3, #4]
 8002ffc:	f403 63e0 	and.w	r3, r3, #1792	@ 0x700
}
 8003000:	4618      	mov	r0, r3
 8003002:	46bd      	mov	sp, r7
 8003004:	bc80      	pop	{r7}
 8003006:	4770      	bx	lr
 8003008:	40021000 	.word	0x40021000

0800300c <LL_RCC_GetAPB2Prescaler>:
  *         @arg @ref LL_RCC_APB2_DIV_4
  *         @arg @ref LL_RCC_APB2_DIV_8
  *         @arg @ref LL_RCC_APB2_DIV_16
  */
__STATIC_INLINE uint32_t LL_RCC_GetAPB2Prescaler(void)
{
 800300c:	b480      	push	{r7}
 800300e:	af00      	add	r7, sp, #0
  return (uint32_t)(READ_BIT(RCC->CFGR, RCC_CFGR_PPRE2));
 8003010:	4b03      	ldr	r3, [pc, #12]	@ (8003020 <LL_RCC_GetAPB2Prescaler+0x14>)
 8003012:	685b      	ldr	r3, [r3, #4]
 8003014:	f403 5360 	and.w	r3, r3, #14336	@ 0x3800
}
 8003018:	4618      	mov	r0, r3
 800301a:	46bd      	mov	sp, r7
 800301c:	bc80      	pop	{r7}
 800301e:	4770      	bx	lr
 8003020:	40021000 	.word	0x40021000

08003024 <LL_RCC_PLL_GetMainSource>:
  *         @arg @ref LL_RCC_PLLSOURCE_PLL2 (*)
  *
  *         (*) value not defined in all devices
  */
__STATIC_INLINE uint32_t LL_RCC_PLL_GetMainSource(void)
{
 8003024:	b480      	push	{r7}
 8003026:	af00      	add	r7, sp, #0
#if defined(RCC_CFGR2_PREDIV1SRC)
  uint32_t pllsrc = READ_BIT(RCC->CFGR, RCC_CFGR_PLLSRC);
  uint32_t predivsrc = (uint32_t)(READ_BIT(RCC->CFGR2, RCC_CFGR2_PREDIV1SRC) << 4U);
  return (uint32_t)(pllsrc | predivsrc);
#else
  return (uint32_t)(READ_BIT(RCC->CFGR, RCC_CFGR_PLLSRC));
 8003028:	4b03      	ldr	r3, [pc, #12]	@ (8003038 <LL_RCC_PLL_GetMainSource+0x14>)
 800302a:	685b      	ldr	r3, [r3, #4]
 800302c:	f403 3380 	and.w	r3, r3, #65536	@ 0x10000
#endif /*RCC_CFGR2_PREDIV1SRC*/
}
 8003030:	4618      	mov	r0, r3
 8003032:	46bd      	mov	sp, r7
 8003034:	bc80      	pop	{r7}
 8003036:	4770      	bx	lr
 8003038:	40021000 	.word	0x40021000

0800303c <LL_RCC_PLL_GetMultiplicator>:
  *         @arg @ref LL_RCC_PLL_MUL_16 (*)
  *
  *         (*) value not defined in all devices
  */
__STATIC_INLINE uint32_t LL_RCC_PLL_GetMultiplicator(void)
{
 800303c:	b480      	push	{r7}
 800303e:	af00      	add	r7, sp, #0
  return (uint32_t)(READ_BIT(RCC->CFGR, RCC_CFGR_PLLMULL));
 8003040:	4b03      	ldr	r3, [pc, #12]	@ (8003050 <LL_RCC_PLL_GetMultiplicator+0x14>)
 8003042:	685b      	ldr	r3, [r3, #4]
 8003044:	f403 1370 	and.w	r3, r3, #3932160	@ 0x3c0000
}
 8003048:	4618      	mov	r0, r3
 800304a:	46bd      	mov	sp, r7
 800304c:	bc80      	pop	{r7}
 800304e:	4770      	bx	lr
 8003050:	40021000 	.word	0x40021000

08003054 <LL_RCC_PLL_GetPrediv>:
  *         @arg @ref LL_RCC_PREDIV_DIV_16 (*)
  *
  *         (*) value not defined in all devices
  */
__STATIC_INLINE uint32_t LL_RCC_PLL_GetPrediv(void)
{
 8003054:	b480      	push	{r7}
 8003056:	af00      	add	r7, sp, #0
#if defined(RCC_CFGR2_PREDIV1)
  return (uint32_t)(READ_BIT(RCC->CFGR2, RCC_CFGR2_PREDIV1));
#else
  return (uint32_t)(READ_BIT(RCC->CFGR, RCC_CFGR_PLLXTPRE) >> RCC_CFGR_PLLXTPRE_Pos);
 8003058:	4b04      	ldr	r3, [pc, #16]	@ (800306c <LL_RCC_PLL_GetPrediv+0x18>)
 800305a:	685b      	ldr	r3, [r3, #4]
 800305c:	0c5b      	lsrs	r3, r3, #17
 800305e:	f003 0301 	and.w	r3, r3, #1
#endif /*RCC_CFGR2_PREDIV1*/
}
 8003062:	4618      	mov	r0, r3
 8003064:	46bd      	mov	sp, r7
 8003066:	bc80      	pop	{r7}
 8003068:	4770      	bx	lr
 800306a:	bf00      	nop
 800306c:	40021000 	.word	0x40021000

08003070 <LL_RCC_GetSystemClocksFreq>:
  *         configuration based on this function will be incorrect.
  * @param  RCC_Clocks pointer to a @ref LL_RCC_ClocksTypeDef structure which will hold the clocks frequencies
  * @retval None
  */
void LL_RCC_GetSystemClocksFreq(LL_RCC_ClocksTypeDef *RCC_Clocks)
{
 8003070:	b580      	push	{r7, lr}
 8003072:	b082      	sub	sp, #8
 8003074:	af00      	add	r7, sp, #0
 8003076:	6078      	str	r0, [r7, #4]
  /* Get SYSCLK frequency */
  RCC_Clocks->SYSCLK_Frequency = RCC_GetSystemClockFreq();
 8003078:	f000 f820 	bl	80030bc <RCC_GetSystemClockFreq>
 800307c:	4602      	mov	r2, r0
 800307e:	687b      	ldr	r3, [r7, #4]
 8003080:	601a      	str	r2, [r3, #0]

  /* HCLK clock frequency */
  RCC_Clocks->HCLK_Frequency   = RCC_GetHCLKClockFreq(RCC_Clocks->SYSCLK_Frequency);
 8003082:	687b      	ldr	r3, [r7, #4]
 8003084:	681b      	ldr	r3, [r3, #0]
 8003086:	4618      	mov	r0, r3
 8003088:	f000 f83e 	bl	8003108 <RCC_GetHCLKClockFreq>
 800308c:	4602      	mov	r2, r0
 800308e:	687b      	ldr	r3, [r7, #4]
 8003090:	605a      	str	r2, [r3, #4]

  /* PCLK1 clock frequency */
  RCC_Clocks->PCLK1_Frequency  = RCC_GetPCLK1ClockFreq(RCC_Clocks->HCLK_Frequency);
 8003092:	687b      	ldr	r3, [r7, #4]
 8003094:	685b      	ldr	r3, [r3, #4]
 8003096:	4618      	mov	r0, r3
 8003098:	f000 f84c 	bl	8003134 <RCC_GetPCLK1ClockFreq>
 800309c:	4602      	mov	r2, r0
 800309e:	687b      	ldr	r3, [r7, #4]
 80030a0:	609a      	str	r2, [r3, #8]

  /* PCLK2 clock frequency */
  RCC_Clocks->PCLK2_Frequency  = RCC_GetPCLK2ClockFreq(RCC_Clocks->HCLK_Frequency);
 80030a2:	687b      	ldr	r3, [r7, #4]
 80030a4:	685b      	ldr	r3, [r3, #4]
 80030a6:	4618      	mov	r0, r3
 80030a8:	f000 f858 	bl	800315c <RCC_GetPCLK2ClockFreq>
 80030ac:	4602      	mov	r2, r0
 80030ae:	687b      	ldr	r3, [r7, #4]
 80030b0:	60da      	str	r2, [r3, #12]
}
 80030b2:	bf00      	nop
 80030b4:	3708      	adds	r7, #8
 80030b6:	46bd      	mov	sp, r7
 80030b8:	bd80      	pop	{r7, pc}
	...

080030bc <RCC_GetSystemClockFreq>:
/**
  * @brief  Return SYSTEM clock frequency
  * @retval SYSTEM clock frequency (in Hz)
  */
uint32_t RCC_GetSystemClockFreq(void)
{
 80030bc:	b580      	push	{r7, lr}
 80030be:	b082      	sub	sp, #8
 80030c0:	af00      	add	r7, sp, #0
  uint32_t frequency = 0U;
 80030c2:	2300      	movs	r3, #0
 80030c4:	607b      	str	r3, [r7, #4]

  /* Get SYSCLK source -------------------------------------------------------*/
  switch (LL_RCC_GetSysClkSource())
 80030c6:	f7ff ff7d 	bl	8002fc4 <LL_RCC_GetSysClkSource>
 80030ca:	4603      	mov	r3, r0
 80030cc:	2b08      	cmp	r3, #8
 80030ce:	d00c      	beq.n	80030ea <RCC_GetSystemClockFreq+0x2e>
 80030d0:	2b08      	cmp	r3, #8
 80030d2:	d80e      	bhi.n	80030f2 <RCC_GetSystemClockFreq+0x36>
 80030d4:	2b00      	cmp	r3, #0
 80030d6:	d002      	beq.n	80030de <RCC_GetSystemClockFreq+0x22>
 80030d8:	2b04      	cmp	r3, #4
 80030da:	d003      	beq.n	80030e4 <RCC_GetSystemClockFreq+0x28>
 80030dc:	e009      	b.n	80030f2 <RCC_GetSystemClockFreq+0x36>
  {
    case LL_RCC_SYS_CLKSOURCE_STATUS_HSI:  /* HSI used as system clock  source */
      frequency = HSI_VALUE;
 80030de:	4b09      	ldr	r3, [pc, #36]	@ (8003104 <RCC_GetSystemClockFreq+0x48>)
 80030e0:	607b      	str	r3, [r7, #4]
      break;
 80030e2:	e009      	b.n	80030f8 <RCC_GetSystemClockFreq+0x3c>

    case LL_RCC_SYS_CLKSOURCE_STATUS_HSE:  /* HSE used as system clock  source */
      frequency = HSE_VALUE;
 80030e4:	4b07      	ldr	r3, [pc, #28]	@ (8003104 <RCC_GetSystemClockFreq+0x48>)
 80030e6:	607b      	str	r3, [r7, #4]
      break;
 80030e8:	e006      	b.n	80030f8 <RCC_GetSystemClockFreq+0x3c>

    case LL_RCC_SYS_CLKSOURCE_STATUS_PLL:  /* PLL used as system clock  source */
      frequency = RCC_PLL_GetFreqDomain_SYS();
 80030ea:	f000 f84b 	bl	8003184 <RCC_PLL_GetFreqDomain_SYS>
 80030ee:	6078      	str	r0, [r7, #4]
      break;
 80030f0:	e002      	b.n	80030f8 <RCC_GetSystemClockFreq+0x3c>

    default:
      frequency = HSI_VALUE;
 80030f2:	4b04      	ldr	r3, [pc, #16]	@ (8003104 <RCC_GetSystemClockFreq+0x48>)
 80030f4:	607b      	str	r3, [r7, #4]
      break;
 80030f6:	bf00      	nop
  }

  return frequency;
 80030f8:	687b      	ldr	r3, [r7, #4]
}
 80030fa:	4618      	mov	r0, r3
 80030fc:	3708      	adds	r7, #8
 80030fe:	46bd      	mov	sp, r7
 8003100:	bd80      	pop	{r7, pc}
 8003102:	bf00      	nop
 8003104:	007a1200 	.word	0x007a1200

08003108 <RCC_GetHCLKClockFreq>:
  * @brief  Return HCLK clock frequency
  * @param  SYSCLK_Frequency SYSCLK clock frequency
  * @retval HCLK clock frequency (in Hz)
  */
uint32_t RCC_GetHCLKClockFreq(uint32_t SYSCLK_Frequency)
{
 8003108:	b580      	push	{r7, lr}
 800310a:	b082      	sub	sp, #8
 800310c:	af00      	add	r7, sp, #0
 800310e:	6078      	str	r0, [r7, #4]
  /* HCLK clock frequency */
  return __LL_RCC_CALC_HCLK_FREQ(SYSCLK_Frequency, LL_RCC_GetAHBPrescaler());
 8003110:	f7ff ff64 	bl	8002fdc <LL_RCC_GetAHBPrescaler>
 8003114:	4603      	mov	r3, r0
 8003116:	091b      	lsrs	r3, r3, #4
 8003118:	f003 030f 	and.w	r3, r3, #15
 800311c:	4a04      	ldr	r2, [pc, #16]	@ (8003130 <RCC_GetHCLKClockFreq+0x28>)
 800311e:	5cd3      	ldrb	r3, [r2, r3]
 8003120:	461a      	mov	r2, r3
 8003122:	687b      	ldr	r3, [r7, #4]
 8003124:	40d3      	lsrs	r3, r2
}
 8003126:	4618      	mov	r0, r3
 8003128:	3708      	adds	r7, #8
 800312a:	46bd      	mov	sp, r7
 800312c:	bd80      	pop	{r7, pc}
 800312e:	bf00      	nop
 8003130:	08007734 	.word	0x08007734

08003134 <RCC_GetPCLK1ClockFreq>:
  * @brief  Return PCLK1 clock frequency
  * @param  HCLK_Frequency HCLK clock frequency
  * @retval PCLK1 clock frequency (in Hz)
  */
uint32_t RCC_GetPCLK1ClockFreq(uint32_t HCLK_Frequency)
{
 8003134:	b580      	push	{r7, lr}
 8003136:	b082      	sub	sp, #8
 8003138:	af00      	add	r7, sp, #0
 800313a:	6078      	str	r0, [r7, #4]
  /* PCLK1 clock frequency */
  return __LL_RCC_CALC_PCLK1_FREQ(HCLK_Frequency, LL_RCC_GetAPB1Prescaler());
 800313c:	f7ff ff5a 	bl	8002ff4 <LL_RCC_GetAPB1Prescaler>
 8003140:	4603      	mov	r3, r0
 8003142:	0a1b      	lsrs	r3, r3, #8
 8003144:	4a04      	ldr	r2, [pc, #16]	@ (8003158 <RCC_GetPCLK1ClockFreq+0x24>)
 8003146:	5cd3      	ldrb	r3, [r2, r3]
 8003148:	461a      	mov	r2, r3
 800314a:	687b      	ldr	r3, [r7, #4]
 800314c:	40d3      	lsrs	r3, r2
}
 800314e:	4618      	mov	r0, r3
 8003150:	3708      	adds	r7, #8
 8003152:	46bd      	mov	sp, r7
 8003154:	bd80      	pop	{r7, pc}
 8003156:	bf00      	nop
 8003158:	08007744 	.word	0x08007744

0800315c <RCC_GetPCLK2ClockFreq>:
  * @brief  Return PCLK2 clock frequency
  * @param  HCLK_Frequency HCLK clock frequency
  * @retval PCLK2 clock frequency (in Hz)
  */
uint32_t RCC_GetPCLK2ClockFreq(uint32_t HCLK_Frequency)
{
 800315c:	b580      	push	{r7, lr}
 800315e:	b082      	sub	sp, #8
 8003160:	af00      	add	r7, sp, #0
 8003162:	6078      	str	r0, [r7, #4]
  /* PCLK2 clock frequency */
  return __LL_RCC_CALC_PCLK2_FREQ(HCLK_Frequency, LL_RCC_GetAPB2Prescaler());
 8003164:	f7ff ff52 	bl	800300c <LL_RCC_GetAPB2Prescaler>
 8003168:	4603      	mov	r3, r0
 800316a:	0adb      	lsrs	r3, r3, #11
 800316c:	4a04      	ldr	r2, [pc, #16]	@ (8003180 <RCC_GetPCLK2ClockFreq+0x24>)
 800316e:	5cd3      	ldrb	r3, [r2, r3]
 8003170:	461a      	mov	r2, r3
 8003172:	687b      	ldr	r3, [r7, #4]
 8003174:	40d3      	lsrs	r3, r2
}
 8003176:	4618      	mov	r0, r3
 8003178:	3708      	adds	r7, #8
 800317a:	46bd      	mov	sp, r7
 800317c:	bd80      	pop	{r7, pc}
 800317e:	bf00      	nop
 8003180:	08007744 	.word	0x08007744

08003184 <RCC_PLL_GetFreqDomain_SYS>:
/**
  * @brief  Return PLL clock frequency used for system domain
  * @retval PLL clock frequency (in Hz)
  */
uint32_t RCC_PLL_GetFreqDomain_SYS(void)
{
 8003184:	b580      	push	{r7, lr}
 8003186:	b082      	sub	sp, #8
 8003188:	af00      	add	r7, sp, #0
  uint32_t pllinputfreq = 0U, pllsource = 0U;
 800318a:	2300      	movs	r3, #0
 800318c:	607b      	str	r3, [r7, #4]
 800318e:	2300      	movs	r3, #0
 8003190:	603b      	str	r3, [r7, #0]

  /* PLL_VCO = (HSE_VALUE, HSI_VALUE or PLL2 / PLL Predivider) * PLL Multiplicator */

  /* Get PLL source */
  pllsource = LL_RCC_PLL_GetMainSource();
 8003192:	f7ff ff47 	bl	8003024 <LL_RCC_PLL_GetMainSource>
 8003196:	6038      	str	r0, [r7, #0]

  switch (pllsource)
 8003198:	683b      	ldr	r3, [r7, #0]
 800319a:	2b00      	cmp	r3, #0
 800319c:	d004      	beq.n	80031a8 <RCC_PLL_GetFreqDomain_SYS+0x24>
 800319e:	683b      	ldr	r3, [r7, #0]
 80031a0:	f5b3 3f80 	cmp.w	r3, #65536	@ 0x10000
 80031a4:	d003      	beq.n	80031ae <RCC_PLL_GetFreqDomain_SYS+0x2a>
 80031a6:	e00b      	b.n	80031c0 <RCC_PLL_GetFreqDomain_SYS+0x3c>
  {
    case LL_RCC_PLLSOURCE_HSI_DIV_2: /* HSI used as PLL clock source */
      pllinputfreq = HSI_VALUE / 2U;
 80031a8:	4b0d      	ldr	r3, [pc, #52]	@ (80031e0 <RCC_PLL_GetFreqDomain_SYS+0x5c>)
 80031aa:	607b      	str	r3, [r7, #4]
      break;
 80031ac:	e00b      	b.n	80031c6 <RCC_PLL_GetFreqDomain_SYS+0x42>

    case LL_RCC_PLLSOURCE_HSE:       /* HSE used as PLL clock source */
      pllinputfreq = HSE_VALUE / (LL_RCC_PLL_GetPrediv() + 1U);
 80031ae:	f7ff ff51 	bl	8003054 <LL_RCC_PLL_GetPrediv>
 80031b2:	4603      	mov	r3, r0
 80031b4:	3301      	adds	r3, #1
 80031b6:	4a0b      	ldr	r2, [pc, #44]	@ (80031e4 <RCC_PLL_GetFreqDomain_SYS+0x60>)
 80031b8:	fbb2 f3f3 	udiv	r3, r2, r3
 80031bc:	607b      	str	r3, [r7, #4]
      break;
 80031be:	e002      	b.n	80031c6 <RCC_PLL_GetFreqDomain_SYS+0x42>
      pllinputfreq = RCC_PLL2_GetFreqClockFreq() / (LL_RCC_PLL_GetPrediv() + 1U);
      break;
#endif /* RCC_PLL2_SUPPORT */

    default:
      pllinputfreq = HSI_VALUE / 2U;
 80031c0:	4b07      	ldr	r3, [pc, #28]	@ (80031e0 <RCC_PLL_GetFreqDomain_SYS+0x5c>)
 80031c2:	607b      	str	r3, [r7, #4]
      break;
 80031c4:	bf00      	nop
  }
  return __LL_RCC_CALC_PLLCLK_FREQ(pllinputfreq, LL_RCC_PLL_GetMultiplicator());
 80031c6:	f7ff ff39 	bl	800303c <LL_RCC_PLL_GetMultiplicator>
 80031ca:	4603      	mov	r3, r0
 80031cc:	0c9b      	lsrs	r3, r3, #18
 80031ce:	3302      	adds	r3, #2
 80031d0:	687a      	ldr	r2, [r7, #4]
 80031d2:	fb02 f303 	mul.w	r3, r2, r3
}
 80031d6:	4618      	mov	r0, r3
 80031d8:	3708      	adds	r7, #8
 80031da:	46bd      	mov	sp, r7
 80031dc:	bd80      	pop	{r7, pc}
 80031de:	bf00      	nop
 80031e0:	003d0900 	.word	0x003d0900
 80031e4:	007a1200 	.word	0x007a1200

080031e8 <LL_USART_IsEnabled>:
{
 80031e8:	b480      	push	{r7}
 80031ea:	b083      	sub	sp, #12
 80031ec:	af00      	add	r7, sp, #0
 80031ee:	6078      	str	r0, [r7, #4]
  return (READ_BIT(USARTx->CR1, USART_CR1_UE) == (USART_CR1_UE));
 80031f0:	687b      	ldr	r3, [r7, #4]
 80031f2:	68db      	ldr	r3, [r3, #12]
 80031f4:	f403 5300 	and.w	r3, r3, #8192	@ 0x2000
 80031f8:	f5b3 5f00 	cmp.w	r3, #8192	@ 0x2000
 80031fc:	bf0c      	ite	eq
 80031fe:	2301      	moveq	r3, #1
 8003200:	2300      	movne	r3, #0
 8003202:	b2db      	uxtb	r3, r3
}
 8003204:	4618      	mov	r0, r3
 8003206:	370c      	adds	r7, #12
 8003208:	46bd      	mov	sp, r7
 800320a:	bc80      	pop	{r7}
 800320c:	4770      	bx	lr

0800320e <LL_USART_SetStopBitsLength>:
{
 800320e:	b480      	push	{r7}
 8003210:	b083      	sub	sp, #12
 8003212:	af00      	add	r7, sp, #0
 8003214:	6078      	str	r0, [r7, #4]
 8003216:	6039      	str	r1, [r7, #0]
  MODIFY_REG(USARTx->CR2, USART_CR2_STOP, StopBits);
 8003218:	687b      	ldr	r3, [r7, #4]
 800321a:	691b      	ldr	r3, [r3, #16]
 800321c:	f423 5240 	bic.w	r2, r3, #12288	@ 0x3000
 8003220:	683b      	ldr	r3, [r7, #0]
 8003222:	431a      	orrs	r2, r3
 8003224:	687b      	ldr	r3, [r7, #4]
 8003226:	611a      	str	r2, [r3, #16]
}
 8003228:	bf00      	nop
 800322a:	370c      	adds	r7, #12
 800322c:	46bd      	mov	sp, r7
 800322e:	bc80      	pop	{r7}
 8003230:	4770      	bx	lr

08003232 <LL_USART_SetHWFlowCtrl>:
{
 8003232:	b480      	push	{r7}
 8003234:	b083      	sub	sp, #12
 8003236:	af00      	add	r7, sp, #0
 8003238:	6078      	str	r0, [r7, #4]
 800323a:	6039      	str	r1, [r7, #0]
  MODIFY_REG(USARTx->CR3, USART_CR3_RTSE | USART_CR3_CTSE, HardwareFlowControl);
 800323c:	687b      	ldr	r3, [r7, #4]
 800323e:	695b      	ldr	r3, [r3, #20]
 8003240:	f423 7240 	bic.w	r2, r3, #768	@ 0x300
 8003244:	683b      	ldr	r3, [r7, #0]
 8003246:	431a      	orrs	r2, r3
 8003248:	687b      	ldr	r3, [r7, #4]
 800324a:	615a      	str	r2, [r3, #20]
}
 800324c:	bf00      	nop
 800324e:	370c      	adds	r7, #12
 8003250:	46bd      	mov	sp, r7
 8003252:	bc80      	pop	{r7}
 8003254:	4770      	bx	lr
	...

08003258 <LL_USART_SetBaudRate>:
{
 8003258:	b480      	push	{r7}
 800325a:	b085      	sub	sp, #20
 800325c:	af00      	add	r7, sp, #0
 800325e:	60f8      	str	r0, [r7, #12]
 8003260:	60b9      	str	r1, [r7, #8]
 8003262:	607a      	str	r2, [r7, #4]
  USARTx->BRR = (uint16_t)(__LL_USART_DIV_SAMPLING16(PeriphClk, BaudRate));
 8003264:	68ba      	ldr	r2, [r7, #8]
 8003266:	4613      	mov	r3, r2
 8003268:	009b      	lsls	r3, r3, #2
 800326a:	4413      	add	r3, r2
 800326c:	009a      	lsls	r2, r3, #2
 800326e:	441a      	add	r2, r3
 8003270:	687b      	ldr	r3, [r7, #4]
 8003272:	009b      	lsls	r3, r3, #2
 8003274:	fbb2 f3f3 	udiv	r3, r2, r3
 8003278:	4a25      	ldr	r2, [pc, #148]	@ (8003310 <LL_USART_SetBaudRate+0xb8>)
 800327a:	fba2 2303 	umull	r2, r3, r2, r3
 800327e:	095b      	lsrs	r3, r3, #5
 8003280:	b29b      	uxth	r3, r3
 8003282:	011b      	lsls	r3, r3, #4
 8003284:	b299      	uxth	r1, r3
 8003286:	68ba      	ldr	r2, [r7, #8]
 8003288:	4613      	mov	r3, r2
 800328a:	009b      	lsls	r3, r3, #2
 800328c:	4413      	add	r3, r2
 800328e:	009a      	lsls	r2, r3, #2
 8003290:	441a      	add	r2, r3
 8003292:	687b      	ldr	r3, [r7, #4]
 8003294:	009b      	lsls	r3, r3, #2
 8003296:	fbb2 f2f3 	udiv	r2, r2, r3
 800329a:	4b1d      	ldr	r3, [pc, #116]	@ (8003310 <LL_USART_SetBaudRate+0xb8>)
 800329c:	fba3 0302 	umull	r0, r3, r3, r2
 80032a0:	095b      	lsrs	r3, r3, #5
 80032a2:	2064      	movs	r0, #100	@ 0x64
 80032a4:	fb00 f303 	mul.w	r3, r0, r3
 80032a8:	1ad3      	subs	r3, r2, r3
 80032aa:	011b      	lsls	r3, r3, #4
 80032ac:	3332      	adds	r3, #50	@ 0x32
 80032ae:	4a18      	ldr	r2, [pc, #96]	@ (8003310 <LL_USART_SetBaudRate+0xb8>)
 80032b0:	fba2 2303 	umull	r2, r3, r2, r3
 80032b4:	095b      	lsrs	r3, r3, #5
 80032b6:	b29b      	uxth	r3, r3
 80032b8:	f003 03f0 	and.w	r3, r3, #240	@ 0xf0
 80032bc:	b29b      	uxth	r3, r3
 80032be:	440b      	add	r3, r1
 80032c0:	b299      	uxth	r1, r3
 80032c2:	68ba      	ldr	r2, [r7, #8]
 80032c4:	4613      	mov	r3, r2
 80032c6:	009b      	lsls	r3, r3, #2
 80032c8:	4413      	add	r3, r2
 80032ca:	009a      	lsls	r2, r3, #2
 80032cc:	441a      	add	r2, r3
 80032ce:	687b      	ldr	r3, [r7, #4]
 80032d0:	009b      	lsls	r3, r3, #2
 80032d2:	fbb2 f2f3 	udiv	r2, r2, r3
 80032d6:	4b0e      	ldr	r3, [pc, #56]	@ (8003310 <LL_USART_SetBaudRate+0xb8>)
 80032d8:	fba3 0302 	umull	r0, r3, r3, r2
 80032dc:	095b      	lsrs	r3, r3, #5
 80032de:	2064      	movs	r0, #100	@ 0x64
 80032e0:	fb00 f303 	mul.w	r3, r0, r3
 80032e4:	1ad3      	subs	r3, r2, r3
 80032e6:	011b      	lsls	r3, r3, #4
 80032e8:	3332      	adds	r3, #50	@ 0x32
 80032ea:	4a09      	ldr	r2, [pc, #36]	@ (8003310 <LL_USART_SetBaudRate+0xb8>)
 80032ec:	fba2 2303 	umull	r2, r3, r2, r3
 80032f0:	095b      	lsrs	r3, r3, #5
 80032f2:	b29b      	uxth	r3, r3
 80032f4:	f003 030f 	and.w	r3, r3, #15
 80032f8:	b29b      	uxth	r3, r3
 80032fa:	440b      	add	r3, r1
 80032fc:	b29b      	uxth	r3, r3
 80032fe:	461a      	mov	r2, r3
 8003300:	68fb      	ldr	r3, [r7, #12]
 8003302:	609a      	str	r2, [r3, #8]
}
 8003304:	bf00      	nop
 8003306:	3714      	adds	r7, #20
 8003308:	46bd      	mov	sp, r7
 800330a:	bc80      	pop	{r7}
 800330c:	4770      	bx	lr
 800330e:	bf00      	nop
 8003310:	51eb851f 	.word	0x51eb851f

08003314 <LL_USART_Init>:
  * @retval An ErrorStatus enumeration value:
  *          - SUCCESS: USART registers are initialized according to USART_InitStruct content
  *          - ERROR: Problem occurred during USART Registers initialization
  */
ErrorStatus LL_USART_Init(USART_TypeDef *USARTx, const LL_USART_InitTypeDef *USART_InitStruct)
{
 8003314:	b580      	push	{r7, lr}
 8003316:	b088      	sub	sp, #32
 8003318:	af00      	add	r7, sp, #0
 800331a:	6078      	str	r0, [r7, #4]
 800331c:	6039      	str	r1, [r7, #0]
  ErrorStatus status = ERROR;
 800331e:	2301      	movs	r3, #1
 8003320:	77fb      	strb	r3, [r7, #31]
  uint32_t periphclk = LL_RCC_PERIPH_FREQUENCY_NO;
 8003322:	2300      	movs	r3, #0
 8003324:	61bb      	str	r3, [r7, #24]
  assert_param(IS_LL_USART_OVERSAMPLING(USART_InitStruct->OverSampling));
#endif /* USART_OverSampling_Feature */

  /* USART needs to be in disabled state, in order to be able to configure some bits in
     CRx registers */
  if (LL_USART_IsEnabled(USARTx) == 0U)
 8003326:	6878      	ldr	r0, [r7, #4]
 8003328:	f7ff ff5e 	bl	80031e8 <LL_USART_IsEnabled>
 800332c:	4603      	mov	r3, r0
 800332e:	2b00      	cmp	r3, #0
 8003330:	d145      	bne.n	80033be <LL_USART_Init+0xaa>
               (USART_CR1_M | USART_CR1_PCE | USART_CR1_PS |
                USART_CR1_TE | USART_CR1_RE | USART_CR1_OVER8),
               (USART_InitStruct->DataWidth | USART_InitStruct->Parity |
                USART_InitStruct->TransferDirection | USART_InitStruct->OverSampling));
#else
    MODIFY_REG(USARTx->CR1,
 8003332:	687b      	ldr	r3, [r7, #4]
 8003334:	68db      	ldr	r3, [r3, #12]
 8003336:	f423 53b0 	bic.w	r3, r3, #5632	@ 0x1600
 800333a:	f023 030c 	bic.w	r3, r3, #12
 800333e:	683a      	ldr	r2, [r7, #0]
 8003340:	6851      	ldr	r1, [r2, #4]
 8003342:	683a      	ldr	r2, [r7, #0]
 8003344:	68d2      	ldr	r2, [r2, #12]
 8003346:	4311      	orrs	r1, r2
 8003348:	683a      	ldr	r2, [r7, #0]
 800334a:	6912      	ldr	r2, [r2, #16]
 800334c:	430a      	orrs	r2, r1
 800334e:	431a      	orrs	r2, r3
 8003350:	687b      	ldr	r3, [r7, #4]
 8003352:	60da      	str	r2, [r3, #12]
    /*---------------------------- USART CR2 Configuration -----------------------
     * Configure USARTx CR2 (Stop bits) with parameters:
     * - Stop Bits:          USART_CR2_STOP bits according to USART_InitStruct->StopBits value.
     * - CLKEN, CPOL, CPHA and LBCL bits are to be configured using LL_USART_ClockInit().
     */
    LL_USART_SetStopBitsLength(USARTx, USART_InitStruct->StopBits);
 8003354:	683b      	ldr	r3, [r7, #0]
 8003356:	689b      	ldr	r3, [r3, #8]
 8003358:	4619      	mov	r1, r3
 800335a:	6878      	ldr	r0, [r7, #4]
 800335c:	f7ff ff57 	bl	800320e <LL_USART_SetStopBitsLength>

    /*---------------------------- USART CR3 Configuration -----------------------
     * Configure USARTx CR3 (Hardware Flow Control) with parameters:
     * - HardwareFlowControl: USART_CR3_RTSE, USART_CR3_CTSE bits according to USART_InitStruct->HardwareFlowControl value.
     */
    LL_USART_SetHWFlowCtrl(USARTx, USART_InitStruct->HardwareFlowControl);
 8003360:	683b      	ldr	r3, [r7, #0]
 8003362:	695b      	ldr	r3, [r3, #20]
 8003364:	4619      	mov	r1, r3
 8003366:	6878      	ldr	r0, [r7, #4]
 8003368:	f7ff ff63 	bl	8003232 <LL_USART_SetHWFlowCtrl>

    /*---------------------------- USART BRR Configuration -----------------------
     * Retrieve Clock frequency used for USART Peripheral
     */
    LL_RCC_GetSystemClocksFreq(&rcc_clocks);
 800336c:	f107 0308 	add.w	r3, r7, #8
 8003370:	4618      	mov	r0, r3
 8003372:	f7ff fe7d 	bl	8003070 <LL_RCC_GetSystemClocksFreq>
    if (USARTx == USART1)
 8003376:	687b      	ldr	r3, [r7, #4]
 8003378:	4a13      	ldr	r2, [pc, #76]	@ (80033c8 <LL_USART_Init+0xb4>)
 800337a:	4293      	cmp	r3, r2
 800337c:	d102      	bne.n	8003384 <LL_USART_Init+0x70>
    {
      periphclk = rcc_clocks.PCLK2_Frequency;
 800337e:	697b      	ldr	r3, [r7, #20]
 8003380:	61bb      	str	r3, [r7, #24]
 8003382:	e00c      	b.n	800339e <LL_USART_Init+0x8a>
    }
    else if (USARTx == USART2)
 8003384:	687b      	ldr	r3, [r7, #4]
 8003386:	4a11      	ldr	r2, [pc, #68]	@ (80033cc <LL_USART_Init+0xb8>)
 8003388:	4293      	cmp	r3, r2
 800338a:	d102      	bne.n	8003392 <LL_USART_Init+0x7e>
    {
      periphclk = rcc_clocks.PCLK1_Frequency;
 800338c:	693b      	ldr	r3, [r7, #16]
 800338e:	61bb      	str	r3, [r7, #24]
 8003390:	e005      	b.n	800339e <LL_USART_Init+0x8a>
    }
#if defined(USART3)
    else if (USARTx == USART3)
 8003392:	687b      	ldr	r3, [r7, #4]
 8003394:	4a0e      	ldr	r2, [pc, #56]	@ (80033d0 <LL_USART_Init+0xbc>)
 8003396:	4293      	cmp	r3, r2
 8003398:	d101      	bne.n	800339e <LL_USART_Init+0x8a>
    {
      periphclk = rcc_clocks.PCLK1_Frequency;
 800339a:	693b      	ldr	r3, [r7, #16]
 800339c:	61bb      	str	r3, [r7, #24]

    /* Configure the USART Baud Rate :
       - valid baud rate value (different from 0) is required
       - Peripheral clock as returned by RCC service, should be valid (different from 0).
    */
    if ((periphclk != LL_RCC_PERIPH_FREQUENCY_NO)
 800339e:	69bb      	ldr	r3, [r7, #24]
 80033a0:	2b00      	cmp	r3, #0
 80033a2:	d00c      	beq.n	80033be <LL_USART_Init+0xaa>
        && (USART_InitStruct->BaudRate != 0U))
 80033a4:	683b      	ldr	r3, [r7, #0]
 80033a6:	681b      	ldr	r3, [r3, #0]
 80033a8:	2b00      	cmp	r3, #0
 80033aa:	d008      	beq.n	80033be <LL_USART_Init+0xaa>
    {
      status = SUCCESS;
 80033ac:	2300      	movs	r3, #0
 80033ae:	77fb      	strb	r3, [r7, #31]
                           USART_InitStruct->OverSampling,
                           USART_InitStruct->BaudRate);
#else
      LL_USART_SetBaudRate(USARTx,
                           periphclk,
                           USART_InitStruct->BaudRate);
 80033b0:	683b      	ldr	r3, [r7, #0]
 80033b2:	681b      	ldr	r3, [r3, #0]
      LL_USART_SetBaudRate(USARTx,
 80033b4:	461a      	mov	r2, r3
 80033b6:	69b9      	ldr	r1, [r7, #24]
 80033b8:	6878      	ldr	r0, [r7, #4]
 80033ba:	f7ff ff4d 	bl	8003258 <LL_USART_SetBaudRate>
      assert_param(IS_LL_USART_BRR_MIN(USARTx->BRR));
    }
  }
  /* Endif (=> USART not in Disabled state => return ERROR) */

  return (status);
 80033be:	7ffb      	ldrb	r3, [r7, #31]
}
 80033c0:	4618      	mov	r0, r3
 80033c2:	3720      	adds	r7, #32
 80033c4:	46bd      	mov	sp, r7
 80033c6:	bd80      	pop	{r7, pc}
 80033c8:	40013800 	.word	0x40013800
 80033cc:	40004400 	.word	0x40004400
 80033d0:	40004800 	.word	0x40004800

080033d4 <USB_CoreInit>:
  * @param  cfg pointer to a USB_CfgTypeDef structure that contains
  *         the configuration information for the specified USBx peripheral.
  * @retval HAL status
  */
HAL_StatusTypeDef USB_CoreInit(USB_TypeDef *USBx, USB_CfgTypeDef cfg)
{
 80033d4:	b480      	push	{r7}
 80033d6:	b085      	sub	sp, #20
 80033d8:	af00      	add	r7, sp, #0
 80033da:	60f8      	str	r0, [r7, #12]
 80033dc:	4638      	mov	r0, r7
 80033de:	e880 000e 	stmia.w	r0, {r1, r2, r3}
  /* NOTE : - This function is not required by USB Device FS peripheral, it is used
              only by USB OTG FS peripheral.
            - This function is added to ensure compatibility across platforms.
   */

  return HAL_OK;
 80033e2:	2300      	movs	r3, #0
}
 80033e4:	4618      	mov	r0, r3
 80033e6:	3714      	adds	r7, #20
 80033e8:	46bd      	mov	sp, r7
 80033ea:	bc80      	pop	{r7}
 80033ec:	4770      	bx	lr

080033ee <USB_EnableGlobalInt>:
  *         Enables the controller's Global Int in the AHB Config reg
  * @param  USBx Selected device
  * @retval HAL status
  */
HAL_StatusTypeDef USB_EnableGlobalInt(USB_TypeDef *USBx)
{
 80033ee:	b480      	push	{r7}
 80033f0:	b085      	sub	sp, #20
 80033f2:	af00      	add	r7, sp, #0
 80033f4:	6078      	str	r0, [r7, #4]
  uint32_t winterruptmask;

  /* Clear pending interrupts */
  USBx->ISTR = 0U;
 80033f6:	687b      	ldr	r3, [r7, #4]
 80033f8:	2200      	movs	r2, #0
 80033fa:	f8a3 2044 	strh.w	r2, [r3, #68]	@ 0x44

  /* Set winterruptmask variable */
  winterruptmask = USB_CNTR_CTRM  | USB_CNTR_WKUPM |
 80033fe:	f44f 433f 	mov.w	r3, #48896	@ 0xbf00
 8003402:	60fb      	str	r3, [r7, #12]
                   USB_CNTR_SUSPM | USB_CNTR_ERRM |
                   USB_CNTR_SOFM | USB_CNTR_ESOFM |
                   USB_CNTR_RESETM;

  /* Set interrupt mask */
  USBx->CNTR = (uint16_t)winterruptmask;
 8003404:	68fb      	ldr	r3, [r7, #12]
 8003406:	b29a      	uxth	r2, r3
 8003408:	687b      	ldr	r3, [r7, #4]
 800340a:	f8a3 2040 	strh.w	r2, [r3, #64]	@ 0x40

  return HAL_OK;
 800340e:	2300      	movs	r3, #0
}
 8003410:	4618      	mov	r0, r3
 8003412:	3714      	adds	r7, #20
 8003414:	46bd      	mov	sp, r7
 8003416:	bc80      	pop	{r7}
 8003418:	4770      	bx	lr

0800341a <USB_DisableGlobalInt>:
  *         Disable the controller's Global Int in the AHB Config reg
  * @param  USBx Selected device
  * @retval HAL status
  */
HAL_StatusTypeDef USB_DisableGlobalInt(USB_TypeDef *USBx)
{
 800341a:	b480      	push	{r7}
 800341c:	b085      	sub	sp, #20
 800341e:	af00      	add	r7, sp, #0
 8003420:	6078      	str	r0, [r7, #4]
  uint32_t winterruptmask;

  /* Set winterruptmask variable */
  winterruptmask = USB_CNTR_CTRM  | USB_CNTR_WKUPM |
 8003422:	f44f 433f 	mov.w	r3, #48896	@ 0xbf00
 8003426:	60fb      	str	r3, [r7, #12]
                   USB_CNTR_SUSPM | USB_CNTR_ERRM |
                   USB_CNTR_SOFM | USB_CNTR_ESOFM |
                   USB_CNTR_RESETM;

  /* Clear interrupt mask */
  USBx->CNTR &= (uint16_t)(~winterruptmask);
 8003428:	687b      	ldr	r3, [r7, #4]
 800342a:	f8b3 3040 	ldrh.w	r3, [r3, #64]	@ 0x40
 800342e:	b29a      	uxth	r2, r3
 8003430:	68fb      	ldr	r3, [r7, #12]
 8003432:	b29b      	uxth	r3, r3
 8003434:	43db      	mvns	r3, r3
 8003436:	b29b      	uxth	r3, r3
 8003438:	4013      	ands	r3, r2
 800343a:	b29a      	uxth	r2, r3
 800343c:	687b      	ldr	r3, [r7, #4]
 800343e:	f8a3 2040 	strh.w	r2, [r3, #64]	@ 0x40

  return HAL_OK;
 8003442:	2300      	movs	r3, #0
}
 8003444:	4618      	mov	r0, r3
 8003446:	3714      	adds	r7, #20
 8003448:	46bd      	mov	sp, r7
 800344a:	bc80      	pop	{r7}
 800344c:	4770      	bx	lr

0800344e <USB_SetCurrentMode>:
  *          This parameter can be one of the these values:
  *            @arg USB_DEVICE_MODE Peripheral mode
  * @retval HAL status
  */
HAL_StatusTypeDef USB_SetCurrentMode(USB_TypeDef *USBx, USB_ModeTypeDef mode)
{
 800344e:	b480      	push	{r7}
 8003450:	b083      	sub	sp, #12
 8003452:	af00      	add	r7, sp, #0
 8003454:	6078      	str	r0, [r7, #4]
 8003456:	460b      	mov	r3, r1
 8003458:	70fb      	strb	r3, [r7, #3]

  /* NOTE : - This function is not required by USB Device FS peripheral, it is used
              only by USB OTG FS peripheral.
            - This function is added to ensure compatibility across platforms.
   */
  return HAL_OK;
 800345a:	2300      	movs	r3, #0
}
 800345c:	4618      	mov	r0, r3
 800345e:	370c      	adds	r7, #12
 8003460:	46bd      	mov	sp, r7
 8003462:	bc80      	pop	{r7}
 8003464:	4770      	bx	lr

08003466 <USB_DevInit>:
  * @param  cfg  pointer to a USB_CfgTypeDef structure that contains
  *         the configuration information for the specified USBx peripheral.
  * @retval HAL status
  */
HAL_StatusTypeDef USB_DevInit(USB_TypeDef *USBx, USB_CfgTypeDef cfg)
{
 8003466:	b480      	push	{r7}
 8003468:	b085      	sub	sp, #20
 800346a:	af00      	add	r7, sp, #0
 800346c:	60f8      	str	r0, [r7, #12]
 800346e:	4638      	mov	r0, r7
 8003470:	e880 000e 	stmia.w	r0, {r1, r2, r3}
  /* Prevent unused argument(s) compilation warning */
  UNUSED(cfg);

  /* Init Device */
  /* CNTR_FRES = 1 */
  USBx->CNTR = (uint16_t)USB_CNTR_FRES;
 8003474:	68fb      	ldr	r3, [r7, #12]
 8003476:	2201      	movs	r2, #1
 8003478:	f8a3 2040 	strh.w	r2, [r3, #64]	@ 0x40

  /* CNTR_FRES = 0 */
  USBx->CNTR = 0U;
 800347c:	68fb      	ldr	r3, [r7, #12]
 800347e:	2200      	movs	r2, #0
 8003480:	f8a3 2040 	strh.w	r2, [r3, #64]	@ 0x40

  /* Clear pending interrupts */
  USBx->ISTR = 0U;
 8003484:	68fb      	ldr	r3, [r7, #12]
 8003486:	2200      	movs	r2, #0
 8003488:	f8a3 2044 	strh.w	r2, [r3, #68]	@ 0x44

  /*Set Btable Address*/
  USBx->BTABLE = BTABLE_ADDRESS;
 800348c:	68fb      	ldr	r3, [r7, #12]
 800348e:	2200      	movs	r2, #0
 8003490:	f8a3 2050 	strh.w	r2, [r3, #80]	@ 0x50

  return HAL_OK;
 8003494:	2300      	movs	r3, #0
}
 8003496:	4618      	mov	r0, r3
 8003498:	3714      	adds	r7, #20
 800349a:	46bd      	mov	sp, r7
 800349c:	bc80      	pop	{r7}
 800349e:	4770      	bx	lr

080034a0 <USB_ActivateEndpoint>:
  * @param  USBx Selected device
  * @param  ep pointer to endpoint structure
  * @retval HAL status
  */
HAL_StatusTypeDef USB_ActivateEndpoint(USB_TypeDef *USBx, USB_EPTypeDef *ep)
{
 80034a0:	b480      	push	{r7}
 80034a2:	b09d      	sub	sp, #116	@ 0x74
 80034a4:	af00      	add	r7, sp, #0
 80034a6:	6078      	str	r0, [r7, #4]
 80034a8:	6039      	str	r1, [r7, #0]
  HAL_StatusTypeDef ret = HAL_OK;
 80034aa:	2300      	movs	r3, #0
 80034ac:	f887 306f 	strb.w	r3, [r7, #111]	@ 0x6f
  uint16_t wEpRegVal;

  wEpRegVal = PCD_GET_ENDPOINT(USBx, ep->num) & USB_EP_T_MASK;
 80034b0:	687a      	ldr	r2, [r7, #4]
 80034b2:	683b      	ldr	r3, [r7, #0]
 80034b4:	781b      	ldrb	r3, [r3, #0]
 80034b6:	009b      	lsls	r3, r3, #2
 80034b8:	4413      	add	r3, r2
 80034ba:	881b      	ldrh	r3, [r3, #0]
 80034bc:	b29b      	uxth	r3, r3
 80034be:	f423 43ec 	bic.w	r3, r3, #30208	@ 0x7600
 80034c2:	f023 0370 	bic.w	r3, r3, #112	@ 0x70
 80034c6:	f8a7 306c 	strh.w	r3, [r7, #108]	@ 0x6c

  /* initialize Endpoint */
  switch (ep->type)
 80034ca:	683b      	ldr	r3, [r7, #0]
 80034cc:	78db      	ldrb	r3, [r3, #3]
 80034ce:	2b03      	cmp	r3, #3
 80034d0:	d81f      	bhi.n	8003512 <USB_ActivateEndpoint+0x72>
 80034d2:	a201      	add	r2, pc, #4	@ (adr r2, 80034d8 <USB_ActivateEndpoint+0x38>)
 80034d4:	f852 f023 	ldr.w	pc, [r2, r3, lsl #2]
 80034d8:	080034e9 	.word	0x080034e9
 80034dc:	08003505 	.word	0x08003505
 80034e0:	0800351b 	.word	0x0800351b
 80034e4:	080034f7 	.word	0x080034f7
  {
    case EP_TYPE_CTRL:
      wEpRegVal |= USB_EP_CONTROL;
 80034e8:	f8b7 306c 	ldrh.w	r3, [r7, #108]	@ 0x6c
 80034ec:	f443 7300 	orr.w	r3, r3, #512	@ 0x200
 80034f0:	f8a7 306c 	strh.w	r3, [r7, #108]	@ 0x6c
      break;
 80034f4:	e012      	b.n	800351c <USB_ActivateEndpoint+0x7c>
    case EP_TYPE_BULK:
      wEpRegVal |= USB_EP_BULK;
      break;

    case EP_TYPE_INTR:
      wEpRegVal |= USB_EP_INTERRUPT;
 80034f6:	f8b7 306c 	ldrh.w	r3, [r7, #108]	@ 0x6c
 80034fa:	f443 63c0 	orr.w	r3, r3, #1536	@ 0x600
 80034fe:	f8a7 306c 	strh.w	r3, [r7, #108]	@ 0x6c
      break;
 8003502:	e00b      	b.n	800351c <USB_ActivateEndpoint+0x7c>

    case EP_TYPE_ISOC:
      wEpRegVal |= USB_EP_ISOCHRONOUS;
 8003504:	f8b7 306c 	ldrh.w	r3, [r7, #108]	@ 0x6c
 8003508:	f443 6380 	orr.w	r3, r3, #1024	@ 0x400
 800350c:	f8a7 306c 	strh.w	r3, [r7, #108]	@ 0x6c
      break;
 8003510:	e004      	b.n	800351c <USB_ActivateEndpoint+0x7c>

    default:
      ret = HAL_ERROR;
 8003512:	2301      	movs	r3, #1
 8003514:	f887 306f 	strb.w	r3, [r7, #111]	@ 0x6f
      break;
 8003518:	e000      	b.n	800351c <USB_ActivateEndpoint+0x7c>
      break;
 800351a:	bf00      	nop
  }

  PCD_SET_ENDPOINT(USBx, ep->num, (wEpRegVal | USB_EP_CTR_RX | USB_EP_CTR_TX));
 800351c:	687a      	ldr	r2, [r7, #4]
 800351e:	683b      	ldr	r3, [r7, #0]
 8003520:	781b      	ldrb	r3, [r3, #0]
 8003522:	009b      	lsls	r3, r3, #2
 8003524:	441a      	add	r2, r3
 8003526:	f8b7 306c 	ldrh.w	r3, [r7, #108]	@ 0x6c
 800352a:	f043 437f 	orr.w	r3, r3, #4278190080	@ 0xff000000
 800352e:	f443 037f 	orr.w	r3, r3, #16711680	@ 0xff0000
 8003532:	f443 4300 	orr.w	r3, r3, #32768	@ 0x8000
 8003536:	f043 0380 	orr.w	r3, r3, #128	@ 0x80
 800353a:	b29b      	uxth	r3, r3
 800353c:	8013      	strh	r3, [r2, #0]

  PCD_SET_EP_ADDRESS(USBx, ep->num, ep->num);
 800353e:	687a      	ldr	r2, [r7, #4]
 8003540:	683b      	ldr	r3, [r7, #0]
 8003542:	781b      	ldrb	r3, [r3, #0]
 8003544:	009b      	lsls	r3, r3, #2
 8003546:	4413      	add	r3, r2
 8003548:	881b      	ldrh	r3, [r3, #0]
 800354a:	b29b      	uxth	r3, r3
 800354c:	f423 43e0 	bic.w	r3, r3, #28672	@ 0x7000
 8003550:	f023 0370 	bic.w	r3, r3, #112	@ 0x70
 8003554:	b29b      	uxth	r3, r3
 8003556:	683a      	ldr	r2, [r7, #0]
 8003558:	7812      	ldrb	r2, [r2, #0]
 800355a:	4313      	orrs	r3, r2
 800355c:	f8a7 3066 	strh.w	r3, [r7, #102]	@ 0x66
 8003560:	687a      	ldr	r2, [r7, #4]
 8003562:	683b      	ldr	r3, [r7, #0]
 8003564:	781b      	ldrb	r3, [r3, #0]
 8003566:	009b      	lsls	r3, r3, #2
 8003568:	441a      	add	r2, r3
 800356a:	f8b7 3066 	ldrh.w	r3, [r7, #102]	@ 0x66
 800356e:	f043 437f 	orr.w	r3, r3, #4278190080	@ 0xff000000
 8003572:	f443 037f 	orr.w	r3, r3, #16711680	@ 0xff0000
 8003576:	f443 4300 	orr.w	r3, r3, #32768	@ 0x8000
 800357a:	f043 0380 	orr.w	r3, r3, #128	@ 0x80
 800357e:	b29b      	uxth	r3, r3
 8003580:	8013      	strh	r3, [r2, #0]

  if (ep->doublebuffer == 0U)
 8003582:	683b      	ldr	r3, [r7, #0]
 8003584:	7b1b      	ldrb	r3, [r3, #12]
 8003586:	2b00      	cmp	r3, #0
 8003588:	f040 8178 	bne.w	800387c <USB_ActivateEndpoint+0x3dc>
  {
    if (ep->is_in != 0U)
 800358c:	683b      	ldr	r3, [r7, #0]
 800358e:	785b      	ldrb	r3, [r3, #1]
 8003590:	2b00      	cmp	r3, #0
 8003592:	f000 8084 	beq.w	800369e <USB_ActivateEndpoint+0x1fe>
    {
      /*Set the endpoint Transmit buffer address */
      PCD_SET_EP_TX_ADDRESS(USBx, ep->num, ep->pmaadress);
 8003596:	687b      	ldr	r3, [r7, #4]
 8003598:	61bb      	str	r3, [r7, #24]
 800359a:	687b      	ldr	r3, [r7, #4]
 800359c:	f8b3 3050 	ldrh.w	r3, [r3, #80]	@ 0x50
 80035a0:	b29b      	uxth	r3, r3
 80035a2:	461a      	mov	r2, r3
 80035a4:	69bb      	ldr	r3, [r7, #24]
 80035a6:	4413      	add	r3, r2
 80035a8:	61bb      	str	r3, [r7, #24]
 80035aa:	683b      	ldr	r3, [r7, #0]
 80035ac:	781b      	ldrb	r3, [r3, #0]
 80035ae:	011a      	lsls	r2, r3, #4
 80035b0:	69bb      	ldr	r3, [r7, #24]
 80035b2:	4413      	add	r3, r2
 80035b4:	f503 6380 	add.w	r3, r3, #1024	@ 0x400
 80035b8:	617b      	str	r3, [r7, #20]
 80035ba:	683b      	ldr	r3, [r7, #0]
 80035bc:	88db      	ldrh	r3, [r3, #6]
 80035be:	085b      	lsrs	r3, r3, #1
 80035c0:	b29b      	uxth	r3, r3
 80035c2:	005b      	lsls	r3, r3, #1
 80035c4:	b29a      	uxth	r2, r3
 80035c6:	697b      	ldr	r3, [r7, #20]
 80035c8:	801a      	strh	r2, [r3, #0]
      PCD_CLEAR_TX_DTOG(USBx, ep->num);
 80035ca:	687a      	ldr	r2, [r7, #4]
 80035cc:	683b      	ldr	r3, [r7, #0]
 80035ce:	781b      	ldrb	r3, [r3, #0]
 80035d0:	009b      	lsls	r3, r3, #2
 80035d2:	4413      	add	r3, r2
 80035d4:	881b      	ldrh	r3, [r3, #0]
 80035d6:	827b      	strh	r3, [r7, #18]
 80035d8:	8a7b      	ldrh	r3, [r7, #18]
 80035da:	f003 0340 	and.w	r3, r3, #64	@ 0x40
 80035de:	2b00      	cmp	r3, #0
 80035e0:	d01b      	beq.n	800361a <USB_ActivateEndpoint+0x17a>
 80035e2:	687a      	ldr	r2, [r7, #4]
 80035e4:	683b      	ldr	r3, [r7, #0]
 80035e6:	781b      	ldrb	r3, [r3, #0]
 80035e8:	009b      	lsls	r3, r3, #2
 80035ea:	4413      	add	r3, r2
 80035ec:	881b      	ldrh	r3, [r3, #0]
 80035ee:	b29b      	uxth	r3, r3
 80035f0:	f423 43e0 	bic.w	r3, r3, #28672	@ 0x7000
 80035f4:	f023 0370 	bic.w	r3, r3, #112	@ 0x70
 80035f8:	823b      	strh	r3, [r7, #16]
 80035fa:	687a      	ldr	r2, [r7, #4]
 80035fc:	683b      	ldr	r3, [r7, #0]
 80035fe:	781b      	ldrb	r3, [r3, #0]
 8003600:	009b      	lsls	r3, r3, #2
 8003602:	441a      	add	r2, r3
 8003604:	8a3b      	ldrh	r3, [r7, #16]
 8003606:	f043 437f 	orr.w	r3, r3, #4278190080	@ 0xff000000
 800360a:	f443 037f 	orr.w	r3, r3, #16711680	@ 0xff0000
 800360e:	f443 4300 	orr.w	r3, r3, #32768	@ 0x8000
 8003612:	f043 03c0 	orr.w	r3, r3, #192	@ 0xc0
 8003616:	b29b      	uxth	r3, r3
 8003618:	8013      	strh	r3, [r2, #0]

      if (ep->type != EP_TYPE_ISOC)
 800361a:	683b      	ldr	r3, [r7, #0]
 800361c:	78db      	ldrb	r3, [r3, #3]
 800361e:	2b01      	cmp	r3, #1
 8003620:	d020      	beq.n	8003664 <USB_ActivateEndpoint+0x1c4>
      {
        /* Configure NAK status for the Endpoint */
        PCD_SET_EP_TX_STATUS(USBx, ep->num, USB_EP_TX_NAK);
 8003622:	687a      	ldr	r2, [r7, #4]
 8003624:	683b      	ldr	r3, [r7, #0]
 8003626:	781b      	ldrb	r3, [r3, #0]
 8003628:	009b      	lsls	r3, r3, #2
 800362a:	4413      	add	r3, r2
 800362c:	881b      	ldrh	r3, [r3, #0]
 800362e:	b29b      	uxth	r3, r3
 8003630:	f423 43e0 	bic.w	r3, r3, #28672	@ 0x7000
 8003634:	f023 0340 	bic.w	r3, r3, #64	@ 0x40
 8003638:	81bb      	strh	r3, [r7, #12]
 800363a:	89bb      	ldrh	r3, [r7, #12]
 800363c:	f083 0320 	eor.w	r3, r3, #32
 8003640:	81bb      	strh	r3, [r7, #12]
 8003642:	687a      	ldr	r2, [r7, #4]
 8003644:	683b      	ldr	r3, [r7, #0]
 8003646:	781b      	ldrb	r3, [r3, #0]
 8003648:	009b      	lsls	r3, r3, #2
 800364a:	441a      	add	r2, r3
 800364c:	89bb      	ldrh	r3, [r7, #12]
 800364e:	f043 437f 	orr.w	r3, r3, #4278190080	@ 0xff000000
 8003652:	f443 037f 	orr.w	r3, r3, #16711680	@ 0xff0000
 8003656:	f443 4300 	orr.w	r3, r3, #32768	@ 0x8000
 800365a:	f043 0380 	orr.w	r3, r3, #128	@ 0x80
 800365e:	b29b      	uxth	r3, r3
 8003660:	8013      	strh	r3, [r2, #0]
 8003662:	e2d5      	b.n	8003c10 <USB_ActivateEndpoint+0x770>
      }
      else
      {
        /* Configure TX Endpoint to disabled state */
        PCD_SET_EP_TX_STATUS(USBx, ep->num, USB_EP_TX_DIS);
 8003664:	687a      	ldr	r2, [r7, #4]
 8003666:	683b      	ldr	r3, [r7, #0]
 8003668:	781b      	ldrb	r3, [r3, #0]
 800366a:	009b      	lsls	r3, r3, #2
 800366c:	4413      	add	r3, r2
 800366e:	881b      	ldrh	r3, [r3, #0]
 8003670:	b29b      	uxth	r3, r3
 8003672:	f423 43e0 	bic.w	r3, r3, #28672	@ 0x7000
 8003676:	f023 0340 	bic.w	r3, r3, #64	@ 0x40
 800367a:	81fb      	strh	r3, [r7, #14]
 800367c:	687a      	ldr	r2, [r7, #4]
 800367e:	683b      	ldr	r3, [r7, #0]
 8003680:	781b      	ldrb	r3, [r3, #0]
 8003682:	009b      	lsls	r3, r3, #2
 8003684:	441a      	add	r2, r3
 8003686:	89fb      	ldrh	r3, [r7, #14]
 8003688:	f043 437f 	orr.w	r3, r3, #4278190080	@ 0xff000000
 800368c:	f443 037f 	orr.w	r3, r3, #16711680	@ 0xff0000
 8003690:	f443 4300 	orr.w	r3, r3, #32768	@ 0x8000
 8003694:	f043 0380 	orr.w	r3, r3, #128	@ 0x80
 8003698:	b29b      	uxth	r3, r3
 800369a:	8013      	strh	r3, [r2, #0]
 800369c:	e2b8      	b.n	8003c10 <USB_ActivateEndpoint+0x770>
      }
    }
    else
    {
      /* Set the endpoint Receive buffer address */
      PCD_SET_EP_RX_ADDRESS(USBx, ep->num, ep->pmaadress);
 800369e:	687b      	ldr	r3, [r7, #4]
 80036a0:	633b      	str	r3, [r7, #48]	@ 0x30
 80036a2:	687b      	ldr	r3, [r7, #4]
 80036a4:	f8b3 3050 	ldrh.w	r3, [r3, #80]	@ 0x50
 80036a8:	b29b      	uxth	r3, r3
 80036aa:	461a      	mov	r2, r3
 80036ac:	6b3b      	ldr	r3, [r7, #48]	@ 0x30
 80036ae:	4413      	add	r3, r2
 80036b0:	633b      	str	r3, [r7, #48]	@ 0x30
 80036b2:	683b      	ldr	r3, [r7, #0]
 80036b4:	781b      	ldrb	r3, [r3, #0]
 80036b6:	011a      	lsls	r2, r3, #4
 80036b8:	6b3b      	ldr	r3, [r7, #48]	@ 0x30
 80036ba:	4413      	add	r3, r2
 80036bc:	f503 6381 	add.w	r3, r3, #1032	@ 0x408
 80036c0:	62fb      	str	r3, [r7, #44]	@ 0x2c
 80036c2:	683b      	ldr	r3, [r7, #0]
 80036c4:	88db      	ldrh	r3, [r3, #6]
 80036c6:	085b      	lsrs	r3, r3, #1
 80036c8:	b29b      	uxth	r3, r3
 80036ca:	005b      	lsls	r3, r3, #1
 80036cc:	b29a      	uxth	r2, r3
 80036ce:	6afb      	ldr	r3, [r7, #44]	@ 0x2c
 80036d0:	801a      	strh	r2, [r3, #0]

      /* Set the endpoint Receive buffer counter */
      PCD_SET_EP_RX_CNT(USBx, ep->num, ep->maxpacket);
 80036d2:	687b      	ldr	r3, [r7, #4]
 80036d4:	62bb      	str	r3, [r7, #40]	@ 0x28
 80036d6:	687b      	ldr	r3, [r7, #4]
 80036d8:	f8b3 3050 	ldrh.w	r3, [r3, #80]	@ 0x50
 80036dc:	b29b      	uxth	r3, r3
 80036de:	461a      	mov	r2, r3
 80036e0:	6abb      	ldr	r3, [r7, #40]	@ 0x28
 80036e2:	4413      	add	r3, r2
 80036e4:	62bb      	str	r3, [r7, #40]	@ 0x28
 80036e6:	683b      	ldr	r3, [r7, #0]
 80036e8:	781b      	ldrb	r3, [r3, #0]
 80036ea:	011a      	lsls	r2, r3, #4
 80036ec:	6abb      	ldr	r3, [r7, #40]	@ 0x28
 80036ee:	4413      	add	r3, r2
 80036f0:	f203 430c 	addw	r3, r3, #1036	@ 0x40c
 80036f4:	627b      	str	r3, [r7, #36]	@ 0x24
 80036f6:	6a7b      	ldr	r3, [r7, #36]	@ 0x24
 80036f8:	881b      	ldrh	r3, [r3, #0]
 80036fa:	b29b      	uxth	r3, r3
 80036fc:	f3c3 0309 	ubfx	r3, r3, #0, #10
 8003700:	b29a      	uxth	r2, r3
 8003702:	6a7b      	ldr	r3, [r7, #36]	@ 0x24
 8003704:	801a      	strh	r2, [r3, #0]
 8003706:	683b      	ldr	r3, [r7, #0]
 8003708:	691b      	ldr	r3, [r3, #16]
 800370a:	2b3e      	cmp	r3, #62	@ 0x3e
 800370c:	d91d      	bls.n	800374a <USB_ActivateEndpoint+0x2aa>
 800370e:	683b      	ldr	r3, [r7, #0]
 8003710:	691b      	ldr	r3, [r3, #16]
 8003712:	095b      	lsrs	r3, r3, #5
 8003714:	66bb      	str	r3, [r7, #104]	@ 0x68
 8003716:	683b      	ldr	r3, [r7, #0]
 8003718:	691b      	ldr	r3, [r3, #16]
 800371a:	f003 031f 	and.w	r3, r3, #31
 800371e:	2b00      	cmp	r3, #0
 8003720:	d102      	bne.n	8003728 <USB_ActivateEndpoint+0x288>
 8003722:	6ebb      	ldr	r3, [r7, #104]	@ 0x68
 8003724:	3b01      	subs	r3, #1
 8003726:	66bb      	str	r3, [r7, #104]	@ 0x68
 8003728:	6a7b      	ldr	r3, [r7, #36]	@ 0x24
 800372a:	881b      	ldrh	r3, [r3, #0]
 800372c:	b29a      	uxth	r2, r3
 800372e:	6ebb      	ldr	r3, [r7, #104]	@ 0x68
 8003730:	b29b      	uxth	r3, r3
 8003732:	029b      	lsls	r3, r3, #10
 8003734:	b29b      	uxth	r3, r3
 8003736:	4313      	orrs	r3, r2
 8003738:	b29b      	uxth	r3, r3
 800373a:	ea6f 4343 	mvn.w	r3, r3, lsl #17
 800373e:	ea6f 4353 	mvn.w	r3, r3, lsr #17
 8003742:	b29a      	uxth	r2, r3
 8003744:	6a7b      	ldr	r3, [r7, #36]	@ 0x24
 8003746:	801a      	strh	r2, [r3, #0]
 8003748:	e026      	b.n	8003798 <USB_ActivateEndpoint+0x2f8>
 800374a:	683b      	ldr	r3, [r7, #0]
 800374c:	691b      	ldr	r3, [r3, #16]
 800374e:	2b00      	cmp	r3, #0
 8003750:	d10a      	bne.n	8003768 <USB_ActivateEndpoint+0x2c8>
 8003752:	6a7b      	ldr	r3, [r7, #36]	@ 0x24
 8003754:	881b      	ldrh	r3, [r3, #0]
 8003756:	b29b      	uxth	r3, r3
 8003758:	ea6f 4343 	mvn.w	r3, r3, lsl #17
 800375c:	ea6f 4353 	mvn.w	r3, r3, lsr #17
 8003760:	b29a      	uxth	r2, r3
 8003762:	6a7b      	ldr	r3, [r7, #36]	@ 0x24
 8003764:	801a      	strh	r2, [r3, #0]
 8003766:	e017      	b.n	8003798 <USB_ActivateEndpoint+0x2f8>
 8003768:	683b      	ldr	r3, [r7, #0]
 800376a:	691b      	ldr	r3, [r3, #16]
 800376c:	085b      	lsrs	r3, r3, #1
 800376e:	66bb      	str	r3, [r7, #104]	@ 0x68
 8003770:	683b      	ldr	r3, [r7, #0]
 8003772:	691b      	ldr	r3, [r3, #16]
 8003774:	f003 0301 	and.w	r3, r3, #1
 8003778:	2b00      	cmp	r3, #0
 800377a:	d002      	beq.n	8003782 <USB_ActivateEndpoint+0x2e2>
 800377c:	6ebb      	ldr	r3, [r7, #104]	@ 0x68
 800377e:	3301      	adds	r3, #1
 8003780:	66bb      	str	r3, [r7, #104]	@ 0x68
 8003782:	6a7b      	ldr	r3, [r7, #36]	@ 0x24
 8003784:	881b      	ldrh	r3, [r3, #0]
 8003786:	b29a      	uxth	r2, r3
 8003788:	6ebb      	ldr	r3, [r7, #104]	@ 0x68
 800378a:	b29b      	uxth	r3, r3
 800378c:	029b      	lsls	r3, r3, #10
 800378e:	b29b      	uxth	r3, r3
 8003790:	4313      	orrs	r3, r2
 8003792:	b29a      	uxth	r2, r3
 8003794:	6a7b      	ldr	r3, [r7, #36]	@ 0x24
 8003796:	801a      	strh	r2, [r3, #0]
      PCD_CLEAR_RX_DTOG(USBx, ep->num);
 8003798:	687a      	ldr	r2, [r7, #4]
 800379a:	683b      	ldr	r3, [r7, #0]
 800379c:	781b      	ldrb	r3, [r3, #0]
 800379e:	009b      	lsls	r3, r3, #2
 80037a0:	4413      	add	r3, r2
 80037a2:	881b      	ldrh	r3, [r3, #0]
 80037a4:	847b      	strh	r3, [r7, #34]	@ 0x22
 80037a6:	8c7b      	ldrh	r3, [r7, #34]	@ 0x22
 80037a8:	f403 4380 	and.w	r3, r3, #16384	@ 0x4000
 80037ac:	2b00      	cmp	r3, #0
 80037ae:	d01b      	beq.n	80037e8 <USB_ActivateEndpoint+0x348>
 80037b0:	687a      	ldr	r2, [r7, #4]
 80037b2:	683b      	ldr	r3, [r7, #0]
 80037b4:	781b      	ldrb	r3, [r3, #0]
 80037b6:	009b      	lsls	r3, r3, #2
 80037b8:	4413      	add	r3, r2
 80037ba:	881b      	ldrh	r3, [r3, #0]
 80037bc:	b29b      	uxth	r3, r3
 80037be:	f423 43e0 	bic.w	r3, r3, #28672	@ 0x7000
 80037c2:	f023 0370 	bic.w	r3, r3, #112	@ 0x70
 80037c6:	843b      	strh	r3, [r7, #32]
 80037c8:	687a      	ldr	r2, [r7, #4]
 80037ca:	683b      	ldr	r3, [r7, #0]
 80037cc:	781b      	ldrb	r3, [r3, #0]
 80037ce:	009b      	lsls	r3, r3, #2
 80037d0:	441a      	add	r2, r3
 80037d2:	8c3b      	ldrh	r3, [r7, #32]
 80037d4:	f043 437f 	orr.w	r3, r3, #4278190080	@ 0xff000000
 80037d8:	f443 037f 	orr.w	r3, r3, #16711680	@ 0xff0000
 80037dc:	f443 4340 	orr.w	r3, r3, #49152	@ 0xc000
 80037e0:	f043 0380 	orr.w	r3, r3, #128	@ 0x80
 80037e4:	b29b      	uxth	r3, r3
 80037e6:	8013      	strh	r3, [r2, #0]

      if (ep->num == 0U)
 80037e8:	683b      	ldr	r3, [r7, #0]
 80037ea:	781b      	ldrb	r3, [r3, #0]
 80037ec:	2b00      	cmp	r3, #0
 80037ee:	d124      	bne.n	800383a <USB_ActivateEndpoint+0x39a>
      {
        /* Configure VALID status for EP0 */
        PCD_SET_EP_RX_STATUS(USBx, ep->num, USB_EP_RX_VALID);
 80037f0:	687a      	ldr	r2, [r7, #4]
 80037f2:	683b      	ldr	r3, [r7, #0]
 80037f4:	781b      	ldrb	r3, [r3, #0]
 80037f6:	009b      	lsls	r3, r3, #2
 80037f8:	4413      	add	r3, r2
 80037fa:	881b      	ldrh	r3, [r3, #0]
 80037fc:	b29b      	uxth	r3, r3
 80037fe:	f423 4380 	bic.w	r3, r3, #16384	@ 0x4000
 8003802:	f023 0370 	bic.w	r3, r3, #112	@ 0x70
 8003806:	83bb      	strh	r3, [r7, #28]
 8003808:	8bbb      	ldrh	r3, [r7, #28]
 800380a:	f483 5380 	eor.w	r3, r3, #4096	@ 0x1000
 800380e:	83bb      	strh	r3, [r7, #28]
 8003810:	8bbb      	ldrh	r3, [r7, #28]
 8003812:	f483 5300 	eor.w	r3, r3, #8192	@ 0x2000
 8003816:	83bb      	strh	r3, [r7, #28]
 8003818:	687a      	ldr	r2, [r7, #4]
 800381a:	683b      	ldr	r3, [r7, #0]
 800381c:	781b      	ldrb	r3, [r3, #0]
 800381e:	009b      	lsls	r3, r3, #2
 8003820:	441a      	add	r2, r3
 8003822:	8bbb      	ldrh	r3, [r7, #28]
 8003824:	f043 437f 	orr.w	r3, r3, #4278190080	@ 0xff000000
 8003828:	f443 037f 	orr.w	r3, r3, #16711680	@ 0xff0000
 800382c:	f443 4300 	orr.w	r3, r3, #32768	@ 0x8000
 8003830:	f043 0380 	orr.w	r3, r3, #128	@ 0x80
 8003834:	b29b      	uxth	r3, r3
 8003836:	8013      	strh	r3, [r2, #0]
 8003838:	e1ea      	b.n	8003c10 <USB_ActivateEndpoint+0x770>
      }
      else
      {
        /* Configure NAK status for OUT Endpoint */
        PCD_SET_EP_RX_STATUS(USBx, ep->num, USB_EP_RX_NAK);
 800383a:	687a      	ldr	r2, [r7, #4]
 800383c:	683b      	ldr	r3, [r7, #0]
 800383e:	781b      	ldrb	r3, [r3, #0]
 8003840:	009b      	lsls	r3, r3, #2
 8003842:	4413      	add	r3, r2
 8003844:	881b      	ldrh	r3, [r3, #0]
 8003846:	b29b      	uxth	r3, r3
 8003848:	f423 4380 	bic.w	r3, r3, #16384	@ 0x4000
 800384c:	f023 0370 	bic.w	r3, r3, #112	@ 0x70
 8003850:	83fb      	strh	r3, [r7, #30]
 8003852:	8bfb      	ldrh	r3, [r7, #30]
 8003854:	f483 5300 	eor.w	r3, r3, #8192	@ 0x2000
 8003858:	83fb      	strh	r3, [r7, #30]
 800385a:	687a      	ldr	r2, [r7, #4]
 800385c:	683b      	ldr	r3, [r7, #0]
 800385e:	781b      	ldrb	r3, [r3, #0]
 8003860:	009b      	lsls	r3, r3, #2
 8003862:	441a      	add	r2, r3
 8003864:	8bfb      	ldrh	r3, [r7, #30]
 8003866:	f043 437f 	orr.w	r3, r3, #4278190080	@ 0xff000000
 800386a:	f443 037f 	orr.w	r3, r3, #16711680	@ 0xff0000
 800386e:	f443 4300 	orr.w	r3, r3, #32768	@ 0x8000
 8003872:	f043 0380 	orr.w	r3, r3, #128	@ 0x80
 8003876:	b29b      	uxth	r3, r3
 8003878:	8013      	strh	r3, [r2, #0]
 800387a:	e1c9      	b.n	8003c10 <USB_ActivateEndpoint+0x770>
  }
#if (USE_USB_DOUBLE_BUFFER == 1U)
  /* Double Buffer */
  else
  {
    if (ep->type == EP_TYPE_BULK)
 800387c:	683b      	ldr	r3, [r7, #0]
 800387e:	78db      	ldrb	r3, [r3, #3]
 8003880:	2b02      	cmp	r3, #2
 8003882:	d11e      	bne.n	80038c2 <USB_ActivateEndpoint+0x422>
    {
      /* Set bulk endpoint as double buffered */
      PCD_SET_BULK_EP_DBUF(USBx, ep->num);
 8003884:	687a      	ldr	r2, [r7, #4]
 8003886:	683b      	ldr	r3, [r7, #0]
 8003888:	781b      	ldrb	r3, [r3, #0]
 800388a:	009b      	lsls	r3, r3, #2
 800388c:	4413      	add	r3, r2
 800388e:	881b      	ldrh	r3, [r3, #0]
 8003890:	b29b      	uxth	r3, r3
 8003892:	f423 43e0 	bic.w	r3, r3, #28672	@ 0x7000
 8003896:	f023 0370 	bic.w	r3, r3, #112	@ 0x70
 800389a:	f8a7 3062 	strh.w	r3, [r7, #98]	@ 0x62
 800389e:	687a      	ldr	r2, [r7, #4]
 80038a0:	683b      	ldr	r3, [r7, #0]
 80038a2:	781b      	ldrb	r3, [r3, #0]
 80038a4:	009b      	lsls	r3, r3, #2
 80038a6:	441a      	add	r2, r3
 80038a8:	f8b7 3062 	ldrh.w	r3, [r7, #98]	@ 0x62
 80038ac:	f043 437f 	orr.w	r3, r3, #4278190080	@ 0xff000000
 80038b0:	f443 037f 	orr.w	r3, r3, #16711680	@ 0xff0000
 80038b4:	f443 4301 	orr.w	r3, r3, #33024	@ 0x8100
 80038b8:	f043 0380 	orr.w	r3, r3, #128	@ 0x80
 80038bc:	b29b      	uxth	r3, r3
 80038be:	8013      	strh	r3, [r2, #0]
 80038c0:	e01d      	b.n	80038fe <USB_ActivateEndpoint+0x45e>
    }
    else
    {
      /* Set the ISOC endpoint in double buffer mode */
      PCD_CLEAR_EP_KIND(USBx, ep->num);
 80038c2:	687a      	ldr	r2, [r7, #4]
 80038c4:	683b      	ldr	r3, [r7, #0]
 80038c6:	781b      	ldrb	r3, [r3, #0]
 80038c8:	009b      	lsls	r3, r3, #2
 80038ca:	4413      	add	r3, r2
 80038cc:	881b      	ldrh	r3, [r3, #0]
 80038ce:	b29b      	uxth	r3, r3
 80038d0:	f423 43e2 	bic.w	r3, r3, #28928	@ 0x7100
 80038d4:	f023 0370 	bic.w	r3, r3, #112	@ 0x70
 80038d8:	f8a7 3064 	strh.w	r3, [r7, #100]	@ 0x64
 80038dc:	687a      	ldr	r2, [r7, #4]
 80038de:	683b      	ldr	r3, [r7, #0]
 80038e0:	781b      	ldrb	r3, [r3, #0]
 80038e2:	009b      	lsls	r3, r3, #2
 80038e4:	441a      	add	r2, r3
 80038e6:	f8b7 3064 	ldrh.w	r3, [r7, #100]	@ 0x64
 80038ea:	f043 437f 	orr.w	r3, r3, #4278190080	@ 0xff000000
 80038ee:	f443 037f 	orr.w	r3, r3, #16711680	@ 0xff0000
 80038f2:	f443 4300 	orr.w	r3, r3, #32768	@ 0x8000
 80038f6:	f043 0380 	orr.w	r3, r3, #128	@ 0x80
 80038fa:	b29b      	uxth	r3, r3
 80038fc:	8013      	strh	r3, [r2, #0]
    }

    /* Set buffer address for double buffered mode */
    PCD_SET_EP_DBUF_ADDR(USBx, ep->num, ep->pmaaddr0, ep->pmaaddr1);
 80038fe:	687b      	ldr	r3, [r7, #4]
 8003900:	65fb      	str	r3, [r7, #92]	@ 0x5c
 8003902:	687b      	ldr	r3, [r7, #4]
 8003904:	f8b3 3050 	ldrh.w	r3, [r3, #80]	@ 0x50
 8003908:	b29b      	uxth	r3, r3
 800390a:	461a      	mov	r2, r3
 800390c:	6dfb      	ldr	r3, [r7, #92]	@ 0x5c
 800390e:	4413      	add	r3, r2
 8003910:	65fb      	str	r3, [r7, #92]	@ 0x5c
 8003912:	683b      	ldr	r3, [r7, #0]
 8003914:	781b      	ldrb	r3, [r3, #0]
 8003916:	011a      	lsls	r2, r3, #4
 8003918:	6dfb      	ldr	r3, [r7, #92]	@ 0x5c
 800391a:	4413      	add	r3, r2
 800391c:	f503 6380 	add.w	r3, r3, #1024	@ 0x400
 8003920:	65bb      	str	r3, [r7, #88]	@ 0x58
 8003922:	683b      	ldr	r3, [r7, #0]
 8003924:	891b      	ldrh	r3, [r3, #8]
 8003926:	085b      	lsrs	r3, r3, #1
 8003928:	b29b      	uxth	r3, r3
 800392a:	005b      	lsls	r3, r3, #1
 800392c:	b29a      	uxth	r2, r3
 800392e:	6dbb      	ldr	r3, [r7, #88]	@ 0x58
 8003930:	801a      	strh	r2, [r3, #0]
 8003932:	687b      	ldr	r3, [r7, #4]
 8003934:	657b      	str	r3, [r7, #84]	@ 0x54
 8003936:	687b      	ldr	r3, [r7, #4]
 8003938:	f8b3 3050 	ldrh.w	r3, [r3, #80]	@ 0x50
 800393c:	b29b      	uxth	r3, r3
 800393e:	461a      	mov	r2, r3
 8003940:	6d7b      	ldr	r3, [r7, #84]	@ 0x54
 8003942:	4413      	add	r3, r2
 8003944:	657b      	str	r3, [r7, #84]	@ 0x54
 8003946:	683b      	ldr	r3, [r7, #0]
 8003948:	781b      	ldrb	r3, [r3, #0]
 800394a:	011a      	lsls	r2, r3, #4
 800394c:	6d7b      	ldr	r3, [r7, #84]	@ 0x54
 800394e:	4413      	add	r3, r2
 8003950:	f503 6381 	add.w	r3, r3, #1032	@ 0x408
 8003954:	653b      	str	r3, [r7, #80]	@ 0x50
 8003956:	683b      	ldr	r3, [r7, #0]
 8003958:	895b      	ldrh	r3, [r3, #10]
 800395a:	085b      	lsrs	r3, r3, #1
 800395c:	b29b      	uxth	r3, r3
 800395e:	005b      	lsls	r3, r3, #1
 8003960:	b29a      	uxth	r2, r3
 8003962:	6d3b      	ldr	r3, [r7, #80]	@ 0x50
 8003964:	801a      	strh	r2, [r3, #0]

    if (ep->is_in == 0U)
 8003966:	683b      	ldr	r3, [r7, #0]
 8003968:	785b      	ldrb	r3, [r3, #1]
 800396a:	2b00      	cmp	r3, #0
 800396c:	f040 8093 	bne.w	8003a96 <USB_ActivateEndpoint+0x5f6>
    {
      /* Clear the data toggle bits for the endpoint IN/OUT */
      PCD_CLEAR_RX_DTOG(USBx, ep->num);
 8003970:	687a      	ldr	r2, [r7, #4]
 8003972:	683b      	ldr	r3, [r7, #0]
 8003974:	781b      	ldrb	r3, [r3, #0]
 8003976:	009b      	lsls	r3, r3, #2
 8003978:	4413      	add	r3, r2
 800397a:	881b      	ldrh	r3, [r3, #0]
 800397c:	f8a7 3040 	strh.w	r3, [r7, #64]	@ 0x40
 8003980:	f8b7 3040 	ldrh.w	r3, [r7, #64]	@ 0x40
 8003984:	f403 4380 	and.w	r3, r3, #16384	@ 0x4000
 8003988:	2b00      	cmp	r3, #0
 800398a:	d01b      	beq.n	80039c4 <USB_ActivateEndpoint+0x524>
 800398c:	687a      	ldr	r2, [r7, #4]
 800398e:	683b      	ldr	r3, [r7, #0]
 8003990:	781b      	ldrb	r3, [r3, #0]
 8003992:	009b      	lsls	r3, r3, #2
 8003994:	4413      	add	r3, r2
 8003996:	881b      	ldrh	r3, [r3, #0]
 8003998:	b29b      	uxth	r3, r3
 800399a:	f423 43e0 	bic.w	r3, r3, #28672	@ 0x7000
 800399e:	f023 0370 	bic.w	r3, r3, #112	@ 0x70
 80039a2:	87fb      	strh	r3, [r7, #62]	@ 0x3e
 80039a4:	687a      	ldr	r2, [r7, #4]
 80039a6:	683b      	ldr	r3, [r7, #0]
 80039a8:	781b      	ldrb	r3, [r3, #0]
 80039aa:	009b      	lsls	r3, r3, #2
 80039ac:	441a      	add	r2, r3
 80039ae:	8ffb      	ldrh	r3, [r7, #62]	@ 0x3e
 80039b0:	f043 437f 	orr.w	r3, r3, #4278190080	@ 0xff000000
 80039b4:	f443 037f 	orr.w	r3, r3, #16711680	@ 0xff0000
 80039b8:	f443 4340 	orr.w	r3, r3, #49152	@ 0xc000
 80039bc:	f043 0380 	orr.w	r3, r3, #128	@ 0x80
 80039c0:	b29b      	uxth	r3, r3
 80039c2:	8013      	strh	r3, [r2, #0]
      PCD_CLEAR_TX_DTOG(USBx, ep->num);
 80039c4:	687a      	ldr	r2, [r7, #4]
 80039c6:	683b      	ldr	r3, [r7, #0]
 80039c8:	781b      	ldrb	r3, [r3, #0]
 80039ca:	009b      	lsls	r3, r3, #2
 80039cc:	4413      	add	r3, r2
 80039ce:	881b      	ldrh	r3, [r3, #0]
 80039d0:	87bb      	strh	r3, [r7, #60]	@ 0x3c
 80039d2:	8fbb      	ldrh	r3, [r7, #60]	@ 0x3c
 80039d4:	f003 0340 	and.w	r3, r3, #64	@ 0x40
 80039d8:	2b00      	cmp	r3, #0
 80039da:	d01b      	beq.n	8003a14 <USB_ActivateEndpoint+0x574>
 80039dc:	687a      	ldr	r2, [r7, #4]
 80039de:	683b      	ldr	r3, [r7, #0]
 80039e0:	781b      	ldrb	r3, [r3, #0]
 80039e2:	009b      	lsls	r3, r3, #2
 80039e4:	4413      	add	r3, r2
 80039e6:	881b      	ldrh	r3, [r3, #0]
 80039e8:	b29b      	uxth	r3, r3
 80039ea:	f423 43e0 	bic.w	r3, r3, #28672	@ 0x7000
 80039ee:	f023 0370 	bic.w	r3, r3, #112	@ 0x70
 80039f2:	877b      	strh	r3, [r7, #58]	@ 0x3a
 80039f4:	687a      	ldr	r2, [r7, #4]
 80039f6:	683b      	ldr	r3, [r7, #0]
 80039f8:	781b      	ldrb	r3, [r3, #0]
 80039fa:	009b      	lsls	r3, r3, #2
 80039fc:	441a      	add	r2, r3
 80039fe:	8f7b      	ldrh	r3, [r7, #58]	@ 0x3a
 8003a00:	f043 437f 	orr.w	r3, r3, #4278190080	@ 0xff000000
 8003a04:	f443 037f 	orr.w	r3, r3, #16711680	@ 0xff0000
 8003a08:	f443 4300 	orr.w	r3, r3, #32768	@ 0x8000
 8003a0c:	f043 03c0 	orr.w	r3, r3, #192	@ 0xc0
 8003a10:	b29b      	uxth	r3, r3
 8003a12:	8013      	strh	r3, [r2, #0]

      PCD_SET_EP_RX_STATUS(USBx, ep->num, USB_EP_RX_VALID);
 8003a14:	687a      	ldr	r2, [r7, #4]
 8003a16:	683b      	ldr	r3, [r7, #0]
 8003a18:	781b      	ldrb	r3, [r3, #0]
 8003a1a:	009b      	lsls	r3, r3, #2
 8003a1c:	4413      	add	r3, r2
 8003a1e:	881b      	ldrh	r3, [r3, #0]
 8003a20:	b29b      	uxth	r3, r3
 8003a22:	f423 4380 	bic.w	r3, r3, #16384	@ 0x4000
 8003a26:	f023 0370 	bic.w	r3, r3, #112	@ 0x70
 8003a2a:	873b      	strh	r3, [r7, #56]	@ 0x38
 8003a2c:	8f3b      	ldrh	r3, [r7, #56]	@ 0x38
 8003a2e:	f483 5380 	eor.w	r3, r3, #4096	@ 0x1000
 8003a32:	873b      	strh	r3, [r7, #56]	@ 0x38
 8003a34:	8f3b      	ldrh	r3, [r7, #56]	@ 0x38
 8003a36:	f483 5300 	eor.w	r3, r3, #8192	@ 0x2000
 8003a3a:	873b      	strh	r3, [r7, #56]	@ 0x38
 8003a3c:	687a      	ldr	r2, [r7, #4]
 8003a3e:	683b      	ldr	r3, [r7, #0]
 8003a40:	781b      	ldrb	r3, [r3, #0]
 8003a42:	009b      	lsls	r3, r3, #2
 8003a44:	441a      	add	r2, r3
 8003a46:	8f3b      	ldrh	r3, [r7, #56]	@ 0x38
 8003a48:	f043 437f 	orr.w	r3, r3, #4278190080	@ 0xff000000
 8003a4c:	f443 037f 	orr.w	r3, r3, #16711680	@ 0xff0000
 8003a50:	f443 4300 	orr.w	r3, r3, #32768	@ 0x8000
 8003a54:	f043 0380 	orr.w	r3, r3, #128	@ 0x80
 8003a58:	b29b      	uxth	r3, r3
 8003a5a:	8013      	strh	r3, [r2, #0]
      PCD_SET_EP_TX_STATUS(USBx, ep->num, USB_EP_TX_DIS);
 8003a5c:	687a      	ldr	r2, [r7, #4]
 8003a5e:	683b      	ldr	r3, [r7, #0]
 8003a60:	781b      	ldrb	r3, [r3, #0]
 8003a62:	009b      	lsls	r3, r3, #2
 8003a64:	4413      	add	r3, r2
 8003a66:	881b      	ldrh	r3, [r3, #0]
 8003a68:	b29b      	uxth	r3, r3
 8003a6a:	f423 43e0 	bic.w	r3, r3, #28672	@ 0x7000
 8003a6e:	f023 0340 	bic.w	r3, r3, #64	@ 0x40
 8003a72:	86fb      	strh	r3, [r7, #54]	@ 0x36
 8003a74:	687a      	ldr	r2, [r7, #4]
 8003a76:	683b      	ldr	r3, [r7, #0]
 8003a78:	781b      	ldrb	r3, [r3, #0]
 8003a7a:	009b      	lsls	r3, r3, #2
 8003a7c:	441a      	add	r2, r3
 8003a7e:	8efb      	ldrh	r3, [r7, #54]	@ 0x36
 8003a80:	f043 437f 	orr.w	r3, r3, #4278190080	@ 0xff000000
 8003a84:	f443 037f 	orr.w	r3, r3, #16711680	@ 0xff0000
 8003a88:	f443 4300 	orr.w	r3, r3, #32768	@ 0x8000
 8003a8c:	f043 0380 	orr.w	r3, r3, #128	@ 0x80
 8003a90:	b29b      	uxth	r3, r3
 8003a92:	8013      	strh	r3, [r2, #0]
 8003a94:	e0bc      	b.n	8003c10 <USB_ActivateEndpoint+0x770>
    }
    else
    {
      /* Clear the data toggle bits for the endpoint IN/OUT */
      PCD_CLEAR_RX_DTOG(USBx, ep->num);
 8003a96:	687a      	ldr	r2, [r7, #4]
 8003a98:	683b      	ldr	r3, [r7, #0]
 8003a9a:	781b      	ldrb	r3, [r3, #0]
 8003a9c:	009b      	lsls	r3, r3, #2
 8003a9e:	4413      	add	r3, r2
 8003aa0:	881b      	ldrh	r3, [r3, #0]
 8003aa2:	f8a7 304e 	strh.w	r3, [r7, #78]	@ 0x4e
 8003aa6:	f8b7 304e 	ldrh.w	r3, [r7, #78]	@ 0x4e
 8003aaa:	f403 4380 	and.w	r3, r3, #16384	@ 0x4000
 8003aae:	2b00      	cmp	r3, #0
 8003ab0:	d01d      	beq.n	8003aee <USB_ActivateEndpoint+0x64e>
 8003ab2:	687a      	ldr	r2, [r7, #4]
 8003ab4:	683b      	ldr	r3, [r7, #0]
 8003ab6:	781b      	ldrb	r3, [r3, #0]
 8003ab8:	009b      	lsls	r3, r3, #2
 8003aba:	4413      	add	r3, r2
 8003abc:	881b      	ldrh	r3, [r3, #0]
 8003abe:	b29b      	uxth	r3, r3
 8003ac0:	f423 43e0 	bic.w	r3, r3, #28672	@ 0x7000
 8003ac4:	f023 0370 	bic.w	r3, r3, #112	@ 0x70
 8003ac8:	f8a7 304c 	strh.w	r3, [r7, #76]	@ 0x4c
 8003acc:	687a      	ldr	r2, [r7, #4]
 8003ace:	683b      	ldr	r3, [r7, #0]
 8003ad0:	781b      	ldrb	r3, [r3, #0]
 8003ad2:	009b      	lsls	r3, r3, #2
 8003ad4:	441a      	add	r2, r3
 8003ad6:	f8b7 304c 	ldrh.w	r3, [r7, #76]	@ 0x4c
 8003ada:	f043 437f 	orr.w	r3, r3, #4278190080	@ 0xff000000
 8003ade:	f443 037f 	orr.w	r3, r3, #16711680	@ 0xff0000
 8003ae2:	f443 4340 	orr.w	r3, r3, #49152	@ 0xc000
 8003ae6:	f043 0380 	orr.w	r3, r3, #128	@ 0x80
 8003aea:	b29b      	uxth	r3, r3
 8003aec:	8013      	strh	r3, [r2, #0]
      PCD_CLEAR_TX_DTOG(USBx, ep->num);
 8003aee:	687a      	ldr	r2, [r7, #4]
 8003af0:	683b      	ldr	r3, [r7, #0]
 8003af2:	781b      	ldrb	r3, [r3, #0]
 8003af4:	009b      	lsls	r3, r3, #2
 8003af6:	4413      	add	r3, r2
 8003af8:	881b      	ldrh	r3, [r3, #0]
 8003afa:	f8a7 304a 	strh.w	r3, [r7, #74]	@ 0x4a
 8003afe:	f8b7 304a 	ldrh.w	r3, [r7, #74]	@ 0x4a
 8003b02:	f003 0340 	and.w	r3, r3, #64	@ 0x40
 8003b06:	2b00      	cmp	r3, #0
 8003b08:	d01d      	beq.n	8003b46 <USB_ActivateEndpoint+0x6a6>
 8003b0a:	687a      	ldr	r2, [r7, #4]
 8003b0c:	683b      	ldr	r3, [r7, #0]
 8003b0e:	781b      	ldrb	r3, [r3, #0]
 8003b10:	009b      	lsls	r3, r3, #2
 8003b12:	4413      	add	r3, r2
 8003b14:	881b      	ldrh	r3, [r3, #0]
 8003b16:	b29b      	uxth	r3, r3
 8003b18:	f423 43e0 	bic.w	r3, r3, #28672	@ 0x7000
 8003b1c:	f023 0370 	bic.w	r3, r3, #112	@ 0x70
 8003b20:	f8a7 3048 	strh.w	r3, [r7, #72]	@ 0x48
 8003b24:	687a      	ldr	r2, [r7, #4]
 8003b26:	683b      	ldr	r3, [r7, #0]
 8003b28:	781b      	ldrb	r3, [r3, #0]
 8003b2a:	009b      	lsls	r3, r3, #2
 8003b2c:	441a      	add	r2, r3
 8003b2e:	f8b7 3048 	ldrh.w	r3, [r7, #72]	@ 0x48
 8003b32:	f043 437f 	orr.w	r3, r3, #4278190080	@ 0xff000000
 8003b36:	f443 037f 	orr.w	r3, r3, #16711680	@ 0xff0000
 8003b3a:	f443 4300 	orr.w	r3, r3, #32768	@ 0x8000
 8003b3e:	f043 03c0 	orr.w	r3, r3, #192	@ 0xc0
 8003b42:	b29b      	uxth	r3, r3
 8003b44:	8013      	strh	r3, [r2, #0]

      if (ep->type != EP_TYPE_ISOC)
 8003b46:	683b      	ldr	r3, [r7, #0]
 8003b48:	78db      	ldrb	r3, [r3, #3]
 8003b4a:	2b01      	cmp	r3, #1
 8003b4c:	d024      	beq.n	8003b98 <USB_ActivateEndpoint+0x6f8>
      {
        /* Configure NAK status for the Endpoint */
        PCD_SET_EP_TX_STATUS(USBx, ep->num, USB_EP_TX_NAK);
 8003b4e:	687a      	ldr	r2, [r7, #4]
 8003b50:	683b      	ldr	r3, [r7, #0]
 8003b52:	781b      	ldrb	r3, [r3, #0]
 8003b54:	009b      	lsls	r3, r3, #2
 8003b56:	4413      	add	r3, r2
 8003b58:	881b      	ldrh	r3, [r3, #0]
 8003b5a:	b29b      	uxth	r3, r3
 8003b5c:	f423 43e0 	bic.w	r3, r3, #28672	@ 0x7000
 8003b60:	f023 0340 	bic.w	r3, r3, #64	@ 0x40
 8003b64:	f8a7 3044 	strh.w	r3, [r7, #68]	@ 0x44
 8003b68:	f8b7 3044 	ldrh.w	r3, [r7, #68]	@ 0x44
 8003b6c:	f083 0320 	eor.w	r3, r3, #32
 8003b70:	f8a7 3044 	strh.w	r3, [r7, #68]	@ 0x44
 8003b74:	687a      	ldr	r2, [r7, #4]
 8003b76:	683b      	ldr	r3, [r7, #0]
 8003b78:	781b      	ldrb	r3, [r3, #0]
 8003b7a:	009b      	lsls	r3, r3, #2
 8003b7c:	441a      	add	r2, r3
 8003b7e:	f8b7 3044 	ldrh.w	r3, [r7, #68]	@ 0x44
 8003b82:	f043 437f 	orr.w	r3, r3, #4278190080	@ 0xff000000
 8003b86:	f443 037f 	orr.w	r3, r3, #16711680	@ 0xff0000
 8003b8a:	f443 4300 	orr.w	r3, r3, #32768	@ 0x8000
 8003b8e:	f043 0380 	orr.w	r3, r3, #128	@ 0x80
 8003b92:	b29b      	uxth	r3, r3
 8003b94:	8013      	strh	r3, [r2, #0]
 8003b96:	e01d      	b.n	8003bd4 <USB_ActivateEndpoint+0x734>
      }
      else
      {
        /* Configure TX Endpoint to disabled state */
        PCD_SET_EP_TX_STATUS(USBx, ep->num, USB_EP_TX_DIS);
 8003b98:	687a      	ldr	r2, [r7, #4]
 8003b9a:	683b      	ldr	r3, [r7, #0]
 8003b9c:	781b      	ldrb	r3, [r3, #0]
 8003b9e:	009b      	lsls	r3, r3, #2
 8003ba0:	4413      	add	r3, r2
 8003ba2:	881b      	ldrh	r3, [r3, #0]
 8003ba4:	b29b      	uxth	r3, r3
 8003ba6:	f423 43e0 	bic.w	r3, r3, #28672	@ 0x7000
 8003baa:	f023 0340 	bic.w	r3, r3, #64	@ 0x40
 8003bae:	f8a7 3046 	strh.w	r3, [r7, #70]	@ 0x46
 8003bb2:	687a      	ldr	r2, [r7, #4]
 8003bb4:	683b      	ldr	r3, [r7, #0]
 8003bb6:	781b      	ldrb	r3, [r3, #0]
 8003bb8:	009b      	lsls	r3, r3, #2
 8003bba:	441a      	add	r2, r3
 8003bbc:	f8b7 3046 	ldrh.w	r3, [r7, #70]	@ 0x46
 8003bc0:	f043 437f 	orr.w	r3, r3, #4278190080	@ 0xff000000
 8003bc4:	f443 037f 	orr.w	r3, r3, #16711680	@ 0xff0000
 8003bc8:	f443 4300 	orr.w	r3, r3, #32768	@ 0x8000
 8003bcc:	f043 0380 	orr.w	r3, r3, #128	@ 0x80
 8003bd0:	b29b      	uxth	r3, r3
 8003bd2:	8013      	strh	r3, [r2, #0]
      }

      PCD_SET_EP_RX_STATUS(USBx, ep->num, USB_EP_RX_DIS);
 8003bd4:	687a      	ldr	r2, [r7, #4]
 8003bd6:	683b      	ldr	r3, [r7, #0]
 8003bd8:	781b      	ldrb	r3, [r3, #0]
 8003bda:	009b      	lsls	r3, r3, #2
 8003bdc:	4413      	add	r3, r2
 8003bde:	881b      	ldrh	r3, [r3, #0]
 8003be0:	b29b      	uxth	r3, r3
 8003be2:	f423 4380 	bic.w	r3, r3, #16384	@ 0x4000
 8003be6:	f023 0370 	bic.w	r3, r3, #112	@ 0x70
 8003bea:	f8a7 3042 	strh.w	r3, [r7, #66]	@ 0x42
 8003bee:	687a      	ldr	r2, [r7, #4]
 8003bf0:	683b      	ldr	r3, [r7, #0]
 8003bf2:	781b      	ldrb	r3, [r3, #0]
 8003bf4:	009b      	lsls	r3, r3, #2
 8003bf6:	441a      	add	r2, r3
 8003bf8:	f8b7 3042 	ldrh.w	r3, [r7, #66]	@ 0x42
 8003bfc:	f043 437f 	orr.w	r3, r3, #4278190080	@ 0xff000000
 8003c00:	f443 037f 	orr.w	r3, r3, #16711680	@ 0xff0000
 8003c04:	f443 4300 	orr.w	r3, r3, #32768	@ 0x8000
 8003c08:	f043 0380 	orr.w	r3, r3, #128	@ 0x80
 8003c0c:	b29b      	uxth	r3, r3
 8003c0e:	8013      	strh	r3, [r2, #0]
    }
  }
#endif /* (USE_USB_DOUBLE_BUFFER == 1U) */

  return ret;
 8003c10:	f897 306f 	ldrb.w	r3, [r7, #111]	@ 0x6f
}
 8003c14:	4618      	mov	r0, r3
 8003c16:	3774      	adds	r7, #116	@ 0x74
 8003c18:	46bd      	mov	sp, r7
 8003c1a:	bc80      	pop	{r7}
 8003c1c:	4770      	bx	lr
 8003c1e:	bf00      	nop

08003c20 <USB_DeactivateEndpoint>:
  * @param  USBx Selected device
  * @param  ep pointer to endpoint structure
  * @retval HAL status
  */
HAL_StatusTypeDef USB_DeactivateEndpoint(USB_TypeDef *USBx, USB_EPTypeDef *ep)
{
 8003c20:	b480      	push	{r7}
 8003c22:	b08d      	sub	sp, #52	@ 0x34
 8003c24:	af00      	add	r7, sp, #0
 8003c26:	6078      	str	r0, [r7, #4]
 8003c28:	6039      	str	r1, [r7, #0]
  if (ep->doublebuffer == 0U)
 8003c2a:	683b      	ldr	r3, [r7, #0]
 8003c2c:	7b1b      	ldrb	r3, [r3, #12]
 8003c2e:	2b00      	cmp	r3, #0
 8003c30:	f040 808e 	bne.w	8003d50 <USB_DeactivateEndpoint+0x130>
  {
    if (ep->is_in != 0U)
 8003c34:	683b      	ldr	r3, [r7, #0]
 8003c36:	785b      	ldrb	r3, [r3, #1]
 8003c38:	2b00      	cmp	r3, #0
 8003c3a:	d044      	beq.n	8003cc6 <USB_DeactivateEndpoint+0xa6>
    {
      PCD_CLEAR_TX_DTOG(USBx, ep->num);
 8003c3c:	687a      	ldr	r2, [r7, #4]
 8003c3e:	683b      	ldr	r3, [r7, #0]
 8003c40:	781b      	ldrb	r3, [r3, #0]
 8003c42:	009b      	lsls	r3, r3, #2
 8003c44:	4413      	add	r3, r2
 8003c46:	881b      	ldrh	r3, [r3, #0]
 8003c48:	81bb      	strh	r3, [r7, #12]
 8003c4a:	89bb      	ldrh	r3, [r7, #12]
 8003c4c:	f003 0340 	and.w	r3, r3, #64	@ 0x40
 8003c50:	2b00      	cmp	r3, #0
 8003c52:	d01b      	beq.n	8003c8c <USB_DeactivateEndpoint+0x6c>
 8003c54:	687a      	ldr	r2, [r7, #4]
 8003c56:	683b      	ldr	r3, [r7, #0]
 8003c58:	781b      	ldrb	r3, [r3, #0]
 8003c5a:	009b      	lsls	r3, r3, #2
 8003c5c:	4413      	add	r3, r2
 8003c5e:	881b      	ldrh	r3, [r3, #0]
 8003c60:	b29b      	uxth	r3, r3
 8003c62:	f423 43e0 	bic.w	r3, r3, #28672	@ 0x7000
 8003c66:	f023 0370 	bic.w	r3, r3, #112	@ 0x70
 8003c6a:	817b      	strh	r3, [r7, #10]
 8003c6c:	687a      	ldr	r2, [r7, #4]
 8003c6e:	683b      	ldr	r3, [r7, #0]
 8003c70:	781b      	ldrb	r3, [r3, #0]
 8003c72:	009b      	lsls	r3, r3, #2
 8003c74:	441a      	add	r2, r3
 8003c76:	897b      	ldrh	r3, [r7, #10]
 8003c78:	f043 437f 	orr.w	r3, r3, #4278190080	@ 0xff000000
 8003c7c:	f443 037f 	orr.w	r3, r3, #16711680	@ 0xff0000
 8003c80:	f443 4300 	orr.w	r3, r3, #32768	@ 0x8000
 8003c84:	f043 03c0 	orr.w	r3, r3, #192	@ 0xc0
 8003c88:	b29b      	uxth	r3, r3
 8003c8a:	8013      	strh	r3, [r2, #0]

      /* Configure DISABLE status for the Endpoint */
      PCD_SET_EP_TX_STATUS(USBx, ep->num, USB_EP_TX_DIS);
 8003c8c:	687a      	ldr	r2, [r7, #4]
 8003c8e:	683b      	ldr	r3, [r7, #0]
 8003c90:	781b      	ldrb	r3, [r3, #0]
 8003c92:	009b      	lsls	r3, r3, #2
 8003c94:	4413      	add	r3, r2
 8003c96:	881b      	ldrh	r3, [r3, #0]
 8003c98:	b29b      	uxth	r3, r3
 8003c9a:	f423 43e0 	bic.w	r3, r3, #28672	@ 0x7000
 8003c9e:	f023 0340 	bic.w	r3, r3, #64	@ 0x40
 8003ca2:	813b      	strh	r3, [r7, #8]
 8003ca4:	687a      	ldr	r2, [r7, #4]
 8003ca6:	683b      	ldr	r3, [r7, #0]
 8003ca8:	781b      	ldrb	r3, [r3, #0]
 8003caa:	009b      	lsls	r3, r3, #2
 8003cac:	441a      	add	r2, r3
 8003cae:	893b      	ldrh	r3, [r7, #8]
 8003cb0:	f043 437f 	orr.w	r3, r3, #4278190080	@ 0xff000000
 8003cb4:	f443 037f 	orr.w	r3, r3, #16711680	@ 0xff0000
 8003cb8:	f443 4300 	orr.w	r3, r3, #32768	@ 0x8000
 8003cbc:	f043 0380 	orr.w	r3, r3, #128	@ 0x80
 8003cc0:	b29b      	uxth	r3, r3
 8003cc2:	8013      	strh	r3, [r2, #0]
 8003cc4:	e192      	b.n	8003fec <USB_DeactivateEndpoint+0x3cc>
    }

    else
    {
      PCD_CLEAR_RX_DTOG(USBx, ep->num);
 8003cc6:	687a      	ldr	r2, [r7, #4]
 8003cc8:	683b      	ldr	r3, [r7, #0]
 8003cca:	781b      	ldrb	r3, [r3, #0]
 8003ccc:	009b      	lsls	r3, r3, #2
 8003cce:	4413      	add	r3, r2
 8003cd0:	881b      	ldrh	r3, [r3, #0]
 8003cd2:	827b      	strh	r3, [r7, #18]
 8003cd4:	8a7b      	ldrh	r3, [r7, #18]
 8003cd6:	f403 4380 	and.w	r3, r3, #16384	@ 0x4000
 8003cda:	2b00      	cmp	r3, #0
 8003cdc:	d01b      	beq.n	8003d16 <USB_DeactivateEndpoint+0xf6>
 8003cde:	687a      	ldr	r2, [r7, #4]
 8003ce0:	683b      	ldr	r3, [r7, #0]
 8003ce2:	781b      	ldrb	r3, [r3, #0]
 8003ce4:	009b      	lsls	r3, r3, #2
 8003ce6:	4413      	add	r3, r2
 8003ce8:	881b      	ldrh	r3, [r3, #0]
 8003cea:	b29b      	uxth	r3, r3
 8003cec:	f423 43e0 	bic.w	r3, r3, #28672	@ 0x7000
 8003cf0:	f023 0370 	bic.w	r3, r3, #112	@ 0x70
 8003cf4:	823b      	strh	r3, [r7, #16]
 8003cf6:	687a      	ldr	r2, [r7, #4]
 8003cf8:	683b      	ldr	r3, [r7, #0]
 8003cfa:	781b      	ldrb	r3, [r3, #0]
 8003cfc:	009b      	lsls	r3, r3, #2
 8003cfe:	441a      	add	r2, r3
 8003d00:	8a3b      	ldrh	r3, [r7, #16]
 8003d02:	f043 437f 	orr.w	r3, r3, #4278190080	@ 0xff000000
 8003d06:	f443 037f 	orr.w	r3, r3, #16711680	@ 0xff0000
 8003d0a:	f443 4340 	orr.w	r3, r3, #49152	@ 0xc000
 8003d0e:	f043 0380 	orr.w	r3, r3, #128	@ 0x80
 8003d12:	b29b      	uxth	r3, r3
 8003d14:	8013      	strh	r3, [r2, #0]

      /* Configure DISABLE status for the Endpoint */
      PCD_SET_EP_RX_STATUS(USBx, ep->num, USB_EP_RX_DIS);
 8003d16:	687a      	ldr	r2, [r7, #4]
 8003d18:	683b      	ldr	r3, [r7, #0]
 8003d1a:	781b      	ldrb	r3, [r3, #0]
 8003d1c:	009b      	lsls	r3, r3, #2
 8003d1e:	4413      	add	r3, r2
 8003d20:	881b      	ldrh	r3, [r3, #0]
 8003d22:	b29b      	uxth	r3, r3
 8003d24:	f423 4380 	bic.w	r3, r3, #16384	@ 0x4000
 8003d28:	f023 0370 	bic.w	r3, r3, #112	@ 0x70
 8003d2c:	81fb      	strh	r3, [r7, #14]
 8003d2e:	687a      	ldr	r2, [r7, #4]
 8003d30:	683b      	ldr	r3, [r7, #0]
 8003d32:	781b      	ldrb	r3, [r3, #0]
 8003d34:	009b      	lsls	r3, r3, #2
 8003d36:	441a      	add	r2, r3
 8003d38:	89fb      	ldrh	r3, [r7, #14]
 8003d3a:	f043 437f 	orr.w	r3, r3, #4278190080	@ 0xff000000
 8003d3e:	f443 037f 	orr.w	r3, r3, #16711680	@ 0xff0000
 8003d42:	f443 4300 	orr.w	r3, r3, #32768	@ 0x8000
 8003d46:	f043 0380 	orr.w	r3, r3, #128	@ 0x80
 8003d4a:	b29b      	uxth	r3, r3
 8003d4c:	8013      	strh	r3, [r2, #0]
 8003d4e:	e14d      	b.n	8003fec <USB_DeactivateEndpoint+0x3cc>
  }
#if (USE_USB_DOUBLE_BUFFER == 1U)
  /* Double Buffer */
  else
  {
    if (ep->is_in == 0U)
 8003d50:	683b      	ldr	r3, [r7, #0]
 8003d52:	785b      	ldrb	r3, [r3, #1]
 8003d54:	2b00      	cmp	r3, #0
 8003d56:	f040 80a5 	bne.w	8003ea4 <USB_DeactivateEndpoint+0x284>
    {
      /* Clear the data toggle bits for the endpoint IN/OUT*/
      PCD_CLEAR_RX_DTOG(USBx, ep->num);
 8003d5a:	687a      	ldr	r2, [r7, #4]
 8003d5c:	683b      	ldr	r3, [r7, #0]
 8003d5e:	781b      	ldrb	r3, [r3, #0]
 8003d60:	009b      	lsls	r3, r3, #2
 8003d62:	4413      	add	r3, r2
 8003d64:	881b      	ldrh	r3, [r3, #0]
 8003d66:	843b      	strh	r3, [r7, #32]
 8003d68:	8c3b      	ldrh	r3, [r7, #32]
 8003d6a:	f403 4380 	and.w	r3, r3, #16384	@ 0x4000
 8003d6e:	2b00      	cmp	r3, #0
 8003d70:	d01b      	beq.n	8003daa <USB_DeactivateEndpoint+0x18a>
 8003d72:	687a      	ldr	r2, [r7, #4]
 8003d74:	683b      	ldr	r3, [r7, #0]
 8003d76:	781b      	ldrb	r3, [r3, #0]
 8003d78:	009b      	lsls	r3, r3, #2
 8003d7a:	4413      	add	r3, r2
 8003d7c:	881b      	ldrh	r3, [r3, #0]
 8003d7e:	b29b      	uxth	r3, r3
 8003d80:	f423 43e0 	bic.w	r3, r3, #28672	@ 0x7000
 8003d84:	f023 0370 	bic.w	r3, r3, #112	@ 0x70
 8003d88:	83fb      	strh	r3, [r7, #30]
 8003d8a:	687a      	ldr	r2, [r7, #4]
 8003d8c:	683b      	ldr	r3, [r7, #0]
 8003d8e:	781b      	ldrb	r3, [r3, #0]
 8003d90:	009b      	lsls	r3, r3, #2
 8003d92:	441a      	add	r2, r3
 8003d94:	8bfb      	ldrh	r3, [r7, #30]
 8003d96:	f043 437f 	orr.w	r3, r3, #4278190080	@ 0xff000000
 8003d9a:	f443 037f 	orr.w	r3, r3, #16711680	@ 0xff0000
 8003d9e:	f443 4340 	orr.w	r3, r3, #49152	@ 0xc000
 8003da2:	f043 0380 	orr.w	r3, r3, #128	@ 0x80
 8003da6:	b29b      	uxth	r3, r3
 8003da8:	8013      	strh	r3, [r2, #0]
      PCD_CLEAR_TX_DTOG(USBx, ep->num);
 8003daa:	687a      	ldr	r2, [r7, #4]
 8003dac:	683b      	ldr	r3, [r7, #0]
 8003dae:	781b      	ldrb	r3, [r3, #0]
 8003db0:	009b      	lsls	r3, r3, #2
 8003db2:	4413      	add	r3, r2
 8003db4:	881b      	ldrh	r3, [r3, #0]
 8003db6:	83bb      	strh	r3, [r7, #28]
 8003db8:	8bbb      	ldrh	r3, [r7, #28]
 8003dba:	f003 0340 	and.w	r3, r3, #64	@ 0x40
 8003dbe:	2b00      	cmp	r3, #0
 8003dc0:	d01b      	beq.n	8003dfa <USB_DeactivateEndpoint+0x1da>
 8003dc2:	687a      	ldr	r2, [r7, #4]
 8003dc4:	683b      	ldr	r3, [r7, #0]
 8003dc6:	781b      	ldrb	r3, [r3, #0]
 8003dc8:	009b      	lsls	r3, r3, #2
 8003dca:	4413      	add	r3, r2
 8003dcc:	881b      	ldrh	r3, [r3, #0]
 8003dce:	b29b      	uxth	r3, r3
 8003dd0:	f423 43e0 	bic.w	r3, r3, #28672	@ 0x7000
 8003dd4:	f023 0370 	bic.w	r3, r3, #112	@ 0x70
 8003dd8:	837b      	strh	r3, [r7, #26]
 8003dda:	687a      	ldr	r2, [r7, #4]
 8003ddc:	683b      	ldr	r3, [r7, #0]
 8003dde:	781b      	ldrb	r3, [r3, #0]
 8003de0:	009b      	lsls	r3, r3, #2
 8003de2:	441a      	add	r2, r3
 8003de4:	8b7b      	ldrh	r3, [r7, #26]
 8003de6:	f043 437f 	orr.w	r3, r3, #4278190080	@ 0xff000000
 8003dea:	f443 037f 	orr.w	r3, r3, #16711680	@ 0xff0000
 8003dee:	f443 4300 	orr.w	r3, r3, #32768	@ 0x8000
 8003df2:	f043 03c0 	orr.w	r3, r3, #192	@ 0xc0
 8003df6:	b29b      	uxth	r3, r3
 8003df8:	8013      	strh	r3, [r2, #0]

      /* Reset value of the data toggle bits for the endpoint out*/
      PCD_TX_DTOG(USBx, ep->num);
 8003dfa:	687a      	ldr	r2, [r7, #4]
 8003dfc:	683b      	ldr	r3, [r7, #0]
 8003dfe:	781b      	ldrb	r3, [r3, #0]
 8003e00:	009b      	lsls	r3, r3, #2
 8003e02:	4413      	add	r3, r2
 8003e04:	881b      	ldrh	r3, [r3, #0]
 8003e06:	b29b      	uxth	r3, r3
 8003e08:	f423 43e0 	bic.w	r3, r3, #28672	@ 0x7000
 8003e0c:	f023 0370 	bic.w	r3, r3, #112	@ 0x70
 8003e10:	833b      	strh	r3, [r7, #24]
 8003e12:	687a      	ldr	r2, [r7, #4]
 8003e14:	683b      	ldr	r3, [r7, #0]
 8003e16:	781b      	ldrb	r3, [r3, #0]
 8003e18:	009b      	lsls	r3, r3, #2
 8003e1a:	441a      	add	r2, r3
 8003e1c:	8b3b      	ldrh	r3, [r7, #24]
 8003e1e:	f043 437f 	orr.w	r3, r3, #4278190080	@ 0xff000000
 8003e22:	f443 037f 	orr.w	r3, r3, #16711680	@ 0xff0000
 8003e26:	f443 4300 	orr.w	r3, r3, #32768	@ 0x8000
 8003e2a:	f043 03c0 	orr.w	r3, r3, #192	@ 0xc0
 8003e2e:	b29b      	uxth	r3, r3
 8003e30:	8013      	strh	r3, [r2, #0]

      PCD_SET_EP_RX_STATUS(USBx, ep->num, USB_EP_RX_DIS);
 8003e32:	687a      	ldr	r2, [r7, #4]
 8003e34:	683b      	ldr	r3, [r7, #0]
 8003e36:	781b      	ldrb	r3, [r3, #0]
 8003e38:	009b      	lsls	r3, r3, #2
 8003e3a:	4413      	add	r3, r2
 8003e3c:	881b      	ldrh	r3, [r3, #0]
 8003e3e:	b29b      	uxth	r3, r3
 8003e40:	f423 4380 	bic.w	r3, r3, #16384	@ 0x4000
 8003e44:	f023 0370 	bic.w	r3, r3, #112	@ 0x70
 8003e48:	82fb      	strh	r3, [r7, #22]
 8003e4a:	687a      	ldr	r2, [r7, #4]
 8003e4c:	683b      	ldr	r3, [r7, #0]
 8003e4e:	781b      	ldrb	r3, [r3, #0]
 8003e50:	009b      	lsls	r3, r3, #2
 8003e52:	441a      	add	r2, r3
 8003e54:	8afb      	ldrh	r3, [r7, #22]
 8003e56:	f043 437f 	orr.w	r3, r3, #4278190080	@ 0xff000000
 8003e5a:	f443 037f 	orr.w	r3, r3, #16711680	@ 0xff0000
 8003e5e:	f443 4300 	orr.w	r3, r3, #32768	@ 0x8000
 8003e62:	f043 0380 	orr.w	r3, r3, #128	@ 0x80
 8003e66:	b29b      	uxth	r3, r3
 8003e68:	8013      	strh	r3, [r2, #0]
      PCD_SET_EP_TX_STATUS(USBx, ep->num, USB_EP_TX_DIS);
 8003e6a:	687a      	ldr	r2, [r7, #4]
 8003e6c:	683b      	ldr	r3, [r7, #0]
 8003e6e:	781b      	ldrb	r3, [r3, #0]
 8003e70:	009b      	lsls	r3, r3, #2
 8003e72:	4413      	add	r3, r2
 8003e74:	881b      	ldrh	r3, [r3, #0]
 8003e76:	b29b      	uxth	r3, r3
 8003e78:	f423 43e0 	bic.w	r3, r3, #28672	@ 0x7000
 8003e7c:	f023 0340 	bic.w	r3, r3, #64	@ 0x40
 8003e80:	82bb      	strh	r3, [r7, #20]
 8003e82:	687a      	ldr	r2, [r7, #4]
 8003e84:	683b      	ldr	r3, [r7, #0]
 8003e86:	781b      	ldrb	r3, [r3, #0]
 8003e88:	009b      	lsls	r3, r3, #2
 8003e8a:	441a      	add	r2, r3
 8003e8c:	8abb      	ldrh	r3, [r7, #20]
 8003e8e:	f043 437f 	orr.w	r3, r3, #4278190080	@ 0xff000000
 8003e92:	f443 037f 	orr.w	r3, r3, #16711680	@ 0xff0000
 8003e96:	f443 4300 	orr.w	r3, r3, #32768	@ 0x8000
 8003e9a:	f043 0380 	orr.w	r3, r3, #128	@ 0x80
 8003e9e:	b29b      	uxth	r3, r3
 8003ea0:	8013      	strh	r3, [r2, #0]
 8003ea2:	e0a3      	b.n	8003fec <USB_DeactivateEndpoint+0x3cc>
    }
    else
    {
      /* Clear the data toggle bits for the endpoint IN/OUT*/
      PCD_CLEAR_RX_DTOG(USBx, ep->num);
 8003ea4:	687a      	ldr	r2, [r7, #4]
 8003ea6:	683b      	ldr	r3, [r7, #0]
 8003ea8:	781b      	ldrb	r3, [r3, #0]
 8003eaa:	009b      	lsls	r3, r3, #2
 8003eac:	4413      	add	r3, r2
 8003eae:	881b      	ldrh	r3, [r3, #0]
 8003eb0:	85fb      	strh	r3, [r7, #46]	@ 0x2e
 8003eb2:	8dfb      	ldrh	r3, [r7, #46]	@ 0x2e
 8003eb4:	f403 4380 	and.w	r3, r3, #16384	@ 0x4000
 8003eb8:	2b00      	cmp	r3, #0
 8003eba:	d01b      	beq.n	8003ef4 <USB_DeactivateEndpoint+0x2d4>
 8003ebc:	687a      	ldr	r2, [r7, #4]
 8003ebe:	683b      	ldr	r3, [r7, #0]
 8003ec0:	781b      	ldrb	r3, [r3, #0]
 8003ec2:	009b      	lsls	r3, r3, #2
 8003ec4:	4413      	add	r3, r2
 8003ec6:	881b      	ldrh	r3, [r3, #0]
 8003ec8:	b29b      	uxth	r3, r3
 8003eca:	f423 43e0 	bic.w	r3, r3, #28672	@ 0x7000
 8003ece:	f023 0370 	bic.w	r3, r3, #112	@ 0x70
 8003ed2:	85bb      	strh	r3, [r7, #44]	@ 0x2c
 8003ed4:	687a      	ldr	r2, [r7, #4]
 8003ed6:	683b      	ldr	r3, [r7, #0]
 8003ed8:	781b      	ldrb	r3, [r3, #0]
 8003eda:	009b      	lsls	r3, r3, #2
 8003edc:	441a      	add	r2, r3
 8003ede:	8dbb      	ldrh	r3, [r7, #44]	@ 0x2c
 8003ee0:	f043 437f 	orr.w	r3, r3, #4278190080	@ 0xff000000
 8003ee4:	f443 037f 	orr.w	r3, r3, #16711680	@ 0xff0000
 8003ee8:	f443 4340 	orr.w	r3, r3, #49152	@ 0xc000
 8003eec:	f043 0380 	orr.w	r3, r3, #128	@ 0x80
 8003ef0:	b29b      	uxth	r3, r3
 8003ef2:	8013      	strh	r3, [r2, #0]
      PCD_CLEAR_TX_DTOG(USBx, ep->num);
 8003ef4:	687a      	ldr	r2, [r7, #4]
 8003ef6:	683b      	ldr	r3, [r7, #0]
 8003ef8:	781b      	ldrb	r3, [r3, #0]
 8003efa:	009b      	lsls	r3, r3, #2
 8003efc:	4413      	add	r3, r2
 8003efe:	881b      	ldrh	r3, [r3, #0]
 8003f00:	857b      	strh	r3, [r7, #42]	@ 0x2a
 8003f02:	8d7b      	ldrh	r3, [r7, #42]	@ 0x2a
 8003f04:	f003 0340 	and.w	r3, r3, #64	@ 0x40
 8003f08:	2b00      	cmp	r3, #0
 8003f0a:	d01b      	beq.n	8003f44 <USB_DeactivateEndpoint+0x324>
 8003f0c:	687a      	ldr	r2, [r7, #4]
 8003f0e:	683b      	ldr	r3, [r7, #0]
 8003f10:	781b      	ldrb	r3, [r3, #0]
 8003f12:	009b      	lsls	r3, r3, #2
 8003f14:	4413      	add	r3, r2
 8003f16:	881b      	ldrh	r3, [r3, #0]
 8003f18:	b29b      	uxth	r3, r3
 8003f1a:	f423 43e0 	bic.w	r3, r3, #28672	@ 0x7000
 8003f1e:	f023 0370 	bic.w	r3, r3, #112	@ 0x70
 8003f22:	853b      	strh	r3, [r7, #40]	@ 0x28
 8003f24:	687a      	ldr	r2, [r7, #4]
 8003f26:	683b      	ldr	r3, [r7, #0]
 8003f28:	781b      	ldrb	r3, [r3, #0]
 8003f2a:	009b      	lsls	r3, r3, #2
 8003f2c:	441a      	add	r2, r3
 8003f2e:	8d3b      	ldrh	r3, [r7, #40]	@ 0x28
 8003f30:	f043 437f 	orr.w	r3, r3, #4278190080	@ 0xff000000
 8003f34:	f443 037f 	orr.w	r3, r3, #16711680	@ 0xff0000
 8003f38:	f443 4300 	orr.w	r3, r3, #32768	@ 0x8000
 8003f3c:	f043 03c0 	orr.w	r3, r3, #192	@ 0xc0
 8003f40:	b29b      	uxth	r3, r3
 8003f42:	8013      	strh	r3, [r2, #0]
      PCD_RX_DTOG(USBx, ep->num);
 8003f44:	687a      	ldr	r2, [r7, #4]
 8003f46:	683b      	ldr	r3, [r7, #0]
 8003f48:	781b      	ldrb	r3, [r3, #0]
 8003f4a:	009b      	lsls	r3, r3, #2
 8003f4c:	4413      	add	r3, r2
 8003f4e:	881b      	ldrh	r3, [r3, #0]
 8003f50:	b29b      	uxth	r3, r3
 8003f52:	f423 43e0 	bic.w	r3, r3, #28672	@ 0x7000
 8003f56:	f023 0370 	bic.w	r3, r3, #112	@ 0x70
 8003f5a:	84fb      	strh	r3, [r7, #38]	@ 0x26
 8003f5c:	687a      	ldr	r2, [r7, #4]
 8003f5e:	683b      	ldr	r3, [r7, #0]
 8003f60:	781b      	ldrb	r3, [r3, #0]
 8003f62:	009b      	lsls	r3, r3, #2
 8003f64:	441a      	add	r2, r3
 8003f66:	8cfb      	ldrh	r3, [r7, #38]	@ 0x26
 8003f68:	f043 437f 	orr.w	r3, r3, #4278190080	@ 0xff000000
 8003f6c:	f443 037f 	orr.w	r3, r3, #16711680	@ 0xff0000
 8003f70:	f443 4340 	orr.w	r3, r3, #49152	@ 0xc000
 8003f74:	f043 0380 	orr.w	r3, r3, #128	@ 0x80
 8003f78:	b29b      	uxth	r3, r3
 8003f7a:	8013      	strh	r3, [r2, #0]

      /* Configure DISABLE status for the Endpoint*/
      PCD_SET_EP_TX_STATUS(USBx, ep->num, USB_EP_TX_DIS);
 8003f7c:	687a      	ldr	r2, [r7, #4]
 8003f7e:	683b      	ldr	r3, [r7, #0]
 8003f80:	781b      	ldrb	r3, [r3, #0]
 8003f82:	009b      	lsls	r3, r3, #2
 8003f84:	4413      	add	r3, r2
 8003f86:	881b      	ldrh	r3, [r3, #0]
 8003f88:	b29b      	uxth	r3, r3
 8003f8a:	f423 43e0 	bic.w	r3, r3, #28672	@ 0x7000
 8003f8e:	f023 0340 	bic.w	r3, r3, #64	@ 0x40
 8003f92:	84bb      	strh	r3, [r7, #36]	@ 0x24
 8003f94:	687a      	ldr	r2, [r7, #4]
 8003f96:	683b      	ldr	r3, [r7, #0]
 8003f98:	781b      	ldrb	r3, [r3, #0]
 8003f9a:	009b      	lsls	r3, r3, #2
 8003f9c:	441a      	add	r2, r3
 8003f9e:	8cbb      	ldrh	r3, [r7, #36]	@ 0x24
 8003fa0:	f043 437f 	orr.w	r3, r3, #4278190080	@ 0xff000000
 8003fa4:	f443 037f 	orr.w	r3, r3, #16711680	@ 0xff0000
 8003fa8:	f443 4300 	orr.w	r3, r3, #32768	@ 0x8000
 8003fac:	f043 0380 	orr.w	r3, r3, #128	@ 0x80
 8003fb0:	b29b      	uxth	r3, r3
 8003fb2:	8013      	strh	r3, [r2, #0]
      PCD_SET_EP_RX_STATUS(USBx, ep->num, USB_EP_RX_DIS);
 8003fb4:	687a      	ldr	r2, [r7, #4]
 8003fb6:	683b      	ldr	r3, [r7, #0]
 8003fb8:	781b      	ldrb	r3, [r3, #0]
 8003fba:	009b      	lsls	r3, r3, #2
 8003fbc:	4413      	add	r3, r2
 8003fbe:	881b      	ldrh	r3, [r3, #0]
 8003fc0:	b29b      	uxth	r3, r3
 8003fc2:	f423 4380 	bic.w	r3, r3, #16384	@ 0x4000
 8003fc6:	f023 0370 	bic.w	r3, r3, #112	@ 0x70
 8003fca:	847b      	strh	r3, [r7, #34]	@ 0x22
 8003fcc:	687a      	ldr	r2, [r7, #4]
 8003fce:	683b      	ldr	r3, [r7, #0]
 8003fd0:	781b      	ldrb	r3, [r3, #0]
 8003fd2:	009b      	lsls	r3, r3, #2
 8003fd4:	441a      	add	r2, r3
 8003fd6:	8c7b      	ldrh	r3, [r7, #34]	@ 0x22
 8003fd8:	f043 437f 	orr.w	r3, r3, #4278190080	@ 0xff000000
 8003fdc:	f443 037f 	orr.w	r3, r3, #16711680	@ 0xff0000
 8003fe0:	f443 4300 	orr.w	r3, r3, #32768	@ 0x8000
 8003fe4:	f043 0380 	orr.w	r3, r3, #128	@ 0x80
 8003fe8:	b29b      	uxth	r3, r3
 8003fea:	8013      	strh	r3, [r2, #0]
    }
  }
#endif /* (USE_USB_DOUBLE_BUFFER == 1U) */

  return HAL_OK;
 8003fec:	2300      	movs	r3, #0
}
 8003fee:	4618      	mov	r0, r3
 8003ff0:	3734      	adds	r7, #52	@ 0x34
 8003ff2:	46bd      	mov	sp, r7
 8003ff4:	bc80      	pop	{r7}
 8003ff6:	4770      	bx	lr

08003ff8 <USB_EPStartXfer>:
  * @param  USBx Selected device
  * @param  ep pointer to endpoint structure
  * @retval HAL status
  */
HAL_StatusTypeDef USB_EPStartXfer(USB_TypeDef *USBx, USB_EPTypeDef *ep)
{
 8003ff8:	b580      	push	{r7, lr}
 8003ffa:	b0c2      	sub	sp, #264	@ 0x108
 8003ffc:	af00      	add	r7, sp, #0
 8003ffe:	f507 7384 	add.w	r3, r7, #264	@ 0x108
 8004002:	f5a3 7382 	sub.w	r3, r3, #260	@ 0x104
 8004006:	6018      	str	r0, [r3, #0]
 8004008:	f507 7384 	add.w	r3, r7, #264	@ 0x108
 800400c:	f5a3 7384 	sub.w	r3, r3, #264	@ 0x108
 8004010:	6019      	str	r1, [r3, #0]
  uint16_t pmabuffer;
  uint16_t wEPVal;
#endif /* (USE_USB_DOUBLE_BUFFER == 1U) */

  /* IN endpoint */
  if (ep->is_in == 1U)
 8004012:	f507 7384 	add.w	r3, r7, #264	@ 0x108
 8004016:	f5a3 7384 	sub.w	r3, r3, #264	@ 0x108
 800401a:	681b      	ldr	r3, [r3, #0]
 800401c:	785b      	ldrb	r3, [r3, #1]
 800401e:	2b01      	cmp	r3, #1
 8004020:	f040 86b7 	bne.w	8004d92 <USB_EPStartXfer+0xd9a>
  {
    /*Multi packet transfer*/
    if (ep->xfer_len > ep->maxpacket)
 8004024:	f507 7384 	add.w	r3, r7, #264	@ 0x108
 8004028:	f5a3 7384 	sub.w	r3, r3, #264	@ 0x108
 800402c:	681b      	ldr	r3, [r3, #0]
 800402e:	699a      	ldr	r2, [r3, #24]
 8004030:	f507 7384 	add.w	r3, r7, #264	@ 0x108
 8004034:	f5a3 7384 	sub.w	r3, r3, #264	@ 0x108
 8004038:	681b      	ldr	r3, [r3, #0]
 800403a:	691b      	ldr	r3, [r3, #16]
 800403c:	429a      	cmp	r2, r3
 800403e:	d908      	bls.n	8004052 <USB_EPStartXfer+0x5a>
    {
      len = ep->maxpacket;
 8004040:	f507 7384 	add.w	r3, r7, #264	@ 0x108
 8004044:	f5a3 7384 	sub.w	r3, r3, #264	@ 0x108
 8004048:	681b      	ldr	r3, [r3, #0]
 800404a:	691b      	ldr	r3, [r3, #16]
 800404c:	f8c7 3104 	str.w	r3, [r7, #260]	@ 0x104
 8004050:	e007      	b.n	8004062 <USB_EPStartXfer+0x6a>
    }
    else
    {
      len = ep->xfer_len;
 8004052:	f507 7384 	add.w	r3, r7, #264	@ 0x108
 8004056:	f5a3 7384 	sub.w	r3, r3, #264	@ 0x108
 800405a:	681b      	ldr	r3, [r3, #0]
 800405c:	699b      	ldr	r3, [r3, #24]
 800405e:	f8c7 3104 	str.w	r3, [r7, #260]	@ 0x104
    }

    /* configure and validate Tx endpoint */
    if (ep->doublebuffer == 0U)
 8004062:	f507 7384 	add.w	r3, r7, #264	@ 0x108
 8004066:	f5a3 7384 	sub.w	r3, r3, #264	@ 0x108
 800406a:	681b      	ldr	r3, [r3, #0]
 800406c:	7b1b      	ldrb	r3, [r3, #12]
 800406e:	2b00      	cmp	r3, #0
 8004070:	d13a      	bne.n	80040e8 <USB_EPStartXfer+0xf0>
    {
      USB_WritePMA(USBx, ep->xfer_buff, ep->pmaadress, (uint16_t)len);
 8004072:	f507 7384 	add.w	r3, r7, #264	@ 0x108
 8004076:	f5a3 7384 	sub.w	r3, r3, #264	@ 0x108
 800407a:	681b      	ldr	r3, [r3, #0]
 800407c:	6959      	ldr	r1, [r3, #20]
 800407e:	f507 7384 	add.w	r3, r7, #264	@ 0x108
 8004082:	f5a3 7384 	sub.w	r3, r3, #264	@ 0x108
 8004086:	681b      	ldr	r3, [r3, #0]
 8004088:	88da      	ldrh	r2, [r3, #6]
 800408a:	f8d7 3104 	ldr.w	r3, [r7, #260]	@ 0x104
 800408e:	b29b      	uxth	r3, r3
 8004090:	f507 7084 	add.w	r0, r7, #264	@ 0x108
 8004094:	f5a0 7082 	sub.w	r0, r0, #260	@ 0x104
 8004098:	6800      	ldr	r0, [r0, #0]
 800409a:	f001 fc9c 	bl	80059d6 <USB_WritePMA>
      PCD_SET_EP_TX_CNT(USBx, ep->num, len);
 800409e:	f507 7384 	add.w	r3, r7, #264	@ 0x108
 80040a2:	f5a3 7382 	sub.w	r3, r3, #260	@ 0x104
 80040a6:	681b      	ldr	r3, [r3, #0]
 80040a8:	613b      	str	r3, [r7, #16]
 80040aa:	f507 7384 	add.w	r3, r7, #264	@ 0x108
 80040ae:	f5a3 7382 	sub.w	r3, r3, #260	@ 0x104
 80040b2:	681b      	ldr	r3, [r3, #0]
 80040b4:	f8b3 3050 	ldrh.w	r3, [r3, #80]	@ 0x50
 80040b8:	b29b      	uxth	r3, r3
 80040ba:	461a      	mov	r2, r3
 80040bc:	693b      	ldr	r3, [r7, #16]
 80040be:	4413      	add	r3, r2
 80040c0:	613b      	str	r3, [r7, #16]
 80040c2:	f507 7384 	add.w	r3, r7, #264	@ 0x108
 80040c6:	f5a3 7384 	sub.w	r3, r3, #264	@ 0x108
 80040ca:	681b      	ldr	r3, [r3, #0]
 80040cc:	781b      	ldrb	r3, [r3, #0]
 80040ce:	011a      	lsls	r2, r3, #4
 80040d0:	693b      	ldr	r3, [r7, #16]
 80040d2:	4413      	add	r3, r2
 80040d4:	f203 4304 	addw	r3, r3, #1028	@ 0x404
 80040d8:	60fb      	str	r3, [r7, #12]
 80040da:	f8d7 3104 	ldr.w	r3, [r7, #260]	@ 0x104
 80040de:	b29a      	uxth	r2, r3
 80040e0:	68fb      	ldr	r3, [r7, #12]
 80040e2:	801a      	strh	r2, [r3, #0]
 80040e4:	f000 be1f 	b.w	8004d26 <USB_EPStartXfer+0xd2e>
    }
#if (USE_USB_DOUBLE_BUFFER == 1U)
    else
    {
      /* double buffer bulk management */
      if (ep->type == EP_TYPE_BULK)
 80040e8:	f507 7384 	add.w	r3, r7, #264	@ 0x108
 80040ec:	f5a3 7384 	sub.w	r3, r3, #264	@ 0x108
 80040f0:	681b      	ldr	r3, [r3, #0]
 80040f2:	78db      	ldrb	r3, [r3, #3]
 80040f4:	2b02      	cmp	r3, #2
 80040f6:	f040 8462 	bne.w	80049be <USB_EPStartXfer+0x9c6>
      {
        if (ep->xfer_len_db > ep->maxpacket)
 80040fa:	f507 7384 	add.w	r3, r7, #264	@ 0x108
 80040fe:	f5a3 7384 	sub.w	r3, r3, #264	@ 0x108
 8004102:	681b      	ldr	r3, [r3, #0]
 8004104:	6a1a      	ldr	r2, [r3, #32]
 8004106:	f507 7384 	add.w	r3, r7, #264	@ 0x108
 800410a:	f5a3 7384 	sub.w	r3, r3, #264	@ 0x108
 800410e:	681b      	ldr	r3, [r3, #0]
 8004110:	691b      	ldr	r3, [r3, #16]
 8004112:	429a      	cmp	r2, r3
 8004114:	f240 83df 	bls.w	80048d6 <USB_EPStartXfer+0x8de>
        {
          /* enable double buffer */
          PCD_SET_BULK_EP_DBUF(USBx, ep->num);
 8004118:	f507 7384 	add.w	r3, r7, #264	@ 0x108
 800411c:	f5a3 7382 	sub.w	r3, r3, #260	@ 0x104
 8004120:	681a      	ldr	r2, [r3, #0]
 8004122:	f507 7384 	add.w	r3, r7, #264	@ 0x108
 8004126:	f5a3 7384 	sub.w	r3, r3, #264	@ 0x108
 800412a:	681b      	ldr	r3, [r3, #0]
 800412c:	781b      	ldrb	r3, [r3, #0]
 800412e:	009b      	lsls	r3, r3, #2
 8004130:	4413      	add	r3, r2
 8004132:	881b      	ldrh	r3, [r3, #0]
 8004134:	b29b      	uxth	r3, r3
 8004136:	f423 43e0 	bic.w	r3, r3, #28672	@ 0x7000
 800413a:	f023 0370 	bic.w	r3, r3, #112	@ 0x70
 800413e:	f8a7 3056 	strh.w	r3, [r7, #86]	@ 0x56
 8004142:	f507 7384 	add.w	r3, r7, #264	@ 0x108
 8004146:	f5a3 7382 	sub.w	r3, r3, #260	@ 0x104
 800414a:	681a      	ldr	r2, [r3, #0]
 800414c:	f507 7384 	add.w	r3, r7, #264	@ 0x108
 8004150:	f5a3 7384 	sub.w	r3, r3, #264	@ 0x108
 8004154:	681b      	ldr	r3, [r3, #0]
 8004156:	781b      	ldrb	r3, [r3, #0]
 8004158:	009b      	lsls	r3, r3, #2
 800415a:	441a      	add	r2, r3
 800415c:	f8b7 3056 	ldrh.w	r3, [r7, #86]	@ 0x56
 8004160:	f043 437f 	orr.w	r3, r3, #4278190080	@ 0xff000000
 8004164:	f443 037f 	orr.w	r3, r3, #16711680	@ 0xff0000
 8004168:	f443 4301 	orr.w	r3, r3, #33024	@ 0x8100
 800416c:	f043 0380 	orr.w	r3, r3, #128	@ 0x80
 8004170:	b29b      	uxth	r3, r3
 8004172:	8013      	strh	r3, [r2, #0]

          /* each Time to write in PMA xfer_len_db will */
          ep->xfer_len_db -= len;
 8004174:	f507 7384 	add.w	r3, r7, #264	@ 0x108
 8004178:	f5a3 7384 	sub.w	r3, r3, #264	@ 0x108
 800417c:	681b      	ldr	r3, [r3, #0]
 800417e:	6a1a      	ldr	r2, [r3, #32]
 8004180:	f8d7 3104 	ldr.w	r3, [r7, #260]	@ 0x104
 8004184:	1ad2      	subs	r2, r2, r3
 8004186:	f507 7384 	add.w	r3, r7, #264	@ 0x108
 800418a:	f5a3 7384 	sub.w	r3, r3, #264	@ 0x108
 800418e:	681b      	ldr	r3, [r3, #0]
 8004190:	621a      	str	r2, [r3, #32]

          /* Fill the two first buffer in the Buffer0 & Buffer1 */
          if ((PCD_GET_ENDPOINT(USBx, ep->num) & USB_EP_DTOG_TX) != 0U)
 8004192:	f507 7384 	add.w	r3, r7, #264	@ 0x108
 8004196:	f5a3 7382 	sub.w	r3, r3, #260	@ 0x104
 800419a:	681a      	ldr	r2, [r3, #0]
 800419c:	f507 7384 	add.w	r3, r7, #264	@ 0x108
 80041a0:	f5a3 7384 	sub.w	r3, r3, #264	@ 0x108
 80041a4:	681b      	ldr	r3, [r3, #0]
 80041a6:	781b      	ldrb	r3, [r3, #0]
 80041a8:	009b      	lsls	r3, r3, #2
 80041aa:	4413      	add	r3, r2
 80041ac:	881b      	ldrh	r3, [r3, #0]
 80041ae:	b29b      	uxth	r3, r3
 80041b0:	f003 0340 	and.w	r3, r3, #64	@ 0x40
 80041b4:	2b00      	cmp	r3, #0
 80041b6:	f000 81c7 	beq.w	8004548 <USB_EPStartXfer+0x550>
          {
            /* Set the Double buffer counter for pmabuffer1 */
            PCD_SET_EP_DBUF1_CNT(USBx, ep->num, ep->is_in, len);
 80041ba:	f507 7384 	add.w	r3, r7, #264	@ 0x108
 80041be:	f5a3 7382 	sub.w	r3, r3, #260	@ 0x104
 80041c2:	681b      	ldr	r3, [r3, #0]
 80041c4:	633b      	str	r3, [r7, #48]	@ 0x30
 80041c6:	f507 7384 	add.w	r3, r7, #264	@ 0x108
 80041ca:	f5a3 7384 	sub.w	r3, r3, #264	@ 0x108
 80041ce:	681b      	ldr	r3, [r3, #0]
 80041d0:	785b      	ldrb	r3, [r3, #1]
 80041d2:	2b00      	cmp	r3, #0
 80041d4:	d177      	bne.n	80042c6 <USB_EPStartXfer+0x2ce>
 80041d6:	f507 7384 	add.w	r3, r7, #264	@ 0x108
 80041da:	f5a3 7382 	sub.w	r3, r3, #260	@ 0x104
 80041de:	681b      	ldr	r3, [r3, #0]
 80041e0:	62bb      	str	r3, [r7, #40]	@ 0x28
 80041e2:	f507 7384 	add.w	r3, r7, #264	@ 0x108
 80041e6:	f5a3 7382 	sub.w	r3, r3, #260	@ 0x104
 80041ea:	681b      	ldr	r3, [r3, #0]
 80041ec:	f8b3 3050 	ldrh.w	r3, [r3, #80]	@ 0x50
 80041f0:	b29b      	uxth	r3, r3
 80041f2:	461a      	mov	r2, r3
 80041f4:	6abb      	ldr	r3, [r7, #40]	@ 0x28
 80041f6:	4413      	add	r3, r2
 80041f8:	62bb      	str	r3, [r7, #40]	@ 0x28
 80041fa:	f507 7384 	add.w	r3, r7, #264	@ 0x108
 80041fe:	f5a3 7384 	sub.w	r3, r3, #264	@ 0x108
 8004202:	681b      	ldr	r3, [r3, #0]
 8004204:	781b      	ldrb	r3, [r3, #0]
 8004206:	011a      	lsls	r2, r3, #4
 8004208:	6abb      	ldr	r3, [r7, #40]	@ 0x28
 800420a:	4413      	add	r3, r2
 800420c:	f203 430c 	addw	r3, r3, #1036	@ 0x40c
 8004210:	627b      	str	r3, [r7, #36]	@ 0x24
 8004212:	6a7b      	ldr	r3, [r7, #36]	@ 0x24
 8004214:	881b      	ldrh	r3, [r3, #0]
 8004216:	b29b      	uxth	r3, r3
 8004218:	f3c3 0309 	ubfx	r3, r3, #0, #10
 800421c:	b29a      	uxth	r2, r3
 800421e:	6a7b      	ldr	r3, [r7, #36]	@ 0x24
 8004220:	801a      	strh	r2, [r3, #0]
 8004222:	f8d7 3104 	ldr.w	r3, [r7, #260]	@ 0x104
 8004226:	2b3e      	cmp	r3, #62	@ 0x3e
 8004228:	d921      	bls.n	800426e <USB_EPStartXfer+0x276>
 800422a:	f8d7 3104 	ldr.w	r3, [r7, #260]	@ 0x104
 800422e:	095b      	lsrs	r3, r3, #5
 8004230:	f8c7 3100 	str.w	r3, [r7, #256]	@ 0x100
 8004234:	f8d7 3104 	ldr.w	r3, [r7, #260]	@ 0x104
 8004238:	f003 031f 	and.w	r3, r3, #31
 800423c:	2b00      	cmp	r3, #0
 800423e:	d104      	bne.n	800424a <USB_EPStartXfer+0x252>
 8004240:	f8d7 3100 	ldr.w	r3, [r7, #256]	@ 0x100
 8004244:	3b01      	subs	r3, #1
 8004246:	f8c7 3100 	str.w	r3, [r7, #256]	@ 0x100
 800424a:	6a7b      	ldr	r3, [r7, #36]	@ 0x24
 800424c:	881b      	ldrh	r3, [r3, #0]
 800424e:	b29a      	uxth	r2, r3
 8004250:	f8d7 3100 	ldr.w	r3, [r7, #256]	@ 0x100
 8004254:	b29b      	uxth	r3, r3
 8004256:	029b      	lsls	r3, r3, #10
 8004258:	b29b      	uxth	r3, r3
 800425a:	4313      	orrs	r3, r2
 800425c:	b29b      	uxth	r3, r3
 800425e:	ea6f 4343 	mvn.w	r3, r3, lsl #17
 8004262:	ea6f 4353 	mvn.w	r3, r3, lsr #17
 8004266:	b29a      	uxth	r2, r3
 8004268:	6a7b      	ldr	r3, [r7, #36]	@ 0x24
 800426a:	801a      	strh	r2, [r3, #0]
 800426c:	e050      	b.n	8004310 <USB_EPStartXfer+0x318>
 800426e:	f8d7 3104 	ldr.w	r3, [r7, #260]	@ 0x104
 8004272:	2b00      	cmp	r3, #0
 8004274:	d10a      	bne.n	800428c <USB_EPStartXfer+0x294>
 8004276:	6a7b      	ldr	r3, [r7, #36]	@ 0x24
 8004278:	881b      	ldrh	r3, [r3, #0]
 800427a:	b29b      	uxth	r3, r3
 800427c:	ea6f 4343 	mvn.w	r3, r3, lsl #17
 8004280:	ea6f 4353 	mvn.w	r3, r3, lsr #17
 8004284:	b29a      	uxth	r2, r3
 8004286:	6a7b      	ldr	r3, [r7, #36]	@ 0x24
 8004288:	801a      	strh	r2, [r3, #0]
 800428a:	e041      	b.n	8004310 <USB_EPStartXfer+0x318>
 800428c:	f8d7 3104 	ldr.w	r3, [r7, #260]	@ 0x104
 8004290:	085b      	lsrs	r3, r3, #1
 8004292:	f8c7 3100 	str.w	r3, [r7, #256]	@ 0x100
 8004296:	f8d7 3104 	ldr.w	r3, [r7, #260]	@ 0x104
 800429a:	f003 0301 	and.w	r3, r3, #1
 800429e:	2b00      	cmp	r3, #0
 80042a0:	d004      	beq.n	80042ac <USB_EPStartXfer+0x2b4>
 80042a2:	f8d7 3100 	ldr.w	r3, [r7, #256]	@ 0x100
 80042a6:	3301      	adds	r3, #1
 80042a8:	f8c7 3100 	str.w	r3, [r7, #256]	@ 0x100
 80042ac:	6a7b      	ldr	r3, [r7, #36]	@ 0x24
 80042ae:	881b      	ldrh	r3, [r3, #0]
 80042b0:	b29a      	uxth	r2, r3
 80042b2:	f8d7 3100 	ldr.w	r3, [r7, #256]	@ 0x100
 80042b6:	b29b      	uxth	r3, r3
 80042b8:	029b      	lsls	r3, r3, #10
 80042ba:	b29b      	uxth	r3, r3
 80042bc:	4313      	orrs	r3, r2
 80042be:	b29a      	uxth	r2, r3
 80042c0:	6a7b      	ldr	r3, [r7, #36]	@ 0x24
 80042c2:	801a      	strh	r2, [r3, #0]
 80042c4:	e024      	b.n	8004310 <USB_EPStartXfer+0x318>
 80042c6:	f507 7384 	add.w	r3, r7, #264	@ 0x108
 80042ca:	f5a3 7384 	sub.w	r3, r3, #264	@ 0x108
 80042ce:	681b      	ldr	r3, [r3, #0]
 80042d0:	785b      	ldrb	r3, [r3, #1]
 80042d2:	2b01      	cmp	r3, #1
 80042d4:	d11c      	bne.n	8004310 <USB_EPStartXfer+0x318>
 80042d6:	f507 7384 	add.w	r3, r7, #264	@ 0x108
 80042da:	f5a3 7382 	sub.w	r3, r3, #260	@ 0x104
 80042de:	681b      	ldr	r3, [r3, #0]
 80042e0:	f8b3 3050 	ldrh.w	r3, [r3, #80]	@ 0x50
 80042e4:	b29b      	uxth	r3, r3
 80042e6:	461a      	mov	r2, r3
 80042e8:	6b3b      	ldr	r3, [r7, #48]	@ 0x30
 80042ea:	4413      	add	r3, r2
 80042ec:	633b      	str	r3, [r7, #48]	@ 0x30
 80042ee:	f507 7384 	add.w	r3, r7, #264	@ 0x108
 80042f2:	f5a3 7384 	sub.w	r3, r3, #264	@ 0x108
 80042f6:	681b      	ldr	r3, [r3, #0]
 80042f8:	781b      	ldrb	r3, [r3, #0]
 80042fa:	011a      	lsls	r2, r3, #4
 80042fc:	6b3b      	ldr	r3, [r7, #48]	@ 0x30
 80042fe:	4413      	add	r3, r2
 8004300:	f203 430c 	addw	r3, r3, #1036	@ 0x40c
 8004304:	62fb      	str	r3, [r7, #44]	@ 0x2c
 8004306:	f8d7 3104 	ldr.w	r3, [r7, #260]	@ 0x104
 800430a:	b29a      	uxth	r2, r3
 800430c:	6afb      	ldr	r3, [r7, #44]	@ 0x2c
 800430e:	801a      	strh	r2, [r3, #0]
            pmabuffer = ep->pmaaddr1;
 8004310:	f507 7384 	add.w	r3, r7, #264	@ 0x108
 8004314:	f5a3 7384 	sub.w	r3, r3, #264	@ 0x108
 8004318:	681b      	ldr	r3, [r3, #0]
 800431a:	895b      	ldrh	r3, [r3, #10]
 800431c:	f8a7 3076 	strh.w	r3, [r7, #118]	@ 0x76

            /* Write the user buffer to USB PMA */
            USB_WritePMA(USBx, ep->xfer_buff, pmabuffer, (uint16_t)len);
 8004320:	f507 7384 	add.w	r3, r7, #264	@ 0x108
 8004324:	f5a3 7384 	sub.w	r3, r3, #264	@ 0x108
 8004328:	681b      	ldr	r3, [r3, #0]
 800432a:	6959      	ldr	r1, [r3, #20]
 800432c:	f8d7 3104 	ldr.w	r3, [r7, #260]	@ 0x104
 8004330:	b29b      	uxth	r3, r3
 8004332:	f8b7 2076 	ldrh.w	r2, [r7, #118]	@ 0x76
 8004336:	f507 7084 	add.w	r0, r7, #264	@ 0x108
 800433a:	f5a0 7082 	sub.w	r0, r0, #260	@ 0x104
 800433e:	6800      	ldr	r0, [r0, #0]
 8004340:	f001 fb49 	bl	80059d6 <USB_WritePMA>
            ep->xfer_buff += len;
 8004344:	f507 7384 	add.w	r3, r7, #264	@ 0x108
 8004348:	f5a3 7384 	sub.w	r3, r3, #264	@ 0x108
 800434c:	681b      	ldr	r3, [r3, #0]
 800434e:	695a      	ldr	r2, [r3, #20]
 8004350:	f8d7 3104 	ldr.w	r3, [r7, #260]	@ 0x104
 8004354:	441a      	add	r2, r3
 8004356:	f507 7384 	add.w	r3, r7, #264	@ 0x108
 800435a:	f5a3 7384 	sub.w	r3, r3, #264	@ 0x108
 800435e:	681b      	ldr	r3, [r3, #0]
 8004360:	615a      	str	r2, [r3, #20]

            if (ep->xfer_len_db > ep->maxpacket)
 8004362:	f507 7384 	add.w	r3, r7, #264	@ 0x108
 8004366:	f5a3 7384 	sub.w	r3, r3, #264	@ 0x108
 800436a:	681b      	ldr	r3, [r3, #0]
 800436c:	6a1a      	ldr	r2, [r3, #32]
 800436e:	f507 7384 	add.w	r3, r7, #264	@ 0x108
 8004372:	f5a3 7384 	sub.w	r3, r3, #264	@ 0x108
 8004376:	681b      	ldr	r3, [r3, #0]
 8004378:	691b      	ldr	r3, [r3, #16]
 800437a:	429a      	cmp	r2, r3
 800437c:	d90f      	bls.n	800439e <USB_EPStartXfer+0x3a6>
            {
              ep->xfer_len_db -= len;
 800437e:	f507 7384 	add.w	r3, r7, #264	@ 0x108
 8004382:	f5a3 7384 	sub.w	r3, r3, #264	@ 0x108
 8004386:	681b      	ldr	r3, [r3, #0]
 8004388:	6a1a      	ldr	r2, [r3, #32]
 800438a:	f8d7 3104 	ldr.w	r3, [r7, #260]	@ 0x104
 800438e:	1ad2      	subs	r2, r2, r3
 8004390:	f507 7384 	add.w	r3, r7, #264	@ 0x108
 8004394:	f5a3 7384 	sub.w	r3, r3, #264	@ 0x108
 8004398:	681b      	ldr	r3, [r3, #0]
 800439a:	621a      	str	r2, [r3, #32]
 800439c:	e00e      	b.n	80043bc <USB_EPStartXfer+0x3c4>
            }
            else
            {
              len = ep->xfer_len_db;
 800439e:	f507 7384 	add.w	r3, r7, #264	@ 0x108
 80043a2:	f5a3 7384 	sub.w	r3, r3, #264	@ 0x108
 80043a6:	681b      	ldr	r3, [r3, #0]
 80043a8:	6a1b      	ldr	r3, [r3, #32]
 80043aa:	f8c7 3104 	str.w	r3, [r7, #260]	@ 0x104
              ep->xfer_len_db = 0U;
 80043ae:	f507 7384 	add.w	r3, r7, #264	@ 0x108
 80043b2:	f5a3 7384 	sub.w	r3, r3, #264	@ 0x108
 80043b6:	681b      	ldr	r3, [r3, #0]
 80043b8:	2200      	movs	r2, #0
 80043ba:	621a      	str	r2, [r3, #32]
            }

            /* Set the Double buffer counter for pmabuffer0 */
            PCD_SET_EP_DBUF0_CNT(USBx, ep->num, ep->is_in, len);
 80043bc:	f507 7384 	add.w	r3, r7, #264	@ 0x108
 80043c0:	f5a3 7384 	sub.w	r3, r3, #264	@ 0x108
 80043c4:	681b      	ldr	r3, [r3, #0]
 80043c6:	785b      	ldrb	r3, [r3, #1]
 80043c8:	2b00      	cmp	r3, #0
 80043ca:	d177      	bne.n	80044bc <USB_EPStartXfer+0x4c4>
 80043cc:	f507 7384 	add.w	r3, r7, #264	@ 0x108
 80043d0:	f5a3 7382 	sub.w	r3, r3, #260	@ 0x104
 80043d4:	681b      	ldr	r3, [r3, #0]
 80043d6:	61bb      	str	r3, [r7, #24]
 80043d8:	f507 7384 	add.w	r3, r7, #264	@ 0x108
 80043dc:	f5a3 7382 	sub.w	r3, r3, #260	@ 0x104
 80043e0:	681b      	ldr	r3, [r3, #0]
 80043e2:	f8b3 3050 	ldrh.w	r3, [r3, #80]	@ 0x50
 80043e6:	b29b      	uxth	r3, r3
 80043e8:	461a      	mov	r2, r3
 80043ea:	69bb      	ldr	r3, [r7, #24]
 80043ec:	4413      	add	r3, r2
 80043ee:	61bb      	str	r3, [r7, #24]
 80043f0:	f507 7384 	add.w	r3, r7, #264	@ 0x108
 80043f4:	f5a3 7384 	sub.w	r3, r3, #264	@ 0x108
 80043f8:	681b      	ldr	r3, [r3, #0]
 80043fa:	781b      	ldrb	r3, [r3, #0]
 80043fc:	011a      	lsls	r2, r3, #4
 80043fe:	69bb      	ldr	r3, [r7, #24]
 8004400:	4413      	add	r3, r2
 8004402:	f203 4304 	addw	r3, r3, #1028	@ 0x404
 8004406:	617b      	str	r3, [r7, #20]
 8004408:	697b      	ldr	r3, [r7, #20]
 800440a:	881b      	ldrh	r3, [r3, #0]
 800440c:	b29b      	uxth	r3, r3
 800440e:	f3c3 0309 	ubfx	r3, r3, #0, #10
 8004412:	b29a      	uxth	r2, r3
 8004414:	697b      	ldr	r3, [r7, #20]
 8004416:	801a      	strh	r2, [r3, #0]
 8004418:	f8d7 3104 	ldr.w	r3, [r7, #260]	@ 0x104
 800441c:	2b3e      	cmp	r3, #62	@ 0x3e
 800441e:	d921      	bls.n	8004464 <USB_EPStartXfer+0x46c>
 8004420:	f8d7 3104 	ldr.w	r3, [r7, #260]	@ 0x104
 8004424:	095b      	lsrs	r3, r3, #5
 8004426:	f8c7 30fc 	str.w	r3, [r7, #252]	@ 0xfc
 800442a:	f8d7 3104 	ldr.w	r3, [r7, #260]	@ 0x104
 800442e:	f003 031f 	and.w	r3, r3, #31
 8004432:	2b00      	cmp	r3, #0
 8004434:	d104      	bne.n	8004440 <USB_EPStartXfer+0x448>
 8004436:	f8d7 30fc 	ldr.w	r3, [r7, #252]	@ 0xfc
 800443a:	3b01      	subs	r3, #1
 800443c:	f8c7 30fc 	str.w	r3, [r7, #252]	@ 0xfc
 8004440:	697b      	ldr	r3, [r7, #20]
 8004442:	881b      	ldrh	r3, [r3, #0]
 8004444:	b29a      	uxth	r2, r3
 8004446:	f8d7 30fc 	ldr.w	r3, [r7, #252]	@ 0xfc
 800444a:	b29b      	uxth	r3, r3
 800444c:	029b      	lsls	r3, r3, #10
 800444e:	b29b      	uxth	r3, r3
 8004450:	4313      	orrs	r3, r2
 8004452:	b29b      	uxth	r3, r3
 8004454:	ea6f 4343 	mvn.w	r3, r3, lsl #17
 8004458:	ea6f 4353 	mvn.w	r3, r3, lsr #17
 800445c:	b29a      	uxth	r2, r3
 800445e:	697b      	ldr	r3, [r7, #20]
 8004460:	801a      	strh	r2, [r3, #0]
 8004462:	e056      	b.n	8004512 <USB_EPStartXfer+0x51a>
 8004464:	f8d7 3104 	ldr.w	r3, [r7, #260]	@ 0x104
 8004468:	2b00      	cmp	r3, #0
 800446a:	d10a      	bne.n	8004482 <USB_EPStartXfer+0x48a>
 800446c:	697b      	ldr	r3, [r7, #20]
 800446e:	881b      	ldrh	r3, [r3, #0]
 8004470:	b29b      	uxth	r3, r3
 8004472:	ea6f 4343 	mvn.w	r3, r3, lsl #17
 8004476:	ea6f 4353 	mvn.w	r3, r3, lsr #17
 800447a:	b29a      	uxth	r2, r3
 800447c:	697b      	ldr	r3, [r7, #20]
 800447e:	801a      	strh	r2, [r3, #0]
 8004480:	e047      	b.n	8004512 <USB_EPStartXfer+0x51a>
 8004482:	f8d7 3104 	ldr.w	r3, [r7, #260]	@ 0x104
 8004486:	085b      	lsrs	r3, r3, #1
 8004488:	f8c7 30fc 	str.w	r3, [r7, #252]	@ 0xfc
 800448c:	f8d7 3104 	ldr.w	r3, [r7, #260]	@ 0x104
 8004490:	f003 0301 	and.w	r3, r3, #1
 8004494:	2b00      	cmp	r3, #0
 8004496:	d004      	beq.n	80044a2 <USB_EPStartXfer+0x4aa>
 8004498:	f8d7 30fc 	ldr.w	r3, [r7, #252]	@ 0xfc
 800449c:	3301      	adds	r3, #1
 800449e:	f8c7 30fc 	str.w	r3, [r7, #252]	@ 0xfc
 80044a2:	697b      	ldr	r3, [r7, #20]
 80044a4:	881b      	ldrh	r3, [r3, #0]
 80044a6:	b29a      	uxth	r2, r3
 80044a8:	f8d7 30fc 	ldr.w	r3, [r7, #252]	@ 0xfc
 80044ac:	b29b      	uxth	r3, r3
 80044ae:	029b      	lsls	r3, r3, #10
 80044b0:	b29b      	uxth	r3, r3
 80044b2:	4313      	orrs	r3, r2
 80044b4:	b29a      	uxth	r2, r3
 80044b6:	697b      	ldr	r3, [r7, #20]
 80044b8:	801a      	strh	r2, [r3, #0]
 80044ba:	e02a      	b.n	8004512 <USB_EPStartXfer+0x51a>
 80044bc:	f507 7384 	add.w	r3, r7, #264	@ 0x108
 80044c0:	f5a3 7384 	sub.w	r3, r3, #264	@ 0x108
 80044c4:	681b      	ldr	r3, [r3, #0]
 80044c6:	785b      	ldrb	r3, [r3, #1]
 80044c8:	2b01      	cmp	r3, #1
 80044ca:	d122      	bne.n	8004512 <USB_EPStartXfer+0x51a>
 80044cc:	f507 7384 	add.w	r3, r7, #264	@ 0x108
 80044d0:	f5a3 7382 	sub.w	r3, r3, #260	@ 0x104
 80044d4:	681b      	ldr	r3, [r3, #0]
 80044d6:	623b      	str	r3, [r7, #32]
 80044d8:	f507 7384 	add.w	r3, r7, #264	@ 0x108
 80044dc:	f5a3 7382 	sub.w	r3, r3, #260	@ 0x104
 80044e0:	681b      	ldr	r3, [r3, #0]
 80044e2:	f8b3 3050 	ldrh.w	r3, [r3, #80]	@ 0x50
 80044e6:	b29b      	uxth	r3, r3
 80044e8:	461a      	mov	r2, r3
 80044ea:	6a3b      	ldr	r3, [r7, #32]
 80044ec:	4413      	add	r3, r2
 80044ee:	623b      	str	r3, [r7, #32]
 80044f0:	f507 7384 	add.w	r3, r7, #264	@ 0x108
 80044f4:	f5a3 7384 	sub.w	r3, r3, #264	@ 0x108
 80044f8:	681b      	ldr	r3, [r3, #0]
 80044fa:	781b      	ldrb	r3, [r3, #0]
 80044fc:	011a      	lsls	r2, r3, #4
 80044fe:	6a3b      	ldr	r3, [r7, #32]
 8004500:	4413      	add	r3, r2
 8004502:	f203 4304 	addw	r3, r3, #1028	@ 0x404
 8004506:	61fb      	str	r3, [r7, #28]
 8004508:	f8d7 3104 	ldr.w	r3, [r7, #260]	@ 0x104
 800450c:	b29a      	uxth	r2, r3
 800450e:	69fb      	ldr	r3, [r7, #28]
 8004510:	801a      	strh	r2, [r3, #0]
            pmabuffer = ep->pmaaddr0;
 8004512:	f507 7384 	add.w	r3, r7, #264	@ 0x108
 8004516:	f5a3 7384 	sub.w	r3, r3, #264	@ 0x108
 800451a:	681b      	ldr	r3, [r3, #0]
 800451c:	891b      	ldrh	r3, [r3, #8]
 800451e:	f8a7 3076 	strh.w	r3, [r7, #118]	@ 0x76

            /* Write the user buffer to USB PMA */
            USB_WritePMA(USBx, ep->xfer_buff, pmabuffer, (uint16_t)len);
 8004522:	f507 7384 	add.w	r3, r7, #264	@ 0x108
 8004526:	f5a3 7384 	sub.w	r3, r3, #264	@ 0x108
 800452a:	681b      	ldr	r3, [r3, #0]
 800452c:	6959      	ldr	r1, [r3, #20]
 800452e:	f8d7 3104 	ldr.w	r3, [r7, #260]	@ 0x104
 8004532:	b29b      	uxth	r3, r3
 8004534:	f8b7 2076 	ldrh.w	r2, [r7, #118]	@ 0x76
 8004538:	f507 7084 	add.w	r0, r7, #264	@ 0x108
 800453c:	f5a0 7082 	sub.w	r0, r0, #260	@ 0x104
 8004540:	6800      	ldr	r0, [r0, #0]
 8004542:	f001 fa48 	bl	80059d6 <USB_WritePMA>
 8004546:	e3ee      	b.n	8004d26 <USB_EPStartXfer+0xd2e>
          }
          else
          {
            /* Set the Double buffer counter for pmabuffer0 */
            PCD_SET_EP_DBUF0_CNT(USBx, ep->num, ep->is_in, len);
 8004548:	f507 7384 	add.w	r3, r7, #264	@ 0x108
 800454c:	f5a3 7384 	sub.w	r3, r3, #264	@ 0x108
 8004550:	681b      	ldr	r3, [r3, #0]
 8004552:	785b      	ldrb	r3, [r3, #1]
 8004554:	2b00      	cmp	r3, #0
 8004556:	d177      	bne.n	8004648 <USB_EPStartXfer+0x650>
 8004558:	f507 7384 	add.w	r3, r7, #264	@ 0x108
 800455c:	f5a3 7382 	sub.w	r3, r3, #260	@ 0x104
 8004560:	681b      	ldr	r3, [r3, #0]
 8004562:	64bb      	str	r3, [r7, #72]	@ 0x48
 8004564:	f507 7384 	add.w	r3, r7, #264	@ 0x108
 8004568:	f5a3 7382 	sub.w	r3, r3, #260	@ 0x104
 800456c:	681b      	ldr	r3, [r3, #0]
 800456e:	f8b3 3050 	ldrh.w	r3, [r3, #80]	@ 0x50
 8004572:	b29b      	uxth	r3, r3
 8004574:	461a      	mov	r2, r3
 8004576:	6cbb      	ldr	r3, [r7, #72]	@ 0x48
 8004578:	4413      	add	r3, r2
 800457a:	64bb      	str	r3, [r7, #72]	@ 0x48
 800457c:	f507 7384 	add.w	r3, r7, #264	@ 0x108
 8004580:	f5a3 7384 	sub.w	r3, r3, #264	@ 0x108
 8004584:	681b      	ldr	r3, [r3, #0]
 8004586:	781b      	ldrb	r3, [r3, #0]
 8004588:	011a      	lsls	r2, r3, #4
 800458a:	6cbb      	ldr	r3, [r7, #72]	@ 0x48
 800458c:	4413      	add	r3, r2
 800458e:	f203 4304 	addw	r3, r3, #1028	@ 0x404
 8004592:	647b      	str	r3, [r7, #68]	@ 0x44
 8004594:	6c7b      	ldr	r3, [r7, #68]	@ 0x44
 8004596:	881b      	ldrh	r3, [r3, #0]
 8004598:	b29b      	uxth	r3, r3
 800459a:	f3c3 0309 	ubfx	r3, r3, #0, #10
 800459e:	b29a      	uxth	r2, r3
 80045a0:	6c7b      	ldr	r3, [r7, #68]	@ 0x44
 80045a2:	801a      	strh	r2, [r3, #0]
 80045a4:	f8d7 3104 	ldr.w	r3, [r7, #260]	@ 0x104
 80045a8:	2b3e      	cmp	r3, #62	@ 0x3e
 80045aa:	d921      	bls.n	80045f0 <USB_EPStartXfer+0x5f8>
 80045ac:	f8d7 3104 	ldr.w	r3, [r7, #260]	@ 0x104
 80045b0:	095b      	lsrs	r3, r3, #5
 80045b2:	f8c7 30f8 	str.w	r3, [r7, #248]	@ 0xf8
 80045b6:	f8d7 3104 	ldr.w	r3, [r7, #260]	@ 0x104
 80045ba:	f003 031f 	and.w	r3, r3, #31
 80045be:	2b00      	cmp	r3, #0
 80045c0:	d104      	bne.n	80045cc <USB_EPStartXfer+0x5d4>
 80045c2:	f8d7 30f8 	ldr.w	r3, [r7, #248]	@ 0xf8
 80045c6:	3b01      	subs	r3, #1
 80045c8:	f8c7 30f8 	str.w	r3, [r7, #248]	@ 0xf8
 80045cc:	6c7b      	ldr	r3, [r7, #68]	@ 0x44
 80045ce:	881b      	ldrh	r3, [r3, #0]
 80045d0:	b29a      	uxth	r2, r3
 80045d2:	f8d7 30f8 	ldr.w	r3, [r7, #248]	@ 0xf8
 80045d6:	b29b      	uxth	r3, r3
 80045d8:	029b      	lsls	r3, r3, #10
 80045da:	b29b      	uxth	r3, r3
 80045dc:	4313      	orrs	r3, r2
 80045de:	b29b      	uxth	r3, r3
 80045e0:	ea6f 4343 	mvn.w	r3, r3, lsl #17
 80045e4:	ea6f 4353 	mvn.w	r3, r3, lsr #17
 80045e8:	b29a      	uxth	r2, r3
 80045ea:	6c7b      	ldr	r3, [r7, #68]	@ 0x44
 80045ec:	801a      	strh	r2, [r3, #0]
 80045ee:	e056      	b.n	800469e <USB_EPStartXfer+0x6a6>
 80045f0:	f8d7 3104 	ldr.w	r3, [r7, #260]	@ 0x104
 80045f4:	2b00      	cmp	r3, #0
 80045f6:	d10a      	bne.n	800460e <USB_EPStartXfer+0x616>
 80045f8:	6c7b      	ldr	r3, [r7, #68]	@ 0x44
 80045fa:	881b      	ldrh	r3, [r3, #0]
 80045fc:	b29b      	uxth	r3, r3
 80045fe:	ea6f 4343 	mvn.w	r3, r3, lsl #17
 8004602:	ea6f 4353 	mvn.w	r3, r3, lsr #17
 8004606:	b29a      	uxth	r2, r3
 8004608:	6c7b      	ldr	r3, [r7, #68]	@ 0x44
 800460a:	801a      	strh	r2, [r3, #0]
 800460c:	e047      	b.n	800469e <USB_EPStartXfer+0x6a6>
 800460e:	f8d7 3104 	ldr.w	r3, [r7, #260]	@ 0x104
 8004612:	085b      	lsrs	r3, r3, #1
 8004614:	f8c7 30f8 	str.w	r3, [r7, #248]	@ 0xf8
 8004618:	f8d7 3104 	ldr.w	r3, [r7, #260]	@ 0x104
 800461c:	f003 0301 	and.w	r3, r3, #1
 8004620:	2b00      	cmp	r3, #0
 8004622:	d004      	beq.n	800462e <USB_EPStartXfer+0x636>
 8004624:	f8d7 30f8 	ldr.w	r3, [r7, #248]	@ 0xf8
 8004628:	3301      	adds	r3, #1
 800462a:	f8c7 30f8 	str.w	r3, [r7, #248]	@ 0xf8
 800462e:	6c7b      	ldr	r3, [r7, #68]	@ 0x44
 8004630:	881b      	ldrh	r3, [r3, #0]
 8004632:	b29a      	uxth	r2, r3
 8004634:	f8d7 30f8 	ldr.w	r3, [r7, #248]	@ 0xf8
 8004638:	b29b      	uxth	r3, r3
 800463a:	029b      	lsls	r3, r3, #10
 800463c:	b29b      	uxth	r3, r3
 800463e:	4313      	orrs	r3, r2
 8004640:	b29a      	uxth	r2, r3
 8004642:	6c7b      	ldr	r3, [r7, #68]	@ 0x44
 8004644:	801a      	strh	r2, [r3, #0]
 8004646:	e02a      	b.n	800469e <USB_EPStartXfer+0x6a6>
 8004648:	f507 7384 	add.w	r3, r7, #264	@ 0x108
 800464c:	f5a3 7384 	sub.w	r3, r3, #264	@ 0x108
 8004650:	681b      	ldr	r3, [r3, #0]
 8004652:	785b      	ldrb	r3, [r3, #1]
 8004654:	2b01      	cmp	r3, #1
 8004656:	d122      	bne.n	800469e <USB_EPStartXfer+0x6a6>
 8004658:	f507 7384 	add.w	r3, r7, #264	@ 0x108
 800465c:	f5a3 7382 	sub.w	r3, r3, #260	@ 0x104
 8004660:	681b      	ldr	r3, [r3, #0]
 8004662:	653b      	str	r3, [r7, #80]	@ 0x50
 8004664:	f507 7384 	add.w	r3, r7, #264	@ 0x108
 8004668:	f5a3 7382 	sub.w	r3, r3, #260	@ 0x104
 800466c:	681b      	ldr	r3, [r3, #0]
 800466e:	f8b3 3050 	ldrh.w	r3, [r3, #80]	@ 0x50
 8004672:	b29b      	uxth	r3, r3
 8004674:	461a      	mov	r2, r3
 8004676:	6d3b      	ldr	r3, [r7, #80]	@ 0x50
 8004678:	4413      	add	r3, r2
 800467a:	653b      	str	r3, [r7, #80]	@ 0x50
 800467c:	f507 7384 	add.w	r3, r7, #264	@ 0x108
 8004680:	f5a3 7384 	sub.w	r3, r3, #264	@ 0x108
 8004684:	681b      	ldr	r3, [r3, #0]
 8004686:	781b      	ldrb	r3, [r3, #0]
 8004688:	011a      	lsls	r2, r3, #4
 800468a:	6d3b      	ldr	r3, [r7, #80]	@ 0x50
 800468c:	4413      	add	r3, r2
 800468e:	f203 4304 	addw	r3, r3, #1028	@ 0x404
 8004692:	64fb      	str	r3, [r7, #76]	@ 0x4c
 8004694:	f8d7 3104 	ldr.w	r3, [r7, #260]	@ 0x104
 8004698:	b29a      	uxth	r2, r3
 800469a:	6cfb      	ldr	r3, [r7, #76]	@ 0x4c
 800469c:	801a      	strh	r2, [r3, #0]
            pmabuffer = ep->pmaaddr0;
 800469e:	f507 7384 	add.w	r3, r7, #264	@ 0x108
 80046a2:	f5a3 7384 	sub.w	r3, r3, #264	@ 0x108
 80046a6:	681b      	ldr	r3, [r3, #0]
 80046a8:	891b      	ldrh	r3, [r3, #8]
 80046aa:	f8a7 3076 	strh.w	r3, [r7, #118]	@ 0x76

            /* Write the user buffer to USB PMA */
            USB_WritePMA(USBx, ep->xfer_buff, pmabuffer, (uint16_t)len);
 80046ae:	f507 7384 	add.w	r3, r7, #264	@ 0x108
 80046b2:	f5a3 7384 	sub.w	r3, r3, #264	@ 0x108
 80046b6:	681b      	ldr	r3, [r3, #0]
 80046b8:	6959      	ldr	r1, [r3, #20]
 80046ba:	f8d7 3104 	ldr.w	r3, [r7, #260]	@ 0x104
 80046be:	b29b      	uxth	r3, r3
 80046c0:	f8b7 2076 	ldrh.w	r2, [r7, #118]	@ 0x76
 80046c4:	f507 7084 	add.w	r0, r7, #264	@ 0x108
 80046c8:	f5a0 7082 	sub.w	r0, r0, #260	@ 0x104
 80046cc:	6800      	ldr	r0, [r0, #0]
 80046ce:	f001 f982 	bl	80059d6 <USB_WritePMA>
            ep->xfer_buff += len;
 80046d2:	f507 7384 	add.w	r3, r7, #264	@ 0x108
 80046d6:	f5a3 7384 	sub.w	r3, r3, #264	@ 0x108
 80046da:	681b      	ldr	r3, [r3, #0]
 80046dc:	695a      	ldr	r2, [r3, #20]
 80046de:	f8d7 3104 	ldr.w	r3, [r7, #260]	@ 0x104
 80046e2:	441a      	add	r2, r3
 80046e4:	f507 7384 	add.w	r3, r7, #264	@ 0x108
 80046e8:	f5a3 7384 	sub.w	r3, r3, #264	@ 0x108
 80046ec:	681b      	ldr	r3, [r3, #0]
 80046ee:	615a      	str	r2, [r3, #20]

            if (ep->xfer_len_db > ep->maxpacket)
 80046f0:	f507 7384 	add.w	r3, r7, #264	@ 0x108
 80046f4:	f5a3 7384 	sub.w	r3, r3, #264	@ 0x108
 80046f8:	681b      	ldr	r3, [r3, #0]
 80046fa:	6a1a      	ldr	r2, [r3, #32]
 80046fc:	f507 7384 	add.w	r3, r7, #264	@ 0x108
 8004700:	f5a3 7384 	sub.w	r3, r3, #264	@ 0x108
 8004704:	681b      	ldr	r3, [r3, #0]
 8004706:	691b      	ldr	r3, [r3, #16]
 8004708:	429a      	cmp	r2, r3
 800470a:	d90f      	bls.n	800472c <USB_EPStartXfer+0x734>
            {
              ep->xfer_len_db -= len;
 800470c:	f507 7384 	add.w	r3, r7, #264	@ 0x108
 8004710:	f5a3 7384 	sub.w	r3, r3, #264	@ 0x108
 8004714:	681b      	ldr	r3, [r3, #0]
 8004716:	6a1a      	ldr	r2, [r3, #32]
 8004718:	f8d7 3104 	ldr.w	r3, [r7, #260]	@ 0x104
 800471c:	1ad2      	subs	r2, r2, r3
 800471e:	f507 7384 	add.w	r3, r7, #264	@ 0x108
 8004722:	f5a3 7384 	sub.w	r3, r3, #264	@ 0x108
 8004726:	681b      	ldr	r3, [r3, #0]
 8004728:	621a      	str	r2, [r3, #32]
 800472a:	e00e      	b.n	800474a <USB_EPStartXfer+0x752>
            }
            else
            {
              len = ep->xfer_len_db;
 800472c:	f507 7384 	add.w	r3, r7, #264	@ 0x108
 8004730:	f5a3 7384 	sub.w	r3, r3, #264	@ 0x108
 8004734:	681b      	ldr	r3, [r3, #0]
 8004736:	6a1b      	ldr	r3, [r3, #32]
 8004738:	f8c7 3104 	str.w	r3, [r7, #260]	@ 0x104
              ep->xfer_len_db = 0U;
 800473c:	f507 7384 	add.w	r3, r7, #264	@ 0x108
 8004740:	f5a3 7384 	sub.w	r3, r3, #264	@ 0x108
 8004744:	681b      	ldr	r3, [r3, #0]
 8004746:	2200      	movs	r2, #0
 8004748:	621a      	str	r2, [r3, #32]
            }

            /* Set the Double buffer counter for pmabuffer1 */
            PCD_SET_EP_DBUF1_CNT(USBx, ep->num, ep->is_in, len);
 800474a:	f507 7384 	add.w	r3, r7, #264	@ 0x108
 800474e:	f5a3 7382 	sub.w	r3, r3, #260	@ 0x104
 8004752:	681b      	ldr	r3, [r3, #0]
 8004754:	643b      	str	r3, [r7, #64]	@ 0x40
 8004756:	f507 7384 	add.w	r3, r7, #264	@ 0x108
 800475a:	f5a3 7384 	sub.w	r3, r3, #264	@ 0x108
 800475e:	681b      	ldr	r3, [r3, #0]
 8004760:	785b      	ldrb	r3, [r3, #1]
 8004762:	2b00      	cmp	r3, #0
 8004764:	d177      	bne.n	8004856 <USB_EPStartXfer+0x85e>
 8004766:	f507 7384 	add.w	r3, r7, #264	@ 0x108
 800476a:	f5a3 7382 	sub.w	r3, r3, #260	@ 0x104
 800476e:	681b      	ldr	r3, [r3, #0]
 8004770:	63bb      	str	r3, [r7, #56]	@ 0x38
 8004772:	f507 7384 	add.w	r3, r7, #264	@ 0x108
 8004776:	f5a3 7382 	sub.w	r3, r3, #260	@ 0x104
 800477a:	681b      	ldr	r3, [r3, #0]
 800477c:	f8b3 3050 	ldrh.w	r3, [r3, #80]	@ 0x50
 8004780:	b29b      	uxth	r3, r3
 8004782:	461a      	mov	r2, r3
 8004784:	6bbb      	ldr	r3, [r7, #56]	@ 0x38
 8004786:	4413      	add	r3, r2
 8004788:	63bb      	str	r3, [r7, #56]	@ 0x38
 800478a:	f507 7384 	add.w	r3, r7, #264	@ 0x108
 800478e:	f5a3 7384 	sub.w	r3, r3, #264	@ 0x108
 8004792:	681b      	ldr	r3, [r3, #0]
 8004794:	781b      	ldrb	r3, [r3, #0]
 8004796:	011a      	lsls	r2, r3, #4
 8004798:	6bbb      	ldr	r3, [r7, #56]	@ 0x38
 800479a:	4413      	add	r3, r2
 800479c:	f203 430c 	addw	r3, r3, #1036	@ 0x40c
 80047a0:	637b      	str	r3, [r7, #52]	@ 0x34
 80047a2:	6b7b      	ldr	r3, [r7, #52]	@ 0x34
 80047a4:	881b      	ldrh	r3, [r3, #0]
 80047a6:	b29b      	uxth	r3, r3
 80047a8:	f3c3 0309 	ubfx	r3, r3, #0, #10
 80047ac:	b29a      	uxth	r2, r3
 80047ae:	6b7b      	ldr	r3, [r7, #52]	@ 0x34
 80047b0:	801a      	strh	r2, [r3, #0]
 80047b2:	f8d7 3104 	ldr.w	r3, [r7, #260]	@ 0x104
 80047b6:	2b3e      	cmp	r3, #62	@ 0x3e
 80047b8:	d921      	bls.n	80047fe <USB_EPStartXfer+0x806>
 80047ba:	f8d7 3104 	ldr.w	r3, [r7, #260]	@ 0x104
 80047be:	095b      	lsrs	r3, r3, #5
 80047c0:	f8c7 30f4 	str.w	r3, [r7, #244]	@ 0xf4
 80047c4:	f8d7 3104 	ldr.w	r3, [r7, #260]	@ 0x104
 80047c8:	f003 031f 	and.w	r3, r3, #31
 80047cc:	2b00      	cmp	r3, #0
 80047ce:	d104      	bne.n	80047da <USB_EPStartXfer+0x7e2>
 80047d0:	f8d7 30f4 	ldr.w	r3, [r7, #244]	@ 0xf4
 80047d4:	3b01      	subs	r3, #1
 80047d6:	f8c7 30f4 	str.w	r3, [r7, #244]	@ 0xf4
 80047da:	6b7b      	ldr	r3, [r7, #52]	@ 0x34
 80047dc:	881b      	ldrh	r3, [r3, #0]
 80047de:	b29a      	uxth	r2, r3
 80047e0:	f8d7 30f4 	ldr.w	r3, [r7, #244]	@ 0xf4
 80047e4:	b29b      	uxth	r3, r3
 80047e6:	029b      	lsls	r3, r3, #10
 80047e8:	b29b      	uxth	r3, r3
 80047ea:	4313      	orrs	r3, r2
 80047ec:	b29b      	uxth	r3, r3
 80047ee:	ea6f 4343 	mvn.w	r3, r3, lsl #17
 80047f2:	ea6f 4353 	mvn.w	r3, r3, lsr #17
 80047f6:	b29a      	uxth	r2, r3
 80047f8:	6b7b      	ldr	r3, [r7, #52]	@ 0x34
 80047fa:	801a      	strh	r2, [r3, #0]
 80047fc:	e050      	b.n	80048a0 <USB_EPStartXfer+0x8a8>
 80047fe:	f8d7 3104 	ldr.w	r3, [r7, #260]	@ 0x104
 8004802:	2b00      	cmp	r3, #0
 8004804:	d10a      	bne.n	800481c <USB_EPStartXfer+0x824>
 8004806:	6b7b      	ldr	r3, [r7, #52]	@ 0x34
 8004808:	881b      	ldrh	r3, [r3, #0]
 800480a:	b29b      	uxth	r3, r3
 800480c:	ea6f 4343 	mvn.w	r3, r3, lsl #17
 8004810:	ea6f 4353 	mvn.w	r3, r3, lsr #17
 8004814:	b29a      	uxth	r2, r3
 8004816:	6b7b      	ldr	r3, [r7, #52]	@ 0x34
 8004818:	801a      	strh	r2, [r3, #0]
 800481a:	e041      	b.n	80048a0 <USB_EPStartXfer+0x8a8>
 800481c:	f8d7 3104 	ldr.w	r3, [r7, #260]	@ 0x104
 8004820:	085b      	lsrs	r3, r3, #1
 8004822:	f8c7 30f4 	str.w	r3, [r7, #244]	@ 0xf4
 8004826:	f8d7 3104 	ldr.w	r3, [r7, #260]	@ 0x104
 800482a:	f003 0301 	and.w	r3, r3, #1
 800482e:	2b00      	cmp	r3, #0
 8004830:	d004      	beq.n	800483c <USB_EPStartXfer+0x844>
 8004832:	f8d7 30f4 	ldr.w	r3, [r7, #244]	@ 0xf4
 8004836:	3301      	adds	r3, #1
 8004838:	f8c7 30f4 	str.w	r3, [r7, #244]	@ 0xf4
 800483c:	6b7b      	ldr	r3, [r7, #52]	@ 0x34
 800483e:	881b      	ldrh	r3, [r3, #0]
 8004840:	b29a      	uxth	r2, r3
 8004842:	f8d7 30f4 	ldr.w	r3, [r7, #244]	@ 0xf4
 8004846:	b29b      	uxth	r3, r3
 8004848:	029b      	lsls	r3, r3, #10
 800484a:	b29b      	uxth	r3, r3
 800484c:	4313      	orrs	r3, r2
 800484e:	b29a      	uxth	r2, r3
 8004850:	6b7b      	ldr	r3, [r7, #52]	@ 0x34
 8004852:	801a      	strh	r2, [r3, #0]
 8004854:	e024      	b.n	80048a0 <USB_EPStartXfer+0x8a8>
 8004856:	f507 7384 	add.w	r3, r7, #264	@ 0x108
 800485a:	f5a3 7384 	sub.w	r3, r3, #264	@ 0x108
 800485e:	681b      	ldr	r3, [r3, #0]
 8004860:	785b      	ldrb	r3, [r3, #1]
 8004862:	2b01      	cmp	r3, #1
 8004864:	d11c      	bne.n	80048a0 <USB_EPStartXfer+0x8a8>
 8004866:	f507 7384 	add.w	r3, r7, #264	@ 0x108
 800486a:	f5a3 7382 	sub.w	r3, r3, #260	@ 0x104
 800486e:	681b      	ldr	r3, [r3, #0]
 8004870:	f8b3 3050 	ldrh.w	r3, [r3, #80]	@ 0x50
 8004874:	b29b      	uxth	r3, r3
 8004876:	461a      	mov	r2, r3
 8004878:	6c3b      	ldr	r3, [r7, #64]	@ 0x40
 800487a:	4413      	add	r3, r2
 800487c:	643b      	str	r3, [r7, #64]	@ 0x40
 800487e:	f507 7384 	add.w	r3, r7, #264	@ 0x108
 8004882:	f5a3 7384 	sub.w	r3, r3, #264	@ 0x108
 8004886:	681b      	ldr	r3, [r3, #0]
 8004888:	781b      	ldrb	r3, [r3, #0]
 800488a:	011a      	lsls	r2, r3, #4
 800488c:	6c3b      	ldr	r3, [r7, #64]	@ 0x40
 800488e:	4413      	add	r3, r2
 8004890:	f203 430c 	addw	r3, r3, #1036	@ 0x40c
 8004894:	63fb      	str	r3, [r7, #60]	@ 0x3c
 8004896:	f8d7 3104 	ldr.w	r3, [r7, #260]	@ 0x104
 800489a:	b29a      	uxth	r2, r3
 800489c:	6bfb      	ldr	r3, [r7, #60]	@ 0x3c
 800489e:	801a      	strh	r2, [r3, #0]
            pmabuffer = ep->pmaaddr1;
 80048a0:	f507 7384 	add.w	r3, r7, #264	@ 0x108
 80048a4:	f5a3 7384 	sub.w	r3, r3, #264	@ 0x108
 80048a8:	681b      	ldr	r3, [r3, #0]
 80048aa:	895b      	ldrh	r3, [r3, #10]
 80048ac:	f8a7 3076 	strh.w	r3, [r7, #118]	@ 0x76

            /* Write the user buffer to USB PMA */
            USB_WritePMA(USBx, ep->xfer_buff, pmabuffer, (uint16_t)len);
 80048b0:	f507 7384 	add.w	r3, r7, #264	@ 0x108
 80048b4:	f5a3 7384 	sub.w	r3, r3, #264	@ 0x108
 80048b8:	681b      	ldr	r3, [r3, #0]
 80048ba:	6959      	ldr	r1, [r3, #20]
 80048bc:	f8d7 3104 	ldr.w	r3, [r7, #260]	@ 0x104
 80048c0:	b29b      	uxth	r3, r3
 80048c2:	f8b7 2076 	ldrh.w	r2, [r7, #118]	@ 0x76
 80048c6:	f507 7084 	add.w	r0, r7, #264	@ 0x108
 80048ca:	f5a0 7082 	sub.w	r0, r0, #260	@ 0x104
 80048ce:	6800      	ldr	r0, [r0, #0]
 80048d0:	f001 f881 	bl	80059d6 <USB_WritePMA>
 80048d4:	e227      	b.n	8004d26 <USB_EPStartXfer+0xd2e>
          }
        }
        /* auto Switch to single buffer mode when transfer <Mps no need to manage in double buffer */
        else
        {
          len = ep->xfer_len_db;
 80048d6:	f507 7384 	add.w	r3, r7, #264	@ 0x108
 80048da:	f5a3 7384 	sub.w	r3, r3, #264	@ 0x108
 80048de:	681b      	ldr	r3, [r3, #0]
 80048e0:	6a1b      	ldr	r3, [r3, #32]
 80048e2:	f8c7 3104 	str.w	r3, [r7, #260]	@ 0x104

          /* disable double buffer mode for Bulk endpoint */
          PCD_CLEAR_BULK_EP_DBUF(USBx, ep->num);
 80048e6:	f507 7384 	add.w	r3, r7, #264	@ 0x108
 80048ea:	f5a3 7382 	sub.w	r3, r3, #260	@ 0x104
 80048ee:	681a      	ldr	r2, [r3, #0]
 80048f0:	f507 7384 	add.w	r3, r7, #264	@ 0x108
 80048f4:	f5a3 7384 	sub.w	r3, r3, #264	@ 0x108
 80048f8:	681b      	ldr	r3, [r3, #0]
 80048fa:	781b      	ldrb	r3, [r3, #0]
 80048fc:	009b      	lsls	r3, r3, #2
 80048fe:	4413      	add	r3, r2
 8004900:	881b      	ldrh	r3, [r3, #0]
 8004902:	b29b      	uxth	r3, r3
 8004904:	f423 43e2 	bic.w	r3, r3, #28928	@ 0x7100
 8004908:	f023 0370 	bic.w	r3, r3, #112	@ 0x70
 800490c:	f8a7 3062 	strh.w	r3, [r7, #98]	@ 0x62
 8004910:	f507 7384 	add.w	r3, r7, #264	@ 0x108
 8004914:	f5a3 7382 	sub.w	r3, r3, #260	@ 0x104
 8004918:	681a      	ldr	r2, [r3, #0]
 800491a:	f507 7384 	add.w	r3, r7, #264	@ 0x108
 800491e:	f5a3 7384 	sub.w	r3, r3, #264	@ 0x108
 8004922:	681b      	ldr	r3, [r3, #0]
 8004924:	781b      	ldrb	r3, [r3, #0]
 8004926:	009b      	lsls	r3, r3, #2
 8004928:	441a      	add	r2, r3
 800492a:	f8b7 3062 	ldrh.w	r3, [r7, #98]	@ 0x62
 800492e:	f043 437f 	orr.w	r3, r3, #4278190080	@ 0xff000000
 8004932:	f443 037f 	orr.w	r3, r3, #16711680	@ 0xff0000
 8004936:	f443 4300 	orr.w	r3, r3, #32768	@ 0x8000
 800493a:	f043 0380 	orr.w	r3, r3, #128	@ 0x80
 800493e:	b29b      	uxth	r3, r3
 8004940:	8013      	strh	r3, [r2, #0]

          /* Set Tx count with nbre of byte to be transmitted */
          PCD_SET_EP_TX_CNT(USBx, ep->num, len);
 8004942:	f507 7384 	add.w	r3, r7, #264	@ 0x108
 8004946:	f5a3 7382 	sub.w	r3, r3, #260	@ 0x104
 800494a:	681b      	ldr	r3, [r3, #0]
 800494c:	65fb      	str	r3, [r7, #92]	@ 0x5c
 800494e:	f507 7384 	add.w	r3, r7, #264	@ 0x108
 8004952:	f5a3 7382 	sub.w	r3, r3, #260	@ 0x104
 8004956:	681b      	ldr	r3, [r3, #0]
 8004958:	f8b3 3050 	ldrh.w	r3, [r3, #80]	@ 0x50
 800495c:	b29b      	uxth	r3, r3
 800495e:	461a      	mov	r2, r3
 8004960:	6dfb      	ldr	r3, [r7, #92]	@ 0x5c
 8004962:	4413      	add	r3, r2
 8004964:	65fb      	str	r3, [r7, #92]	@ 0x5c
 8004966:	f507 7384 	add.w	r3, r7, #264	@ 0x108
 800496a:	f5a3 7384 	sub.w	r3, r3, #264	@ 0x108
 800496e:	681b      	ldr	r3, [r3, #0]
 8004970:	781b      	ldrb	r3, [r3, #0]
 8004972:	011a      	lsls	r2, r3, #4
 8004974:	6dfb      	ldr	r3, [r7, #92]	@ 0x5c
 8004976:	4413      	add	r3, r2
 8004978:	f203 4304 	addw	r3, r3, #1028	@ 0x404
 800497c:	65bb      	str	r3, [r7, #88]	@ 0x58
 800497e:	f8d7 3104 	ldr.w	r3, [r7, #260]	@ 0x104
 8004982:	b29a      	uxth	r2, r3
 8004984:	6dbb      	ldr	r3, [r7, #88]	@ 0x58
 8004986:	801a      	strh	r2, [r3, #0]
          pmabuffer = ep->pmaaddr0;
 8004988:	f507 7384 	add.w	r3, r7, #264	@ 0x108
 800498c:	f5a3 7384 	sub.w	r3, r3, #264	@ 0x108
 8004990:	681b      	ldr	r3, [r3, #0]
 8004992:	891b      	ldrh	r3, [r3, #8]
 8004994:	f8a7 3076 	strh.w	r3, [r7, #118]	@ 0x76

          /* Write the user buffer to USB PMA */
          USB_WritePMA(USBx, ep->xfer_buff, pmabuffer, (uint16_t)len);
 8004998:	f507 7384 	add.w	r3, r7, #264	@ 0x108
 800499c:	f5a3 7384 	sub.w	r3, r3, #264	@ 0x108
 80049a0:	681b      	ldr	r3, [r3, #0]
 80049a2:	6959      	ldr	r1, [r3, #20]
 80049a4:	f8d7 3104 	ldr.w	r3, [r7, #260]	@ 0x104
 80049a8:	b29b      	uxth	r3, r3
 80049aa:	f8b7 2076 	ldrh.w	r2, [r7, #118]	@ 0x76
 80049ae:	f507 7084 	add.w	r0, r7, #264	@ 0x108
 80049b2:	f5a0 7082 	sub.w	r0, r0, #260	@ 0x104
 80049b6:	6800      	ldr	r0, [r0, #0]
 80049b8:	f001 f80d 	bl	80059d6 <USB_WritePMA>
 80049bc:	e1b3      	b.n	8004d26 <USB_EPStartXfer+0xd2e>
        }
      }
      else /* manage isochronous double buffer IN mode */
      {
        /* each Time to write in PMA xfer_len_db will */
        ep->xfer_len_db -= len;
 80049be:	f507 7384 	add.w	r3, r7, #264	@ 0x108
 80049c2:	f5a3 7384 	sub.w	r3, r3, #264	@ 0x108
 80049c6:	681b      	ldr	r3, [r3, #0]
 80049c8:	6a1a      	ldr	r2, [r3, #32]
 80049ca:	f8d7 3104 	ldr.w	r3, [r7, #260]	@ 0x104
 80049ce:	1ad2      	subs	r2, r2, r3
 80049d0:	f507 7384 	add.w	r3, r7, #264	@ 0x108
 80049d4:	f5a3 7384 	sub.w	r3, r3, #264	@ 0x108
 80049d8:	681b      	ldr	r3, [r3, #0]
 80049da:	621a      	str	r2, [r3, #32]

        /* Fill the data buffer */
        if ((PCD_GET_ENDPOINT(USBx, ep->num) & USB_EP_DTOG_TX) != 0U)
 80049dc:	f507 7384 	add.w	r3, r7, #264	@ 0x108
 80049e0:	f5a3 7382 	sub.w	r3, r3, #260	@ 0x104
 80049e4:	681a      	ldr	r2, [r3, #0]
 80049e6:	f507 7384 	add.w	r3, r7, #264	@ 0x108
 80049ea:	f5a3 7384 	sub.w	r3, r3, #264	@ 0x108
 80049ee:	681b      	ldr	r3, [r3, #0]
 80049f0:	781b      	ldrb	r3, [r3, #0]
 80049f2:	009b      	lsls	r3, r3, #2
 80049f4:	4413      	add	r3, r2
 80049f6:	881b      	ldrh	r3, [r3, #0]
 80049f8:	b29b      	uxth	r3, r3
 80049fa:	f003 0340 	and.w	r3, r3, #64	@ 0x40
 80049fe:	2b00      	cmp	r3, #0
 8004a00:	f000 80c6 	beq.w	8004b90 <USB_EPStartXfer+0xb98>
        {
          /* Set the Double buffer counter for pmabuffer1 */
          PCD_SET_EP_DBUF1_CNT(USBx, ep->num, ep->is_in, len);
 8004a04:	f507 7384 	add.w	r3, r7, #264	@ 0x108
 8004a08:	f5a3 7382 	sub.w	r3, r3, #260	@ 0x104
 8004a0c:	681b      	ldr	r3, [r3, #0]
 8004a0e:	673b      	str	r3, [r7, #112]	@ 0x70
 8004a10:	f507 7384 	add.w	r3, r7, #264	@ 0x108
 8004a14:	f5a3 7384 	sub.w	r3, r3, #264	@ 0x108
 8004a18:	681b      	ldr	r3, [r3, #0]
 8004a1a:	785b      	ldrb	r3, [r3, #1]
 8004a1c:	2b00      	cmp	r3, #0
 8004a1e:	d177      	bne.n	8004b10 <USB_EPStartXfer+0xb18>
 8004a20:	f507 7384 	add.w	r3, r7, #264	@ 0x108
 8004a24:	f5a3 7382 	sub.w	r3, r3, #260	@ 0x104
 8004a28:	681b      	ldr	r3, [r3, #0]
 8004a2a:	66bb      	str	r3, [r7, #104]	@ 0x68
 8004a2c:	f507 7384 	add.w	r3, r7, #264	@ 0x108
 8004a30:	f5a3 7382 	sub.w	r3, r3, #260	@ 0x104
 8004a34:	681b      	ldr	r3, [r3, #0]
 8004a36:	f8b3 3050 	ldrh.w	r3, [r3, #80]	@ 0x50
 8004a3a:	b29b      	uxth	r3, r3
 8004a3c:	461a      	mov	r2, r3
 8004a3e:	6ebb      	ldr	r3, [r7, #104]	@ 0x68
 8004a40:	4413      	add	r3, r2
 8004a42:	66bb      	str	r3, [r7, #104]	@ 0x68
 8004a44:	f507 7384 	add.w	r3, r7, #264	@ 0x108
 8004a48:	f5a3 7384 	sub.w	r3, r3, #264	@ 0x108
 8004a4c:	681b      	ldr	r3, [r3, #0]
 8004a4e:	781b      	ldrb	r3, [r3, #0]
 8004a50:	011a      	lsls	r2, r3, #4
 8004a52:	6ebb      	ldr	r3, [r7, #104]	@ 0x68
 8004a54:	4413      	add	r3, r2
 8004a56:	f203 430c 	addw	r3, r3, #1036	@ 0x40c
 8004a5a:	667b      	str	r3, [r7, #100]	@ 0x64
 8004a5c:	6e7b      	ldr	r3, [r7, #100]	@ 0x64
 8004a5e:	881b      	ldrh	r3, [r3, #0]
 8004a60:	b29b      	uxth	r3, r3
 8004a62:	f3c3 0309 	ubfx	r3, r3, #0, #10
 8004a66:	b29a      	uxth	r2, r3
 8004a68:	6e7b      	ldr	r3, [r7, #100]	@ 0x64
 8004a6a:	801a      	strh	r2, [r3, #0]
 8004a6c:	f8d7 3104 	ldr.w	r3, [r7, #260]	@ 0x104
 8004a70:	2b3e      	cmp	r3, #62	@ 0x3e
 8004a72:	d921      	bls.n	8004ab8 <USB_EPStartXfer+0xac0>
 8004a74:	f8d7 3104 	ldr.w	r3, [r7, #260]	@ 0x104
 8004a78:	095b      	lsrs	r3, r3, #5
 8004a7a:	f8c7 30f0 	str.w	r3, [r7, #240]	@ 0xf0
 8004a7e:	f8d7 3104 	ldr.w	r3, [r7, #260]	@ 0x104
 8004a82:	f003 031f 	and.w	r3, r3, #31
 8004a86:	2b00      	cmp	r3, #0
 8004a88:	d104      	bne.n	8004a94 <USB_EPStartXfer+0xa9c>
 8004a8a:	f8d7 30f0 	ldr.w	r3, [r7, #240]	@ 0xf0
 8004a8e:	3b01      	subs	r3, #1
 8004a90:	f8c7 30f0 	str.w	r3, [r7, #240]	@ 0xf0
 8004a94:	6e7b      	ldr	r3, [r7, #100]	@ 0x64
 8004a96:	881b      	ldrh	r3, [r3, #0]
 8004a98:	b29a      	uxth	r2, r3
 8004a9a:	f8d7 30f0 	ldr.w	r3, [r7, #240]	@ 0xf0
 8004a9e:	b29b      	uxth	r3, r3
 8004aa0:	029b      	lsls	r3, r3, #10
 8004aa2:	b29b      	uxth	r3, r3
 8004aa4:	4313      	orrs	r3, r2
 8004aa6:	b29b      	uxth	r3, r3
 8004aa8:	ea6f 4343 	mvn.w	r3, r3, lsl #17
 8004aac:	ea6f 4353 	mvn.w	r3, r3, lsr #17
 8004ab0:	b29a      	uxth	r2, r3
 8004ab2:	6e7b      	ldr	r3, [r7, #100]	@ 0x64
 8004ab4:	801a      	strh	r2, [r3, #0]
 8004ab6:	e050      	b.n	8004b5a <USB_EPStartXfer+0xb62>
 8004ab8:	f8d7 3104 	ldr.w	r3, [r7, #260]	@ 0x104
 8004abc:	2b00      	cmp	r3, #0
 8004abe:	d10a      	bne.n	8004ad6 <USB_EPStartXfer+0xade>
 8004ac0:	6e7b      	ldr	r3, [r7, #100]	@ 0x64
 8004ac2:	881b      	ldrh	r3, [r3, #0]
 8004ac4:	b29b      	uxth	r3, r3
 8004ac6:	ea6f 4343 	mvn.w	r3, r3, lsl #17
 8004aca:	ea6f 4353 	mvn.w	r3, r3, lsr #17
 8004ace:	b29a      	uxth	r2, r3
 8004ad0:	6e7b      	ldr	r3, [r7, #100]	@ 0x64
 8004ad2:	801a      	strh	r2, [r3, #0]
 8004ad4:	e041      	b.n	8004b5a <USB_EPStartXfer+0xb62>
 8004ad6:	f8d7 3104 	ldr.w	r3, [r7, #260]	@ 0x104
 8004ada:	085b      	lsrs	r3, r3, #1
 8004adc:	f8c7 30f0 	str.w	r3, [r7, #240]	@ 0xf0
 8004ae0:	f8d7 3104 	ldr.w	r3, [r7, #260]	@ 0x104
 8004ae4:	f003 0301 	and.w	r3, r3, #1
 8004ae8:	2b00      	cmp	r3, #0
 8004aea:	d004      	beq.n	8004af6 <USB_EPStartXfer+0xafe>
 8004aec:	f8d7 30f0 	ldr.w	r3, [r7, #240]	@ 0xf0
 8004af0:	3301      	adds	r3, #1
 8004af2:	f8c7 30f0 	str.w	r3, [r7, #240]	@ 0xf0
 8004af6:	6e7b      	ldr	r3, [r7, #100]	@ 0x64
 8004af8:	881b      	ldrh	r3, [r3, #0]
 8004afa:	b29a      	uxth	r2, r3
 8004afc:	f8d7 30f0 	ldr.w	r3, [r7, #240]	@ 0xf0
 8004b00:	b29b      	uxth	r3, r3
 8004b02:	029b      	lsls	r3, r3, #10
 8004b04:	b29b      	uxth	r3, r3
 8004b06:	4313      	orrs	r3, r2
 8004b08:	b29a      	uxth	r2, r3
 8004b0a:	6e7b      	ldr	r3, [r7, #100]	@ 0x64
 8004b0c:	801a      	strh	r2, [r3, #0]
 8004b0e:	e024      	b.n	8004b5a <USB_EPStartXfer+0xb62>
 8004b10:	f507 7384 	add.w	r3, r7, #264	@ 0x108
 8004b14:	f5a3 7384 	sub.w	r3, r3, #264	@ 0x108
 8004b18:	681b      	ldr	r3, [r3, #0]
 8004b1a:	785b      	ldrb	r3, [r3, #1]
 8004b1c:	2b01      	cmp	r3, #1
 8004b1e:	d11c      	bne.n	8004b5a <USB_EPStartXfer+0xb62>
 8004b20:	f507 7384 	add.w	r3, r7, #264	@ 0x108
 8004b24:	f5a3 7382 	sub.w	r3, r3, #260	@ 0x104
 8004b28:	681b      	ldr	r3, [r3, #0]
 8004b2a:	f8b3 3050 	ldrh.w	r3, [r3, #80]	@ 0x50
 8004b2e:	b29b      	uxth	r3, r3
 8004b30:	461a      	mov	r2, r3
 8004b32:	6f3b      	ldr	r3, [r7, #112]	@ 0x70
 8004b34:	4413      	add	r3, r2
 8004b36:	673b      	str	r3, [r7, #112]	@ 0x70
 8004b38:	f507 7384 	add.w	r3, r7, #264	@ 0x108
 8004b3c:	f5a3 7384 	sub.w	r3, r3, #264	@ 0x108
 8004b40:	681b      	ldr	r3, [r3, #0]
 8004b42:	781b      	ldrb	r3, [r3, #0]
 8004b44:	011a      	lsls	r2, r3, #4
 8004b46:	6f3b      	ldr	r3, [r7, #112]	@ 0x70
 8004b48:	4413      	add	r3, r2
 8004b4a:	f203 430c 	addw	r3, r3, #1036	@ 0x40c
 8004b4e:	66fb      	str	r3, [r7, #108]	@ 0x6c
 8004b50:	f8d7 3104 	ldr.w	r3, [r7, #260]	@ 0x104
 8004b54:	b29a      	uxth	r2, r3
 8004b56:	6efb      	ldr	r3, [r7, #108]	@ 0x6c
 8004b58:	801a      	strh	r2, [r3, #0]
          pmabuffer = ep->pmaaddr1;
 8004b5a:	f507 7384 	add.w	r3, r7, #264	@ 0x108
 8004b5e:	f5a3 7384 	sub.w	r3, r3, #264	@ 0x108
 8004b62:	681b      	ldr	r3, [r3, #0]
 8004b64:	895b      	ldrh	r3, [r3, #10]
 8004b66:	f8a7 3076 	strh.w	r3, [r7, #118]	@ 0x76

          /* Write the user buffer to USB PMA */
          USB_WritePMA(USBx, ep->xfer_buff, pmabuffer, (uint16_t)len);
 8004b6a:	f507 7384 	add.w	r3, r7, #264	@ 0x108
 8004b6e:	f5a3 7384 	sub.w	r3, r3, #264	@ 0x108
 8004b72:	681b      	ldr	r3, [r3, #0]
 8004b74:	6959      	ldr	r1, [r3, #20]
 8004b76:	f8d7 3104 	ldr.w	r3, [r7, #260]	@ 0x104
 8004b7a:	b29b      	uxth	r3, r3
 8004b7c:	f8b7 2076 	ldrh.w	r2, [r7, #118]	@ 0x76
 8004b80:	f507 7084 	add.w	r0, r7, #264	@ 0x108
 8004b84:	f5a0 7082 	sub.w	r0, r0, #260	@ 0x104
 8004b88:	6800      	ldr	r0, [r0, #0]
 8004b8a:	f000 ff24 	bl	80059d6 <USB_WritePMA>
 8004b8e:	e0ca      	b.n	8004d26 <USB_EPStartXfer+0xd2e>
        }
        else
        {
          /* Set the Double buffer counter for pmabuffer0 */
          PCD_SET_EP_DBUF0_CNT(USBx, ep->num, ep->is_in, len);
 8004b90:	f507 7384 	add.w	r3, r7, #264	@ 0x108
 8004b94:	f5a3 7384 	sub.w	r3, r3, #264	@ 0x108
 8004b98:	681b      	ldr	r3, [r3, #0]
 8004b9a:	785b      	ldrb	r3, [r3, #1]
 8004b9c:	2b00      	cmp	r3, #0
 8004b9e:	d177      	bne.n	8004c90 <USB_EPStartXfer+0xc98>
 8004ba0:	f507 7384 	add.w	r3, r7, #264	@ 0x108
 8004ba4:	f5a3 7382 	sub.w	r3, r3, #260	@ 0x104
 8004ba8:	681b      	ldr	r3, [r3, #0]
 8004baa:	67fb      	str	r3, [r7, #124]	@ 0x7c
 8004bac:	f507 7384 	add.w	r3, r7, #264	@ 0x108
 8004bb0:	f5a3 7382 	sub.w	r3, r3, #260	@ 0x104
 8004bb4:	681b      	ldr	r3, [r3, #0]
 8004bb6:	f8b3 3050 	ldrh.w	r3, [r3, #80]	@ 0x50
 8004bba:	b29b      	uxth	r3, r3
 8004bbc:	461a      	mov	r2, r3
 8004bbe:	6ffb      	ldr	r3, [r7, #124]	@ 0x7c
 8004bc0:	4413      	add	r3, r2
 8004bc2:	67fb      	str	r3, [r7, #124]	@ 0x7c
 8004bc4:	f507 7384 	add.w	r3, r7, #264	@ 0x108
 8004bc8:	f5a3 7384 	sub.w	r3, r3, #264	@ 0x108
 8004bcc:	681b      	ldr	r3, [r3, #0]
 8004bce:	781b      	ldrb	r3, [r3, #0]
 8004bd0:	011a      	lsls	r2, r3, #4
 8004bd2:	6ffb      	ldr	r3, [r7, #124]	@ 0x7c
 8004bd4:	4413      	add	r3, r2
 8004bd6:	f203 4304 	addw	r3, r3, #1028	@ 0x404
 8004bda:	67bb      	str	r3, [r7, #120]	@ 0x78
 8004bdc:	6fbb      	ldr	r3, [r7, #120]	@ 0x78
 8004bde:	881b      	ldrh	r3, [r3, #0]
 8004be0:	b29b      	uxth	r3, r3
 8004be2:	f3c3 0309 	ubfx	r3, r3, #0, #10
 8004be6:	b29a      	uxth	r2, r3
 8004be8:	6fbb      	ldr	r3, [r7, #120]	@ 0x78
 8004bea:	801a      	strh	r2, [r3, #0]
 8004bec:	f8d7 3104 	ldr.w	r3, [r7, #260]	@ 0x104
 8004bf0:	2b3e      	cmp	r3, #62	@ 0x3e
 8004bf2:	d921      	bls.n	8004c38 <USB_EPStartXfer+0xc40>
 8004bf4:	f8d7 3104 	ldr.w	r3, [r7, #260]	@ 0x104
 8004bf8:	095b      	lsrs	r3, r3, #5
 8004bfa:	f8c7 30ec 	str.w	r3, [r7, #236]	@ 0xec
 8004bfe:	f8d7 3104 	ldr.w	r3, [r7, #260]	@ 0x104
 8004c02:	f003 031f 	and.w	r3, r3, #31
 8004c06:	2b00      	cmp	r3, #0
 8004c08:	d104      	bne.n	8004c14 <USB_EPStartXfer+0xc1c>
 8004c0a:	f8d7 30ec 	ldr.w	r3, [r7, #236]	@ 0xec
 8004c0e:	3b01      	subs	r3, #1
 8004c10:	f8c7 30ec 	str.w	r3, [r7, #236]	@ 0xec
 8004c14:	6fbb      	ldr	r3, [r7, #120]	@ 0x78
 8004c16:	881b      	ldrh	r3, [r3, #0]
 8004c18:	b29a      	uxth	r2, r3
 8004c1a:	f8d7 30ec 	ldr.w	r3, [r7, #236]	@ 0xec
 8004c1e:	b29b      	uxth	r3, r3
 8004c20:	029b      	lsls	r3, r3, #10
 8004c22:	b29b      	uxth	r3, r3
 8004c24:	4313      	orrs	r3, r2
 8004c26:	b29b      	uxth	r3, r3
 8004c28:	ea6f 4343 	mvn.w	r3, r3, lsl #17
 8004c2c:	ea6f 4353 	mvn.w	r3, r3, lsr #17
 8004c30:	b29a      	uxth	r2, r3
 8004c32:	6fbb      	ldr	r3, [r7, #120]	@ 0x78
 8004c34:	801a      	strh	r2, [r3, #0]
 8004c36:	e05c      	b.n	8004cf2 <USB_EPStartXfer+0xcfa>
 8004c38:	f8d7 3104 	ldr.w	r3, [r7, #260]	@ 0x104
 8004c3c:	2b00      	cmp	r3, #0
 8004c3e:	d10a      	bne.n	8004c56 <USB_EPStartXfer+0xc5e>
 8004c40:	6fbb      	ldr	r3, [r7, #120]	@ 0x78
 8004c42:	881b      	ldrh	r3, [r3, #0]
 8004c44:	b29b      	uxth	r3, r3
 8004c46:	ea6f 4343 	mvn.w	r3, r3, lsl #17
 8004c4a:	ea6f 4353 	mvn.w	r3, r3, lsr #17
 8004c4e:	b29a      	uxth	r2, r3
 8004c50:	6fbb      	ldr	r3, [r7, #120]	@ 0x78
 8004c52:	801a      	strh	r2, [r3, #0]
 8004c54:	e04d      	b.n	8004cf2 <USB_EPStartXfer+0xcfa>
 8004c56:	f8d7 3104 	ldr.w	r3, [r7, #260]	@ 0x104
 8004c5a:	085b      	lsrs	r3, r3, #1
 8004c5c:	f8c7 30ec 	str.w	r3, [r7, #236]	@ 0xec
 8004c60:	f8d7 3104 	ldr.w	r3, [r7, #260]	@ 0x104
 8004c64:	f003 0301 	and.w	r3, r3, #1
 8004c68:	2b00      	cmp	r3, #0
 8004c6a:	d004      	beq.n	8004c76 <USB_EPStartXfer+0xc7e>
 8004c6c:	f8d7 30ec 	ldr.w	r3, [r7, #236]	@ 0xec
 8004c70:	3301      	adds	r3, #1
 8004c72:	f8c7 30ec 	str.w	r3, [r7, #236]	@ 0xec
 8004c76:	6fbb      	ldr	r3, [r7, #120]	@ 0x78
 8004c78:	881b      	ldrh	r3, [r3, #0]
 8004c7a:	b29a      	uxth	r2, r3
 8004c7c:	f8d7 30ec 	ldr.w	r3, [r7, #236]	@ 0xec
 8004c80:	b29b      	uxth	r3, r3
 8004c82:	029b      	lsls	r3, r3, #10
 8004c84:	b29b      	uxth	r3, r3
 8004c86:	4313      	orrs	r3, r2
 8004c88:	b29a      	uxth	r2, r3
 8004c8a:	6fbb      	ldr	r3, [r7, #120]	@ 0x78
 8004c8c:	801a      	strh	r2, [r3, #0]
 8004c8e:	e030      	b.n	8004cf2 <USB_EPStartXfer+0xcfa>
 8004c90:	f507 7384 	add.w	r3, r7, #264	@ 0x108
 8004c94:	f5a3 7384 	sub.w	r3, r3, #264	@ 0x108
 8004c98:	681b      	ldr	r3, [r3, #0]
 8004c9a:	785b      	ldrb	r3, [r3, #1]
 8004c9c:	2b01      	cmp	r3, #1
 8004c9e:	d128      	bne.n	8004cf2 <USB_EPStartXfer+0xcfa>
 8004ca0:	f507 7384 	add.w	r3, r7, #264	@ 0x108
 8004ca4:	f5a3 7382 	sub.w	r3, r3, #260	@ 0x104
 8004ca8:	681b      	ldr	r3, [r3, #0]
 8004caa:	f8c7 3084 	str.w	r3, [r7, #132]	@ 0x84
 8004cae:	f507 7384 	add.w	r3, r7, #264	@ 0x108
 8004cb2:	f5a3 7382 	sub.w	r3, r3, #260	@ 0x104
 8004cb6:	681b      	ldr	r3, [r3, #0]
 8004cb8:	f8b3 3050 	ldrh.w	r3, [r3, #80]	@ 0x50
 8004cbc:	b29b      	uxth	r3, r3
 8004cbe:	461a      	mov	r2, r3
 8004cc0:	f8d7 3084 	ldr.w	r3, [r7, #132]	@ 0x84
 8004cc4:	4413      	add	r3, r2
 8004cc6:	f8c7 3084 	str.w	r3, [r7, #132]	@ 0x84
 8004cca:	f507 7384 	add.w	r3, r7, #264	@ 0x108
 8004cce:	f5a3 7384 	sub.w	r3, r3, #264	@ 0x108
 8004cd2:	681b      	ldr	r3, [r3, #0]
 8004cd4:	781b      	ldrb	r3, [r3, #0]
 8004cd6:	011a      	lsls	r2, r3, #4
 8004cd8:	f8d7 3084 	ldr.w	r3, [r7, #132]	@ 0x84
 8004cdc:	4413      	add	r3, r2
 8004cde:	f203 4304 	addw	r3, r3, #1028	@ 0x404
 8004ce2:	f8c7 3080 	str.w	r3, [r7, #128]	@ 0x80
 8004ce6:	f8d7 3104 	ldr.w	r3, [r7, #260]	@ 0x104
 8004cea:	b29a      	uxth	r2, r3
 8004cec:	f8d7 3080 	ldr.w	r3, [r7, #128]	@ 0x80
 8004cf0:	801a      	strh	r2, [r3, #0]
          pmabuffer = ep->pmaaddr0;
 8004cf2:	f507 7384 	add.w	r3, r7, #264	@ 0x108
 8004cf6:	f5a3 7384 	sub.w	r3, r3, #264	@ 0x108
 8004cfa:	681b      	ldr	r3, [r3, #0]
 8004cfc:	891b      	ldrh	r3, [r3, #8]
 8004cfe:	f8a7 3076 	strh.w	r3, [r7, #118]	@ 0x76

          /* Write the user buffer to USB PMA */
          USB_WritePMA(USBx, ep->xfer_buff, pmabuffer, (uint16_t)len);
 8004d02:	f507 7384 	add.w	r3, r7, #264	@ 0x108
 8004d06:	f5a3 7384 	sub.w	r3, r3, #264	@ 0x108
 8004d0a:	681b      	ldr	r3, [r3, #0]
 8004d0c:	6959      	ldr	r1, [r3, #20]
 8004d0e:	f8d7 3104 	ldr.w	r3, [r7, #260]	@ 0x104
 8004d12:	b29b      	uxth	r3, r3
 8004d14:	f8b7 2076 	ldrh.w	r2, [r7, #118]	@ 0x76
 8004d18:	f507 7084 	add.w	r0, r7, #264	@ 0x108
 8004d1c:	f5a0 7082 	sub.w	r0, r0, #260	@ 0x104
 8004d20:	6800      	ldr	r0, [r0, #0]
 8004d22:	f000 fe58 	bl	80059d6 <USB_WritePMA>
        }
      }
    }
#endif /* (USE_USB_DOUBLE_BUFFER == 1U) */

    PCD_SET_EP_TX_STATUS(USBx, ep->num, USB_EP_TX_VALID);
 8004d26:	f507 7384 	add.w	r3, r7, #264	@ 0x108
 8004d2a:	f5a3 7382 	sub.w	r3, r3, #260	@ 0x104
 8004d2e:	681a      	ldr	r2, [r3, #0]
 8004d30:	f507 7384 	add.w	r3, r7, #264	@ 0x108
 8004d34:	f5a3 7384 	sub.w	r3, r3, #264	@ 0x108
 8004d38:	681b      	ldr	r3, [r3, #0]
 8004d3a:	781b      	ldrb	r3, [r3, #0]
 8004d3c:	009b      	lsls	r3, r3, #2
 8004d3e:	4413      	add	r3, r2
 8004d40:	881b      	ldrh	r3, [r3, #0]
 8004d42:	b29b      	uxth	r3, r3
 8004d44:	f423 43e0 	bic.w	r3, r3, #28672	@ 0x7000
 8004d48:	f023 0340 	bic.w	r3, r3, #64	@ 0x40
 8004d4c:	817b      	strh	r3, [r7, #10]
 8004d4e:	897b      	ldrh	r3, [r7, #10]
 8004d50:	f083 0310 	eor.w	r3, r3, #16
 8004d54:	817b      	strh	r3, [r7, #10]
 8004d56:	897b      	ldrh	r3, [r7, #10]
 8004d58:	f083 0320 	eor.w	r3, r3, #32
 8004d5c:	817b      	strh	r3, [r7, #10]
 8004d5e:	f507 7384 	add.w	r3, r7, #264	@ 0x108
 8004d62:	f5a3 7382 	sub.w	r3, r3, #260	@ 0x104
 8004d66:	681a      	ldr	r2, [r3, #0]
 8004d68:	f507 7384 	add.w	r3, r7, #264	@ 0x108
 8004d6c:	f5a3 7384 	sub.w	r3, r3, #264	@ 0x108
 8004d70:	681b      	ldr	r3, [r3, #0]
 8004d72:	781b      	ldrb	r3, [r3, #0]
 8004d74:	009b      	lsls	r3, r3, #2
 8004d76:	441a      	add	r2, r3
 8004d78:	897b      	ldrh	r3, [r7, #10]
 8004d7a:	f043 437f 	orr.w	r3, r3, #4278190080	@ 0xff000000
 8004d7e:	f443 037f 	orr.w	r3, r3, #16711680	@ 0xff0000
 8004d82:	f443 4300 	orr.w	r3, r3, #32768	@ 0x8000
 8004d86:	f043 0380 	orr.w	r3, r3, #128	@ 0x80
 8004d8a:	b29b      	uxth	r3, r3
 8004d8c:	8013      	strh	r3, [r2, #0]
 8004d8e:	f000 bcde 	b.w	800574e <USB_EPStartXfer+0x1756>
  }
  else /* OUT endpoint */
  {
    if (ep->doublebuffer == 0U)
 8004d92:	f507 7384 	add.w	r3, r7, #264	@ 0x108
 8004d96:	f5a3 7384 	sub.w	r3, r3, #264	@ 0x108
 8004d9a:	681b      	ldr	r3, [r3, #0]
 8004d9c:	7b1b      	ldrb	r3, [r3, #12]
 8004d9e:	2b00      	cmp	r3, #0
 8004da0:	f040 80bb 	bne.w	8004f1a <USB_EPStartXfer+0xf22>
    {
      /* Multi packet transfer */
      if (ep->xfer_len > ep->maxpacket)
 8004da4:	f507 7384 	add.w	r3, r7, #264	@ 0x108
 8004da8:	f5a3 7384 	sub.w	r3, r3, #264	@ 0x108
 8004dac:	681b      	ldr	r3, [r3, #0]
 8004dae:	699a      	ldr	r2, [r3, #24]
 8004db0:	f507 7384 	add.w	r3, r7, #264	@ 0x108
 8004db4:	f5a3 7384 	sub.w	r3, r3, #264	@ 0x108
 8004db8:	681b      	ldr	r3, [r3, #0]
 8004dba:	691b      	ldr	r3, [r3, #16]
 8004dbc:	429a      	cmp	r2, r3
 8004dbe:	d917      	bls.n	8004df0 <USB_EPStartXfer+0xdf8>
      {
        len = ep->maxpacket;
 8004dc0:	f507 7384 	add.w	r3, r7, #264	@ 0x108
 8004dc4:	f5a3 7384 	sub.w	r3, r3, #264	@ 0x108
 8004dc8:	681b      	ldr	r3, [r3, #0]
 8004dca:	691b      	ldr	r3, [r3, #16]
 8004dcc:	f8c7 3104 	str.w	r3, [r7, #260]	@ 0x104
        ep->xfer_len -= len;
 8004dd0:	f507 7384 	add.w	r3, r7, #264	@ 0x108
 8004dd4:	f5a3 7384 	sub.w	r3, r3, #264	@ 0x108
 8004dd8:	681b      	ldr	r3, [r3, #0]
 8004dda:	699a      	ldr	r2, [r3, #24]
 8004ddc:	f8d7 3104 	ldr.w	r3, [r7, #260]	@ 0x104
 8004de0:	1ad2      	subs	r2, r2, r3
 8004de2:	f507 7384 	add.w	r3, r7, #264	@ 0x108
 8004de6:	f5a3 7384 	sub.w	r3, r3, #264	@ 0x108
 8004dea:	681b      	ldr	r3, [r3, #0]
 8004dec:	619a      	str	r2, [r3, #24]
 8004dee:	e00e      	b.n	8004e0e <USB_EPStartXfer+0xe16>
      }
      else
      {
        len = ep->xfer_len;
 8004df0:	f507 7384 	add.w	r3, r7, #264	@ 0x108
 8004df4:	f5a3 7384 	sub.w	r3, r3, #264	@ 0x108
 8004df8:	681b      	ldr	r3, [r3, #0]
 8004dfa:	699b      	ldr	r3, [r3, #24]
 8004dfc:	f8c7 3104 	str.w	r3, [r7, #260]	@ 0x104
        ep->xfer_len = 0U;
 8004e00:	f507 7384 	add.w	r3, r7, #264	@ 0x108
 8004e04:	f5a3 7384 	sub.w	r3, r3, #264	@ 0x108
 8004e08:	681b      	ldr	r3, [r3, #0]
 8004e0a:	2200      	movs	r2, #0
 8004e0c:	619a      	str	r2, [r3, #24]
      }
      /* configure and validate Rx endpoint */
      PCD_SET_EP_RX_CNT(USBx, ep->num, len);
 8004e0e:	f507 7384 	add.w	r3, r7, #264	@ 0x108
 8004e12:	f5a3 7382 	sub.w	r3, r3, #260	@ 0x104
 8004e16:	681b      	ldr	r3, [r3, #0]
 8004e18:	f8c7 3090 	str.w	r3, [r7, #144]	@ 0x90
 8004e1c:	f507 7384 	add.w	r3, r7, #264	@ 0x108
 8004e20:	f5a3 7382 	sub.w	r3, r3, #260	@ 0x104
 8004e24:	681b      	ldr	r3, [r3, #0]
 8004e26:	f8b3 3050 	ldrh.w	r3, [r3, #80]	@ 0x50
 8004e2a:	b29b      	uxth	r3, r3
 8004e2c:	461a      	mov	r2, r3
 8004e2e:	f8d7 3090 	ldr.w	r3, [r7, #144]	@ 0x90
 8004e32:	4413      	add	r3, r2
 8004e34:	f8c7 3090 	str.w	r3, [r7, #144]	@ 0x90
 8004e38:	f507 7384 	add.w	r3, r7, #264	@ 0x108
 8004e3c:	f5a3 7384 	sub.w	r3, r3, #264	@ 0x108
 8004e40:	681b      	ldr	r3, [r3, #0]
 8004e42:	781b      	ldrb	r3, [r3, #0]
 8004e44:	011a      	lsls	r2, r3, #4
 8004e46:	f8d7 3090 	ldr.w	r3, [r7, #144]	@ 0x90
 8004e4a:	4413      	add	r3, r2
 8004e4c:	f203 430c 	addw	r3, r3, #1036	@ 0x40c
 8004e50:	f8c7 308c 	str.w	r3, [r7, #140]	@ 0x8c
 8004e54:	f8d7 308c 	ldr.w	r3, [r7, #140]	@ 0x8c
 8004e58:	881b      	ldrh	r3, [r3, #0]
 8004e5a:	b29b      	uxth	r3, r3
 8004e5c:	f3c3 0309 	ubfx	r3, r3, #0, #10
 8004e60:	b29a      	uxth	r2, r3
 8004e62:	f8d7 308c 	ldr.w	r3, [r7, #140]	@ 0x8c
 8004e66:	801a      	strh	r2, [r3, #0]
 8004e68:	f8d7 3104 	ldr.w	r3, [r7, #260]	@ 0x104
 8004e6c:	2b3e      	cmp	r3, #62	@ 0x3e
 8004e6e:	d924      	bls.n	8004eba <USB_EPStartXfer+0xec2>
 8004e70:	f8d7 3104 	ldr.w	r3, [r7, #260]	@ 0x104
 8004e74:	095b      	lsrs	r3, r3, #5
 8004e76:	f8c7 30e8 	str.w	r3, [r7, #232]	@ 0xe8
 8004e7a:	f8d7 3104 	ldr.w	r3, [r7, #260]	@ 0x104
 8004e7e:	f003 031f 	and.w	r3, r3, #31
 8004e82:	2b00      	cmp	r3, #0
 8004e84:	d104      	bne.n	8004e90 <USB_EPStartXfer+0xe98>
 8004e86:	f8d7 30e8 	ldr.w	r3, [r7, #232]	@ 0xe8
 8004e8a:	3b01      	subs	r3, #1
 8004e8c:	f8c7 30e8 	str.w	r3, [r7, #232]	@ 0xe8
 8004e90:	f8d7 308c 	ldr.w	r3, [r7, #140]	@ 0x8c
 8004e94:	881b      	ldrh	r3, [r3, #0]
 8004e96:	b29a      	uxth	r2, r3
 8004e98:	f8d7 30e8 	ldr.w	r3, [r7, #232]	@ 0xe8
 8004e9c:	b29b      	uxth	r3, r3
 8004e9e:	029b      	lsls	r3, r3, #10
 8004ea0:	b29b      	uxth	r3, r3
 8004ea2:	4313      	orrs	r3, r2
 8004ea4:	b29b      	uxth	r3, r3
 8004ea6:	ea6f 4343 	mvn.w	r3, r3, lsl #17
 8004eaa:	ea6f 4353 	mvn.w	r3, r3, lsr #17
 8004eae:	b29a      	uxth	r2, r3
 8004eb0:	f8d7 308c 	ldr.w	r3, [r7, #140]	@ 0x8c
 8004eb4:	801a      	strh	r2, [r3, #0]
 8004eb6:	f000 bc10 	b.w	80056da <USB_EPStartXfer+0x16e2>
 8004eba:	f8d7 3104 	ldr.w	r3, [r7, #260]	@ 0x104
 8004ebe:	2b00      	cmp	r3, #0
 8004ec0:	d10c      	bne.n	8004edc <USB_EPStartXfer+0xee4>
 8004ec2:	f8d7 308c 	ldr.w	r3, [r7, #140]	@ 0x8c
 8004ec6:	881b      	ldrh	r3, [r3, #0]
 8004ec8:	b29b      	uxth	r3, r3
 8004eca:	ea6f 4343 	mvn.w	r3, r3, lsl #17
 8004ece:	ea6f 4353 	mvn.w	r3, r3, lsr #17
 8004ed2:	b29a      	uxth	r2, r3
 8004ed4:	f8d7 308c 	ldr.w	r3, [r7, #140]	@ 0x8c
 8004ed8:	801a      	strh	r2, [r3, #0]
 8004eda:	e3fe      	b.n	80056da <USB_EPStartXfer+0x16e2>
 8004edc:	f8d7 3104 	ldr.w	r3, [r7, #260]	@ 0x104
 8004ee0:	085b      	lsrs	r3, r3, #1
 8004ee2:	f8c7 30e8 	str.w	r3, [r7, #232]	@ 0xe8
 8004ee6:	f8d7 3104 	ldr.w	r3, [r7, #260]	@ 0x104
 8004eea:	f003 0301 	and.w	r3, r3, #1
 8004eee:	2b00      	cmp	r3, #0
 8004ef0:	d004      	beq.n	8004efc <USB_EPStartXfer+0xf04>
 8004ef2:	f8d7 30e8 	ldr.w	r3, [r7, #232]	@ 0xe8
 8004ef6:	3301      	adds	r3, #1
 8004ef8:	f8c7 30e8 	str.w	r3, [r7, #232]	@ 0xe8
 8004efc:	f8d7 308c 	ldr.w	r3, [r7, #140]	@ 0x8c
 8004f00:	881b      	ldrh	r3, [r3, #0]
 8004f02:	b29a      	uxth	r2, r3
 8004f04:	f8d7 30e8 	ldr.w	r3, [r7, #232]	@ 0xe8
 8004f08:	b29b      	uxth	r3, r3
 8004f0a:	029b      	lsls	r3, r3, #10
 8004f0c:	b29b      	uxth	r3, r3
 8004f0e:	4313      	orrs	r3, r2
 8004f10:	b29a      	uxth	r2, r3
 8004f12:	f8d7 308c 	ldr.w	r3, [r7, #140]	@ 0x8c
 8004f16:	801a      	strh	r2, [r3, #0]
 8004f18:	e3df      	b.n	80056da <USB_EPStartXfer+0x16e2>
#if (USE_USB_DOUBLE_BUFFER == 1U)
    else
    {
      /* First Transfer Coming From HAL_PCD_EP_Receive & From ISR */
      /* Set the Double buffer counter */
      if (ep->type == EP_TYPE_BULK)
 8004f1a:	f507 7384 	add.w	r3, r7, #264	@ 0x108
 8004f1e:	f5a3 7384 	sub.w	r3, r3, #264	@ 0x108
 8004f22:	681b      	ldr	r3, [r3, #0]
 8004f24:	78db      	ldrb	r3, [r3, #3]
 8004f26:	2b02      	cmp	r3, #2
 8004f28:	f040 8218 	bne.w	800535c <USB_EPStartXfer+0x1364>
      {
        PCD_SET_EP_DBUF_CNT(USBx, ep->num, ep->is_in, ep->maxpacket);
 8004f2c:	f507 7384 	add.w	r3, r7, #264	@ 0x108
 8004f30:	f5a3 7384 	sub.w	r3, r3, #264	@ 0x108
 8004f34:	681b      	ldr	r3, [r3, #0]
 8004f36:	785b      	ldrb	r3, [r3, #1]
 8004f38:	2b00      	cmp	r3, #0
 8004f3a:	f040 809d 	bne.w	8005078 <USB_EPStartXfer+0x1080>
 8004f3e:	f507 7384 	add.w	r3, r7, #264	@ 0x108
 8004f42:	f5a3 7382 	sub.w	r3, r3, #260	@ 0x104
 8004f46:	681b      	ldr	r3, [r3, #0]
 8004f48:	f8c7 30ac 	str.w	r3, [r7, #172]	@ 0xac
 8004f4c:	f507 7384 	add.w	r3, r7, #264	@ 0x108
 8004f50:	f5a3 7382 	sub.w	r3, r3, #260	@ 0x104
 8004f54:	681b      	ldr	r3, [r3, #0]
 8004f56:	f8b3 3050 	ldrh.w	r3, [r3, #80]	@ 0x50
 8004f5a:	b29b      	uxth	r3, r3
 8004f5c:	461a      	mov	r2, r3
 8004f5e:	f8d7 30ac 	ldr.w	r3, [r7, #172]	@ 0xac
 8004f62:	4413      	add	r3, r2
 8004f64:	f8c7 30ac 	str.w	r3, [r7, #172]	@ 0xac
 8004f68:	f507 7384 	add.w	r3, r7, #264	@ 0x108
 8004f6c:	f5a3 7384 	sub.w	r3, r3, #264	@ 0x108
 8004f70:	681b      	ldr	r3, [r3, #0]
 8004f72:	781b      	ldrb	r3, [r3, #0]
 8004f74:	011a      	lsls	r2, r3, #4
 8004f76:	f8d7 30ac 	ldr.w	r3, [r7, #172]	@ 0xac
 8004f7a:	4413      	add	r3, r2
 8004f7c:	f203 4304 	addw	r3, r3, #1028	@ 0x404
 8004f80:	f8c7 30a8 	str.w	r3, [r7, #168]	@ 0xa8
 8004f84:	f8d7 30a8 	ldr.w	r3, [r7, #168]	@ 0xa8
 8004f88:	881b      	ldrh	r3, [r3, #0]
 8004f8a:	b29b      	uxth	r3, r3
 8004f8c:	f3c3 0309 	ubfx	r3, r3, #0, #10
 8004f90:	b29a      	uxth	r2, r3
 8004f92:	f8d7 30a8 	ldr.w	r3, [r7, #168]	@ 0xa8
 8004f96:	801a      	strh	r2, [r3, #0]
 8004f98:	f507 7384 	add.w	r3, r7, #264	@ 0x108
 8004f9c:	f5a3 7384 	sub.w	r3, r3, #264	@ 0x108
 8004fa0:	681b      	ldr	r3, [r3, #0]
 8004fa2:	691b      	ldr	r3, [r3, #16]
 8004fa4:	2b3e      	cmp	r3, #62	@ 0x3e
 8004fa6:	d92b      	bls.n	8005000 <USB_EPStartXfer+0x1008>
 8004fa8:	f507 7384 	add.w	r3, r7, #264	@ 0x108
 8004fac:	f5a3 7384 	sub.w	r3, r3, #264	@ 0x108
 8004fb0:	681b      	ldr	r3, [r3, #0]
 8004fb2:	691b      	ldr	r3, [r3, #16]
 8004fb4:	095b      	lsrs	r3, r3, #5
 8004fb6:	f8c7 30e4 	str.w	r3, [r7, #228]	@ 0xe4
 8004fba:	f507 7384 	add.w	r3, r7, #264	@ 0x108
 8004fbe:	f5a3 7384 	sub.w	r3, r3, #264	@ 0x108
 8004fc2:	681b      	ldr	r3, [r3, #0]
 8004fc4:	691b      	ldr	r3, [r3, #16]
 8004fc6:	f003 031f 	and.w	r3, r3, #31
 8004fca:	2b00      	cmp	r3, #0
 8004fcc:	d104      	bne.n	8004fd8 <USB_EPStartXfer+0xfe0>
 8004fce:	f8d7 30e4 	ldr.w	r3, [r7, #228]	@ 0xe4
 8004fd2:	3b01      	subs	r3, #1
 8004fd4:	f8c7 30e4 	str.w	r3, [r7, #228]	@ 0xe4
 8004fd8:	f8d7 30a8 	ldr.w	r3, [r7, #168]	@ 0xa8
 8004fdc:	881b      	ldrh	r3, [r3, #0]
 8004fde:	b29a      	uxth	r2, r3
 8004fe0:	f8d7 30e4 	ldr.w	r3, [r7, #228]	@ 0xe4
 8004fe4:	b29b      	uxth	r3, r3
 8004fe6:	029b      	lsls	r3, r3, #10
 8004fe8:	b29b      	uxth	r3, r3
 8004fea:	4313      	orrs	r3, r2
 8004fec:	b29b      	uxth	r3, r3
 8004fee:	ea6f 4343 	mvn.w	r3, r3, lsl #17
 8004ff2:	ea6f 4353 	mvn.w	r3, r3, lsr #17
 8004ff6:	b29a      	uxth	r2, r3
 8004ff8:	f8d7 30a8 	ldr.w	r3, [r7, #168]	@ 0xa8
 8004ffc:	801a      	strh	r2, [r3, #0]
 8004ffe:	e070      	b.n	80050e2 <USB_EPStartXfer+0x10ea>
 8005000:	f507 7384 	add.w	r3, r7, #264	@ 0x108
 8005004:	f5a3 7384 	sub.w	r3, r3, #264	@ 0x108
 8005008:	681b      	ldr	r3, [r3, #0]
 800500a:	691b      	ldr	r3, [r3, #16]
 800500c:	2b00      	cmp	r3, #0
 800500e:	d10c      	bne.n	800502a <USB_EPStartXfer+0x1032>
 8005010:	f8d7 30a8 	ldr.w	r3, [r7, #168]	@ 0xa8
 8005014:	881b      	ldrh	r3, [r3, #0]
 8005016:	b29b      	uxth	r3, r3
 8005018:	ea6f 4343 	mvn.w	r3, r3, lsl #17
 800501c:	ea6f 4353 	mvn.w	r3, r3, lsr #17
 8005020:	b29a      	uxth	r2, r3
 8005022:	f8d7 30a8 	ldr.w	r3, [r7, #168]	@ 0xa8
 8005026:	801a      	strh	r2, [r3, #0]
 8005028:	e05b      	b.n	80050e2 <USB_EPStartXfer+0x10ea>
 800502a:	f507 7384 	add.w	r3, r7, #264	@ 0x108
 800502e:	f5a3 7384 	sub.w	r3, r3, #264	@ 0x108
 8005032:	681b      	ldr	r3, [r3, #0]
 8005034:	691b      	ldr	r3, [r3, #16]
 8005036:	085b      	lsrs	r3, r3, #1
 8005038:	f8c7 30e4 	str.w	r3, [r7, #228]	@ 0xe4
 800503c:	f507 7384 	add.w	r3, r7, #264	@ 0x108
 8005040:	f5a3 7384 	sub.w	r3, r3, #264	@ 0x108
 8005044:	681b      	ldr	r3, [r3, #0]
 8005046:	691b      	ldr	r3, [r3, #16]
 8005048:	f003 0301 	and.w	r3, r3, #1
 800504c:	2b00      	cmp	r3, #0
 800504e:	d004      	beq.n	800505a <USB_EPStartXfer+0x1062>
 8005050:	f8d7 30e4 	ldr.w	r3, [r7, #228]	@ 0xe4
 8005054:	3301      	adds	r3, #1
 8005056:	f8c7 30e4 	str.w	r3, [r7, #228]	@ 0xe4
 800505a:	f8d7 30a8 	ldr.w	r3, [r7, #168]	@ 0xa8
 800505e:	881b      	ldrh	r3, [r3, #0]
 8005060:	b29a      	uxth	r2, r3
 8005062:	f8d7 30e4 	ldr.w	r3, [r7, #228]	@ 0xe4
 8005066:	b29b      	uxth	r3, r3
 8005068:	029b      	lsls	r3, r3, #10
 800506a:	b29b      	uxth	r3, r3
 800506c:	4313      	orrs	r3, r2
 800506e:	b29a      	uxth	r2, r3
 8005070:	f8d7 30a8 	ldr.w	r3, [r7, #168]	@ 0xa8
 8005074:	801a      	strh	r2, [r3, #0]
 8005076:	e034      	b.n	80050e2 <USB_EPStartXfer+0x10ea>
 8005078:	f507 7384 	add.w	r3, r7, #264	@ 0x108
 800507c:	f5a3 7384 	sub.w	r3, r3, #264	@ 0x108
 8005080:	681b      	ldr	r3, [r3, #0]
 8005082:	785b      	ldrb	r3, [r3, #1]
 8005084:	2b01      	cmp	r3, #1
 8005086:	d12c      	bne.n	80050e2 <USB_EPStartXfer+0x10ea>
 8005088:	f507 7384 	add.w	r3, r7, #264	@ 0x108
 800508c:	f5a3 7382 	sub.w	r3, r3, #260	@ 0x104
 8005090:	681b      	ldr	r3, [r3, #0]
 8005092:	f8c7 30b4 	str.w	r3, [r7, #180]	@ 0xb4
 8005096:	f507 7384 	add.w	r3, r7, #264	@ 0x108
 800509a:	f5a3 7382 	sub.w	r3, r3, #260	@ 0x104
 800509e:	681b      	ldr	r3, [r3, #0]
 80050a0:	f8b3 3050 	ldrh.w	r3, [r3, #80]	@ 0x50
 80050a4:	b29b      	uxth	r3, r3
 80050a6:	461a      	mov	r2, r3
 80050a8:	f8d7 30b4 	ldr.w	r3, [r7, #180]	@ 0xb4
 80050ac:	4413      	add	r3, r2
 80050ae:	f8c7 30b4 	str.w	r3, [r7, #180]	@ 0xb4
 80050b2:	f507 7384 	add.w	r3, r7, #264	@ 0x108
 80050b6:	f5a3 7384 	sub.w	r3, r3, #264	@ 0x108
 80050ba:	681b      	ldr	r3, [r3, #0]
 80050bc:	781b      	ldrb	r3, [r3, #0]
 80050be:	011a      	lsls	r2, r3, #4
 80050c0:	f8d7 30b4 	ldr.w	r3, [r7, #180]	@ 0xb4
 80050c4:	4413      	add	r3, r2
 80050c6:	f203 4304 	addw	r3, r3, #1028	@ 0x404
 80050ca:	f8c7 30b0 	str.w	r3, [r7, #176]	@ 0xb0
 80050ce:	f507 7384 	add.w	r3, r7, #264	@ 0x108
 80050d2:	f5a3 7384 	sub.w	r3, r3, #264	@ 0x108
 80050d6:	681b      	ldr	r3, [r3, #0]
 80050d8:	691b      	ldr	r3, [r3, #16]
 80050da:	b29a      	uxth	r2, r3
 80050dc:	f8d7 30b0 	ldr.w	r3, [r7, #176]	@ 0xb0
 80050e0:	801a      	strh	r2, [r3, #0]
 80050e2:	f507 7384 	add.w	r3, r7, #264	@ 0x108
 80050e6:	f5a3 7382 	sub.w	r3, r3, #260	@ 0x104
 80050ea:	681b      	ldr	r3, [r3, #0]
 80050ec:	f8c7 30a4 	str.w	r3, [r7, #164]	@ 0xa4
 80050f0:	f507 7384 	add.w	r3, r7, #264	@ 0x108
 80050f4:	f5a3 7384 	sub.w	r3, r3, #264	@ 0x108
 80050f8:	681b      	ldr	r3, [r3, #0]
 80050fa:	785b      	ldrb	r3, [r3, #1]
 80050fc:	2b00      	cmp	r3, #0
 80050fe:	f040 809d 	bne.w	800523c <USB_EPStartXfer+0x1244>
 8005102:	f507 7384 	add.w	r3, r7, #264	@ 0x108
 8005106:	f5a3 7382 	sub.w	r3, r3, #260	@ 0x104
 800510a:	681b      	ldr	r3, [r3, #0]
 800510c:	f8c7 309c 	str.w	r3, [r7, #156]	@ 0x9c
 8005110:	f507 7384 	add.w	r3, r7, #264	@ 0x108
 8005114:	f5a3 7382 	sub.w	r3, r3, #260	@ 0x104
 8005118:	681b      	ldr	r3, [r3, #0]
 800511a:	f8b3 3050 	ldrh.w	r3, [r3, #80]	@ 0x50
 800511e:	b29b      	uxth	r3, r3
 8005120:	461a      	mov	r2, r3
 8005122:	f8d7 309c 	ldr.w	r3, [r7, #156]	@ 0x9c
 8005126:	4413      	add	r3, r2
 8005128:	f8c7 309c 	str.w	r3, [r7, #156]	@ 0x9c
 800512c:	f507 7384 	add.w	r3, r7, #264	@ 0x108
 8005130:	f5a3 7384 	sub.w	r3, r3, #264	@ 0x108
 8005134:	681b      	ldr	r3, [r3, #0]
 8005136:	781b      	ldrb	r3, [r3, #0]
 8005138:	011a      	lsls	r2, r3, #4
 800513a:	f8d7 309c 	ldr.w	r3, [r7, #156]	@ 0x9c
 800513e:	4413      	add	r3, r2
 8005140:	f203 430c 	addw	r3, r3, #1036	@ 0x40c
 8005144:	f8c7 3098 	str.w	r3, [r7, #152]	@ 0x98
 8005148:	f8d7 3098 	ldr.w	r3, [r7, #152]	@ 0x98
 800514c:	881b      	ldrh	r3, [r3, #0]
 800514e:	b29b      	uxth	r3, r3
 8005150:	f3c3 0309 	ubfx	r3, r3, #0, #10
 8005154:	b29a      	uxth	r2, r3
 8005156:	f8d7 3098 	ldr.w	r3, [r7, #152]	@ 0x98
 800515a:	801a      	strh	r2, [r3, #0]
 800515c:	f507 7384 	add.w	r3, r7, #264	@ 0x108
 8005160:	f5a3 7384 	sub.w	r3, r3, #264	@ 0x108
 8005164:	681b      	ldr	r3, [r3, #0]
 8005166:	691b      	ldr	r3, [r3, #16]
 8005168:	2b3e      	cmp	r3, #62	@ 0x3e
 800516a:	d92b      	bls.n	80051c4 <USB_EPStartXfer+0x11cc>
 800516c:	f507 7384 	add.w	r3, r7, #264	@ 0x108
 8005170:	f5a3 7384 	sub.w	r3, r3, #264	@ 0x108
 8005174:	681b      	ldr	r3, [r3, #0]
 8005176:	691b      	ldr	r3, [r3, #16]
 8005178:	095b      	lsrs	r3, r3, #5
 800517a:	f8c7 30e0 	str.w	r3, [r7, #224]	@ 0xe0
 800517e:	f507 7384 	add.w	r3, r7, #264	@ 0x108
 8005182:	f5a3 7384 	sub.w	r3, r3, #264	@ 0x108
 8005186:	681b      	ldr	r3, [r3, #0]
 8005188:	691b      	ldr	r3, [r3, #16]
 800518a:	f003 031f 	and.w	r3, r3, #31
 800518e:	2b00      	cmp	r3, #0
 8005190:	d104      	bne.n	800519c <USB_EPStartXfer+0x11a4>
 8005192:	f8d7 30e0 	ldr.w	r3, [r7, #224]	@ 0xe0
 8005196:	3b01      	subs	r3, #1
 8005198:	f8c7 30e0 	str.w	r3, [r7, #224]	@ 0xe0
 800519c:	f8d7 3098 	ldr.w	r3, [r7, #152]	@ 0x98
 80051a0:	881b      	ldrh	r3, [r3, #0]
 80051a2:	b29a      	uxth	r2, r3
 80051a4:	f8d7 30e0 	ldr.w	r3, [r7, #224]	@ 0xe0
 80051a8:	b29b      	uxth	r3, r3
 80051aa:	029b      	lsls	r3, r3, #10
 80051ac:	b29b      	uxth	r3, r3
 80051ae:	4313      	orrs	r3, r2
 80051b0:	b29b      	uxth	r3, r3
 80051b2:	ea6f 4343 	mvn.w	r3, r3, lsl #17
 80051b6:	ea6f 4353 	mvn.w	r3, r3, lsr #17
 80051ba:	b29a      	uxth	r2, r3
 80051bc:	f8d7 3098 	ldr.w	r3, [r7, #152]	@ 0x98
 80051c0:	801a      	strh	r2, [r3, #0]
 80051c2:	e069      	b.n	8005298 <USB_EPStartXfer+0x12a0>
 80051c4:	f507 7384 	add.w	r3, r7, #264	@ 0x108
 80051c8:	f5a3 7384 	sub.w	r3, r3, #264	@ 0x108
 80051cc:	681b      	ldr	r3, [r3, #0]
 80051ce:	691b      	ldr	r3, [r3, #16]
 80051d0:	2b00      	cmp	r3, #0
 80051d2:	d10c      	bne.n	80051ee <USB_EPStartXfer+0x11f6>
 80051d4:	f8d7 3098 	ldr.w	r3, [r7, #152]	@ 0x98
 80051d8:	881b      	ldrh	r3, [r3, #0]
 80051da:	b29b      	uxth	r3, r3
 80051dc:	ea6f 4343 	mvn.w	r3, r3, lsl #17
 80051e0:	ea6f 4353 	mvn.w	r3, r3, lsr #17
 80051e4:	b29a      	uxth	r2, r3
 80051e6:	f8d7 3098 	ldr.w	r3, [r7, #152]	@ 0x98
 80051ea:	801a      	strh	r2, [r3, #0]
 80051ec:	e054      	b.n	8005298 <USB_EPStartXfer+0x12a0>
 80051ee:	f507 7384 	add.w	r3, r7, #264	@ 0x108
 80051f2:	f5a3 7384 	sub.w	r3, r3, #264	@ 0x108
 80051f6:	681b      	ldr	r3, [r3, #0]
 80051f8:	691b      	ldr	r3, [r3, #16]
 80051fa:	085b      	lsrs	r3, r3, #1
 80051fc:	f8c7 30e0 	str.w	r3, [r7, #224]	@ 0xe0
 8005200:	f507 7384 	add.w	r3, r7, #264	@ 0x108
 8005204:	f5a3 7384 	sub.w	r3, r3, #264	@ 0x108
 8005208:	681b      	ldr	r3, [r3, #0]
 800520a:	691b      	ldr	r3, [r3, #16]
 800520c:	f003 0301 	and.w	r3, r3, #1
 8005210:	2b00      	cmp	r3, #0
 8005212:	d004      	beq.n	800521e <USB_EPStartXfer+0x1226>
 8005214:	f8d7 30e0 	ldr.w	r3, [r7, #224]	@ 0xe0
 8005218:	3301      	adds	r3, #1
 800521a:	f8c7 30e0 	str.w	r3, [r7, #224]	@ 0xe0
 800521e:	f8d7 3098 	ldr.w	r3, [r7, #152]	@ 0x98
 8005222:	881b      	ldrh	r3, [r3, #0]
 8005224:	b29a      	uxth	r2, r3
 8005226:	f8d7 30e0 	ldr.w	r3, [r7, #224]	@ 0xe0
 800522a:	b29b      	uxth	r3, r3
 800522c:	029b      	lsls	r3, r3, #10
 800522e:	b29b      	uxth	r3, r3
 8005230:	4313      	orrs	r3, r2
 8005232:	b29a      	uxth	r2, r3
 8005234:	f8d7 3098 	ldr.w	r3, [r7, #152]	@ 0x98
 8005238:	801a      	strh	r2, [r3, #0]
 800523a:	e02d      	b.n	8005298 <USB_EPStartXfer+0x12a0>
 800523c:	f507 7384 	add.w	r3, r7, #264	@ 0x108
 8005240:	f5a3 7384 	sub.w	r3, r3, #264	@ 0x108
 8005244:	681b      	ldr	r3, [r3, #0]
 8005246:	785b      	ldrb	r3, [r3, #1]
 8005248:	2b01      	cmp	r3, #1
 800524a:	d125      	bne.n	8005298 <USB_EPStartXfer+0x12a0>
 800524c:	f507 7384 	add.w	r3, r7, #264	@ 0x108
 8005250:	f5a3 7382 	sub.w	r3, r3, #260	@ 0x104
 8005254:	681b      	ldr	r3, [r3, #0]
 8005256:	f8b3 3050 	ldrh.w	r3, [r3, #80]	@ 0x50
 800525a:	b29b      	uxth	r3, r3
 800525c:	461a      	mov	r2, r3
 800525e:	f8d7 30a4 	ldr.w	r3, [r7, #164]	@ 0xa4
 8005262:	4413      	add	r3, r2
 8005264:	f8c7 30a4 	str.w	r3, [r7, #164]	@ 0xa4
 8005268:	f507 7384 	add.w	r3, r7, #264	@ 0x108
 800526c:	f5a3 7384 	sub.w	r3, r3, #264	@ 0x108
 8005270:	681b      	ldr	r3, [r3, #0]
 8005272:	781b      	ldrb	r3, [r3, #0]
 8005274:	011a      	lsls	r2, r3, #4
 8005276:	f8d7 30a4 	ldr.w	r3, [r7, #164]	@ 0xa4
 800527a:	4413      	add	r3, r2
 800527c:	f203 430c 	addw	r3, r3, #1036	@ 0x40c
 8005280:	f8c7 30a0 	str.w	r3, [r7, #160]	@ 0xa0
 8005284:	f507 7384 	add.w	r3, r7, #264	@ 0x108
 8005288:	f5a3 7384 	sub.w	r3, r3, #264	@ 0x108
 800528c:	681b      	ldr	r3, [r3, #0]
 800528e:	691b      	ldr	r3, [r3, #16]
 8005290:	b29a      	uxth	r2, r3
 8005292:	f8d7 30a0 	ldr.w	r3, [r7, #160]	@ 0xa0
 8005296:	801a      	strh	r2, [r3, #0]

        /* Coming from ISR */
        if (ep->xfer_count != 0U)
 8005298:	f507 7384 	add.w	r3, r7, #264	@ 0x108
 800529c:	f5a3 7384 	sub.w	r3, r3, #264	@ 0x108
 80052a0:	681b      	ldr	r3, [r3, #0]
 80052a2:	69db      	ldr	r3, [r3, #28]
 80052a4:	2b00      	cmp	r3, #0
 80052a6:	f000 8218 	beq.w	80056da <USB_EPStartXfer+0x16e2>
        {
          /* update last value to check if there is blocking state */
          wEPVal = PCD_GET_ENDPOINT(USBx, ep->num);
 80052aa:	f507 7384 	add.w	r3, r7, #264	@ 0x108
 80052ae:	f5a3 7382 	sub.w	r3, r3, #260	@ 0x104
 80052b2:	681a      	ldr	r2, [r3, #0]
 80052b4:	f507 7384 	add.w	r3, r7, #264	@ 0x108
 80052b8:	f5a3 7384 	sub.w	r3, r3, #264	@ 0x108
 80052bc:	681b      	ldr	r3, [r3, #0]
 80052be:	781b      	ldrb	r3, [r3, #0]
 80052c0:	009b      	lsls	r3, r3, #2
 80052c2:	4413      	add	r3, r2
 80052c4:	881b      	ldrh	r3, [r3, #0]
 80052c6:	f8a7 3096 	strh.w	r3, [r7, #150]	@ 0x96

          /*Blocking State */
          if ((((wEPVal & USB_EP_DTOG_RX) != 0U) && ((wEPVal & USB_EP_DTOG_TX) != 0U)) ||
 80052ca:	f8b7 3096 	ldrh.w	r3, [r7, #150]	@ 0x96
 80052ce:	f403 4380 	and.w	r3, r3, #16384	@ 0x4000
 80052d2:	2b00      	cmp	r3, #0
 80052d4:	d005      	beq.n	80052e2 <USB_EPStartXfer+0x12ea>
 80052d6:	f8b7 3096 	ldrh.w	r3, [r7, #150]	@ 0x96
 80052da:	f003 0340 	and.w	r3, r3, #64	@ 0x40
 80052de:	2b00      	cmp	r3, #0
 80052e0:	d10d      	bne.n	80052fe <USB_EPStartXfer+0x1306>
              (((wEPVal & USB_EP_DTOG_RX) == 0U) && ((wEPVal & USB_EP_DTOG_TX) == 0U)))
 80052e2:	f8b7 3096 	ldrh.w	r3, [r7, #150]	@ 0x96
 80052e6:	f403 4380 	and.w	r3, r3, #16384	@ 0x4000
          if ((((wEPVal & USB_EP_DTOG_RX) != 0U) && ((wEPVal & USB_EP_DTOG_TX) != 0U)) ||
 80052ea:	2b00      	cmp	r3, #0
 80052ec:	f040 81f5 	bne.w	80056da <USB_EPStartXfer+0x16e2>
              (((wEPVal & USB_EP_DTOG_RX) == 0U) && ((wEPVal & USB_EP_DTOG_TX) == 0U)))
 80052f0:	f8b7 3096 	ldrh.w	r3, [r7, #150]	@ 0x96
 80052f4:	f003 0340 	and.w	r3, r3, #64	@ 0x40
 80052f8:	2b00      	cmp	r3, #0
 80052fa:	f040 81ee 	bne.w	80056da <USB_EPStartXfer+0x16e2>
          {
            PCD_FREE_USER_BUFFER(USBx, ep->num, 0U);
 80052fe:	f507 7384 	add.w	r3, r7, #264	@ 0x108
 8005302:	f5a3 7382 	sub.w	r3, r3, #260	@ 0x104
 8005306:	681a      	ldr	r2, [r3, #0]
 8005308:	f507 7384 	add.w	r3, r7, #264	@ 0x108
 800530c:	f5a3 7384 	sub.w	r3, r3, #264	@ 0x108
 8005310:	681b      	ldr	r3, [r3, #0]
 8005312:	781b      	ldrb	r3, [r3, #0]
 8005314:	009b      	lsls	r3, r3, #2
 8005316:	4413      	add	r3, r2
 8005318:	881b      	ldrh	r3, [r3, #0]
 800531a:	b29b      	uxth	r3, r3
 800531c:	f423 43e0 	bic.w	r3, r3, #28672	@ 0x7000
 8005320:	f023 0370 	bic.w	r3, r3, #112	@ 0x70
 8005324:	f8a7 3094 	strh.w	r3, [r7, #148]	@ 0x94
 8005328:	f507 7384 	add.w	r3, r7, #264	@ 0x108
 800532c:	f5a3 7382 	sub.w	r3, r3, #260	@ 0x104
 8005330:	681a      	ldr	r2, [r3, #0]
 8005332:	f507 7384 	add.w	r3, r7, #264	@ 0x108
 8005336:	f5a3 7384 	sub.w	r3, r3, #264	@ 0x108
 800533a:	681b      	ldr	r3, [r3, #0]
 800533c:	781b      	ldrb	r3, [r3, #0]
 800533e:	009b      	lsls	r3, r3, #2
 8005340:	441a      	add	r2, r3
 8005342:	f8b7 3094 	ldrh.w	r3, [r7, #148]	@ 0x94
 8005346:	f043 437f 	orr.w	r3, r3, #4278190080	@ 0xff000000
 800534a:	f443 037f 	orr.w	r3, r3, #16711680	@ 0xff0000
 800534e:	f443 4300 	orr.w	r3, r3, #32768	@ 0x8000
 8005352:	f043 03c0 	orr.w	r3, r3, #192	@ 0xc0
 8005356:	b29b      	uxth	r3, r3
 8005358:	8013      	strh	r3, [r2, #0]
 800535a:	e1be      	b.n	80056da <USB_EPStartXfer+0x16e2>
          }
        }
      }
      /* iso out double */
      else if (ep->type == EP_TYPE_ISOC)
 800535c:	f507 7384 	add.w	r3, r7, #264	@ 0x108
 8005360:	f5a3 7384 	sub.w	r3, r3, #264	@ 0x108
 8005364:	681b      	ldr	r3, [r3, #0]
 8005366:	78db      	ldrb	r3, [r3, #3]
 8005368:	2b01      	cmp	r3, #1
 800536a:	f040 81b4 	bne.w	80056d6 <USB_EPStartXfer+0x16de>
      {
        /* Multi packet transfer */
        if (ep->xfer_len > ep->maxpacket)
 800536e:	f507 7384 	add.w	r3, r7, #264	@ 0x108
 8005372:	f5a3 7384 	sub.w	r3, r3, #264	@ 0x108
 8005376:	681b      	ldr	r3, [r3, #0]
 8005378:	699a      	ldr	r2, [r3, #24]
 800537a:	f507 7384 	add.w	r3, r7, #264	@ 0x108
 800537e:	f5a3 7384 	sub.w	r3, r3, #264	@ 0x108
 8005382:	681b      	ldr	r3, [r3, #0]
 8005384:	691b      	ldr	r3, [r3, #16]
 8005386:	429a      	cmp	r2, r3
 8005388:	d917      	bls.n	80053ba <USB_EPStartXfer+0x13c2>
        {
          len = ep->maxpacket;
 800538a:	f507 7384 	add.w	r3, r7, #264	@ 0x108
 800538e:	f5a3 7384 	sub.w	r3, r3, #264	@ 0x108
 8005392:	681b      	ldr	r3, [r3, #0]
 8005394:	691b      	ldr	r3, [r3, #16]
 8005396:	f8c7 3104 	str.w	r3, [r7, #260]	@ 0x104
          ep->xfer_len -= len;
 800539a:	f507 7384 	add.w	r3, r7, #264	@ 0x108
 800539e:	f5a3 7384 	sub.w	r3, r3, #264	@ 0x108
 80053a2:	681b      	ldr	r3, [r3, #0]
 80053a4:	699a      	ldr	r2, [r3, #24]
 80053a6:	f8d7 3104 	ldr.w	r3, [r7, #260]	@ 0x104
 80053aa:	1ad2      	subs	r2, r2, r3
 80053ac:	f507 7384 	add.w	r3, r7, #264	@ 0x108
 80053b0:	f5a3 7384 	sub.w	r3, r3, #264	@ 0x108
 80053b4:	681b      	ldr	r3, [r3, #0]
 80053b6:	619a      	str	r2, [r3, #24]
 80053b8:	e00e      	b.n	80053d8 <USB_EPStartXfer+0x13e0>
        }
        else
        {
          len = ep->xfer_len;
 80053ba:	f507 7384 	add.w	r3, r7, #264	@ 0x108
 80053be:	f5a3 7384 	sub.w	r3, r3, #264	@ 0x108
 80053c2:	681b      	ldr	r3, [r3, #0]
 80053c4:	699b      	ldr	r3, [r3, #24]
 80053c6:	f8c7 3104 	str.w	r3, [r7, #260]	@ 0x104
          ep->xfer_len = 0U;
 80053ca:	f507 7384 	add.w	r3, r7, #264	@ 0x108
 80053ce:	f5a3 7384 	sub.w	r3, r3, #264	@ 0x108
 80053d2:	681b      	ldr	r3, [r3, #0]
 80053d4:	2200      	movs	r2, #0
 80053d6:	619a      	str	r2, [r3, #24]
        }
        PCD_SET_EP_DBUF_CNT(USBx, ep->num, ep->is_in, len);
 80053d8:	f507 7384 	add.w	r3, r7, #264	@ 0x108
 80053dc:	f5a3 7384 	sub.w	r3, r3, #264	@ 0x108
 80053e0:	681b      	ldr	r3, [r3, #0]
 80053e2:	785b      	ldrb	r3, [r3, #1]
 80053e4:	2b00      	cmp	r3, #0
 80053e6:	f040 8085 	bne.w	80054f4 <USB_EPStartXfer+0x14fc>
 80053ea:	f507 7384 	add.w	r3, r7, #264	@ 0x108
 80053ee:	f5a3 7382 	sub.w	r3, r3, #260	@ 0x104
 80053f2:	681b      	ldr	r3, [r3, #0]
 80053f4:	f8c7 30cc 	str.w	r3, [r7, #204]	@ 0xcc
 80053f8:	f507 7384 	add.w	r3, r7, #264	@ 0x108
 80053fc:	f5a3 7382 	sub.w	r3, r3, #260	@ 0x104
 8005400:	681b      	ldr	r3, [r3, #0]
 8005402:	f8b3 3050 	ldrh.w	r3, [r3, #80]	@ 0x50
 8005406:	b29b      	uxth	r3, r3
 8005408:	461a      	mov	r2, r3
 800540a:	f8d7 30cc 	ldr.w	r3, [r7, #204]	@ 0xcc
 800540e:	4413      	add	r3, r2
 8005410:	f8c7 30cc 	str.w	r3, [r7, #204]	@ 0xcc
 8005414:	f507 7384 	add.w	r3, r7, #264	@ 0x108
 8005418:	f5a3 7384 	sub.w	r3, r3, #264	@ 0x108
 800541c:	681b      	ldr	r3, [r3, #0]
 800541e:	781b      	ldrb	r3, [r3, #0]
 8005420:	011a      	lsls	r2, r3, #4
 8005422:	f8d7 30cc 	ldr.w	r3, [r7, #204]	@ 0xcc
 8005426:	4413      	add	r3, r2
 8005428:	f203 4304 	addw	r3, r3, #1028	@ 0x404
 800542c:	f8c7 30c8 	str.w	r3, [r7, #200]	@ 0xc8
 8005430:	f8d7 30c8 	ldr.w	r3, [r7, #200]	@ 0xc8
 8005434:	881b      	ldrh	r3, [r3, #0]
 8005436:	b29b      	uxth	r3, r3
 8005438:	f3c3 0309 	ubfx	r3, r3, #0, #10
 800543c:	b29a      	uxth	r2, r3
 800543e:	f8d7 30c8 	ldr.w	r3, [r7, #200]	@ 0xc8
 8005442:	801a      	strh	r2, [r3, #0]
 8005444:	f8d7 3104 	ldr.w	r3, [r7, #260]	@ 0x104
 8005448:	2b3e      	cmp	r3, #62	@ 0x3e
 800544a:	d923      	bls.n	8005494 <USB_EPStartXfer+0x149c>
 800544c:	f8d7 3104 	ldr.w	r3, [r7, #260]	@ 0x104
 8005450:	095b      	lsrs	r3, r3, #5
 8005452:	f8c7 30dc 	str.w	r3, [r7, #220]	@ 0xdc
 8005456:	f8d7 3104 	ldr.w	r3, [r7, #260]	@ 0x104
 800545a:	f003 031f 	and.w	r3, r3, #31
 800545e:	2b00      	cmp	r3, #0
 8005460:	d104      	bne.n	800546c <USB_EPStartXfer+0x1474>
 8005462:	f8d7 30dc 	ldr.w	r3, [r7, #220]	@ 0xdc
 8005466:	3b01      	subs	r3, #1
 8005468:	f8c7 30dc 	str.w	r3, [r7, #220]	@ 0xdc
 800546c:	f8d7 30c8 	ldr.w	r3, [r7, #200]	@ 0xc8
 8005470:	881b      	ldrh	r3, [r3, #0]
 8005472:	b29a      	uxth	r2, r3
 8005474:	f8d7 30dc 	ldr.w	r3, [r7, #220]	@ 0xdc
 8005478:	b29b      	uxth	r3, r3
 800547a:	029b      	lsls	r3, r3, #10
 800547c:	b29b      	uxth	r3, r3
 800547e:	4313      	orrs	r3, r2
 8005480:	b29b      	uxth	r3, r3
 8005482:	ea6f 4343 	mvn.w	r3, r3, lsl #17
 8005486:	ea6f 4353 	mvn.w	r3, r3, lsr #17
 800548a:	b29a      	uxth	r2, r3
 800548c:	f8d7 30c8 	ldr.w	r3, [r7, #200]	@ 0xc8
 8005490:	801a      	strh	r2, [r3, #0]
 8005492:	e060      	b.n	8005556 <USB_EPStartXfer+0x155e>
 8005494:	f8d7 3104 	ldr.w	r3, [r7, #260]	@ 0x104
 8005498:	2b00      	cmp	r3, #0
 800549a:	d10c      	bne.n	80054b6 <USB_EPStartXfer+0x14be>
 800549c:	f8d7 30c8 	ldr.w	r3, [r7, #200]	@ 0xc8
 80054a0:	881b      	ldrh	r3, [r3, #0]
 80054a2:	b29b      	uxth	r3, r3
 80054a4:	ea6f 4343 	mvn.w	r3, r3, lsl #17
 80054a8:	ea6f 4353 	mvn.w	r3, r3, lsr #17
 80054ac:	b29a      	uxth	r2, r3
 80054ae:	f8d7 30c8 	ldr.w	r3, [r7, #200]	@ 0xc8
 80054b2:	801a      	strh	r2, [r3, #0]
 80054b4:	e04f      	b.n	8005556 <USB_EPStartXfer+0x155e>
 80054b6:	f8d7 3104 	ldr.w	r3, [r7, #260]	@ 0x104
 80054ba:	085b      	lsrs	r3, r3, #1
 80054bc:	f8c7 30dc 	str.w	r3, [r7, #220]	@ 0xdc
 80054c0:	f8d7 3104 	ldr.w	r3, [r7, #260]	@ 0x104
 80054c4:	f003 0301 	and.w	r3, r3, #1
 80054c8:	2b00      	cmp	r3, #0
 80054ca:	d004      	beq.n	80054d6 <USB_EPStartXfer+0x14de>
 80054cc:	f8d7 30dc 	ldr.w	r3, [r7, #220]	@ 0xdc
 80054d0:	3301      	adds	r3, #1
 80054d2:	f8c7 30dc 	str.w	r3, [r7, #220]	@ 0xdc
 80054d6:	f8d7 30c8 	ldr.w	r3, [r7, #200]	@ 0xc8
 80054da:	881b      	ldrh	r3, [r3, #0]
 80054dc:	b29a      	uxth	r2, r3
 80054de:	f8d7 30dc 	ldr.w	r3, [r7, #220]	@ 0xdc
 80054e2:	b29b      	uxth	r3, r3
 80054e4:	029b      	lsls	r3, r3, #10
 80054e6:	b29b      	uxth	r3, r3
 80054e8:	4313      	orrs	r3, r2
 80054ea:	b29a      	uxth	r2, r3
 80054ec:	f8d7 30c8 	ldr.w	r3, [r7, #200]	@ 0xc8
 80054f0:	801a      	strh	r2, [r3, #0]
 80054f2:	e030      	b.n	8005556 <USB_EPStartXfer+0x155e>
 80054f4:	f507 7384 	add.w	r3, r7, #264	@ 0x108
 80054f8:	f5a3 7384 	sub.w	r3, r3, #264	@ 0x108
 80054fc:	681b      	ldr	r3, [r3, #0]
 80054fe:	785b      	ldrb	r3, [r3, #1]
 8005500:	2b01      	cmp	r3, #1
 8005502:	d128      	bne.n	8005556 <USB_EPStartXfer+0x155e>
 8005504:	f507 7384 	add.w	r3, r7, #264	@ 0x108
 8005508:	f5a3 7382 	sub.w	r3, r3, #260	@ 0x104
 800550c:	681b      	ldr	r3, [r3, #0]
 800550e:	f8c7 30d4 	str.w	r3, [r7, #212]	@ 0xd4
 8005512:	f507 7384 	add.w	r3, r7, #264	@ 0x108
 8005516:	f5a3 7382 	sub.w	r3, r3, #260	@ 0x104
 800551a:	681b      	ldr	r3, [r3, #0]
 800551c:	f8b3 3050 	ldrh.w	r3, [r3, #80]	@ 0x50
 8005520:	b29b      	uxth	r3, r3
 8005522:	461a      	mov	r2, r3
 8005524:	f8d7 30d4 	ldr.w	r3, [r7, #212]	@ 0xd4
 8005528:	4413      	add	r3, r2
 800552a:	f8c7 30d4 	str.w	r3, [r7, #212]	@ 0xd4
 800552e:	f507 7384 	add.w	r3, r7, #264	@ 0x108
 8005532:	f5a3 7384 	sub.w	r3, r3, #264	@ 0x108
 8005536:	681b      	ldr	r3, [r3, #0]
 8005538:	781b      	ldrb	r3, [r3, #0]
 800553a:	011a      	lsls	r2, r3, #4
 800553c:	f8d7 30d4 	ldr.w	r3, [r7, #212]	@ 0xd4
 8005540:	4413      	add	r3, r2
 8005542:	f203 4304 	addw	r3, r3, #1028	@ 0x404
 8005546:	f8c7 30d0 	str.w	r3, [r7, #208]	@ 0xd0
 800554a:	f8d7 3104 	ldr.w	r3, [r7, #260]	@ 0x104
 800554e:	b29a      	uxth	r2, r3
 8005550:	f8d7 30d0 	ldr.w	r3, [r7, #208]	@ 0xd0
 8005554:	801a      	strh	r2, [r3, #0]
 8005556:	f507 7384 	add.w	r3, r7, #264	@ 0x108
 800555a:	f5a3 7382 	sub.w	r3, r3, #260	@ 0x104
 800555e:	681b      	ldr	r3, [r3, #0]
 8005560:	f8c7 30c4 	str.w	r3, [r7, #196]	@ 0xc4
 8005564:	f507 7384 	add.w	r3, r7, #264	@ 0x108
 8005568:	f5a3 7384 	sub.w	r3, r3, #264	@ 0x108
 800556c:	681b      	ldr	r3, [r3, #0]
 800556e:	785b      	ldrb	r3, [r3, #1]
 8005570:	2b00      	cmp	r3, #0
 8005572:	f040 8085 	bne.w	8005680 <USB_EPStartXfer+0x1688>
 8005576:	f507 7384 	add.w	r3, r7, #264	@ 0x108
 800557a:	f5a3 7382 	sub.w	r3, r3, #260	@ 0x104
 800557e:	681b      	ldr	r3, [r3, #0]
 8005580:	f8c7 30bc 	str.w	r3, [r7, #188]	@ 0xbc
 8005584:	f507 7384 	add.w	r3, r7, #264	@ 0x108
 8005588:	f5a3 7382 	sub.w	r3, r3, #260	@ 0x104
 800558c:	681b      	ldr	r3, [r3, #0]
 800558e:	f8b3 3050 	ldrh.w	r3, [r3, #80]	@ 0x50
 8005592:	b29b      	uxth	r3, r3
 8005594:	461a      	mov	r2, r3
 8005596:	f8d7 30bc 	ldr.w	r3, [r7, #188]	@ 0xbc
 800559a:	4413      	add	r3, r2
 800559c:	f8c7 30bc 	str.w	r3, [r7, #188]	@ 0xbc
 80055a0:	f507 7384 	add.w	r3, r7, #264	@ 0x108
 80055a4:	f5a3 7384 	sub.w	r3, r3, #264	@ 0x108
 80055a8:	681b      	ldr	r3, [r3, #0]
 80055aa:	781b      	ldrb	r3, [r3, #0]
 80055ac:	011a      	lsls	r2, r3, #4
 80055ae:	f8d7 30bc 	ldr.w	r3, [r7, #188]	@ 0xbc
 80055b2:	4413      	add	r3, r2
 80055b4:	f203 430c 	addw	r3, r3, #1036	@ 0x40c
 80055b8:	f8c7 30b8 	str.w	r3, [r7, #184]	@ 0xb8
 80055bc:	f8d7 30b8 	ldr.w	r3, [r7, #184]	@ 0xb8
 80055c0:	881b      	ldrh	r3, [r3, #0]
 80055c2:	b29b      	uxth	r3, r3
 80055c4:	f3c3 0309 	ubfx	r3, r3, #0, #10
 80055c8:	b29a      	uxth	r2, r3
 80055ca:	f8d7 30b8 	ldr.w	r3, [r7, #184]	@ 0xb8
 80055ce:	801a      	strh	r2, [r3, #0]
 80055d0:	f8d7 3104 	ldr.w	r3, [r7, #260]	@ 0x104
 80055d4:	2b3e      	cmp	r3, #62	@ 0x3e
 80055d6:	d923      	bls.n	8005620 <USB_EPStartXfer+0x1628>
 80055d8:	f8d7 3104 	ldr.w	r3, [r7, #260]	@ 0x104
 80055dc:	095b      	lsrs	r3, r3, #5
 80055de:	f8c7 30d8 	str.w	r3, [r7, #216]	@ 0xd8
 80055e2:	f8d7 3104 	ldr.w	r3, [r7, #260]	@ 0x104
 80055e6:	f003 031f 	and.w	r3, r3, #31
 80055ea:	2b00      	cmp	r3, #0
 80055ec:	d104      	bne.n	80055f8 <USB_EPStartXfer+0x1600>
 80055ee:	f8d7 30d8 	ldr.w	r3, [r7, #216]	@ 0xd8
 80055f2:	3b01      	subs	r3, #1
 80055f4:	f8c7 30d8 	str.w	r3, [r7, #216]	@ 0xd8
 80055f8:	f8d7 30b8 	ldr.w	r3, [r7, #184]	@ 0xb8
 80055fc:	881b      	ldrh	r3, [r3, #0]
 80055fe:	b29a      	uxth	r2, r3
 8005600:	f8d7 30d8 	ldr.w	r3, [r7, #216]	@ 0xd8
 8005604:	b29b      	uxth	r3, r3
 8005606:	029b      	lsls	r3, r3, #10
 8005608:	b29b      	uxth	r3, r3
 800560a:	4313      	orrs	r3, r2
 800560c:	b29b      	uxth	r3, r3
 800560e:	ea6f 4343 	mvn.w	r3, r3, lsl #17
 8005612:	ea6f 4353 	mvn.w	r3, r3, lsr #17
 8005616:	b29a      	uxth	r2, r3
 8005618:	f8d7 30b8 	ldr.w	r3, [r7, #184]	@ 0xb8
 800561c:	801a      	strh	r2, [r3, #0]
 800561e:	e05c      	b.n	80056da <USB_EPStartXfer+0x16e2>
 8005620:	f8d7 3104 	ldr.w	r3, [r7, #260]	@ 0x104
 8005624:	2b00      	cmp	r3, #0
 8005626:	d10c      	bne.n	8005642 <USB_EPStartXfer+0x164a>
 8005628:	f8d7 30b8 	ldr.w	r3, [r7, #184]	@ 0xb8
 800562c:	881b      	ldrh	r3, [r3, #0]
 800562e:	b29b      	uxth	r3, r3
 8005630:	ea6f 4343 	mvn.w	r3, r3, lsl #17
 8005634:	ea6f 4353 	mvn.w	r3, r3, lsr #17
 8005638:	b29a      	uxth	r2, r3
 800563a:	f8d7 30b8 	ldr.w	r3, [r7, #184]	@ 0xb8
 800563e:	801a      	strh	r2, [r3, #0]
 8005640:	e04b      	b.n	80056da <USB_EPStartXfer+0x16e2>
 8005642:	f8d7 3104 	ldr.w	r3, [r7, #260]	@ 0x104
 8005646:	085b      	lsrs	r3, r3, #1
 8005648:	f8c7 30d8 	str.w	r3, [r7, #216]	@ 0xd8
 800564c:	f8d7 3104 	ldr.w	r3, [r7, #260]	@ 0x104
 8005650:	f003 0301 	and.w	r3, r3, #1
 8005654:	2b00      	cmp	r3, #0
 8005656:	d004      	beq.n	8005662 <USB_EPStartXfer+0x166a>
 8005658:	f8d7 30d8 	ldr.w	r3, [r7, #216]	@ 0xd8
 800565c:	3301      	adds	r3, #1
 800565e:	f8c7 30d8 	str.w	r3, [r7, #216]	@ 0xd8
 8005662:	f8d7 30b8 	ldr.w	r3, [r7, #184]	@ 0xb8
 8005666:	881b      	ldrh	r3, [r3, #0]
 8005668:	b29a      	uxth	r2, r3
 800566a:	f8d7 30d8 	ldr.w	r3, [r7, #216]	@ 0xd8
 800566e:	b29b      	uxth	r3, r3
 8005670:	029b      	lsls	r3, r3, #10
 8005672:	b29b      	uxth	r3, r3
 8005674:	4313      	orrs	r3, r2
 8005676:	b29a      	uxth	r2, r3
 8005678:	f8d7 30b8 	ldr.w	r3, [r7, #184]	@ 0xb8
 800567c:	801a      	strh	r2, [r3, #0]
 800567e:	e02c      	b.n	80056da <USB_EPStartXfer+0x16e2>
 8005680:	f507 7384 	add.w	r3, r7, #264	@ 0x108
 8005684:	f5a3 7384 	sub.w	r3, r3, #264	@ 0x108
 8005688:	681b      	ldr	r3, [r3, #0]
 800568a:	785b      	ldrb	r3, [r3, #1]
 800568c:	2b01      	cmp	r3, #1
 800568e:	d124      	bne.n	80056da <USB_EPStartXfer+0x16e2>
 8005690:	f507 7384 	add.w	r3, r7, #264	@ 0x108
 8005694:	f5a3 7382 	sub.w	r3, r3, #260	@ 0x104
 8005698:	681b      	ldr	r3, [r3, #0]
 800569a:	f8b3 3050 	ldrh.w	r3, [r3, #80]	@ 0x50
 800569e:	b29b      	uxth	r3, r3
 80056a0:	461a      	mov	r2, r3
 80056a2:	f8d7 30c4 	ldr.w	r3, [r7, #196]	@ 0xc4
 80056a6:	4413      	add	r3, r2
 80056a8:	f8c7 30c4 	str.w	r3, [r7, #196]	@ 0xc4
 80056ac:	f507 7384 	add.w	r3, r7, #264	@ 0x108
 80056b0:	f5a3 7384 	sub.w	r3, r3, #264	@ 0x108
 80056b4:	681b      	ldr	r3, [r3, #0]
 80056b6:	781b      	ldrb	r3, [r3, #0]
 80056b8:	011a      	lsls	r2, r3, #4
 80056ba:	f8d7 30c4 	ldr.w	r3, [r7, #196]	@ 0xc4
 80056be:	4413      	add	r3, r2
 80056c0:	f203 430c 	addw	r3, r3, #1036	@ 0x40c
 80056c4:	f8c7 30c0 	str.w	r3, [r7, #192]	@ 0xc0
 80056c8:	f8d7 3104 	ldr.w	r3, [r7, #260]	@ 0x104
 80056cc:	b29a      	uxth	r2, r3
 80056ce:	f8d7 30c0 	ldr.w	r3, [r7, #192]	@ 0xc0
 80056d2:	801a      	strh	r2, [r3, #0]
 80056d4:	e001      	b.n	80056da <USB_EPStartXfer+0x16e2>
      }
      else
      {
        return HAL_ERROR;
 80056d6:	2301      	movs	r3, #1
 80056d8:	e03a      	b.n	8005750 <USB_EPStartXfer+0x1758>
      }
    }
#endif /* (USE_USB_DOUBLE_BUFFER == 1U) */

    PCD_SET_EP_RX_STATUS(USBx, ep->num, USB_EP_RX_VALID);
 80056da:	f507 7384 	add.w	r3, r7, #264	@ 0x108
 80056de:	f5a3 7382 	sub.w	r3, r3, #260	@ 0x104
 80056e2:	681a      	ldr	r2, [r3, #0]
 80056e4:	f507 7384 	add.w	r3, r7, #264	@ 0x108
 80056e8:	f5a3 7384 	sub.w	r3, r3, #264	@ 0x108
 80056ec:	681b      	ldr	r3, [r3, #0]
 80056ee:	781b      	ldrb	r3, [r3, #0]
 80056f0:	009b      	lsls	r3, r3, #2
 80056f2:	4413      	add	r3, r2
 80056f4:	881b      	ldrh	r3, [r3, #0]
 80056f6:	b29b      	uxth	r3, r3
 80056f8:	f423 4380 	bic.w	r3, r3, #16384	@ 0x4000
 80056fc:	f023 0370 	bic.w	r3, r3, #112	@ 0x70
 8005700:	f8a7 308a 	strh.w	r3, [r7, #138]	@ 0x8a
 8005704:	f8b7 308a 	ldrh.w	r3, [r7, #138]	@ 0x8a
 8005708:	f483 5380 	eor.w	r3, r3, #4096	@ 0x1000
 800570c:	f8a7 308a 	strh.w	r3, [r7, #138]	@ 0x8a
 8005710:	f8b7 308a 	ldrh.w	r3, [r7, #138]	@ 0x8a
 8005714:	f483 5300 	eor.w	r3, r3, #8192	@ 0x2000
 8005718:	f8a7 308a 	strh.w	r3, [r7, #138]	@ 0x8a
 800571c:	f507 7384 	add.w	r3, r7, #264	@ 0x108
 8005720:	f5a3 7382 	sub.w	r3, r3, #260	@ 0x104
 8005724:	681a      	ldr	r2, [r3, #0]
 8005726:	f507 7384 	add.w	r3, r7, #264	@ 0x108
 800572a:	f5a3 7384 	sub.w	r3, r3, #264	@ 0x108
 800572e:	681b      	ldr	r3, [r3, #0]
 8005730:	781b      	ldrb	r3, [r3, #0]
 8005732:	009b      	lsls	r3, r3, #2
 8005734:	441a      	add	r2, r3
 8005736:	f8b7 308a 	ldrh.w	r3, [r7, #138]	@ 0x8a
 800573a:	f043 437f 	orr.w	r3, r3, #4278190080	@ 0xff000000
 800573e:	f443 037f 	orr.w	r3, r3, #16711680	@ 0xff0000
 8005742:	f443 4300 	orr.w	r3, r3, #32768	@ 0x8000
 8005746:	f043 0380 	orr.w	r3, r3, #128	@ 0x80
 800574a:	b29b      	uxth	r3, r3
 800574c:	8013      	strh	r3, [r2, #0]
  }

  return HAL_OK;
 800574e:	2300      	movs	r3, #0
}
 8005750:	4618      	mov	r0, r3
 8005752:	f507 7784 	add.w	r7, r7, #264	@ 0x108
 8005756:	46bd      	mov	sp, r7
 8005758:	bd80      	pop	{r7, pc}

0800575a <USB_EPSetStall>:
  * @param  USBx Selected device
  * @param  ep pointer to endpoint structure
  * @retval HAL status
  */
HAL_StatusTypeDef USB_EPSetStall(USB_TypeDef *USBx, USB_EPTypeDef *ep)
{
 800575a:	b480      	push	{r7}
 800575c:	b085      	sub	sp, #20
 800575e:	af00      	add	r7, sp, #0
 8005760:	6078      	str	r0, [r7, #4]
 8005762:	6039      	str	r1, [r7, #0]
  if (ep->is_in != 0U)
 8005764:	683b      	ldr	r3, [r7, #0]
 8005766:	785b      	ldrb	r3, [r3, #1]
 8005768:	2b00      	cmp	r3, #0
 800576a:	d020      	beq.n	80057ae <USB_EPSetStall+0x54>
  {
    PCD_SET_EP_TX_STATUS(USBx, ep->num, USB_EP_TX_STALL);
 800576c:	687a      	ldr	r2, [r7, #4]
 800576e:	683b      	ldr	r3, [r7, #0]
 8005770:	781b      	ldrb	r3, [r3, #0]
 8005772:	009b      	lsls	r3, r3, #2
 8005774:	4413      	add	r3, r2
 8005776:	881b      	ldrh	r3, [r3, #0]
 8005778:	b29b      	uxth	r3, r3
 800577a:	f423 43e0 	bic.w	r3, r3, #28672	@ 0x7000
 800577e:	f023 0340 	bic.w	r3, r3, #64	@ 0x40
 8005782:	81bb      	strh	r3, [r7, #12]
 8005784:	89bb      	ldrh	r3, [r7, #12]
 8005786:	f083 0310 	eor.w	r3, r3, #16
 800578a:	81bb      	strh	r3, [r7, #12]
 800578c:	687a      	ldr	r2, [r7, #4]
 800578e:	683b      	ldr	r3, [r7, #0]
 8005790:	781b      	ldrb	r3, [r3, #0]
 8005792:	009b      	lsls	r3, r3, #2
 8005794:	441a      	add	r2, r3
 8005796:	89bb      	ldrh	r3, [r7, #12]
 8005798:	f043 437f 	orr.w	r3, r3, #4278190080	@ 0xff000000
 800579c:	f443 037f 	orr.w	r3, r3, #16711680	@ 0xff0000
 80057a0:	f443 4300 	orr.w	r3, r3, #32768	@ 0x8000
 80057a4:	f043 0380 	orr.w	r3, r3, #128	@ 0x80
 80057a8:	b29b      	uxth	r3, r3
 80057aa:	8013      	strh	r3, [r2, #0]
 80057ac:	e01f      	b.n	80057ee <USB_EPSetStall+0x94>
  }
  else
  {
    PCD_SET_EP_RX_STATUS(USBx, ep->num, USB_EP_RX_STALL);
 80057ae:	687a      	ldr	r2, [r7, #4]
 80057b0:	683b      	ldr	r3, [r7, #0]
 80057b2:	781b      	ldrb	r3, [r3, #0]
 80057b4:	009b      	lsls	r3, r3, #2
 80057b6:	4413      	add	r3, r2
 80057b8:	881b      	ldrh	r3, [r3, #0]
 80057ba:	b29b      	uxth	r3, r3
 80057bc:	f423 4380 	bic.w	r3, r3, #16384	@ 0x4000
 80057c0:	f023 0370 	bic.w	r3, r3, #112	@ 0x70
 80057c4:	81fb      	strh	r3, [r7, #14]
 80057c6:	89fb      	ldrh	r3, [r7, #14]
 80057c8:	f483 5380 	eor.w	r3, r3, #4096	@ 0x1000
 80057cc:	81fb      	strh	r3, [r7, #14]
 80057ce:	687a      	ldr	r2, [r7, #4]
 80057d0:	683b      	ldr	r3, [r7, #0]
 80057d2:	781b      	ldrb	r3, [r3, #0]
 80057d4:	009b      	lsls	r3, r3, #2
 80057d6:	441a      	add	r2, r3
 80057d8:	89fb      	ldrh	r3, [r7, #14]
 80057da:	f043 437f 	orr.w	r3, r3, #4278190080	@ 0xff000000
 80057de:	f443 037f 	orr.w	r3, r3, #16711680	@ 0xff0000
 80057e2:	f443 4300 	orr.w	r3, r3, #32768	@ 0x8000
 80057e6:	f043 0380 	orr.w	r3, r3, #128	@ 0x80
 80057ea:	b29b      	uxth	r3, r3
 80057ec:	8013      	strh	r3, [r2, #0]
  }

  return HAL_OK;
 80057ee:	2300      	movs	r3, #0
}
 80057f0:	4618      	mov	r0, r3
 80057f2:	3714      	adds	r7, #20
 80057f4:	46bd      	mov	sp, r7
 80057f6:	bc80      	pop	{r7}
 80057f8:	4770      	bx	lr

080057fa <USB_EPClearStall>:
  * @param  USBx Selected device
  * @param  ep pointer to endpoint structure
  * @retval HAL status
  */
HAL_StatusTypeDef USB_EPClearStall(USB_TypeDef *USBx, USB_EPTypeDef *ep)
{
 80057fa:	b480      	push	{r7}
 80057fc:	b087      	sub	sp, #28
 80057fe:	af00      	add	r7, sp, #0
 8005800:	6078      	str	r0, [r7, #4]
 8005802:	6039      	str	r1, [r7, #0]
  if (ep->doublebuffer == 0U)
 8005804:	683b      	ldr	r3, [r7, #0]
 8005806:	7b1b      	ldrb	r3, [r3, #12]
 8005808:	2b00      	cmp	r3, #0
 800580a:	f040 809d 	bne.w	8005948 <USB_EPClearStall+0x14e>
  {
    if (ep->is_in != 0U)
 800580e:	683b      	ldr	r3, [r7, #0]
 8005810:	785b      	ldrb	r3, [r3, #1]
 8005812:	2b00      	cmp	r3, #0
 8005814:	d04c      	beq.n	80058b0 <USB_EPClearStall+0xb6>
    {
      PCD_CLEAR_TX_DTOG(USBx, ep->num);
 8005816:	687a      	ldr	r2, [r7, #4]
 8005818:	683b      	ldr	r3, [r7, #0]
 800581a:	781b      	ldrb	r3, [r3, #0]
 800581c:	009b      	lsls	r3, r3, #2
 800581e:	4413      	add	r3, r2
 8005820:	881b      	ldrh	r3, [r3, #0]
 8005822:	823b      	strh	r3, [r7, #16]
 8005824:	8a3b      	ldrh	r3, [r7, #16]
 8005826:	f003 0340 	and.w	r3, r3, #64	@ 0x40
 800582a:	2b00      	cmp	r3, #0
 800582c:	d01b      	beq.n	8005866 <USB_EPClearStall+0x6c>
 800582e:	687a      	ldr	r2, [r7, #4]
 8005830:	683b      	ldr	r3, [r7, #0]
 8005832:	781b      	ldrb	r3, [r3, #0]
 8005834:	009b      	lsls	r3, r3, #2
 8005836:	4413      	add	r3, r2
 8005838:	881b      	ldrh	r3, [r3, #0]
 800583a:	b29b      	uxth	r3, r3
 800583c:	f423 43e0 	bic.w	r3, r3, #28672	@ 0x7000
 8005840:	f023 0370 	bic.w	r3, r3, #112	@ 0x70
 8005844:	81fb      	strh	r3, [r7, #14]
 8005846:	687a      	ldr	r2, [r7, #4]
 8005848:	683b      	ldr	r3, [r7, #0]
 800584a:	781b      	ldrb	r3, [r3, #0]
 800584c:	009b      	lsls	r3, r3, #2
 800584e:	441a      	add	r2, r3
 8005850:	89fb      	ldrh	r3, [r7, #14]
 8005852:	f043 437f 	orr.w	r3, r3, #4278190080	@ 0xff000000
 8005856:	f443 037f 	orr.w	r3, r3, #16711680	@ 0xff0000
 800585a:	f443 4300 	orr.w	r3, r3, #32768	@ 0x8000
 800585e:	f043 03c0 	orr.w	r3, r3, #192	@ 0xc0
 8005862:	b29b      	uxth	r3, r3
 8005864:	8013      	strh	r3, [r2, #0]

      if (ep->type != EP_TYPE_ISOC)
 8005866:	683b      	ldr	r3, [r7, #0]
 8005868:	78db      	ldrb	r3, [r3, #3]
 800586a:	2b01      	cmp	r3, #1
 800586c:	d06c      	beq.n	8005948 <USB_EPClearStall+0x14e>
      {
        /* Configure NAK status for the Endpoint */
        PCD_SET_EP_TX_STATUS(USBx, ep->num, USB_EP_TX_NAK);
 800586e:	687a      	ldr	r2, [r7, #4]
 8005870:	683b      	ldr	r3, [r7, #0]
 8005872:	781b      	ldrb	r3, [r3, #0]
 8005874:	009b      	lsls	r3, r3, #2
 8005876:	4413      	add	r3, r2
 8005878:	881b      	ldrh	r3, [r3, #0]
 800587a:	b29b      	uxth	r3, r3
 800587c:	f423 43e0 	bic.w	r3, r3, #28672	@ 0x7000
 8005880:	f023 0340 	bic.w	r3, r3, #64	@ 0x40
 8005884:	81bb      	strh	r3, [r7, #12]
 8005886:	89bb      	ldrh	r3, [r7, #12]
 8005888:	f083 0320 	eor.w	r3, r3, #32
 800588c:	81bb      	strh	r3, [r7, #12]
 800588e:	687a      	ldr	r2, [r7, #4]
 8005890:	683b      	ldr	r3, [r7, #0]
 8005892:	781b      	ldrb	r3, [r3, #0]
 8005894:	009b      	lsls	r3, r3, #2
 8005896:	441a      	add	r2, r3
 8005898:	89bb      	ldrh	r3, [r7, #12]
 800589a:	f043 437f 	orr.w	r3, r3, #4278190080	@ 0xff000000
 800589e:	f443 037f 	orr.w	r3, r3, #16711680	@ 0xff0000
 80058a2:	f443 4300 	orr.w	r3, r3, #32768	@ 0x8000
 80058a6:	f043 0380 	orr.w	r3, r3, #128	@ 0x80
 80058aa:	b29b      	uxth	r3, r3
 80058ac:	8013      	strh	r3, [r2, #0]
 80058ae:	e04b      	b.n	8005948 <USB_EPClearStall+0x14e>
      }
    }
    else
    {
      PCD_CLEAR_RX_DTOG(USBx, ep->num);
 80058b0:	687a      	ldr	r2, [r7, #4]
 80058b2:	683b      	ldr	r3, [r7, #0]
 80058b4:	781b      	ldrb	r3, [r3, #0]
 80058b6:	009b      	lsls	r3, r3, #2
 80058b8:	4413      	add	r3, r2
 80058ba:	881b      	ldrh	r3, [r3, #0]
 80058bc:	82fb      	strh	r3, [r7, #22]
 80058be:	8afb      	ldrh	r3, [r7, #22]
 80058c0:	f403 4380 	and.w	r3, r3, #16384	@ 0x4000
 80058c4:	2b00      	cmp	r3, #0
 80058c6:	d01b      	beq.n	8005900 <USB_EPClearStall+0x106>
 80058c8:	687a      	ldr	r2, [r7, #4]
 80058ca:	683b      	ldr	r3, [r7, #0]
 80058cc:	781b      	ldrb	r3, [r3, #0]
 80058ce:	009b      	lsls	r3, r3, #2
 80058d0:	4413      	add	r3, r2
 80058d2:	881b      	ldrh	r3, [r3, #0]
 80058d4:	b29b      	uxth	r3, r3
 80058d6:	f423 43e0 	bic.w	r3, r3, #28672	@ 0x7000
 80058da:	f023 0370 	bic.w	r3, r3, #112	@ 0x70
 80058de:	82bb      	strh	r3, [r7, #20]
 80058e0:	687a      	ldr	r2, [r7, #4]
 80058e2:	683b      	ldr	r3, [r7, #0]
 80058e4:	781b      	ldrb	r3, [r3, #0]
 80058e6:	009b      	lsls	r3, r3, #2
 80058e8:	441a      	add	r2, r3
 80058ea:	8abb      	ldrh	r3, [r7, #20]
 80058ec:	f043 437f 	orr.w	r3, r3, #4278190080	@ 0xff000000
 80058f0:	f443 037f 	orr.w	r3, r3, #16711680	@ 0xff0000
 80058f4:	f443 4340 	orr.w	r3, r3, #49152	@ 0xc000
 80058f8:	f043 0380 	orr.w	r3, r3, #128	@ 0x80
 80058fc:	b29b      	uxth	r3, r3
 80058fe:	8013      	strh	r3, [r2, #0]

      /* Configure VALID status for the Endpoint */
      PCD_SET_EP_RX_STATUS(USBx, ep->num, USB_EP_RX_VALID);
 8005900:	687a      	ldr	r2, [r7, #4]
 8005902:	683b      	ldr	r3, [r7, #0]
 8005904:	781b      	ldrb	r3, [r3, #0]
 8005906:	009b      	lsls	r3, r3, #2
 8005908:	4413      	add	r3, r2
 800590a:	881b      	ldrh	r3, [r3, #0]
 800590c:	b29b      	uxth	r3, r3
 800590e:	f423 4380 	bic.w	r3, r3, #16384	@ 0x4000
 8005912:	f023 0370 	bic.w	r3, r3, #112	@ 0x70
 8005916:	827b      	strh	r3, [r7, #18]
 8005918:	8a7b      	ldrh	r3, [r7, #18]
 800591a:	f483 5380 	eor.w	r3, r3, #4096	@ 0x1000
 800591e:	827b      	strh	r3, [r7, #18]
 8005920:	8a7b      	ldrh	r3, [r7, #18]
 8005922:	f483 5300 	eor.w	r3, r3, #8192	@ 0x2000
 8005926:	827b      	strh	r3, [r7, #18]
 8005928:	687a      	ldr	r2, [r7, #4]
 800592a:	683b      	ldr	r3, [r7, #0]
 800592c:	781b      	ldrb	r3, [r3, #0]
 800592e:	009b      	lsls	r3, r3, #2
 8005930:	441a      	add	r2, r3
 8005932:	8a7b      	ldrh	r3, [r7, #18]
 8005934:	f043 437f 	orr.w	r3, r3, #4278190080	@ 0xff000000
 8005938:	f443 037f 	orr.w	r3, r3, #16711680	@ 0xff0000
 800593c:	f443 4300 	orr.w	r3, r3, #32768	@ 0x8000
 8005940:	f043 0380 	orr.w	r3, r3, #128	@ 0x80
 8005944:	b29b      	uxth	r3, r3
 8005946:	8013      	strh	r3, [r2, #0]
    }
  }

  return HAL_OK;
 8005948:	2300      	movs	r3, #0
}
 800594a:	4618      	mov	r0, r3
 800594c:	371c      	adds	r7, #28
 800594e:	46bd      	mov	sp, r7
 8005950:	bc80      	pop	{r7}
 8005952:	4770      	bx	lr

08005954 <USB_SetDevAddress>:
  * @param  address new device address to be assigned
  *          This parameter can be a value from 0 to 255
  * @retval HAL status
  */
HAL_StatusTypeDef  USB_SetDevAddress(USB_TypeDef *USBx, uint8_t address)
{
 8005954:	b480      	push	{r7}
 8005956:	b083      	sub	sp, #12
 8005958:	af00      	add	r7, sp, #0
 800595a:	6078      	str	r0, [r7, #4]
 800595c:	460b      	mov	r3, r1
 800595e:	70fb      	strb	r3, [r7, #3]
  if (address == 0U)
 8005960:	78fb      	ldrb	r3, [r7, #3]
 8005962:	2b00      	cmp	r3, #0
 8005964:	d103      	bne.n	800596e <USB_SetDevAddress+0x1a>
  {
    /* set device address and enable function */
    USBx->DADDR = (uint16_t)USB_DADDR_EF;
 8005966:	687b      	ldr	r3, [r7, #4]
 8005968:	2280      	movs	r2, #128	@ 0x80
 800596a:	f8a3 204c 	strh.w	r2, [r3, #76]	@ 0x4c
  }

  return HAL_OK;
 800596e:	2300      	movs	r3, #0
}
 8005970:	4618      	mov	r0, r3
 8005972:	370c      	adds	r7, #12
 8005974:	46bd      	mov	sp, r7
 8005976:	bc80      	pop	{r7}
 8005978:	4770      	bx	lr

0800597a <USB_DevConnect>:
  * @brief  USB_DevConnect Connect the USB device by enabling the pull-up/pull-down
  * @param  USBx Selected device
  * @retval HAL status
  */
HAL_StatusTypeDef  USB_DevConnect(USB_TypeDef *USBx)
{
 800597a:	b480      	push	{r7}
 800597c:	b083      	sub	sp, #12
 800597e:	af00      	add	r7, sp, #0
 8005980:	6078      	str	r0, [r7, #4]
  /* NOTE : - This function is not required by USB Device FS peripheral, it is used
              only by USB OTG FS peripheral.
            - This function is added to ensure compatibility across platforms.
   */

  return HAL_OK;
 8005982:	2300      	movs	r3, #0
}
 8005984:	4618      	mov	r0, r3
 8005986:	370c      	adds	r7, #12
 8005988:	46bd      	mov	sp, r7
 800598a:	bc80      	pop	{r7}
 800598c:	4770      	bx	lr

0800598e <USB_DevDisconnect>:
  * @brief  USB_DevDisconnect Disconnect the USB device by disabling the pull-up/pull-down
  * @param  USBx Selected device
  * @retval HAL status
  */
HAL_StatusTypeDef  USB_DevDisconnect(USB_TypeDef *USBx)
{
 800598e:	b480      	push	{r7}
 8005990:	b083      	sub	sp, #12
 8005992:	af00      	add	r7, sp, #0
 8005994:	6078      	str	r0, [r7, #4]
  /* NOTE : - This function is not required by USB Device FS peripheral, it is used
              only by USB OTG FS peripheral.
            - This function is added to ensure compatibility across platforms.
   */

  return HAL_OK;
 8005996:	2300      	movs	r3, #0
}
 8005998:	4618      	mov	r0, r3
 800599a:	370c      	adds	r7, #12
 800599c:	46bd      	mov	sp, r7
 800599e:	bc80      	pop	{r7}
 80059a0:	4770      	bx	lr

080059a2 <USB_ReadInterrupts>:
  * @brief  USB_ReadInterrupts return the global USB interrupt status
  * @param  USBx Selected device
  * @retval USB Global Interrupt status
  */
uint32_t USB_ReadInterrupts(USB_TypeDef const *USBx)
{
 80059a2:	b480      	push	{r7}
 80059a4:	b085      	sub	sp, #20
 80059a6:	af00      	add	r7, sp, #0
 80059a8:	6078      	str	r0, [r7, #4]
  uint32_t tmpreg;

  tmpreg = USBx->ISTR;
 80059aa:	687b      	ldr	r3, [r7, #4]
 80059ac:	f8b3 3044 	ldrh.w	r3, [r3, #68]	@ 0x44
 80059b0:	b29b      	uxth	r3, r3
 80059b2:	60fb      	str	r3, [r7, #12]
  return tmpreg;
 80059b4:	68fb      	ldr	r3, [r7, #12]
}
 80059b6:	4618      	mov	r0, r3
 80059b8:	3714      	adds	r7, #20
 80059ba:	46bd      	mov	sp, r7
 80059bc:	bc80      	pop	{r7}
 80059be:	4770      	bx	lr

080059c0 <USB_EP0_OutStart>:
  * @param  USBx Selected device
  * @param  psetup pointer to setup packet
  * @retval HAL status
  */
HAL_StatusTypeDef USB_EP0_OutStart(USB_TypeDef *USBx, uint8_t *psetup)
{
 80059c0:	b480      	push	{r7}
 80059c2:	b083      	sub	sp, #12
 80059c4:	af00      	add	r7, sp, #0
 80059c6:	6078      	str	r0, [r7, #4]
 80059c8:	6039      	str	r1, [r7, #0]
  UNUSED(psetup);
  /* NOTE : - This function is not required by USB Device FS peripheral, it is used
              only by USB OTG FS peripheral.
            - This function is added to ensure compatibility across platforms.
   */
  return HAL_OK;
 80059ca:	2300      	movs	r3, #0
}
 80059cc:	4618      	mov	r0, r3
 80059ce:	370c      	adds	r7, #12
 80059d0:	46bd      	mov	sp, r7
 80059d2:	bc80      	pop	{r7}
 80059d4:	4770      	bx	lr

080059d6 <USB_WritePMA>:
  * @param   wPMABufAddr address into PMA.
  * @param   wNBytes no. of bytes to be copied.
  * @retval None
  */
void USB_WritePMA(USB_TypeDef const *USBx, uint8_t *pbUsrBuf, uint16_t wPMABufAddr, uint16_t wNBytes)
{
 80059d6:	b480      	push	{r7}
 80059d8:	b08b      	sub	sp, #44	@ 0x2c
 80059da:	af00      	add	r7, sp, #0
 80059dc:	60f8      	str	r0, [r7, #12]
 80059de:	60b9      	str	r1, [r7, #8]
 80059e0:	4611      	mov	r1, r2
 80059e2:	461a      	mov	r2, r3
 80059e4:	460b      	mov	r3, r1
 80059e6:	80fb      	strh	r3, [r7, #6]
 80059e8:	4613      	mov	r3, r2
 80059ea:	80bb      	strh	r3, [r7, #4]
  uint32_t n = ((uint32_t)wNBytes + 1U) >> 1;
 80059ec:	88bb      	ldrh	r3, [r7, #4]
 80059ee:	3301      	adds	r3, #1
 80059f0:	085b      	lsrs	r3, r3, #1
 80059f2:	61bb      	str	r3, [r7, #24]
  uint32_t BaseAddr = (uint32_t)USBx;
 80059f4:	68fb      	ldr	r3, [r7, #12]
 80059f6:	617b      	str	r3, [r7, #20]
  uint32_t count;
  uint16_t WrVal;
  __IO uint16_t *pdwVal;
  uint8_t *pBuf = pbUsrBuf;
 80059f8:	68bb      	ldr	r3, [r7, #8]
 80059fa:	61fb      	str	r3, [r7, #28]

  pdwVal = (__IO uint16_t *)(BaseAddr + 0x400U + ((uint32_t)wPMABufAddr * PMA_ACCESS));
 80059fc:	88fb      	ldrh	r3, [r7, #6]
 80059fe:	005a      	lsls	r2, r3, #1
 8005a00:	697b      	ldr	r3, [r7, #20]
 8005a02:	4413      	add	r3, r2
 8005a04:	f503 6380 	add.w	r3, r3, #1024	@ 0x400
 8005a08:	623b      	str	r3, [r7, #32]

  for (count = n; count != 0U; count--)
 8005a0a:	69bb      	ldr	r3, [r7, #24]
 8005a0c:	627b      	str	r3, [r7, #36]	@ 0x24
 8005a0e:	e01e      	b.n	8005a4e <USB_WritePMA+0x78>
  {
    WrVal = pBuf[0];
 8005a10:	69fb      	ldr	r3, [r7, #28]
 8005a12:	781b      	ldrb	r3, [r3, #0]
 8005a14:	827b      	strh	r3, [r7, #18]
    WrVal |= (uint16_t)pBuf[1] << 8;
 8005a16:	69fb      	ldr	r3, [r7, #28]
 8005a18:	3301      	adds	r3, #1
 8005a1a:	781b      	ldrb	r3, [r3, #0]
 8005a1c:	021b      	lsls	r3, r3, #8
 8005a1e:	b21a      	sxth	r2, r3
 8005a20:	f9b7 3012 	ldrsh.w	r3, [r7, #18]
 8005a24:	4313      	orrs	r3, r2
 8005a26:	b21b      	sxth	r3, r3
 8005a28:	827b      	strh	r3, [r7, #18]
    *pdwVal = (WrVal & 0xFFFFU);
 8005a2a:	6a3b      	ldr	r3, [r7, #32]
 8005a2c:	8a7a      	ldrh	r2, [r7, #18]
 8005a2e:	801a      	strh	r2, [r3, #0]
    pdwVal++;
 8005a30:	6a3b      	ldr	r3, [r7, #32]
 8005a32:	3302      	adds	r3, #2
 8005a34:	623b      	str	r3, [r7, #32]

#if PMA_ACCESS > 1U
    pdwVal++;
 8005a36:	6a3b      	ldr	r3, [r7, #32]
 8005a38:	3302      	adds	r3, #2
 8005a3a:	623b      	str	r3, [r7, #32]
#endif /* PMA_ACCESS */

    pBuf++;
 8005a3c:	69fb      	ldr	r3, [r7, #28]
 8005a3e:	3301      	adds	r3, #1
 8005a40:	61fb      	str	r3, [r7, #28]
    pBuf++;
 8005a42:	69fb      	ldr	r3, [r7, #28]
 8005a44:	3301      	adds	r3, #1
 8005a46:	61fb      	str	r3, [r7, #28]
  for (count = n; count != 0U; count--)
 8005a48:	6a7b      	ldr	r3, [r7, #36]	@ 0x24
 8005a4a:	3b01      	subs	r3, #1
 8005a4c:	627b      	str	r3, [r7, #36]	@ 0x24
 8005a4e:	6a7b      	ldr	r3, [r7, #36]	@ 0x24
 8005a50:	2b00      	cmp	r3, #0
 8005a52:	d1dd      	bne.n	8005a10 <USB_WritePMA+0x3a>
  }
}
 8005a54:	bf00      	nop
 8005a56:	bf00      	nop
 8005a58:	372c      	adds	r7, #44	@ 0x2c
 8005a5a:	46bd      	mov	sp, r7
 8005a5c:	bc80      	pop	{r7}
 8005a5e:	4770      	bx	lr

08005a60 <USB_ReadPMA>:
  * @param   wPMABufAddr address into PMA.
  * @param   wNBytes no. of bytes to be copied.
  * @retval None
  */
void USB_ReadPMA(USB_TypeDef const *USBx, uint8_t *pbUsrBuf, uint16_t wPMABufAddr, uint16_t wNBytes)
{
 8005a60:	b480      	push	{r7}
 8005a62:	b08b      	sub	sp, #44	@ 0x2c
 8005a64:	af00      	add	r7, sp, #0
 8005a66:	60f8      	str	r0, [r7, #12]
 8005a68:	60b9      	str	r1, [r7, #8]
 8005a6a:	4611      	mov	r1, r2
 8005a6c:	461a      	mov	r2, r3
 8005a6e:	460b      	mov	r3, r1
 8005a70:	80fb      	strh	r3, [r7, #6]
 8005a72:	4613      	mov	r3, r2
 8005a74:	80bb      	strh	r3, [r7, #4]
  uint32_t n = (uint32_t)wNBytes >> 1;
 8005a76:	88bb      	ldrh	r3, [r7, #4]
 8005a78:	085b      	lsrs	r3, r3, #1
 8005a7a:	b29b      	uxth	r3, r3
 8005a7c:	61bb      	str	r3, [r7, #24]
  uint32_t BaseAddr = (uint32_t)USBx;
 8005a7e:	68fb      	ldr	r3, [r7, #12]
 8005a80:	617b      	str	r3, [r7, #20]
  uint32_t count;
  uint32_t RdVal;
  __IO uint16_t *pdwVal;
  uint8_t *pBuf = pbUsrBuf;
 8005a82:	68bb      	ldr	r3, [r7, #8]
 8005a84:	61fb      	str	r3, [r7, #28]

  pdwVal = (__IO uint16_t *)(BaseAddr + 0x400U + ((uint32_t)wPMABufAddr * PMA_ACCESS));
 8005a86:	88fb      	ldrh	r3, [r7, #6]
 8005a88:	005a      	lsls	r2, r3, #1
 8005a8a:	697b      	ldr	r3, [r7, #20]
 8005a8c:	4413      	add	r3, r2
 8005a8e:	f503 6380 	add.w	r3, r3, #1024	@ 0x400
 8005a92:	623b      	str	r3, [r7, #32]

  for (count = n; count != 0U; count--)
 8005a94:	69bb      	ldr	r3, [r7, #24]
 8005a96:	627b      	str	r3, [r7, #36]	@ 0x24
 8005a98:	e01b      	b.n	8005ad2 <USB_ReadPMA+0x72>
  {
    RdVal = *(__IO uint16_t *)pdwVal;
 8005a9a:	6a3b      	ldr	r3, [r7, #32]
 8005a9c:	881b      	ldrh	r3, [r3, #0]
 8005a9e:	b29b      	uxth	r3, r3
 8005aa0:	613b      	str	r3, [r7, #16]
    pdwVal++;
 8005aa2:	6a3b      	ldr	r3, [r7, #32]
 8005aa4:	3302      	adds	r3, #2
 8005aa6:	623b      	str	r3, [r7, #32]
    *pBuf = (uint8_t)((RdVal >> 0) & 0xFFU);
 8005aa8:	693b      	ldr	r3, [r7, #16]
 8005aaa:	b2da      	uxtb	r2, r3
 8005aac:	69fb      	ldr	r3, [r7, #28]
 8005aae:	701a      	strb	r2, [r3, #0]
    pBuf++;
 8005ab0:	69fb      	ldr	r3, [r7, #28]
 8005ab2:	3301      	adds	r3, #1
 8005ab4:	61fb      	str	r3, [r7, #28]
    *pBuf = (uint8_t)((RdVal >> 8) & 0xFFU);
 8005ab6:	693b      	ldr	r3, [r7, #16]
 8005ab8:	0a1b      	lsrs	r3, r3, #8
 8005aba:	b2da      	uxtb	r2, r3
 8005abc:	69fb      	ldr	r3, [r7, #28]
 8005abe:	701a      	strb	r2, [r3, #0]
    pBuf++;
 8005ac0:	69fb      	ldr	r3, [r7, #28]
 8005ac2:	3301      	adds	r3, #1
 8005ac4:	61fb      	str	r3, [r7, #28]

#if PMA_ACCESS > 1U
    pdwVal++;
 8005ac6:	6a3b      	ldr	r3, [r7, #32]
 8005ac8:	3302      	adds	r3, #2
 8005aca:	623b      	str	r3, [r7, #32]
  for (count = n; count != 0U; count--)
 8005acc:	6a7b      	ldr	r3, [r7, #36]	@ 0x24
 8005ace:	3b01      	subs	r3, #1
 8005ad0:	627b      	str	r3, [r7, #36]	@ 0x24
 8005ad2:	6a7b      	ldr	r3, [r7, #36]	@ 0x24
 8005ad4:	2b00      	cmp	r3, #0
 8005ad6:	d1e0      	bne.n	8005a9a <USB_ReadPMA+0x3a>
#endif /* PMA_ACCESS */
  }

  if ((wNBytes % 2U) != 0U)
 8005ad8:	88bb      	ldrh	r3, [r7, #4]
 8005ada:	f003 0301 	and.w	r3, r3, #1
 8005ade:	b29b      	uxth	r3, r3
 8005ae0:	2b00      	cmp	r3, #0
 8005ae2:	d007      	beq.n	8005af4 <USB_ReadPMA+0x94>
  {
    RdVal = *pdwVal;
 8005ae4:	6a3b      	ldr	r3, [r7, #32]
 8005ae6:	881b      	ldrh	r3, [r3, #0]
 8005ae8:	b29b      	uxth	r3, r3
 8005aea:	613b      	str	r3, [r7, #16]
    *pBuf = (uint8_t)((RdVal >> 0) & 0xFFU);
 8005aec:	693b      	ldr	r3, [r7, #16]
 8005aee:	b2da      	uxtb	r2, r3
 8005af0:	69fb      	ldr	r3, [r7, #28]
 8005af2:	701a      	strb	r2, [r3, #0]
  }
}
 8005af4:	bf00      	nop
 8005af6:	372c      	adds	r7, #44	@ 0x2c
 8005af8:	46bd      	mov	sp, r7
 8005afa:	bc80      	pop	{r7}
 8005afc:	4770      	bx	lr

08005afe <USBD_Init>:
* @param  id: Low level core index
* @retval None
*/
USBD_StatusTypeDef USBD_Init(USBD_HandleTypeDef *pdev,
                             USBD_DescriptorsTypeDef *pdesc, uint8_t id)
{
 8005afe:	b580      	push	{r7, lr}
 8005b00:	b084      	sub	sp, #16
 8005b02:	af00      	add	r7, sp, #0
 8005b04:	60f8      	str	r0, [r7, #12]
 8005b06:	60b9      	str	r1, [r7, #8]
 8005b08:	4613      	mov	r3, r2
 8005b0a:	71fb      	strb	r3, [r7, #7]
  /* Check whether the USB Host handle is valid */
  if (pdev == NULL)
 8005b0c:	68fb      	ldr	r3, [r7, #12]
 8005b0e:	2b00      	cmp	r3, #0
 8005b10:	d101      	bne.n	8005b16 <USBD_Init+0x18>
  {
#if (USBD_DEBUG_LEVEL > 1U)
    USBD_ErrLog("Invalid Device handle");
#endif
    return USBD_FAIL;
 8005b12:	2302      	movs	r3, #2
 8005b14:	e01a      	b.n	8005b4c <USBD_Init+0x4e>
  }

  /* Unlink previous class*/
  if (pdev->pClass != NULL)
 8005b16:	68fb      	ldr	r3, [r7, #12]
 8005b18:	f8d3 32b4 	ldr.w	r3, [r3, #692]	@ 0x2b4
 8005b1c:	2b00      	cmp	r3, #0
 8005b1e:	d003      	beq.n	8005b28 <USBD_Init+0x2a>
  {
    pdev->pClass = NULL;
 8005b20:	68fb      	ldr	r3, [r7, #12]
 8005b22:	2200      	movs	r2, #0
 8005b24:	f8c3 22b4 	str.w	r2, [r3, #692]	@ 0x2b4
  }

  /* Assign USBD Descriptors */
  if (pdesc != NULL)
 8005b28:	68bb      	ldr	r3, [r7, #8]
 8005b2a:	2b00      	cmp	r3, #0
 8005b2c:	d003      	beq.n	8005b36 <USBD_Init+0x38>
  {
    pdev->pDesc = pdesc;
 8005b2e:	68fb      	ldr	r3, [r7, #12]
 8005b30:	68ba      	ldr	r2, [r7, #8]
 8005b32:	f8c3 22b0 	str.w	r2, [r3, #688]	@ 0x2b0
  }

  /* Set Device initial State */
  pdev->dev_state = USBD_STATE_DEFAULT;
 8005b36:	68fb      	ldr	r3, [r7, #12]
 8005b38:	2201      	movs	r2, #1
 8005b3a:	f883 229c 	strb.w	r2, [r3, #668]	@ 0x29c
  pdev->id = id;
 8005b3e:	68fb      	ldr	r3, [r7, #12]
 8005b40:	79fa      	ldrb	r2, [r7, #7]
 8005b42:	701a      	strb	r2, [r3, #0]
  /* Initialize low level driver */
  USBD_LL_Init(pdev);
 8005b44:	68f8      	ldr	r0, [r7, #12]
 8005b46:	f001 fbe1 	bl	800730c <USBD_LL_Init>

  return USBD_OK;
 8005b4a:	2300      	movs	r3, #0
}
 8005b4c:	4618      	mov	r0, r3
 8005b4e:	3710      	adds	r7, #16
 8005b50:	46bd      	mov	sp, r7
 8005b52:	bd80      	pop	{r7, pc}

08005b54 <USBD_RegisterClass>:
  * @param  pDevice : Device Handle
  * @param  pclass: Class handle
  * @retval USBD Status
  */
USBD_StatusTypeDef  USBD_RegisterClass(USBD_HandleTypeDef *pdev, USBD_ClassTypeDef *pclass)
{
 8005b54:	b480      	push	{r7}
 8005b56:	b085      	sub	sp, #20
 8005b58:	af00      	add	r7, sp, #0
 8005b5a:	6078      	str	r0, [r7, #4]
 8005b5c:	6039      	str	r1, [r7, #0]
  USBD_StatusTypeDef status = USBD_OK;
 8005b5e:	2300      	movs	r3, #0
 8005b60:	73fb      	strb	r3, [r7, #15]
  if (pclass != NULL)
 8005b62:	683b      	ldr	r3, [r7, #0]
 8005b64:	2b00      	cmp	r3, #0
 8005b66:	d006      	beq.n	8005b76 <USBD_RegisterClass+0x22>
  {
    /* link the class to the USB Device handle */
    pdev->pClass = pclass;
 8005b68:	687b      	ldr	r3, [r7, #4]
 8005b6a:	683a      	ldr	r2, [r7, #0]
 8005b6c:	f8c3 22b4 	str.w	r2, [r3, #692]	@ 0x2b4
    status = USBD_OK;
 8005b70:	2300      	movs	r3, #0
 8005b72:	73fb      	strb	r3, [r7, #15]
 8005b74:	e001      	b.n	8005b7a <USBD_RegisterClass+0x26>
  else
  {
#if (USBD_DEBUG_LEVEL > 1U)
    USBD_ErrLog("Invalid Class handle");
#endif
    status = USBD_FAIL;
 8005b76:	2302      	movs	r3, #2
 8005b78:	73fb      	strb	r3, [r7, #15]
  }

  return status;
 8005b7a:	7bfb      	ldrb	r3, [r7, #15]
}
 8005b7c:	4618      	mov	r0, r3
 8005b7e:	3714      	adds	r7, #20
 8005b80:	46bd      	mov	sp, r7
 8005b82:	bc80      	pop	{r7}
 8005b84:	4770      	bx	lr

08005b86 <USBD_Start>:
  *         Start the USB Device Core.
  * @param  pdev: Device Handle
  * @retval USBD Status
  */
USBD_StatusTypeDef  USBD_Start(USBD_HandleTypeDef *pdev)
{
 8005b86:	b580      	push	{r7, lr}
 8005b88:	b082      	sub	sp, #8
 8005b8a:	af00      	add	r7, sp, #0
 8005b8c:	6078      	str	r0, [r7, #4]
  /* Start the low level driver  */
  USBD_LL_Start(pdev);
 8005b8e:	6878      	ldr	r0, [r7, #4]
 8005b90:	f001 fc04 	bl	800739c <USBD_LL_Start>

  return USBD_OK;
 8005b94:	2300      	movs	r3, #0
}
 8005b96:	4618      	mov	r0, r3
 8005b98:	3708      	adds	r7, #8
 8005b9a:	46bd      	mov	sp, r7
 8005b9c:	bd80      	pop	{r7, pc}

08005b9e <USBD_RunTestMode>:
*         Launch test mode process
* @param  pdev: device instance
* @retval status
*/
USBD_StatusTypeDef  USBD_RunTestMode(USBD_HandleTypeDef  *pdev)
{
 8005b9e:	b480      	push	{r7}
 8005ba0:	b083      	sub	sp, #12
 8005ba2:	af00      	add	r7, sp, #0
 8005ba4:	6078      	str	r0, [r7, #4]
  /* Prevent unused argument compilation warning */
  UNUSED(pdev);

  return USBD_OK;
 8005ba6:	2300      	movs	r3, #0
}
 8005ba8:	4618      	mov	r0, r3
 8005baa:	370c      	adds	r7, #12
 8005bac:	46bd      	mov	sp, r7
 8005bae:	bc80      	pop	{r7}
 8005bb0:	4770      	bx	lr

08005bb2 <USBD_SetClassConfig>:
* @param  cfgidx: configuration index
* @retval status
*/

USBD_StatusTypeDef USBD_SetClassConfig(USBD_HandleTypeDef  *pdev, uint8_t cfgidx)
{
 8005bb2:	b580      	push	{r7, lr}
 8005bb4:	b084      	sub	sp, #16
 8005bb6:	af00      	add	r7, sp, #0
 8005bb8:	6078      	str	r0, [r7, #4]
 8005bba:	460b      	mov	r3, r1
 8005bbc:	70fb      	strb	r3, [r7, #3]
  USBD_StatusTypeDef ret = USBD_FAIL;
 8005bbe:	2302      	movs	r3, #2
 8005bc0:	73fb      	strb	r3, [r7, #15]

  if (pdev->pClass != NULL)
 8005bc2:	687b      	ldr	r3, [r7, #4]
 8005bc4:	f8d3 32b4 	ldr.w	r3, [r3, #692]	@ 0x2b4
 8005bc8:	2b00      	cmp	r3, #0
 8005bca:	d00c      	beq.n	8005be6 <USBD_SetClassConfig+0x34>
  {
    /* Set configuration  and Start the Class*/
    if (pdev->pClass->Init(pdev, cfgidx) == 0U)
 8005bcc:	687b      	ldr	r3, [r7, #4]
 8005bce:	f8d3 32b4 	ldr.w	r3, [r3, #692]	@ 0x2b4
 8005bd2:	681b      	ldr	r3, [r3, #0]
 8005bd4:	78fa      	ldrb	r2, [r7, #3]
 8005bd6:	4611      	mov	r1, r2
 8005bd8:	6878      	ldr	r0, [r7, #4]
 8005bda:	4798      	blx	r3
 8005bdc:	4603      	mov	r3, r0
 8005bde:	2b00      	cmp	r3, #0
 8005be0:	d101      	bne.n	8005be6 <USBD_SetClassConfig+0x34>
    {
      ret = USBD_OK;
 8005be2:	2300      	movs	r3, #0
 8005be4:	73fb      	strb	r3, [r7, #15]
    }
  }

  return ret;
 8005be6:	7bfb      	ldrb	r3, [r7, #15]
}
 8005be8:	4618      	mov	r0, r3
 8005bea:	3710      	adds	r7, #16
 8005bec:	46bd      	mov	sp, r7
 8005bee:	bd80      	pop	{r7, pc}

08005bf0 <USBD_ClrClassConfig>:
* @param  pdev: device instance
* @param  cfgidx: configuration index
* @retval status: USBD_StatusTypeDef
*/
USBD_StatusTypeDef USBD_ClrClassConfig(USBD_HandleTypeDef  *pdev, uint8_t cfgidx)
{
 8005bf0:	b580      	push	{r7, lr}
 8005bf2:	b082      	sub	sp, #8
 8005bf4:	af00      	add	r7, sp, #0
 8005bf6:	6078      	str	r0, [r7, #4]
 8005bf8:	460b      	mov	r3, r1
 8005bfa:	70fb      	strb	r3, [r7, #3]
  /* Clear configuration  and De-initialize the Class process*/
  pdev->pClass->DeInit(pdev, cfgidx);
 8005bfc:	687b      	ldr	r3, [r7, #4]
 8005bfe:	f8d3 32b4 	ldr.w	r3, [r3, #692]	@ 0x2b4
 8005c02:	685b      	ldr	r3, [r3, #4]
 8005c04:	78fa      	ldrb	r2, [r7, #3]
 8005c06:	4611      	mov	r1, r2
 8005c08:	6878      	ldr	r0, [r7, #4]
 8005c0a:	4798      	blx	r3

  return USBD_OK;
 8005c0c:	2300      	movs	r3, #0
}
 8005c0e:	4618      	mov	r0, r3
 8005c10:	3708      	adds	r7, #8
 8005c12:	46bd      	mov	sp, r7
 8005c14:	bd80      	pop	{r7, pc}

08005c16 <USBD_LL_SetupStage>:
*         Handle the setup stage
* @param  pdev: device instance
* @retval status
*/
USBD_StatusTypeDef USBD_LL_SetupStage(USBD_HandleTypeDef *pdev, uint8_t *psetup)
{
 8005c16:	b580      	push	{r7, lr}
 8005c18:	b082      	sub	sp, #8
 8005c1a:	af00      	add	r7, sp, #0
 8005c1c:	6078      	str	r0, [r7, #4]
 8005c1e:	6039      	str	r1, [r7, #0]
  USBD_ParseSetupRequest(&pdev->request, psetup);
 8005c20:	687b      	ldr	r3, [r7, #4]
 8005c22:	f503 732a 	add.w	r3, r3, #680	@ 0x2a8
 8005c26:	6839      	ldr	r1, [r7, #0]
 8005c28:	4618      	mov	r0, r3
 8005c2a:	f000 fed8 	bl	80069de <USBD_ParseSetupRequest>

  pdev->ep0_state = USBD_EP0_SETUP;
 8005c2e:	687b      	ldr	r3, [r7, #4]
 8005c30:	2201      	movs	r2, #1
 8005c32:	f8c3 2294 	str.w	r2, [r3, #660]	@ 0x294

  pdev->ep0_data_len = pdev->request.wLength;
 8005c36:	687b      	ldr	r3, [r7, #4]
 8005c38:	f8b3 32ae 	ldrh.w	r3, [r3, #686]	@ 0x2ae
 8005c3c:	461a      	mov	r2, r3
 8005c3e:	687b      	ldr	r3, [r7, #4]
 8005c40:	f8c3 2298 	str.w	r2, [r3, #664]	@ 0x298

  switch (pdev->request.bmRequest & 0x1FU)
 8005c44:	687b      	ldr	r3, [r7, #4]
 8005c46:	f893 32a8 	ldrb.w	r3, [r3, #680]	@ 0x2a8
 8005c4a:	f003 031f 	and.w	r3, r3, #31
 8005c4e:	2b02      	cmp	r3, #2
 8005c50:	d016      	beq.n	8005c80 <USBD_LL_SetupStage+0x6a>
 8005c52:	2b02      	cmp	r3, #2
 8005c54:	d81c      	bhi.n	8005c90 <USBD_LL_SetupStage+0x7a>
 8005c56:	2b00      	cmp	r3, #0
 8005c58:	d002      	beq.n	8005c60 <USBD_LL_SetupStage+0x4a>
 8005c5a:	2b01      	cmp	r3, #1
 8005c5c:	d008      	beq.n	8005c70 <USBD_LL_SetupStage+0x5a>
 8005c5e:	e017      	b.n	8005c90 <USBD_LL_SetupStage+0x7a>
  {
    case USB_REQ_RECIPIENT_DEVICE:
      USBD_StdDevReq(pdev, &pdev->request);
 8005c60:	687b      	ldr	r3, [r7, #4]
 8005c62:	f503 732a 	add.w	r3, r3, #680	@ 0x2a8
 8005c66:	4619      	mov	r1, r3
 8005c68:	6878      	ldr	r0, [r7, #4]
 8005c6a:	f000 f9cb 	bl	8006004 <USBD_StdDevReq>
      break;
 8005c6e:	e01a      	b.n	8005ca6 <USBD_LL_SetupStage+0x90>

    case USB_REQ_RECIPIENT_INTERFACE:
      USBD_StdItfReq(pdev, &pdev->request);
 8005c70:	687b      	ldr	r3, [r7, #4]
 8005c72:	f503 732a 	add.w	r3, r3, #680	@ 0x2a8
 8005c76:	4619      	mov	r1, r3
 8005c78:	6878      	ldr	r0, [r7, #4]
 8005c7a:	f000 fa2d 	bl	80060d8 <USBD_StdItfReq>
      break;
 8005c7e:	e012      	b.n	8005ca6 <USBD_LL_SetupStage+0x90>

    case USB_REQ_RECIPIENT_ENDPOINT:
      USBD_StdEPReq(pdev, &pdev->request);
 8005c80:	687b      	ldr	r3, [r7, #4]
 8005c82:	f503 732a 	add.w	r3, r3, #680	@ 0x2a8
 8005c86:	4619      	mov	r1, r3
 8005c88:	6878      	ldr	r0, [r7, #4]
 8005c8a:	f000 fa6d 	bl	8006168 <USBD_StdEPReq>
      break;
 8005c8e:	e00a      	b.n	8005ca6 <USBD_LL_SetupStage+0x90>

    default:
      USBD_LL_StallEP(pdev, (pdev->request.bmRequest & 0x80U));
 8005c90:	687b      	ldr	r3, [r7, #4]
 8005c92:	f893 32a8 	ldrb.w	r3, [r3, #680]	@ 0x2a8
 8005c96:	f023 037f 	bic.w	r3, r3, #127	@ 0x7f
 8005c9a:	b2db      	uxtb	r3, r3
 8005c9c:	4619      	mov	r1, r3
 8005c9e:	6878      	ldr	r0, [r7, #4]
 8005ca0:	f001 fbdc 	bl	800745c <USBD_LL_StallEP>
      break;
 8005ca4:	bf00      	nop
  }

  return USBD_OK;
 8005ca6:	2300      	movs	r3, #0
}
 8005ca8:	4618      	mov	r0, r3
 8005caa:	3708      	adds	r7, #8
 8005cac:	46bd      	mov	sp, r7
 8005cae:	bd80      	pop	{r7, pc}

08005cb0 <USBD_LL_DataOutStage>:
* @param  epnum: endpoint index
* @retval status
*/
USBD_StatusTypeDef USBD_LL_DataOutStage(USBD_HandleTypeDef *pdev,
                                        uint8_t epnum, uint8_t *pdata)
{
 8005cb0:	b580      	push	{r7, lr}
 8005cb2:	b086      	sub	sp, #24
 8005cb4:	af00      	add	r7, sp, #0
 8005cb6:	60f8      	str	r0, [r7, #12]
 8005cb8:	460b      	mov	r3, r1
 8005cba:	607a      	str	r2, [r7, #4]
 8005cbc:	72fb      	strb	r3, [r7, #11]
  USBD_EndpointTypeDef *pep;

  if (epnum == 0U)
 8005cbe:	7afb      	ldrb	r3, [r7, #11]
 8005cc0:	2b00      	cmp	r3, #0
 8005cc2:	d14b      	bne.n	8005d5c <USBD_LL_DataOutStage+0xac>
  {
    pep = &pdev->ep_out[0];
 8005cc4:	68fb      	ldr	r3, [r7, #12]
 8005cc6:	f503 73aa 	add.w	r3, r3, #340	@ 0x154
 8005cca:	617b      	str	r3, [r7, #20]

    if (pdev->ep0_state == USBD_EP0_DATA_OUT)
 8005ccc:	68fb      	ldr	r3, [r7, #12]
 8005cce:	f8d3 3294 	ldr.w	r3, [r3, #660]	@ 0x294
 8005cd2:	2b03      	cmp	r3, #3
 8005cd4:	d134      	bne.n	8005d40 <USBD_LL_DataOutStage+0x90>
    {
      if (pep->rem_length > pep->maxpacket)
 8005cd6:	697b      	ldr	r3, [r7, #20]
 8005cd8:	68da      	ldr	r2, [r3, #12]
 8005cda:	697b      	ldr	r3, [r7, #20]
 8005cdc:	691b      	ldr	r3, [r3, #16]
 8005cde:	429a      	cmp	r2, r3
 8005ce0:	d919      	bls.n	8005d16 <USBD_LL_DataOutStage+0x66>
      {
        pep->rem_length -= pep->maxpacket;
 8005ce2:	697b      	ldr	r3, [r7, #20]
 8005ce4:	68da      	ldr	r2, [r3, #12]
 8005ce6:	697b      	ldr	r3, [r7, #20]
 8005ce8:	691b      	ldr	r3, [r3, #16]
 8005cea:	1ad2      	subs	r2, r2, r3
 8005cec:	697b      	ldr	r3, [r7, #20]
 8005cee:	60da      	str	r2, [r3, #12]

        USBD_CtlContinueRx(pdev, pdata,
                           (uint16_t)MIN(pep->rem_length, pep->maxpacket));
 8005cf0:	697b      	ldr	r3, [r7, #20]
 8005cf2:	68da      	ldr	r2, [r3, #12]
 8005cf4:	697b      	ldr	r3, [r7, #20]
 8005cf6:	691b      	ldr	r3, [r3, #16]
        USBD_CtlContinueRx(pdev, pdata,
 8005cf8:	429a      	cmp	r2, r3
 8005cfa:	d203      	bcs.n	8005d04 <USBD_LL_DataOutStage+0x54>
                           (uint16_t)MIN(pep->rem_length, pep->maxpacket));
 8005cfc:	697b      	ldr	r3, [r7, #20]
 8005cfe:	68db      	ldr	r3, [r3, #12]
        USBD_CtlContinueRx(pdev, pdata,
 8005d00:	b29b      	uxth	r3, r3
 8005d02:	e002      	b.n	8005d0a <USBD_LL_DataOutStage+0x5a>
                           (uint16_t)MIN(pep->rem_length, pep->maxpacket));
 8005d04:	697b      	ldr	r3, [r7, #20]
 8005d06:	691b      	ldr	r3, [r3, #16]
        USBD_CtlContinueRx(pdev, pdata,
 8005d08:	b29b      	uxth	r3, r3
 8005d0a:	461a      	mov	r2, r3
 8005d0c:	6879      	ldr	r1, [r7, #4]
 8005d0e:	68f8      	ldr	r0, [r7, #12]
 8005d10:	f001 f8ce 	bl	8006eb0 <USBD_CtlContinueRx>
 8005d14:	e038      	b.n	8005d88 <USBD_LL_DataOutStage+0xd8>
      }
      else
      {
        if ((pdev->pClass->EP0_RxReady != NULL) &&
 8005d16:	68fb      	ldr	r3, [r7, #12]
 8005d18:	f8d3 32b4 	ldr.w	r3, [r3, #692]	@ 0x2b4
 8005d1c:	691b      	ldr	r3, [r3, #16]
 8005d1e:	2b00      	cmp	r3, #0
 8005d20:	d00a      	beq.n	8005d38 <USBD_LL_DataOutStage+0x88>
            (pdev->dev_state == USBD_STATE_CONFIGURED))
 8005d22:	68fb      	ldr	r3, [r7, #12]
 8005d24:	f893 329c 	ldrb.w	r3, [r3, #668]	@ 0x29c
        if ((pdev->pClass->EP0_RxReady != NULL) &&
 8005d28:	2b03      	cmp	r3, #3
 8005d2a:	d105      	bne.n	8005d38 <USBD_LL_DataOutStage+0x88>
        {
          pdev->pClass->EP0_RxReady(pdev);
 8005d2c:	68fb      	ldr	r3, [r7, #12]
 8005d2e:	f8d3 32b4 	ldr.w	r3, [r3, #692]	@ 0x2b4
 8005d32:	691b      	ldr	r3, [r3, #16]
 8005d34:	68f8      	ldr	r0, [r7, #12]
 8005d36:	4798      	blx	r3
        }
        USBD_CtlSendStatus(pdev);
 8005d38:	68f8      	ldr	r0, [r7, #12]
 8005d3a:	f001 f8cb 	bl	8006ed4 <USBD_CtlSendStatus>
 8005d3e:	e023      	b.n	8005d88 <USBD_LL_DataOutStage+0xd8>
      }
    }
    else
    {
      if (pdev->ep0_state == USBD_EP0_STATUS_OUT)
 8005d40:	68fb      	ldr	r3, [r7, #12]
 8005d42:	f8d3 3294 	ldr.w	r3, [r3, #660]	@ 0x294
 8005d46:	2b05      	cmp	r3, #5
 8005d48:	d11e      	bne.n	8005d88 <USBD_LL_DataOutStage+0xd8>
      {
        /*
         * STATUS PHASE completed, update ep0_state to idle
         */
        pdev->ep0_state = USBD_EP0_IDLE;
 8005d4a:	68fb      	ldr	r3, [r7, #12]
 8005d4c:	2200      	movs	r2, #0
 8005d4e:	f8c3 2294 	str.w	r2, [r3, #660]	@ 0x294
        USBD_LL_StallEP(pdev, 0U);
 8005d52:	2100      	movs	r1, #0
 8005d54:	68f8      	ldr	r0, [r7, #12]
 8005d56:	f001 fb81 	bl	800745c <USBD_LL_StallEP>
 8005d5a:	e015      	b.n	8005d88 <USBD_LL_DataOutStage+0xd8>
      }
    }
  }
  else if ((pdev->pClass->DataOut != NULL) &&
 8005d5c:	68fb      	ldr	r3, [r7, #12]
 8005d5e:	f8d3 32b4 	ldr.w	r3, [r3, #692]	@ 0x2b4
 8005d62:	699b      	ldr	r3, [r3, #24]
 8005d64:	2b00      	cmp	r3, #0
 8005d66:	d00d      	beq.n	8005d84 <USBD_LL_DataOutStage+0xd4>
           (pdev->dev_state == USBD_STATE_CONFIGURED))
 8005d68:	68fb      	ldr	r3, [r7, #12]
 8005d6a:	f893 329c 	ldrb.w	r3, [r3, #668]	@ 0x29c
  else if ((pdev->pClass->DataOut != NULL) &&
 8005d6e:	2b03      	cmp	r3, #3
 8005d70:	d108      	bne.n	8005d84 <USBD_LL_DataOutStage+0xd4>
  {
    pdev->pClass->DataOut(pdev, epnum);
 8005d72:	68fb      	ldr	r3, [r7, #12]
 8005d74:	f8d3 32b4 	ldr.w	r3, [r3, #692]	@ 0x2b4
 8005d78:	699b      	ldr	r3, [r3, #24]
 8005d7a:	7afa      	ldrb	r2, [r7, #11]
 8005d7c:	4611      	mov	r1, r2
 8005d7e:	68f8      	ldr	r0, [r7, #12]
 8005d80:	4798      	blx	r3
 8005d82:	e001      	b.n	8005d88 <USBD_LL_DataOutStage+0xd8>
  }
  else
  {
    /* should never be in this condition */
    return USBD_FAIL;
 8005d84:	2302      	movs	r3, #2
 8005d86:	e000      	b.n	8005d8a <USBD_LL_DataOutStage+0xda>
  }

  return USBD_OK;
 8005d88:	2300      	movs	r3, #0
}
 8005d8a:	4618      	mov	r0, r3
 8005d8c:	3718      	adds	r7, #24
 8005d8e:	46bd      	mov	sp, r7
 8005d90:	bd80      	pop	{r7, pc}

08005d92 <USBD_LL_DataInStage>:
* @param  epnum: endpoint index
* @retval status
*/
USBD_StatusTypeDef USBD_LL_DataInStage(USBD_HandleTypeDef *pdev,
                                       uint8_t epnum, uint8_t *pdata)
{
 8005d92:	b580      	push	{r7, lr}
 8005d94:	b086      	sub	sp, #24
 8005d96:	af00      	add	r7, sp, #0
 8005d98:	60f8      	str	r0, [r7, #12]
 8005d9a:	460b      	mov	r3, r1
 8005d9c:	607a      	str	r2, [r7, #4]
 8005d9e:	72fb      	strb	r3, [r7, #11]
  USBD_EndpointTypeDef *pep;

  if (epnum == 0U)
 8005da0:	7afb      	ldrb	r3, [r7, #11]
 8005da2:	2b00      	cmp	r3, #0
 8005da4:	d17f      	bne.n	8005ea6 <USBD_LL_DataInStage+0x114>
  {
    pep = &pdev->ep_in[0];
 8005da6:	68fb      	ldr	r3, [r7, #12]
 8005da8:	3314      	adds	r3, #20
 8005daa:	617b      	str	r3, [r7, #20]

    if (pdev->ep0_state == USBD_EP0_DATA_IN)
 8005dac:	68fb      	ldr	r3, [r7, #12]
 8005dae:	f8d3 3294 	ldr.w	r3, [r3, #660]	@ 0x294
 8005db2:	2b02      	cmp	r3, #2
 8005db4:	d15c      	bne.n	8005e70 <USBD_LL_DataInStage+0xde>
    {
      if (pep->rem_length > pep->maxpacket)
 8005db6:	697b      	ldr	r3, [r7, #20]
 8005db8:	68da      	ldr	r2, [r3, #12]
 8005dba:	697b      	ldr	r3, [r7, #20]
 8005dbc:	691b      	ldr	r3, [r3, #16]
 8005dbe:	429a      	cmp	r2, r3
 8005dc0:	d915      	bls.n	8005dee <USBD_LL_DataInStage+0x5c>
      {
        pep->rem_length -= pep->maxpacket;
 8005dc2:	697b      	ldr	r3, [r7, #20]
 8005dc4:	68da      	ldr	r2, [r3, #12]
 8005dc6:	697b      	ldr	r3, [r7, #20]
 8005dc8:	691b      	ldr	r3, [r3, #16]
 8005dca:	1ad2      	subs	r2, r2, r3
 8005dcc:	697b      	ldr	r3, [r7, #20]
 8005dce:	60da      	str	r2, [r3, #12]

        USBD_CtlContinueSendData(pdev, pdata, (uint16_t)pep->rem_length);
 8005dd0:	697b      	ldr	r3, [r7, #20]
 8005dd2:	68db      	ldr	r3, [r3, #12]
 8005dd4:	b29b      	uxth	r3, r3
 8005dd6:	461a      	mov	r2, r3
 8005dd8:	6879      	ldr	r1, [r7, #4]
 8005dda:	68f8      	ldr	r0, [r7, #12]
 8005ddc:	f001 f856 	bl	8006e8c <USBD_CtlContinueSendData>

        /* Prepare endpoint for premature end of transfer */
        USBD_LL_PrepareReceive(pdev, 0U, NULL, 0U);
 8005de0:	2300      	movs	r3, #0
 8005de2:	2200      	movs	r2, #0
 8005de4:	2100      	movs	r1, #0
 8005de6:	68f8      	ldr	r0, [r7, #12]
 8005de8:	f001 fbe3 	bl	80075b2 <USBD_LL_PrepareReceive>
 8005dec:	e04e      	b.n	8005e8c <USBD_LL_DataInStage+0xfa>
      }
      else
      {
        /* last packet is MPS multiple, so send ZLP packet */
        if ((pep->total_length % pep->maxpacket == 0U) &&
 8005dee:	697b      	ldr	r3, [r7, #20]
 8005df0:	689b      	ldr	r3, [r3, #8]
 8005df2:	697a      	ldr	r2, [r7, #20]
 8005df4:	6912      	ldr	r2, [r2, #16]
 8005df6:	fbb3 f1f2 	udiv	r1, r3, r2
 8005dfa:	fb01 f202 	mul.w	r2, r1, r2
 8005dfe:	1a9b      	subs	r3, r3, r2
 8005e00:	2b00      	cmp	r3, #0
 8005e02:	d11c      	bne.n	8005e3e <USBD_LL_DataInStage+0xac>
            (pep->total_length >= pep->maxpacket) &&
 8005e04:	697b      	ldr	r3, [r7, #20]
 8005e06:	689a      	ldr	r2, [r3, #8]
 8005e08:	697b      	ldr	r3, [r7, #20]
 8005e0a:	691b      	ldr	r3, [r3, #16]
        if ((pep->total_length % pep->maxpacket == 0U) &&
 8005e0c:	429a      	cmp	r2, r3
 8005e0e:	d316      	bcc.n	8005e3e <USBD_LL_DataInStage+0xac>
            (pep->total_length < pdev->ep0_data_len))
 8005e10:	697b      	ldr	r3, [r7, #20]
 8005e12:	689a      	ldr	r2, [r3, #8]
 8005e14:	68fb      	ldr	r3, [r7, #12]
 8005e16:	f8d3 3298 	ldr.w	r3, [r3, #664]	@ 0x298
            (pep->total_length >= pep->maxpacket) &&
 8005e1a:	429a      	cmp	r2, r3
 8005e1c:	d20f      	bcs.n	8005e3e <USBD_LL_DataInStage+0xac>
        {
          USBD_CtlContinueSendData(pdev, NULL, 0U);
 8005e1e:	2200      	movs	r2, #0
 8005e20:	2100      	movs	r1, #0
 8005e22:	68f8      	ldr	r0, [r7, #12]
 8005e24:	f001 f832 	bl	8006e8c <USBD_CtlContinueSendData>
          pdev->ep0_data_len = 0U;
 8005e28:	68fb      	ldr	r3, [r7, #12]
 8005e2a:	2200      	movs	r2, #0
 8005e2c:	f8c3 2298 	str.w	r2, [r3, #664]	@ 0x298

          /* Prepare endpoint for premature end of transfer */
          USBD_LL_PrepareReceive(pdev, 0U, NULL, 0U);
 8005e30:	2300      	movs	r3, #0
 8005e32:	2200      	movs	r2, #0
 8005e34:	2100      	movs	r1, #0
 8005e36:	68f8      	ldr	r0, [r7, #12]
 8005e38:	f001 fbbb 	bl	80075b2 <USBD_LL_PrepareReceive>
 8005e3c:	e026      	b.n	8005e8c <USBD_LL_DataInStage+0xfa>
        }
        else
        {
          if ((pdev->pClass->EP0_TxSent != NULL) &&
 8005e3e:	68fb      	ldr	r3, [r7, #12]
 8005e40:	f8d3 32b4 	ldr.w	r3, [r3, #692]	@ 0x2b4
 8005e44:	68db      	ldr	r3, [r3, #12]
 8005e46:	2b00      	cmp	r3, #0
 8005e48:	d00a      	beq.n	8005e60 <USBD_LL_DataInStage+0xce>
              (pdev->dev_state == USBD_STATE_CONFIGURED))
 8005e4a:	68fb      	ldr	r3, [r7, #12]
 8005e4c:	f893 329c 	ldrb.w	r3, [r3, #668]	@ 0x29c
          if ((pdev->pClass->EP0_TxSent != NULL) &&
 8005e50:	2b03      	cmp	r3, #3
 8005e52:	d105      	bne.n	8005e60 <USBD_LL_DataInStage+0xce>
          {
            pdev->pClass->EP0_TxSent(pdev);
 8005e54:	68fb      	ldr	r3, [r7, #12]
 8005e56:	f8d3 32b4 	ldr.w	r3, [r3, #692]	@ 0x2b4
 8005e5a:	68db      	ldr	r3, [r3, #12]
 8005e5c:	68f8      	ldr	r0, [r7, #12]
 8005e5e:	4798      	blx	r3
          }
          USBD_LL_StallEP(pdev, 0x80U);
 8005e60:	2180      	movs	r1, #128	@ 0x80
 8005e62:	68f8      	ldr	r0, [r7, #12]
 8005e64:	f001 fafa 	bl	800745c <USBD_LL_StallEP>
          USBD_CtlReceiveStatus(pdev);
 8005e68:	68f8      	ldr	r0, [r7, #12]
 8005e6a:	f001 f846 	bl	8006efa <USBD_CtlReceiveStatus>
 8005e6e:	e00d      	b.n	8005e8c <USBD_LL_DataInStage+0xfa>
        }
      }
    }
    else
    {
      if ((pdev->ep0_state == USBD_EP0_STATUS_IN) ||
 8005e70:	68fb      	ldr	r3, [r7, #12]
 8005e72:	f8d3 3294 	ldr.w	r3, [r3, #660]	@ 0x294
 8005e76:	2b04      	cmp	r3, #4
 8005e78:	d004      	beq.n	8005e84 <USBD_LL_DataInStage+0xf2>
          (pdev->ep0_state == USBD_EP0_IDLE))
 8005e7a:	68fb      	ldr	r3, [r7, #12]
 8005e7c:	f8d3 3294 	ldr.w	r3, [r3, #660]	@ 0x294
      if ((pdev->ep0_state == USBD_EP0_STATUS_IN) ||
 8005e80:	2b00      	cmp	r3, #0
 8005e82:	d103      	bne.n	8005e8c <USBD_LL_DataInStage+0xfa>
      {
        USBD_LL_StallEP(pdev, 0x80U);
 8005e84:	2180      	movs	r1, #128	@ 0x80
 8005e86:	68f8      	ldr	r0, [r7, #12]
 8005e88:	f001 fae8 	bl	800745c <USBD_LL_StallEP>
      }
    }

    if (pdev->dev_test_mode == 1U)
 8005e8c:	68fb      	ldr	r3, [r7, #12]
 8005e8e:	f893 32a0 	ldrb.w	r3, [r3, #672]	@ 0x2a0
 8005e92:	2b01      	cmp	r3, #1
 8005e94:	d11d      	bne.n	8005ed2 <USBD_LL_DataInStage+0x140>
    {
      USBD_RunTestMode(pdev);
 8005e96:	68f8      	ldr	r0, [r7, #12]
 8005e98:	f7ff fe81 	bl	8005b9e <USBD_RunTestMode>
      pdev->dev_test_mode = 0U;
 8005e9c:	68fb      	ldr	r3, [r7, #12]
 8005e9e:	2200      	movs	r2, #0
 8005ea0:	f883 22a0 	strb.w	r2, [r3, #672]	@ 0x2a0
 8005ea4:	e015      	b.n	8005ed2 <USBD_LL_DataInStage+0x140>
    }
  }
  else if ((pdev->pClass->DataIn != NULL) &&
 8005ea6:	68fb      	ldr	r3, [r7, #12]
 8005ea8:	f8d3 32b4 	ldr.w	r3, [r3, #692]	@ 0x2b4
 8005eac:	695b      	ldr	r3, [r3, #20]
 8005eae:	2b00      	cmp	r3, #0
 8005eb0:	d00d      	beq.n	8005ece <USBD_LL_DataInStage+0x13c>
           (pdev->dev_state == USBD_STATE_CONFIGURED))
 8005eb2:	68fb      	ldr	r3, [r7, #12]
 8005eb4:	f893 329c 	ldrb.w	r3, [r3, #668]	@ 0x29c
  else if ((pdev->pClass->DataIn != NULL) &&
 8005eb8:	2b03      	cmp	r3, #3
 8005eba:	d108      	bne.n	8005ece <USBD_LL_DataInStage+0x13c>
  {
    pdev->pClass->DataIn(pdev, epnum);
 8005ebc:	68fb      	ldr	r3, [r7, #12]
 8005ebe:	f8d3 32b4 	ldr.w	r3, [r3, #692]	@ 0x2b4
 8005ec2:	695b      	ldr	r3, [r3, #20]
 8005ec4:	7afa      	ldrb	r2, [r7, #11]
 8005ec6:	4611      	mov	r1, r2
 8005ec8:	68f8      	ldr	r0, [r7, #12]
 8005eca:	4798      	blx	r3
 8005ecc:	e001      	b.n	8005ed2 <USBD_LL_DataInStage+0x140>
  }
  else
  {
    /* should never be in this condition */
    return USBD_FAIL;
 8005ece:	2302      	movs	r3, #2
 8005ed0:	e000      	b.n	8005ed4 <USBD_LL_DataInStage+0x142>
  }

  return USBD_OK;
 8005ed2:	2300      	movs	r3, #0
}
 8005ed4:	4618      	mov	r0, r3
 8005ed6:	3718      	adds	r7, #24
 8005ed8:	46bd      	mov	sp, r7
 8005eda:	bd80      	pop	{r7, pc}

08005edc <USBD_LL_Reset>:
* @param  pdev: device instance
* @retval status
*/

USBD_StatusTypeDef USBD_LL_Reset(USBD_HandleTypeDef *pdev)
{
 8005edc:	b580      	push	{r7, lr}
 8005ede:	b082      	sub	sp, #8
 8005ee0:	af00      	add	r7, sp, #0
 8005ee2:	6078      	str	r0, [r7, #4]
  /* Open EP0 OUT */
  USBD_LL_OpenEP(pdev, 0x00U, USBD_EP_TYPE_CTRL, USB_MAX_EP0_SIZE);
 8005ee4:	2340      	movs	r3, #64	@ 0x40
 8005ee6:	2200      	movs	r2, #0
 8005ee8:	2100      	movs	r1, #0
 8005eea:	6878      	ldr	r0, [r7, #4]
 8005eec:	f001 fa71 	bl	80073d2 <USBD_LL_OpenEP>
  pdev->ep_out[0x00U & 0xFU].is_used = 1U;
 8005ef0:	687b      	ldr	r3, [r7, #4]
 8005ef2:	2201      	movs	r2, #1
 8005ef4:	f8c3 2158 	str.w	r2, [r3, #344]	@ 0x158

  pdev->ep_out[0].maxpacket = USB_MAX_EP0_SIZE;
 8005ef8:	687b      	ldr	r3, [r7, #4]
 8005efa:	2240      	movs	r2, #64	@ 0x40
 8005efc:	f8c3 2164 	str.w	r2, [r3, #356]	@ 0x164

  /* Open EP0 IN */
  USBD_LL_OpenEP(pdev, 0x80U, USBD_EP_TYPE_CTRL, USB_MAX_EP0_SIZE);
 8005f00:	2340      	movs	r3, #64	@ 0x40
 8005f02:	2200      	movs	r2, #0
 8005f04:	2180      	movs	r1, #128	@ 0x80
 8005f06:	6878      	ldr	r0, [r7, #4]
 8005f08:	f001 fa63 	bl	80073d2 <USBD_LL_OpenEP>
  pdev->ep_in[0x80U & 0xFU].is_used = 1U;
 8005f0c:	687b      	ldr	r3, [r7, #4]
 8005f0e:	2201      	movs	r2, #1
 8005f10:	619a      	str	r2, [r3, #24]

  pdev->ep_in[0].maxpacket = USB_MAX_EP0_SIZE;
 8005f12:	687b      	ldr	r3, [r7, #4]
 8005f14:	2240      	movs	r2, #64	@ 0x40
 8005f16:	625a      	str	r2, [r3, #36]	@ 0x24

  /* Upon Reset call user call back */
  pdev->dev_state = USBD_STATE_DEFAULT;
 8005f18:	687b      	ldr	r3, [r7, #4]
 8005f1a:	2201      	movs	r2, #1
 8005f1c:	f883 229c 	strb.w	r2, [r3, #668]	@ 0x29c
  pdev->ep0_state = USBD_EP0_IDLE;
 8005f20:	687b      	ldr	r3, [r7, #4]
 8005f22:	2200      	movs	r2, #0
 8005f24:	f8c3 2294 	str.w	r2, [r3, #660]	@ 0x294
  pdev->dev_config = 0U;
 8005f28:	687b      	ldr	r3, [r7, #4]
 8005f2a:	2200      	movs	r2, #0
 8005f2c:	605a      	str	r2, [r3, #4]
  pdev->dev_remote_wakeup = 0U;
 8005f2e:	687b      	ldr	r3, [r7, #4]
 8005f30:	2200      	movs	r2, #0
 8005f32:	f8c3 22a4 	str.w	r2, [r3, #676]	@ 0x2a4

  if (pdev->pClassData)
 8005f36:	687b      	ldr	r3, [r7, #4]
 8005f38:	f8d3 32b8 	ldr.w	r3, [r3, #696]	@ 0x2b8
 8005f3c:	2b00      	cmp	r3, #0
 8005f3e:	d009      	beq.n	8005f54 <USBD_LL_Reset+0x78>
  {
    pdev->pClass->DeInit(pdev, (uint8_t)pdev->dev_config);
 8005f40:	687b      	ldr	r3, [r7, #4]
 8005f42:	f8d3 32b4 	ldr.w	r3, [r3, #692]	@ 0x2b4
 8005f46:	685b      	ldr	r3, [r3, #4]
 8005f48:	687a      	ldr	r2, [r7, #4]
 8005f4a:	6852      	ldr	r2, [r2, #4]
 8005f4c:	b2d2      	uxtb	r2, r2
 8005f4e:	4611      	mov	r1, r2
 8005f50:	6878      	ldr	r0, [r7, #4]
 8005f52:	4798      	blx	r3
  }

  return USBD_OK;
 8005f54:	2300      	movs	r3, #0
}
 8005f56:	4618      	mov	r0, r3
 8005f58:	3708      	adds	r7, #8
 8005f5a:	46bd      	mov	sp, r7
 8005f5c:	bd80      	pop	{r7, pc}

08005f5e <USBD_LL_SetSpeed>:
* @param  pdev: device instance
* @retval status
*/
USBD_StatusTypeDef USBD_LL_SetSpeed(USBD_HandleTypeDef *pdev,
                                    USBD_SpeedTypeDef speed)
{
 8005f5e:	b480      	push	{r7}
 8005f60:	b083      	sub	sp, #12
 8005f62:	af00      	add	r7, sp, #0
 8005f64:	6078      	str	r0, [r7, #4]
 8005f66:	460b      	mov	r3, r1
 8005f68:	70fb      	strb	r3, [r7, #3]
  pdev->dev_speed = speed;
 8005f6a:	687b      	ldr	r3, [r7, #4]
 8005f6c:	78fa      	ldrb	r2, [r7, #3]
 8005f6e:	741a      	strb	r2, [r3, #16]

  return USBD_OK;
 8005f70:	2300      	movs	r3, #0
}
 8005f72:	4618      	mov	r0, r3
 8005f74:	370c      	adds	r7, #12
 8005f76:	46bd      	mov	sp, r7
 8005f78:	bc80      	pop	{r7}
 8005f7a:	4770      	bx	lr

08005f7c <USBD_LL_Suspend>:
* @param  pdev: device instance
* @retval status
*/

USBD_StatusTypeDef USBD_LL_Suspend(USBD_HandleTypeDef *pdev)
{
 8005f7c:	b480      	push	{r7}
 8005f7e:	b083      	sub	sp, #12
 8005f80:	af00      	add	r7, sp, #0
 8005f82:	6078      	str	r0, [r7, #4]
  pdev->dev_old_state =  pdev->dev_state;
 8005f84:	687b      	ldr	r3, [r7, #4]
 8005f86:	f893 229c 	ldrb.w	r2, [r3, #668]	@ 0x29c
 8005f8a:	687b      	ldr	r3, [r7, #4]
 8005f8c:	f883 229d 	strb.w	r2, [r3, #669]	@ 0x29d
  pdev->dev_state  = USBD_STATE_SUSPENDED;
 8005f90:	687b      	ldr	r3, [r7, #4]
 8005f92:	2204      	movs	r2, #4
 8005f94:	f883 229c 	strb.w	r2, [r3, #668]	@ 0x29c

  return USBD_OK;
 8005f98:	2300      	movs	r3, #0
}
 8005f9a:	4618      	mov	r0, r3
 8005f9c:	370c      	adds	r7, #12
 8005f9e:	46bd      	mov	sp, r7
 8005fa0:	bc80      	pop	{r7}
 8005fa2:	4770      	bx	lr

08005fa4 <USBD_LL_Resume>:
* @param  pdev: device instance
* @retval status
*/

USBD_StatusTypeDef USBD_LL_Resume(USBD_HandleTypeDef *pdev)
{
 8005fa4:	b480      	push	{r7}
 8005fa6:	b083      	sub	sp, #12
 8005fa8:	af00      	add	r7, sp, #0
 8005faa:	6078      	str	r0, [r7, #4]
  if (pdev->dev_state == USBD_STATE_SUSPENDED)
 8005fac:	687b      	ldr	r3, [r7, #4]
 8005fae:	f893 329c 	ldrb.w	r3, [r3, #668]	@ 0x29c
 8005fb2:	2b04      	cmp	r3, #4
 8005fb4:	d105      	bne.n	8005fc2 <USBD_LL_Resume+0x1e>
  {
    pdev->dev_state = pdev->dev_old_state;
 8005fb6:	687b      	ldr	r3, [r7, #4]
 8005fb8:	f893 229d 	ldrb.w	r2, [r3, #669]	@ 0x29d
 8005fbc:	687b      	ldr	r3, [r7, #4]
 8005fbe:	f883 229c 	strb.w	r2, [r3, #668]	@ 0x29c
  }

  return USBD_OK;
 8005fc2:	2300      	movs	r3, #0
}
 8005fc4:	4618      	mov	r0, r3
 8005fc6:	370c      	adds	r7, #12
 8005fc8:	46bd      	mov	sp, r7
 8005fca:	bc80      	pop	{r7}
 8005fcc:	4770      	bx	lr

08005fce <USBD_LL_SOF>:
* @param  pdev: device instance
* @retval status
*/

USBD_StatusTypeDef USBD_LL_SOF(USBD_HandleTypeDef *pdev)
{
 8005fce:	b580      	push	{r7, lr}
 8005fd0:	b082      	sub	sp, #8
 8005fd2:	af00      	add	r7, sp, #0
 8005fd4:	6078      	str	r0, [r7, #4]
  if (pdev->dev_state == USBD_STATE_CONFIGURED)
 8005fd6:	687b      	ldr	r3, [r7, #4]
 8005fd8:	f893 329c 	ldrb.w	r3, [r3, #668]	@ 0x29c
 8005fdc:	2b03      	cmp	r3, #3
 8005fde:	d10b      	bne.n	8005ff8 <USBD_LL_SOF+0x2a>
  {
    if (pdev->pClass->SOF != NULL)
 8005fe0:	687b      	ldr	r3, [r7, #4]
 8005fe2:	f8d3 32b4 	ldr.w	r3, [r3, #692]	@ 0x2b4
 8005fe6:	69db      	ldr	r3, [r3, #28]
 8005fe8:	2b00      	cmp	r3, #0
 8005fea:	d005      	beq.n	8005ff8 <USBD_LL_SOF+0x2a>
    {
      pdev->pClass->SOF(pdev);
 8005fec:	687b      	ldr	r3, [r7, #4]
 8005fee:	f8d3 32b4 	ldr.w	r3, [r3, #692]	@ 0x2b4
 8005ff2:	69db      	ldr	r3, [r3, #28]
 8005ff4:	6878      	ldr	r0, [r7, #4]
 8005ff6:	4798      	blx	r3
    }
  }

  return USBD_OK;
 8005ff8:	2300      	movs	r3, #0
}
 8005ffa:	4618      	mov	r0, r3
 8005ffc:	3708      	adds	r7, #8
 8005ffe:	46bd      	mov	sp, r7
 8006000:	bd80      	pop	{r7, pc}
	...

08006004 <USBD_StdDevReq>:
* @param  req: usb request
* @retval status
*/
USBD_StatusTypeDef  USBD_StdDevReq(USBD_HandleTypeDef *pdev,
                                   USBD_SetupReqTypedef *req)
{
 8006004:	b580      	push	{r7, lr}
 8006006:	b084      	sub	sp, #16
 8006008:	af00      	add	r7, sp, #0
 800600a:	6078      	str	r0, [r7, #4]
 800600c:	6039      	str	r1, [r7, #0]
  USBD_StatusTypeDef ret = USBD_OK;
 800600e:	2300      	movs	r3, #0
 8006010:	73fb      	strb	r3, [r7, #15]

  switch (req->bmRequest & USB_REQ_TYPE_MASK)
 8006012:	683b      	ldr	r3, [r7, #0]
 8006014:	781b      	ldrb	r3, [r3, #0]
 8006016:	f003 0360 	and.w	r3, r3, #96	@ 0x60
 800601a:	2b40      	cmp	r3, #64	@ 0x40
 800601c:	d005      	beq.n	800602a <USBD_StdDevReq+0x26>
 800601e:	2b40      	cmp	r3, #64	@ 0x40
 8006020:	d84f      	bhi.n	80060c2 <USBD_StdDevReq+0xbe>
 8006022:	2b00      	cmp	r3, #0
 8006024:	d009      	beq.n	800603a <USBD_StdDevReq+0x36>
 8006026:	2b20      	cmp	r3, #32
 8006028:	d14b      	bne.n	80060c2 <USBD_StdDevReq+0xbe>
  {
    case USB_REQ_TYPE_CLASS:
    case USB_REQ_TYPE_VENDOR:
      pdev->pClass->Setup(pdev, req);
 800602a:	687b      	ldr	r3, [r7, #4]
 800602c:	f8d3 32b4 	ldr.w	r3, [r3, #692]	@ 0x2b4
 8006030:	689b      	ldr	r3, [r3, #8]
 8006032:	6839      	ldr	r1, [r7, #0]
 8006034:	6878      	ldr	r0, [r7, #4]
 8006036:	4798      	blx	r3
      break;
 8006038:	e048      	b.n	80060cc <USBD_StdDevReq+0xc8>

    case USB_REQ_TYPE_STANDARD:
      switch (req->bRequest)
 800603a:	683b      	ldr	r3, [r7, #0]
 800603c:	785b      	ldrb	r3, [r3, #1]
 800603e:	2b09      	cmp	r3, #9
 8006040:	d839      	bhi.n	80060b6 <USBD_StdDevReq+0xb2>
 8006042:	a201      	add	r2, pc, #4	@ (adr r2, 8006048 <USBD_StdDevReq+0x44>)
 8006044:	f852 f023 	ldr.w	pc, [r2, r3, lsl #2]
 8006048:	08006099 	.word	0x08006099
 800604c:	080060ad 	.word	0x080060ad
 8006050:	080060b7 	.word	0x080060b7
 8006054:	080060a3 	.word	0x080060a3
 8006058:	080060b7 	.word	0x080060b7
 800605c:	0800607b 	.word	0x0800607b
 8006060:	08006071 	.word	0x08006071
 8006064:	080060b7 	.word	0x080060b7
 8006068:	0800608f 	.word	0x0800608f
 800606c:	08006085 	.word	0x08006085
      {
        case USB_REQ_GET_DESCRIPTOR:
          USBD_GetDescriptor(pdev, req);
 8006070:	6839      	ldr	r1, [r7, #0]
 8006072:	6878      	ldr	r0, [r7, #4]
 8006074:	f000 f9dc 	bl	8006430 <USBD_GetDescriptor>
          break;
 8006078:	e022      	b.n	80060c0 <USBD_StdDevReq+0xbc>

        case USB_REQ_SET_ADDRESS:
          USBD_SetAddress(pdev, req);
 800607a:	6839      	ldr	r1, [r7, #0]
 800607c:	6878      	ldr	r0, [r7, #4]
 800607e:	f000 fb3f 	bl	8006700 <USBD_SetAddress>
          break;
 8006082:	e01d      	b.n	80060c0 <USBD_StdDevReq+0xbc>

        case USB_REQ_SET_CONFIGURATION:
          USBD_SetConfig(pdev, req);
 8006084:	6839      	ldr	r1, [r7, #0]
 8006086:	6878      	ldr	r0, [r7, #4]
 8006088:	f000 fb7e 	bl	8006788 <USBD_SetConfig>
          break;
 800608c:	e018      	b.n	80060c0 <USBD_StdDevReq+0xbc>

        case USB_REQ_GET_CONFIGURATION:
          USBD_GetConfig(pdev, req);
 800608e:	6839      	ldr	r1, [r7, #0]
 8006090:	6878      	ldr	r0, [r7, #4]
 8006092:	f000 fc07 	bl	80068a4 <USBD_GetConfig>
          break;
 8006096:	e013      	b.n	80060c0 <USBD_StdDevReq+0xbc>

        case USB_REQ_GET_STATUS:
          USBD_GetStatus(pdev, req);
 8006098:	6839      	ldr	r1, [r7, #0]
 800609a:	6878      	ldr	r0, [r7, #4]
 800609c:	f000 fc37 	bl	800690e <USBD_GetStatus>
          break;
 80060a0:	e00e      	b.n	80060c0 <USBD_StdDevReq+0xbc>

        case USB_REQ_SET_FEATURE:
          USBD_SetFeature(pdev, req);
 80060a2:	6839      	ldr	r1, [r7, #0]
 80060a4:	6878      	ldr	r0, [r7, #4]
 80060a6:	f000 fc65 	bl	8006974 <USBD_SetFeature>
          break;
 80060aa:	e009      	b.n	80060c0 <USBD_StdDevReq+0xbc>

        case USB_REQ_CLEAR_FEATURE:
          USBD_ClrFeature(pdev, req);
 80060ac:	6839      	ldr	r1, [r7, #0]
 80060ae:	6878      	ldr	r0, [r7, #4]
 80060b0:	f000 fc74 	bl	800699c <USBD_ClrFeature>
          break;
 80060b4:	e004      	b.n	80060c0 <USBD_StdDevReq+0xbc>

        default:
          USBD_CtlError(pdev, req);
 80060b6:	6839      	ldr	r1, [r7, #0]
 80060b8:	6878      	ldr	r0, [r7, #4]
 80060ba:	f000 fcc9 	bl	8006a50 <USBD_CtlError>
          break;
 80060be:	bf00      	nop
      }
      break;
 80060c0:	e004      	b.n	80060cc <USBD_StdDevReq+0xc8>

    default:
      USBD_CtlError(pdev, req);
 80060c2:	6839      	ldr	r1, [r7, #0]
 80060c4:	6878      	ldr	r0, [r7, #4]
 80060c6:	f000 fcc3 	bl	8006a50 <USBD_CtlError>
      break;
 80060ca:	bf00      	nop
  }

  return ret;
 80060cc:	7bfb      	ldrb	r3, [r7, #15]
}
 80060ce:	4618      	mov	r0, r3
 80060d0:	3710      	adds	r7, #16
 80060d2:	46bd      	mov	sp, r7
 80060d4:	bd80      	pop	{r7, pc}
 80060d6:	bf00      	nop

080060d8 <USBD_StdItfReq>:
* @param  req: usb request
* @retval status
*/
USBD_StatusTypeDef  USBD_StdItfReq(USBD_HandleTypeDef *pdev,
                                   USBD_SetupReqTypedef  *req)
{
 80060d8:	b580      	push	{r7, lr}
 80060da:	b084      	sub	sp, #16
 80060dc:	af00      	add	r7, sp, #0
 80060de:	6078      	str	r0, [r7, #4]
 80060e0:	6039      	str	r1, [r7, #0]
  USBD_StatusTypeDef ret = USBD_OK;
 80060e2:	2300      	movs	r3, #0
 80060e4:	73fb      	strb	r3, [r7, #15]

  switch (req->bmRequest & USB_REQ_TYPE_MASK)
 80060e6:	683b      	ldr	r3, [r7, #0]
 80060e8:	781b      	ldrb	r3, [r3, #0]
 80060ea:	f003 0360 	and.w	r3, r3, #96	@ 0x60
 80060ee:	2b40      	cmp	r3, #64	@ 0x40
 80060f0:	d005      	beq.n	80060fe <USBD_StdItfReq+0x26>
 80060f2:	2b40      	cmp	r3, #64	@ 0x40
 80060f4:	d82e      	bhi.n	8006154 <USBD_StdItfReq+0x7c>
 80060f6:	2b00      	cmp	r3, #0
 80060f8:	d001      	beq.n	80060fe <USBD_StdItfReq+0x26>
 80060fa:	2b20      	cmp	r3, #32
 80060fc:	d12a      	bne.n	8006154 <USBD_StdItfReq+0x7c>
  {
    case USB_REQ_TYPE_CLASS:
    case USB_REQ_TYPE_VENDOR:
    case USB_REQ_TYPE_STANDARD:
      switch (pdev->dev_state)
 80060fe:	687b      	ldr	r3, [r7, #4]
 8006100:	f893 329c 	ldrb.w	r3, [r3, #668]	@ 0x29c
 8006104:	3b01      	subs	r3, #1
 8006106:	2b02      	cmp	r3, #2
 8006108:	d81d      	bhi.n	8006146 <USBD_StdItfReq+0x6e>
      {
        case USBD_STATE_DEFAULT:
        case USBD_STATE_ADDRESSED:
        case USBD_STATE_CONFIGURED:

          if (LOBYTE(req->wIndex) <= USBD_MAX_NUM_INTERFACES)
 800610a:	683b      	ldr	r3, [r7, #0]
 800610c:	889b      	ldrh	r3, [r3, #4]
 800610e:	b2db      	uxtb	r3, r3
 8006110:	2b01      	cmp	r3, #1
 8006112:	d813      	bhi.n	800613c <USBD_StdItfReq+0x64>
          {
            ret = (USBD_StatusTypeDef)pdev->pClass->Setup(pdev, req);
 8006114:	687b      	ldr	r3, [r7, #4]
 8006116:	f8d3 32b4 	ldr.w	r3, [r3, #692]	@ 0x2b4
 800611a:	689b      	ldr	r3, [r3, #8]
 800611c:	6839      	ldr	r1, [r7, #0]
 800611e:	6878      	ldr	r0, [r7, #4]
 8006120:	4798      	blx	r3
 8006122:	4603      	mov	r3, r0
 8006124:	73fb      	strb	r3, [r7, #15]

            if ((req->wLength == 0U) && (ret == USBD_OK))
 8006126:	683b      	ldr	r3, [r7, #0]
 8006128:	88db      	ldrh	r3, [r3, #6]
 800612a:	2b00      	cmp	r3, #0
 800612c:	d110      	bne.n	8006150 <USBD_StdItfReq+0x78>
 800612e:	7bfb      	ldrb	r3, [r7, #15]
 8006130:	2b00      	cmp	r3, #0
 8006132:	d10d      	bne.n	8006150 <USBD_StdItfReq+0x78>
            {
              USBD_CtlSendStatus(pdev);
 8006134:	6878      	ldr	r0, [r7, #4]
 8006136:	f000 fecd 	bl	8006ed4 <USBD_CtlSendStatus>
          }
          else
          {
            USBD_CtlError(pdev, req);
          }
          break;
 800613a:	e009      	b.n	8006150 <USBD_StdItfReq+0x78>
            USBD_CtlError(pdev, req);
 800613c:	6839      	ldr	r1, [r7, #0]
 800613e:	6878      	ldr	r0, [r7, #4]
 8006140:	f000 fc86 	bl	8006a50 <USBD_CtlError>
          break;
 8006144:	e004      	b.n	8006150 <USBD_StdItfReq+0x78>

        default:
          USBD_CtlError(pdev, req);
 8006146:	6839      	ldr	r1, [r7, #0]
 8006148:	6878      	ldr	r0, [r7, #4]
 800614a:	f000 fc81 	bl	8006a50 <USBD_CtlError>
          break;
 800614e:	e000      	b.n	8006152 <USBD_StdItfReq+0x7a>
          break;
 8006150:	bf00      	nop
      }
      break;
 8006152:	e004      	b.n	800615e <USBD_StdItfReq+0x86>

    default:
      USBD_CtlError(pdev, req);
 8006154:	6839      	ldr	r1, [r7, #0]
 8006156:	6878      	ldr	r0, [r7, #4]
 8006158:	f000 fc7a 	bl	8006a50 <USBD_CtlError>
      break;
 800615c:	bf00      	nop
  }

  return USBD_OK;
 800615e:	2300      	movs	r3, #0
}
 8006160:	4618      	mov	r0, r3
 8006162:	3710      	adds	r7, #16
 8006164:	46bd      	mov	sp, r7
 8006166:	bd80      	pop	{r7, pc}

08006168 <USBD_StdEPReq>:
* @param  req: usb request
* @retval status
*/
USBD_StatusTypeDef  USBD_StdEPReq(USBD_HandleTypeDef *pdev,
                                  USBD_SetupReqTypedef  *req)
{
 8006168:	b580      	push	{r7, lr}
 800616a:	b084      	sub	sp, #16
 800616c:	af00      	add	r7, sp, #0
 800616e:	6078      	str	r0, [r7, #4]
 8006170:	6039      	str	r1, [r7, #0]
  USBD_EndpointTypeDef *pep;
  uint8_t   ep_addr;
  USBD_StatusTypeDef ret = USBD_OK;
 8006172:	2300      	movs	r3, #0
 8006174:	73fb      	strb	r3, [r7, #15]
  ep_addr  = LOBYTE(req->wIndex);
 8006176:	683b      	ldr	r3, [r7, #0]
 8006178:	889b      	ldrh	r3, [r3, #4]
 800617a:	73bb      	strb	r3, [r7, #14]

  switch (req->bmRequest & USB_REQ_TYPE_MASK)
 800617c:	683b      	ldr	r3, [r7, #0]
 800617e:	781b      	ldrb	r3, [r3, #0]
 8006180:	f003 0360 	and.w	r3, r3, #96	@ 0x60
 8006184:	2b40      	cmp	r3, #64	@ 0x40
 8006186:	d007      	beq.n	8006198 <USBD_StdEPReq+0x30>
 8006188:	2b40      	cmp	r3, #64	@ 0x40
 800618a:	f200 8146 	bhi.w	800641a <USBD_StdEPReq+0x2b2>
 800618e:	2b00      	cmp	r3, #0
 8006190:	d00a      	beq.n	80061a8 <USBD_StdEPReq+0x40>
 8006192:	2b20      	cmp	r3, #32
 8006194:	f040 8141 	bne.w	800641a <USBD_StdEPReq+0x2b2>
  {
    case USB_REQ_TYPE_CLASS:
    case USB_REQ_TYPE_VENDOR:
      pdev->pClass->Setup(pdev, req);
 8006198:	687b      	ldr	r3, [r7, #4]
 800619a:	f8d3 32b4 	ldr.w	r3, [r3, #692]	@ 0x2b4
 800619e:	689b      	ldr	r3, [r3, #8]
 80061a0:	6839      	ldr	r1, [r7, #0]
 80061a2:	6878      	ldr	r0, [r7, #4]
 80061a4:	4798      	blx	r3
      break;
 80061a6:	e13d      	b.n	8006424 <USBD_StdEPReq+0x2bc>

    case USB_REQ_TYPE_STANDARD:
      /* Check if it is a class request */
      if ((req->bmRequest & 0x60U) == 0x20U)
 80061a8:	683b      	ldr	r3, [r7, #0]
 80061aa:	781b      	ldrb	r3, [r3, #0]
 80061ac:	f003 0360 	and.w	r3, r3, #96	@ 0x60
 80061b0:	2b20      	cmp	r3, #32
 80061b2:	d10a      	bne.n	80061ca <USBD_StdEPReq+0x62>
      {
        ret = (USBD_StatusTypeDef)pdev->pClass->Setup(pdev, req);
 80061b4:	687b      	ldr	r3, [r7, #4]
 80061b6:	f8d3 32b4 	ldr.w	r3, [r3, #692]	@ 0x2b4
 80061ba:	689b      	ldr	r3, [r3, #8]
 80061bc:	6839      	ldr	r1, [r7, #0]
 80061be:	6878      	ldr	r0, [r7, #4]
 80061c0:	4798      	blx	r3
 80061c2:	4603      	mov	r3, r0
 80061c4:	73fb      	strb	r3, [r7, #15]

        return ret;
 80061c6:	7bfb      	ldrb	r3, [r7, #15]
 80061c8:	e12d      	b.n	8006426 <USBD_StdEPReq+0x2be>
      }

      switch (req->bRequest)
 80061ca:	683b      	ldr	r3, [r7, #0]
 80061cc:	785b      	ldrb	r3, [r3, #1]
 80061ce:	2b03      	cmp	r3, #3
 80061d0:	d007      	beq.n	80061e2 <USBD_StdEPReq+0x7a>
 80061d2:	2b03      	cmp	r3, #3
 80061d4:	f300 811b 	bgt.w	800640e <USBD_StdEPReq+0x2a6>
 80061d8:	2b00      	cmp	r3, #0
 80061da:	d072      	beq.n	80062c2 <USBD_StdEPReq+0x15a>
 80061dc:	2b01      	cmp	r3, #1
 80061de:	d03a      	beq.n	8006256 <USBD_StdEPReq+0xee>
 80061e0:	e115      	b.n	800640e <USBD_StdEPReq+0x2a6>
      {
        case USB_REQ_SET_FEATURE:
          switch (pdev->dev_state)
 80061e2:	687b      	ldr	r3, [r7, #4]
 80061e4:	f893 329c 	ldrb.w	r3, [r3, #668]	@ 0x29c
 80061e8:	2b02      	cmp	r3, #2
 80061ea:	d002      	beq.n	80061f2 <USBD_StdEPReq+0x8a>
 80061ec:	2b03      	cmp	r3, #3
 80061ee:	d015      	beq.n	800621c <USBD_StdEPReq+0xb4>
 80061f0:	e02b      	b.n	800624a <USBD_StdEPReq+0xe2>
          {
            case USBD_STATE_ADDRESSED:
              if ((ep_addr != 0x00U) && (ep_addr != 0x80U))
 80061f2:	7bbb      	ldrb	r3, [r7, #14]
 80061f4:	2b00      	cmp	r3, #0
 80061f6:	d00c      	beq.n	8006212 <USBD_StdEPReq+0xaa>
 80061f8:	7bbb      	ldrb	r3, [r7, #14]
 80061fa:	2b80      	cmp	r3, #128	@ 0x80
 80061fc:	d009      	beq.n	8006212 <USBD_StdEPReq+0xaa>
              {
                USBD_LL_StallEP(pdev, ep_addr);
 80061fe:	7bbb      	ldrb	r3, [r7, #14]
 8006200:	4619      	mov	r1, r3
 8006202:	6878      	ldr	r0, [r7, #4]
 8006204:	f001 f92a 	bl	800745c <USBD_LL_StallEP>
                USBD_LL_StallEP(pdev, 0x80U);
 8006208:	2180      	movs	r1, #128	@ 0x80
 800620a:	6878      	ldr	r0, [r7, #4]
 800620c:	f001 f926 	bl	800745c <USBD_LL_StallEP>
              }
              else
              {
                USBD_CtlError(pdev, req);
              }
              break;
 8006210:	e020      	b.n	8006254 <USBD_StdEPReq+0xec>
                USBD_CtlError(pdev, req);
 8006212:	6839      	ldr	r1, [r7, #0]
 8006214:	6878      	ldr	r0, [r7, #4]
 8006216:	f000 fc1b 	bl	8006a50 <USBD_CtlError>
              break;
 800621a:	e01b      	b.n	8006254 <USBD_StdEPReq+0xec>

            case USBD_STATE_CONFIGURED:
              if (req->wValue == USB_FEATURE_EP_HALT)
 800621c:	683b      	ldr	r3, [r7, #0]
 800621e:	885b      	ldrh	r3, [r3, #2]
 8006220:	2b00      	cmp	r3, #0
 8006222:	d10e      	bne.n	8006242 <USBD_StdEPReq+0xda>
              {
                if ((ep_addr != 0x00U) &&
 8006224:	7bbb      	ldrb	r3, [r7, #14]
 8006226:	2b00      	cmp	r3, #0
 8006228:	d00b      	beq.n	8006242 <USBD_StdEPReq+0xda>
 800622a:	7bbb      	ldrb	r3, [r7, #14]
 800622c:	2b80      	cmp	r3, #128	@ 0x80
 800622e:	d008      	beq.n	8006242 <USBD_StdEPReq+0xda>
                    (ep_addr != 0x80U) && (req->wLength == 0x00U))
 8006230:	683b      	ldr	r3, [r7, #0]
 8006232:	88db      	ldrh	r3, [r3, #6]
 8006234:	2b00      	cmp	r3, #0
 8006236:	d104      	bne.n	8006242 <USBD_StdEPReq+0xda>
                {
                  USBD_LL_StallEP(pdev, ep_addr);
 8006238:	7bbb      	ldrb	r3, [r7, #14]
 800623a:	4619      	mov	r1, r3
 800623c:	6878      	ldr	r0, [r7, #4]
 800623e:	f001 f90d 	bl	800745c <USBD_LL_StallEP>
                }
              }
              USBD_CtlSendStatus(pdev);
 8006242:	6878      	ldr	r0, [r7, #4]
 8006244:	f000 fe46 	bl	8006ed4 <USBD_CtlSendStatus>

              break;
 8006248:	e004      	b.n	8006254 <USBD_StdEPReq+0xec>

            default:
              USBD_CtlError(pdev, req);
 800624a:	6839      	ldr	r1, [r7, #0]
 800624c:	6878      	ldr	r0, [r7, #4]
 800624e:	f000 fbff 	bl	8006a50 <USBD_CtlError>
              break;
 8006252:	bf00      	nop
          }
          break;
 8006254:	e0e0      	b.n	8006418 <USBD_StdEPReq+0x2b0>

        case USB_REQ_CLEAR_FEATURE:

          switch (pdev->dev_state)
 8006256:	687b      	ldr	r3, [r7, #4]
 8006258:	f893 329c 	ldrb.w	r3, [r3, #668]	@ 0x29c
 800625c:	2b02      	cmp	r3, #2
 800625e:	d002      	beq.n	8006266 <USBD_StdEPReq+0xfe>
 8006260:	2b03      	cmp	r3, #3
 8006262:	d015      	beq.n	8006290 <USBD_StdEPReq+0x128>
 8006264:	e026      	b.n	80062b4 <USBD_StdEPReq+0x14c>
          {
            case USBD_STATE_ADDRESSED:
              if ((ep_addr != 0x00U) && (ep_addr != 0x80U))
 8006266:	7bbb      	ldrb	r3, [r7, #14]
 8006268:	2b00      	cmp	r3, #0
 800626a:	d00c      	beq.n	8006286 <USBD_StdEPReq+0x11e>
 800626c:	7bbb      	ldrb	r3, [r7, #14]
 800626e:	2b80      	cmp	r3, #128	@ 0x80
 8006270:	d009      	beq.n	8006286 <USBD_StdEPReq+0x11e>
              {
                USBD_LL_StallEP(pdev, ep_addr);
 8006272:	7bbb      	ldrb	r3, [r7, #14]
 8006274:	4619      	mov	r1, r3
 8006276:	6878      	ldr	r0, [r7, #4]
 8006278:	f001 f8f0 	bl	800745c <USBD_LL_StallEP>
                USBD_LL_StallEP(pdev, 0x80U);
 800627c:	2180      	movs	r1, #128	@ 0x80
 800627e:	6878      	ldr	r0, [r7, #4]
 8006280:	f001 f8ec 	bl	800745c <USBD_LL_StallEP>
              }
              else
              {
                USBD_CtlError(pdev, req);
              }
              break;
 8006284:	e01c      	b.n	80062c0 <USBD_StdEPReq+0x158>
                USBD_CtlError(pdev, req);
 8006286:	6839      	ldr	r1, [r7, #0]
 8006288:	6878      	ldr	r0, [r7, #4]
 800628a:	f000 fbe1 	bl	8006a50 <USBD_CtlError>
              break;
 800628e:	e017      	b.n	80062c0 <USBD_StdEPReq+0x158>

            case USBD_STATE_CONFIGURED:
              if (req->wValue == USB_FEATURE_EP_HALT)
 8006290:	683b      	ldr	r3, [r7, #0]
 8006292:	885b      	ldrh	r3, [r3, #2]
 8006294:	2b00      	cmp	r3, #0
 8006296:	d112      	bne.n	80062be <USBD_StdEPReq+0x156>
              {
                if ((ep_addr & 0x7FU) != 0x00U)
 8006298:	7bbb      	ldrb	r3, [r7, #14]
 800629a:	f003 037f 	and.w	r3, r3, #127	@ 0x7f
 800629e:	2b00      	cmp	r3, #0
 80062a0:	d004      	beq.n	80062ac <USBD_StdEPReq+0x144>
                {
                  USBD_LL_ClearStallEP(pdev, ep_addr);
 80062a2:	7bbb      	ldrb	r3, [r7, #14]
 80062a4:	4619      	mov	r1, r3
 80062a6:	6878      	ldr	r0, [r7, #4]
 80062a8:	f001 f8f7 	bl	800749a <USBD_LL_ClearStallEP>
                }
                USBD_CtlSendStatus(pdev);
 80062ac:	6878      	ldr	r0, [r7, #4]
 80062ae:	f000 fe11 	bl	8006ed4 <USBD_CtlSendStatus>
              }
              break;
 80062b2:	e004      	b.n	80062be <USBD_StdEPReq+0x156>

            default:
              USBD_CtlError(pdev, req);
 80062b4:	6839      	ldr	r1, [r7, #0]
 80062b6:	6878      	ldr	r0, [r7, #4]
 80062b8:	f000 fbca 	bl	8006a50 <USBD_CtlError>
              break;
 80062bc:	e000      	b.n	80062c0 <USBD_StdEPReq+0x158>
              break;
 80062be:	bf00      	nop
          }
          break;
 80062c0:	e0aa      	b.n	8006418 <USBD_StdEPReq+0x2b0>

        case USB_REQ_GET_STATUS:
          switch (pdev->dev_state)
 80062c2:	687b      	ldr	r3, [r7, #4]
 80062c4:	f893 329c 	ldrb.w	r3, [r3, #668]	@ 0x29c
 80062c8:	2b02      	cmp	r3, #2
 80062ca:	d002      	beq.n	80062d2 <USBD_StdEPReq+0x16a>
 80062cc:	2b03      	cmp	r3, #3
 80062ce:	d032      	beq.n	8006336 <USBD_StdEPReq+0x1ce>
 80062d0:	e097      	b.n	8006402 <USBD_StdEPReq+0x29a>
          {
            case USBD_STATE_ADDRESSED:
              if ((ep_addr != 0x00U) && (ep_addr != 0x80U))
 80062d2:	7bbb      	ldrb	r3, [r7, #14]
 80062d4:	2b00      	cmp	r3, #0
 80062d6:	d007      	beq.n	80062e8 <USBD_StdEPReq+0x180>
 80062d8:	7bbb      	ldrb	r3, [r7, #14]
 80062da:	2b80      	cmp	r3, #128	@ 0x80
 80062dc:	d004      	beq.n	80062e8 <USBD_StdEPReq+0x180>
              {
                USBD_CtlError(pdev, req);
 80062de:	6839      	ldr	r1, [r7, #0]
 80062e0:	6878      	ldr	r0, [r7, #4]
 80062e2:	f000 fbb5 	bl	8006a50 <USBD_CtlError>
                break;
 80062e6:	e091      	b.n	800640c <USBD_StdEPReq+0x2a4>
              }
              pep = ((ep_addr & 0x80U) == 0x80U) ? &pdev->ep_in[ep_addr & 0x7FU] : \
 80062e8:	f997 300e 	ldrsb.w	r3, [r7, #14]
 80062ec:	2b00      	cmp	r3, #0
 80062ee:	da0b      	bge.n	8006308 <USBD_StdEPReq+0x1a0>
 80062f0:	7bbb      	ldrb	r3, [r7, #14]
 80062f2:	f003 027f 	and.w	r2, r3, #127	@ 0x7f
 80062f6:	4613      	mov	r3, r2
 80062f8:	009b      	lsls	r3, r3, #2
 80062fa:	4413      	add	r3, r2
 80062fc:	009b      	lsls	r3, r3, #2
 80062fe:	3310      	adds	r3, #16
 8006300:	687a      	ldr	r2, [r7, #4]
 8006302:	4413      	add	r3, r2
 8006304:	3304      	adds	r3, #4
 8006306:	e00b      	b.n	8006320 <USBD_StdEPReq+0x1b8>
                    &pdev->ep_out[ep_addr & 0x7FU];
 8006308:	7bbb      	ldrb	r3, [r7, #14]
 800630a:	f003 027f 	and.w	r2, r3, #127	@ 0x7f
              pep = ((ep_addr & 0x80U) == 0x80U) ? &pdev->ep_in[ep_addr & 0x7FU] : \
 800630e:	4613      	mov	r3, r2
 8006310:	009b      	lsls	r3, r3, #2
 8006312:	4413      	add	r3, r2
 8006314:	009b      	lsls	r3, r3, #2
 8006316:	f503 73a8 	add.w	r3, r3, #336	@ 0x150
 800631a:	687a      	ldr	r2, [r7, #4]
 800631c:	4413      	add	r3, r2
 800631e:	3304      	adds	r3, #4
 8006320:	60bb      	str	r3, [r7, #8]

              pep->status = 0x0000U;
 8006322:	68bb      	ldr	r3, [r7, #8]
 8006324:	2200      	movs	r2, #0
 8006326:	601a      	str	r2, [r3, #0]

              USBD_CtlSendData(pdev, (uint8_t *)(void *)&pep->status, 2U);
 8006328:	68bb      	ldr	r3, [r7, #8]
 800632a:	2202      	movs	r2, #2
 800632c:	4619      	mov	r1, r3
 800632e:	6878      	ldr	r0, [r7, #4]
 8006330:	f000 fd90 	bl	8006e54 <USBD_CtlSendData>
              break;
 8006334:	e06a      	b.n	800640c <USBD_StdEPReq+0x2a4>

            case USBD_STATE_CONFIGURED:
              if ((ep_addr & 0x80U) == 0x80U)
 8006336:	f997 300e 	ldrsb.w	r3, [r7, #14]
 800633a:	2b00      	cmp	r3, #0
 800633c:	da11      	bge.n	8006362 <USBD_StdEPReq+0x1fa>
              {
                if (pdev->ep_in[ep_addr & 0xFU].is_used == 0U)
 800633e:	7bbb      	ldrb	r3, [r7, #14]
 8006340:	f003 020f 	and.w	r2, r3, #15
 8006344:	6879      	ldr	r1, [r7, #4]
 8006346:	4613      	mov	r3, r2
 8006348:	009b      	lsls	r3, r3, #2
 800634a:	4413      	add	r3, r2
 800634c:	009b      	lsls	r3, r3, #2
 800634e:	440b      	add	r3, r1
 8006350:	3318      	adds	r3, #24
 8006352:	681b      	ldr	r3, [r3, #0]
 8006354:	2b00      	cmp	r3, #0
 8006356:	d117      	bne.n	8006388 <USBD_StdEPReq+0x220>
                {
                  USBD_CtlError(pdev, req);
 8006358:	6839      	ldr	r1, [r7, #0]
 800635a:	6878      	ldr	r0, [r7, #4]
 800635c:	f000 fb78 	bl	8006a50 <USBD_CtlError>
                  break;
 8006360:	e054      	b.n	800640c <USBD_StdEPReq+0x2a4>
                }
              }
              else
              {
                if (pdev->ep_out[ep_addr & 0xFU].is_used == 0U)
 8006362:	7bbb      	ldrb	r3, [r7, #14]
 8006364:	f003 020f 	and.w	r2, r3, #15
 8006368:	6879      	ldr	r1, [r7, #4]
 800636a:	4613      	mov	r3, r2
 800636c:	009b      	lsls	r3, r3, #2
 800636e:	4413      	add	r3, r2
 8006370:	009b      	lsls	r3, r3, #2
 8006372:	440b      	add	r3, r1
 8006374:	f503 73ac 	add.w	r3, r3, #344	@ 0x158
 8006378:	681b      	ldr	r3, [r3, #0]
 800637a:	2b00      	cmp	r3, #0
 800637c:	d104      	bne.n	8006388 <USBD_StdEPReq+0x220>
                {
                  USBD_CtlError(pdev, req);
 800637e:	6839      	ldr	r1, [r7, #0]
 8006380:	6878      	ldr	r0, [r7, #4]
 8006382:	f000 fb65 	bl	8006a50 <USBD_CtlError>
                  break;
 8006386:	e041      	b.n	800640c <USBD_StdEPReq+0x2a4>
                }
              }

              pep = ((ep_addr & 0x80U) == 0x80U) ? &pdev->ep_in[ep_addr & 0x7FU] : \
 8006388:	f997 300e 	ldrsb.w	r3, [r7, #14]
 800638c:	2b00      	cmp	r3, #0
 800638e:	da0b      	bge.n	80063a8 <USBD_StdEPReq+0x240>
 8006390:	7bbb      	ldrb	r3, [r7, #14]
 8006392:	f003 027f 	and.w	r2, r3, #127	@ 0x7f
 8006396:	4613      	mov	r3, r2
 8006398:	009b      	lsls	r3, r3, #2
 800639a:	4413      	add	r3, r2
 800639c:	009b      	lsls	r3, r3, #2
 800639e:	3310      	adds	r3, #16
 80063a0:	687a      	ldr	r2, [r7, #4]
 80063a2:	4413      	add	r3, r2
 80063a4:	3304      	adds	r3, #4
 80063a6:	e00b      	b.n	80063c0 <USBD_StdEPReq+0x258>
                    &pdev->ep_out[ep_addr & 0x7FU];
 80063a8:	7bbb      	ldrb	r3, [r7, #14]
 80063aa:	f003 027f 	and.w	r2, r3, #127	@ 0x7f
              pep = ((ep_addr & 0x80U) == 0x80U) ? &pdev->ep_in[ep_addr & 0x7FU] : \
 80063ae:	4613      	mov	r3, r2
 80063b0:	009b      	lsls	r3, r3, #2
 80063b2:	4413      	add	r3, r2
 80063b4:	009b      	lsls	r3, r3, #2
 80063b6:	f503 73a8 	add.w	r3, r3, #336	@ 0x150
 80063ba:	687a      	ldr	r2, [r7, #4]
 80063bc:	4413      	add	r3, r2
 80063be:	3304      	adds	r3, #4
 80063c0:	60bb      	str	r3, [r7, #8]

              if ((ep_addr == 0x00U) || (ep_addr == 0x80U))
 80063c2:	7bbb      	ldrb	r3, [r7, #14]
 80063c4:	2b00      	cmp	r3, #0
 80063c6:	d002      	beq.n	80063ce <USBD_StdEPReq+0x266>
 80063c8:	7bbb      	ldrb	r3, [r7, #14]
 80063ca:	2b80      	cmp	r3, #128	@ 0x80
 80063cc:	d103      	bne.n	80063d6 <USBD_StdEPReq+0x26e>
              {
                pep->status = 0x0000U;
 80063ce:	68bb      	ldr	r3, [r7, #8]
 80063d0:	2200      	movs	r2, #0
 80063d2:	601a      	str	r2, [r3, #0]
 80063d4:	e00e      	b.n	80063f4 <USBD_StdEPReq+0x28c>
              }
              else if (USBD_LL_IsStallEP(pdev, ep_addr))
 80063d6:	7bbb      	ldrb	r3, [r7, #14]
 80063d8:	4619      	mov	r1, r3
 80063da:	6878      	ldr	r0, [r7, #4]
 80063dc:	f001 f87c 	bl	80074d8 <USBD_LL_IsStallEP>
 80063e0:	4603      	mov	r3, r0
 80063e2:	2b00      	cmp	r3, #0
 80063e4:	d003      	beq.n	80063ee <USBD_StdEPReq+0x286>
              {
                pep->status = 0x0001U;
 80063e6:	68bb      	ldr	r3, [r7, #8]
 80063e8:	2201      	movs	r2, #1
 80063ea:	601a      	str	r2, [r3, #0]
 80063ec:	e002      	b.n	80063f4 <USBD_StdEPReq+0x28c>
              }
              else
              {
                pep->status = 0x0000U;
 80063ee:	68bb      	ldr	r3, [r7, #8]
 80063f0:	2200      	movs	r2, #0
 80063f2:	601a      	str	r2, [r3, #0]
              }

              USBD_CtlSendData(pdev, (uint8_t *)(void *)&pep->status, 2U);
 80063f4:	68bb      	ldr	r3, [r7, #8]
 80063f6:	2202      	movs	r2, #2
 80063f8:	4619      	mov	r1, r3
 80063fa:	6878      	ldr	r0, [r7, #4]
 80063fc:	f000 fd2a 	bl	8006e54 <USBD_CtlSendData>
              break;
 8006400:	e004      	b.n	800640c <USBD_StdEPReq+0x2a4>

            default:
              USBD_CtlError(pdev, req);
 8006402:	6839      	ldr	r1, [r7, #0]
 8006404:	6878      	ldr	r0, [r7, #4]
 8006406:	f000 fb23 	bl	8006a50 <USBD_CtlError>
              break;
 800640a:	bf00      	nop
          }
          break;
 800640c:	e004      	b.n	8006418 <USBD_StdEPReq+0x2b0>

        default:
          USBD_CtlError(pdev, req);
 800640e:	6839      	ldr	r1, [r7, #0]
 8006410:	6878      	ldr	r0, [r7, #4]
 8006412:	f000 fb1d 	bl	8006a50 <USBD_CtlError>
          break;
 8006416:	bf00      	nop
      }
      break;
 8006418:	e004      	b.n	8006424 <USBD_StdEPReq+0x2bc>

    default:
      USBD_CtlError(pdev, req);
 800641a:	6839      	ldr	r1, [r7, #0]
 800641c:	6878      	ldr	r0, [r7, #4]
 800641e:	f000 fb17 	bl	8006a50 <USBD_CtlError>
      break;
 8006422:	bf00      	nop
  }

  return ret;
 8006424:	7bfb      	ldrb	r3, [r7, #15]
}
 8006426:	4618      	mov	r0, r3
 8006428:	3710      	adds	r7, #16
 800642a:	46bd      	mov	sp, r7
 800642c:	bd80      	pop	{r7, pc}
	...

08006430 <USBD_GetDescriptor>:
* @param  req: usb request
* @retval status
*/
static void USBD_GetDescriptor(USBD_HandleTypeDef *pdev,
                               USBD_SetupReqTypedef *req)
{
 8006430:	b580      	push	{r7, lr}
 8006432:	b084      	sub	sp, #16
 8006434:	af00      	add	r7, sp, #0
 8006436:	6078      	str	r0, [r7, #4]
 8006438:	6039      	str	r1, [r7, #0]
  uint16_t len = 0U;
 800643a:	2300      	movs	r3, #0
 800643c:	813b      	strh	r3, [r7, #8]
  uint8_t *pbuf = NULL;
 800643e:	2300      	movs	r3, #0
 8006440:	60fb      	str	r3, [r7, #12]
  uint8_t err = 0U;
 8006442:	2300      	movs	r3, #0
 8006444:	72fb      	strb	r3, [r7, #11]

  switch (req->wValue >> 8)
 8006446:	683b      	ldr	r3, [r7, #0]
 8006448:	885b      	ldrh	r3, [r3, #2]
 800644a:	0a1b      	lsrs	r3, r3, #8
 800644c:	b29b      	uxth	r3, r3
 800644e:	3b01      	subs	r3, #1
 8006450:	2b06      	cmp	r3, #6
 8006452:	f200 8128 	bhi.w	80066a6 <USBD_GetDescriptor+0x276>
 8006456:	a201      	add	r2, pc, #4	@ (adr r2, 800645c <USBD_GetDescriptor+0x2c>)
 8006458:	f852 f023 	ldr.w	pc, [r2, r3, lsl #2]
 800645c:	08006479 	.word	0x08006479
 8006460:	08006491 	.word	0x08006491
 8006464:	080064d1 	.word	0x080064d1
 8006468:	080066a7 	.word	0x080066a7
 800646c:	080066a7 	.word	0x080066a7
 8006470:	08006647 	.word	0x08006647
 8006474:	08006673 	.word	0x08006673
        err++;
      }
      break;
#endif
    case USB_DESC_TYPE_DEVICE:
      pbuf = pdev->pDesc->GetDeviceDescriptor(pdev->dev_speed, &len);
 8006478:	687b      	ldr	r3, [r7, #4]
 800647a:	f8d3 32b0 	ldr.w	r3, [r3, #688]	@ 0x2b0
 800647e:	681b      	ldr	r3, [r3, #0]
 8006480:	687a      	ldr	r2, [r7, #4]
 8006482:	7c12      	ldrb	r2, [r2, #16]
 8006484:	f107 0108 	add.w	r1, r7, #8
 8006488:	4610      	mov	r0, r2
 800648a:	4798      	blx	r3
 800648c:	60f8      	str	r0, [r7, #12]
      break;
 800648e:	e112      	b.n	80066b6 <USBD_GetDescriptor+0x286>

    case USB_DESC_TYPE_CONFIGURATION:
      if (pdev->dev_speed == USBD_SPEED_HIGH)
 8006490:	687b      	ldr	r3, [r7, #4]
 8006492:	7c1b      	ldrb	r3, [r3, #16]
 8006494:	2b00      	cmp	r3, #0
 8006496:	d10d      	bne.n	80064b4 <USBD_GetDescriptor+0x84>
      {
        pbuf = pdev->pClass->GetHSConfigDescriptor(&len);
 8006498:	687b      	ldr	r3, [r7, #4]
 800649a:	f8d3 32b4 	ldr.w	r3, [r3, #692]	@ 0x2b4
 800649e:	6a9b      	ldr	r3, [r3, #40]	@ 0x28
 80064a0:	f107 0208 	add.w	r2, r7, #8
 80064a4:	4610      	mov	r0, r2
 80064a6:	4798      	blx	r3
 80064a8:	60f8      	str	r0, [r7, #12]
        pbuf[1] = USB_DESC_TYPE_CONFIGURATION;
 80064aa:	68fb      	ldr	r3, [r7, #12]
 80064ac:	3301      	adds	r3, #1
 80064ae:	2202      	movs	r2, #2
 80064b0:	701a      	strb	r2, [r3, #0]
      else
      {
        pbuf = pdev->pClass->GetFSConfigDescriptor(&len);
        pbuf[1] = USB_DESC_TYPE_CONFIGURATION;
      }
      break;
 80064b2:	e100      	b.n	80066b6 <USBD_GetDescriptor+0x286>
        pbuf = pdev->pClass->GetFSConfigDescriptor(&len);
 80064b4:	687b      	ldr	r3, [r7, #4]
 80064b6:	f8d3 32b4 	ldr.w	r3, [r3, #692]	@ 0x2b4
 80064ba:	6adb      	ldr	r3, [r3, #44]	@ 0x2c
 80064bc:	f107 0208 	add.w	r2, r7, #8
 80064c0:	4610      	mov	r0, r2
 80064c2:	4798      	blx	r3
 80064c4:	60f8      	str	r0, [r7, #12]
        pbuf[1] = USB_DESC_TYPE_CONFIGURATION;
 80064c6:	68fb      	ldr	r3, [r7, #12]
 80064c8:	3301      	adds	r3, #1
 80064ca:	2202      	movs	r2, #2
 80064cc:	701a      	strb	r2, [r3, #0]
      break;
 80064ce:	e0f2      	b.n	80066b6 <USBD_GetDescriptor+0x286>

    case USB_DESC_TYPE_STRING:
      switch ((uint8_t)(req->wValue))
 80064d0:	683b      	ldr	r3, [r7, #0]
 80064d2:	885b      	ldrh	r3, [r3, #2]
 80064d4:	b2db      	uxtb	r3, r3
 80064d6:	2b05      	cmp	r3, #5
 80064d8:	f200 80ac 	bhi.w	8006634 <USBD_GetDescriptor+0x204>
 80064dc:	a201      	add	r2, pc, #4	@ (adr r2, 80064e4 <USBD_GetDescriptor+0xb4>)
 80064de:	f852 f023 	ldr.w	pc, [r2, r3, lsl #2]
 80064e2:	bf00      	nop
 80064e4:	080064fd 	.word	0x080064fd
 80064e8:	08006531 	.word	0x08006531
 80064ec:	08006565 	.word	0x08006565
 80064f0:	08006599 	.word	0x08006599
 80064f4:	080065cd 	.word	0x080065cd
 80064f8:	08006601 	.word	0x08006601
      {
        case USBD_IDX_LANGID_STR:
          if (pdev->pDesc->GetLangIDStrDescriptor != NULL)
 80064fc:	687b      	ldr	r3, [r7, #4]
 80064fe:	f8d3 32b0 	ldr.w	r3, [r3, #688]	@ 0x2b0
 8006502:	685b      	ldr	r3, [r3, #4]
 8006504:	2b00      	cmp	r3, #0
 8006506:	d00b      	beq.n	8006520 <USBD_GetDescriptor+0xf0>
          {
            pbuf = pdev->pDesc->GetLangIDStrDescriptor(pdev->dev_speed, &len);
 8006508:	687b      	ldr	r3, [r7, #4]
 800650a:	f8d3 32b0 	ldr.w	r3, [r3, #688]	@ 0x2b0
 800650e:	685b      	ldr	r3, [r3, #4]
 8006510:	687a      	ldr	r2, [r7, #4]
 8006512:	7c12      	ldrb	r2, [r2, #16]
 8006514:	f107 0108 	add.w	r1, r7, #8
 8006518:	4610      	mov	r0, r2
 800651a:	4798      	blx	r3
 800651c:	60f8      	str	r0, [r7, #12]
          else
          {
            USBD_CtlError(pdev, req);
            err++;
          }
          break;
 800651e:	e091      	b.n	8006644 <USBD_GetDescriptor+0x214>
            USBD_CtlError(pdev, req);
 8006520:	6839      	ldr	r1, [r7, #0]
 8006522:	6878      	ldr	r0, [r7, #4]
 8006524:	f000 fa94 	bl	8006a50 <USBD_CtlError>
            err++;
 8006528:	7afb      	ldrb	r3, [r7, #11]
 800652a:	3301      	adds	r3, #1
 800652c:	72fb      	strb	r3, [r7, #11]
          break;
 800652e:	e089      	b.n	8006644 <USBD_GetDescriptor+0x214>

        case USBD_IDX_MFC_STR:
          if (pdev->pDesc->GetManufacturerStrDescriptor != NULL)
 8006530:	687b      	ldr	r3, [r7, #4]
 8006532:	f8d3 32b0 	ldr.w	r3, [r3, #688]	@ 0x2b0
 8006536:	689b      	ldr	r3, [r3, #8]
 8006538:	2b00      	cmp	r3, #0
 800653a:	d00b      	beq.n	8006554 <USBD_GetDescriptor+0x124>
          {
            pbuf = pdev->pDesc->GetManufacturerStrDescriptor(pdev->dev_speed, &len);
 800653c:	687b      	ldr	r3, [r7, #4]
 800653e:	f8d3 32b0 	ldr.w	r3, [r3, #688]	@ 0x2b0
 8006542:	689b      	ldr	r3, [r3, #8]
 8006544:	687a      	ldr	r2, [r7, #4]
 8006546:	7c12      	ldrb	r2, [r2, #16]
 8006548:	f107 0108 	add.w	r1, r7, #8
 800654c:	4610      	mov	r0, r2
 800654e:	4798      	blx	r3
 8006550:	60f8      	str	r0, [r7, #12]
          else
          {
            USBD_CtlError(pdev, req);
            err++;
          }
          break;
 8006552:	e077      	b.n	8006644 <USBD_GetDescriptor+0x214>
            USBD_CtlError(pdev, req);
 8006554:	6839      	ldr	r1, [r7, #0]
 8006556:	6878      	ldr	r0, [r7, #4]
 8006558:	f000 fa7a 	bl	8006a50 <USBD_CtlError>
            err++;
 800655c:	7afb      	ldrb	r3, [r7, #11]
 800655e:	3301      	adds	r3, #1
 8006560:	72fb      	strb	r3, [r7, #11]
          break;
 8006562:	e06f      	b.n	8006644 <USBD_GetDescriptor+0x214>

        case USBD_IDX_PRODUCT_STR:
          if (pdev->pDesc->GetProductStrDescriptor != NULL)
 8006564:	687b      	ldr	r3, [r7, #4]
 8006566:	f8d3 32b0 	ldr.w	r3, [r3, #688]	@ 0x2b0
 800656a:	68db      	ldr	r3, [r3, #12]
 800656c:	2b00      	cmp	r3, #0
 800656e:	d00b      	beq.n	8006588 <USBD_GetDescriptor+0x158>
          {
            pbuf = pdev->pDesc->GetProductStrDescriptor(pdev->dev_speed, &len);
 8006570:	687b      	ldr	r3, [r7, #4]
 8006572:	f8d3 32b0 	ldr.w	r3, [r3, #688]	@ 0x2b0
 8006576:	68db      	ldr	r3, [r3, #12]
 8006578:	687a      	ldr	r2, [r7, #4]
 800657a:	7c12      	ldrb	r2, [r2, #16]
 800657c:	f107 0108 	add.w	r1, r7, #8
 8006580:	4610      	mov	r0, r2
 8006582:	4798      	blx	r3
 8006584:	60f8      	str	r0, [r7, #12]
          else
          {
            USBD_CtlError(pdev, req);
            err++;
          }
          break;
 8006586:	e05d      	b.n	8006644 <USBD_GetDescriptor+0x214>
            USBD_CtlError(pdev, req);
 8006588:	6839      	ldr	r1, [r7, #0]
 800658a:	6878      	ldr	r0, [r7, #4]
 800658c:	f000 fa60 	bl	8006a50 <USBD_CtlError>
            err++;
 8006590:	7afb      	ldrb	r3, [r7, #11]
 8006592:	3301      	adds	r3, #1
 8006594:	72fb      	strb	r3, [r7, #11]
          break;
 8006596:	e055      	b.n	8006644 <USBD_GetDescriptor+0x214>

        case USBD_IDX_SERIAL_STR:
          if (pdev->pDesc->GetSerialStrDescriptor != NULL)
 8006598:	687b      	ldr	r3, [r7, #4]
 800659a:	f8d3 32b0 	ldr.w	r3, [r3, #688]	@ 0x2b0
 800659e:	691b      	ldr	r3, [r3, #16]
 80065a0:	2b00      	cmp	r3, #0
 80065a2:	d00b      	beq.n	80065bc <USBD_GetDescriptor+0x18c>
          {
            pbuf = pdev->pDesc->GetSerialStrDescriptor(pdev->dev_speed, &len);
 80065a4:	687b      	ldr	r3, [r7, #4]
 80065a6:	f8d3 32b0 	ldr.w	r3, [r3, #688]	@ 0x2b0
 80065aa:	691b      	ldr	r3, [r3, #16]
 80065ac:	687a      	ldr	r2, [r7, #4]
 80065ae:	7c12      	ldrb	r2, [r2, #16]
 80065b0:	f107 0108 	add.w	r1, r7, #8
 80065b4:	4610      	mov	r0, r2
 80065b6:	4798      	blx	r3
 80065b8:	60f8      	str	r0, [r7, #12]
          else
          {
            USBD_CtlError(pdev, req);
            err++;
          }
          break;
 80065ba:	e043      	b.n	8006644 <USBD_GetDescriptor+0x214>
            USBD_CtlError(pdev, req);
 80065bc:	6839      	ldr	r1, [r7, #0]
 80065be:	6878      	ldr	r0, [r7, #4]
 80065c0:	f000 fa46 	bl	8006a50 <USBD_CtlError>
            err++;
 80065c4:	7afb      	ldrb	r3, [r7, #11]
 80065c6:	3301      	adds	r3, #1
 80065c8:	72fb      	strb	r3, [r7, #11]
          break;
 80065ca:	e03b      	b.n	8006644 <USBD_GetDescriptor+0x214>

        case USBD_IDX_CONFIG_STR:
          if (pdev->pDesc->GetConfigurationStrDescriptor != NULL)
 80065cc:	687b      	ldr	r3, [r7, #4]
 80065ce:	f8d3 32b0 	ldr.w	r3, [r3, #688]	@ 0x2b0
 80065d2:	695b      	ldr	r3, [r3, #20]
 80065d4:	2b00      	cmp	r3, #0
 80065d6:	d00b      	beq.n	80065f0 <USBD_GetDescriptor+0x1c0>
          {
            pbuf = pdev->pDesc->GetConfigurationStrDescriptor(pdev->dev_speed, &len);
 80065d8:	687b      	ldr	r3, [r7, #4]
 80065da:	f8d3 32b0 	ldr.w	r3, [r3, #688]	@ 0x2b0
 80065de:	695b      	ldr	r3, [r3, #20]
 80065e0:	687a      	ldr	r2, [r7, #4]
 80065e2:	7c12      	ldrb	r2, [r2, #16]
 80065e4:	f107 0108 	add.w	r1, r7, #8
 80065e8:	4610      	mov	r0, r2
 80065ea:	4798      	blx	r3
 80065ec:	60f8      	str	r0, [r7, #12]
          else
          {
            USBD_CtlError(pdev, req);
            err++;
          }
          break;
 80065ee:	e029      	b.n	8006644 <USBD_GetDescriptor+0x214>
            USBD_CtlError(pdev, req);
 80065f0:	6839      	ldr	r1, [r7, #0]
 80065f2:	6878      	ldr	r0, [r7, #4]
 80065f4:	f000 fa2c 	bl	8006a50 <USBD_CtlError>
            err++;
 80065f8:	7afb      	ldrb	r3, [r7, #11]
 80065fa:	3301      	adds	r3, #1
 80065fc:	72fb      	strb	r3, [r7, #11]
          break;
 80065fe:	e021      	b.n	8006644 <USBD_GetDescriptor+0x214>

        case USBD_IDX_INTERFACE_STR:
          if (pdev->pDesc->GetInterfaceStrDescriptor != NULL)
 8006600:	687b      	ldr	r3, [r7, #4]
 8006602:	f8d3 32b0 	ldr.w	r3, [r3, #688]	@ 0x2b0
 8006606:	699b      	ldr	r3, [r3, #24]
 8006608:	2b00      	cmp	r3, #0
 800660a:	d00b      	beq.n	8006624 <USBD_GetDescriptor+0x1f4>
          {
            pbuf = pdev->pDesc->GetInterfaceStrDescriptor(pdev->dev_speed, &len);
 800660c:	687b      	ldr	r3, [r7, #4]
 800660e:	f8d3 32b0 	ldr.w	r3, [r3, #688]	@ 0x2b0
 8006612:	699b      	ldr	r3, [r3, #24]
 8006614:	687a      	ldr	r2, [r7, #4]
 8006616:	7c12      	ldrb	r2, [r2, #16]
 8006618:	f107 0108 	add.w	r1, r7, #8
 800661c:	4610      	mov	r0, r2
 800661e:	4798      	blx	r3
 8006620:	60f8      	str	r0, [r7, #12]
          else
          {
            USBD_CtlError(pdev, req);
            err++;
          }
          break;
 8006622:	e00f      	b.n	8006644 <USBD_GetDescriptor+0x214>
            USBD_CtlError(pdev, req);
 8006624:	6839      	ldr	r1, [r7, #0]
 8006626:	6878      	ldr	r0, [r7, #4]
 8006628:	f000 fa12 	bl	8006a50 <USBD_CtlError>
            err++;
 800662c:	7afb      	ldrb	r3, [r7, #11]
 800662e:	3301      	adds	r3, #1
 8006630:	72fb      	strb	r3, [r7, #11]
          break;
 8006632:	e007      	b.n	8006644 <USBD_GetDescriptor+0x214>
            USBD_CtlError(pdev, req);
            err++;
          }
          break;
#else
          USBD_CtlError(pdev, req);
 8006634:	6839      	ldr	r1, [r7, #0]
 8006636:	6878      	ldr	r0, [r7, #4]
 8006638:	f000 fa0a 	bl	8006a50 <USBD_CtlError>
          err++;
 800663c:	7afb      	ldrb	r3, [r7, #11]
 800663e:	3301      	adds	r3, #1
 8006640:	72fb      	strb	r3, [r7, #11]
#endif
      }
      break;
 8006642:	e038      	b.n	80066b6 <USBD_GetDescriptor+0x286>
 8006644:	e037      	b.n	80066b6 <USBD_GetDescriptor+0x286>

    case USB_DESC_TYPE_DEVICE_QUALIFIER:
      if (pdev->dev_speed == USBD_SPEED_HIGH)
 8006646:	687b      	ldr	r3, [r7, #4]
 8006648:	7c1b      	ldrb	r3, [r3, #16]
 800664a:	2b00      	cmp	r3, #0
 800664c:	d109      	bne.n	8006662 <USBD_GetDescriptor+0x232>
      {
        pbuf = pdev->pClass->GetDeviceQualifierDescriptor(&len);
 800664e:	687b      	ldr	r3, [r7, #4]
 8006650:	f8d3 32b4 	ldr.w	r3, [r3, #692]	@ 0x2b4
 8006654:	6b5b      	ldr	r3, [r3, #52]	@ 0x34
 8006656:	f107 0208 	add.w	r2, r7, #8
 800665a:	4610      	mov	r0, r2
 800665c:	4798      	blx	r3
 800665e:	60f8      	str	r0, [r7, #12]
      else
      {
        USBD_CtlError(pdev, req);
        err++;
      }
      break;
 8006660:	e029      	b.n	80066b6 <USBD_GetDescriptor+0x286>
        USBD_CtlError(pdev, req);
 8006662:	6839      	ldr	r1, [r7, #0]
 8006664:	6878      	ldr	r0, [r7, #4]
 8006666:	f000 f9f3 	bl	8006a50 <USBD_CtlError>
        err++;
 800666a:	7afb      	ldrb	r3, [r7, #11]
 800666c:	3301      	adds	r3, #1
 800666e:	72fb      	strb	r3, [r7, #11]
      break;
 8006670:	e021      	b.n	80066b6 <USBD_GetDescriptor+0x286>

    case USB_DESC_TYPE_OTHER_SPEED_CONFIGURATION:
      if (pdev->dev_speed == USBD_SPEED_HIGH)
 8006672:	687b      	ldr	r3, [r7, #4]
 8006674:	7c1b      	ldrb	r3, [r3, #16]
 8006676:	2b00      	cmp	r3, #0
 8006678:	d10d      	bne.n	8006696 <USBD_GetDescriptor+0x266>
      {
        pbuf = pdev->pClass->GetOtherSpeedConfigDescriptor(&len);
 800667a:	687b      	ldr	r3, [r7, #4]
 800667c:	f8d3 32b4 	ldr.w	r3, [r3, #692]	@ 0x2b4
 8006680:	6b1b      	ldr	r3, [r3, #48]	@ 0x30
 8006682:	f107 0208 	add.w	r2, r7, #8
 8006686:	4610      	mov	r0, r2
 8006688:	4798      	blx	r3
 800668a:	60f8      	str	r0, [r7, #12]
        pbuf[1] = USB_DESC_TYPE_OTHER_SPEED_CONFIGURATION;
 800668c:	68fb      	ldr	r3, [r7, #12]
 800668e:	3301      	adds	r3, #1
 8006690:	2207      	movs	r2, #7
 8006692:	701a      	strb	r2, [r3, #0]
      else
      {
        USBD_CtlError(pdev, req);
        err++;
      }
      break;
 8006694:	e00f      	b.n	80066b6 <USBD_GetDescriptor+0x286>
        USBD_CtlError(pdev, req);
 8006696:	6839      	ldr	r1, [r7, #0]
 8006698:	6878      	ldr	r0, [r7, #4]
 800669a:	f000 f9d9 	bl	8006a50 <USBD_CtlError>
        err++;
 800669e:	7afb      	ldrb	r3, [r7, #11]
 80066a0:	3301      	adds	r3, #1
 80066a2:	72fb      	strb	r3, [r7, #11]
      break;
 80066a4:	e007      	b.n	80066b6 <USBD_GetDescriptor+0x286>

    default:
      USBD_CtlError(pdev, req);
 80066a6:	6839      	ldr	r1, [r7, #0]
 80066a8:	6878      	ldr	r0, [r7, #4]
 80066aa:	f000 f9d1 	bl	8006a50 <USBD_CtlError>
      err++;
 80066ae:	7afb      	ldrb	r3, [r7, #11]
 80066b0:	3301      	adds	r3, #1
 80066b2:	72fb      	strb	r3, [r7, #11]
      break;
 80066b4:	bf00      	nop
  }

  if (err != 0U)
 80066b6:	7afb      	ldrb	r3, [r7, #11]
 80066b8:	2b00      	cmp	r3, #0
 80066ba:	d11c      	bne.n	80066f6 <USBD_GetDescriptor+0x2c6>
  {
    return;
  }
  else
  {
    if ((len != 0U) && (req->wLength != 0U))
 80066bc:	893b      	ldrh	r3, [r7, #8]
 80066be:	2b00      	cmp	r3, #0
 80066c0:	d011      	beq.n	80066e6 <USBD_GetDescriptor+0x2b6>
 80066c2:	683b      	ldr	r3, [r7, #0]
 80066c4:	88db      	ldrh	r3, [r3, #6]
 80066c6:	2b00      	cmp	r3, #0
 80066c8:	d00d      	beq.n	80066e6 <USBD_GetDescriptor+0x2b6>
    {
      len = MIN(len, req->wLength);
 80066ca:	683b      	ldr	r3, [r7, #0]
 80066cc:	88da      	ldrh	r2, [r3, #6]
 80066ce:	893b      	ldrh	r3, [r7, #8]
 80066d0:	4293      	cmp	r3, r2
 80066d2:	bf28      	it	cs
 80066d4:	4613      	movcs	r3, r2
 80066d6:	b29b      	uxth	r3, r3
 80066d8:	813b      	strh	r3, [r7, #8]
      (void)USBD_CtlSendData(pdev, pbuf, len);
 80066da:	893b      	ldrh	r3, [r7, #8]
 80066dc:	461a      	mov	r2, r3
 80066de:	68f9      	ldr	r1, [r7, #12]
 80066e0:	6878      	ldr	r0, [r7, #4]
 80066e2:	f000 fbb7 	bl	8006e54 <USBD_CtlSendData>
    }

    if (req->wLength == 0U)
 80066e6:	683b      	ldr	r3, [r7, #0]
 80066e8:	88db      	ldrh	r3, [r3, #6]
 80066ea:	2b00      	cmp	r3, #0
 80066ec:	d104      	bne.n	80066f8 <USBD_GetDescriptor+0x2c8>
    {
      (void)USBD_CtlSendStatus(pdev);
 80066ee:	6878      	ldr	r0, [r7, #4]
 80066f0:	f000 fbf0 	bl	8006ed4 <USBD_CtlSendStatus>
 80066f4:	e000      	b.n	80066f8 <USBD_GetDescriptor+0x2c8>
    return;
 80066f6:	bf00      	nop
    }
  }
}
 80066f8:	3710      	adds	r7, #16
 80066fa:	46bd      	mov	sp, r7
 80066fc:	bd80      	pop	{r7, pc}
 80066fe:	bf00      	nop

08006700 <USBD_SetAddress>:
* @param  req: usb request
* @retval status
*/
static void USBD_SetAddress(USBD_HandleTypeDef *pdev,
                            USBD_SetupReqTypedef *req)
{
 8006700:	b580      	push	{r7, lr}
 8006702:	b084      	sub	sp, #16
 8006704:	af00      	add	r7, sp, #0
 8006706:	6078      	str	r0, [r7, #4]
 8006708:	6039      	str	r1, [r7, #0]
  uint8_t  dev_addr;

  if ((req->wIndex == 0U) && (req->wLength == 0U) && (req->wValue < 128U))
 800670a:	683b      	ldr	r3, [r7, #0]
 800670c:	889b      	ldrh	r3, [r3, #4]
 800670e:	2b00      	cmp	r3, #0
 8006710:	d130      	bne.n	8006774 <USBD_SetAddress+0x74>
 8006712:	683b      	ldr	r3, [r7, #0]
 8006714:	88db      	ldrh	r3, [r3, #6]
 8006716:	2b00      	cmp	r3, #0
 8006718:	d12c      	bne.n	8006774 <USBD_SetAddress+0x74>
 800671a:	683b      	ldr	r3, [r7, #0]
 800671c:	885b      	ldrh	r3, [r3, #2]
 800671e:	2b7f      	cmp	r3, #127	@ 0x7f
 8006720:	d828      	bhi.n	8006774 <USBD_SetAddress+0x74>
  {
    dev_addr = (uint8_t)(req->wValue) & 0x7FU;
 8006722:	683b      	ldr	r3, [r7, #0]
 8006724:	885b      	ldrh	r3, [r3, #2]
 8006726:	b2db      	uxtb	r3, r3
 8006728:	f003 037f 	and.w	r3, r3, #127	@ 0x7f
 800672c:	73fb      	strb	r3, [r7, #15]

    if (pdev->dev_state == USBD_STATE_CONFIGURED)
 800672e:	687b      	ldr	r3, [r7, #4]
 8006730:	f893 329c 	ldrb.w	r3, [r3, #668]	@ 0x29c
 8006734:	2b03      	cmp	r3, #3
 8006736:	d104      	bne.n	8006742 <USBD_SetAddress+0x42>
    {
      USBD_CtlError(pdev, req);
 8006738:	6839      	ldr	r1, [r7, #0]
 800673a:	6878      	ldr	r0, [r7, #4]
 800673c:	f000 f988 	bl	8006a50 <USBD_CtlError>
    if (pdev->dev_state == USBD_STATE_CONFIGURED)
 8006740:	e01d      	b.n	800677e <USBD_SetAddress+0x7e>
    }
    else
    {
      pdev->dev_address = dev_addr;
 8006742:	687b      	ldr	r3, [r7, #4]
 8006744:	7bfa      	ldrb	r2, [r7, #15]
 8006746:	f883 229e 	strb.w	r2, [r3, #670]	@ 0x29e
      USBD_LL_SetUSBAddress(pdev, dev_addr);
 800674a:	7bfb      	ldrb	r3, [r7, #15]
 800674c:	4619      	mov	r1, r3
 800674e:	6878      	ldr	r0, [r7, #4]
 8006750:	f000 feed 	bl	800752e <USBD_LL_SetUSBAddress>
      USBD_CtlSendStatus(pdev);
 8006754:	6878      	ldr	r0, [r7, #4]
 8006756:	f000 fbbd 	bl	8006ed4 <USBD_CtlSendStatus>

      if (dev_addr != 0U)
 800675a:	7bfb      	ldrb	r3, [r7, #15]
 800675c:	2b00      	cmp	r3, #0
 800675e:	d004      	beq.n	800676a <USBD_SetAddress+0x6a>
      {
        pdev->dev_state = USBD_STATE_ADDRESSED;
 8006760:	687b      	ldr	r3, [r7, #4]
 8006762:	2202      	movs	r2, #2
 8006764:	f883 229c 	strb.w	r2, [r3, #668]	@ 0x29c
    if (pdev->dev_state == USBD_STATE_CONFIGURED)
 8006768:	e009      	b.n	800677e <USBD_SetAddress+0x7e>
      }
      else
      {
        pdev->dev_state = USBD_STATE_DEFAULT;
 800676a:	687b      	ldr	r3, [r7, #4]
 800676c:	2201      	movs	r2, #1
 800676e:	f883 229c 	strb.w	r2, [r3, #668]	@ 0x29c
    if (pdev->dev_state == USBD_STATE_CONFIGURED)
 8006772:	e004      	b.n	800677e <USBD_SetAddress+0x7e>
      }
    }
  }
  else
  {
    USBD_CtlError(pdev, req);
 8006774:	6839      	ldr	r1, [r7, #0]
 8006776:	6878      	ldr	r0, [r7, #4]
 8006778:	f000 f96a 	bl	8006a50 <USBD_CtlError>
  }
}
 800677c:	bf00      	nop
 800677e:	bf00      	nop
 8006780:	3710      	adds	r7, #16
 8006782:	46bd      	mov	sp, r7
 8006784:	bd80      	pop	{r7, pc}
	...

08006788 <USBD_SetConfig>:
* @param  pdev: device instance
* @param  req: usb request
* @retval status
*/
static void USBD_SetConfig(USBD_HandleTypeDef *pdev, USBD_SetupReqTypedef *req)
{
 8006788:	b580      	push	{r7, lr}
 800678a:	b082      	sub	sp, #8
 800678c:	af00      	add	r7, sp, #0
 800678e:	6078      	str	r0, [r7, #4]
 8006790:	6039      	str	r1, [r7, #0]
  static uint8_t cfgidx;

  cfgidx = (uint8_t)(req->wValue);
 8006792:	683b      	ldr	r3, [r7, #0]
 8006794:	885b      	ldrh	r3, [r3, #2]
 8006796:	b2da      	uxtb	r2, r3
 8006798:	4b41      	ldr	r3, [pc, #260]	@ (80068a0 <USBD_SetConfig+0x118>)
 800679a:	701a      	strb	r2, [r3, #0]

  if (cfgidx > USBD_MAX_NUM_CONFIGURATION)
 800679c:	4b40      	ldr	r3, [pc, #256]	@ (80068a0 <USBD_SetConfig+0x118>)
 800679e:	781b      	ldrb	r3, [r3, #0]
 80067a0:	2b01      	cmp	r3, #1
 80067a2:	d904      	bls.n	80067ae <USBD_SetConfig+0x26>
  {
    USBD_CtlError(pdev, req);
 80067a4:	6839      	ldr	r1, [r7, #0]
 80067a6:	6878      	ldr	r0, [r7, #4]
 80067a8:	f000 f952 	bl	8006a50 <USBD_CtlError>
 80067ac:	e075      	b.n	800689a <USBD_SetConfig+0x112>
  }
  else
  {
    switch (pdev->dev_state)
 80067ae:	687b      	ldr	r3, [r7, #4]
 80067b0:	f893 329c 	ldrb.w	r3, [r3, #668]	@ 0x29c
 80067b4:	2b02      	cmp	r3, #2
 80067b6:	d002      	beq.n	80067be <USBD_SetConfig+0x36>
 80067b8:	2b03      	cmp	r3, #3
 80067ba:	d023      	beq.n	8006804 <USBD_SetConfig+0x7c>
 80067bc:	e062      	b.n	8006884 <USBD_SetConfig+0xfc>
    {
      case USBD_STATE_ADDRESSED:
        if (cfgidx)
 80067be:	4b38      	ldr	r3, [pc, #224]	@ (80068a0 <USBD_SetConfig+0x118>)
 80067c0:	781b      	ldrb	r3, [r3, #0]
 80067c2:	2b00      	cmp	r3, #0
 80067c4:	d01a      	beq.n	80067fc <USBD_SetConfig+0x74>
        {
          pdev->dev_config = cfgidx;
 80067c6:	4b36      	ldr	r3, [pc, #216]	@ (80068a0 <USBD_SetConfig+0x118>)
 80067c8:	781b      	ldrb	r3, [r3, #0]
 80067ca:	461a      	mov	r2, r3
 80067cc:	687b      	ldr	r3, [r7, #4]
 80067ce:	605a      	str	r2, [r3, #4]
          pdev->dev_state = USBD_STATE_CONFIGURED;
 80067d0:	687b      	ldr	r3, [r7, #4]
 80067d2:	2203      	movs	r2, #3
 80067d4:	f883 229c 	strb.w	r2, [r3, #668]	@ 0x29c
          if (USBD_SetClassConfig(pdev, cfgidx) == USBD_FAIL)
 80067d8:	4b31      	ldr	r3, [pc, #196]	@ (80068a0 <USBD_SetConfig+0x118>)
 80067da:	781b      	ldrb	r3, [r3, #0]
 80067dc:	4619      	mov	r1, r3
 80067de:	6878      	ldr	r0, [r7, #4]
 80067e0:	f7ff f9e7 	bl	8005bb2 <USBD_SetClassConfig>
 80067e4:	4603      	mov	r3, r0
 80067e6:	2b02      	cmp	r3, #2
 80067e8:	d104      	bne.n	80067f4 <USBD_SetConfig+0x6c>
          {
            USBD_CtlError(pdev, req);
 80067ea:	6839      	ldr	r1, [r7, #0]
 80067ec:	6878      	ldr	r0, [r7, #4]
 80067ee:	f000 f92f 	bl	8006a50 <USBD_CtlError>
            return;
 80067f2:	e052      	b.n	800689a <USBD_SetConfig+0x112>
          }
          USBD_CtlSendStatus(pdev);
 80067f4:	6878      	ldr	r0, [r7, #4]
 80067f6:	f000 fb6d 	bl	8006ed4 <USBD_CtlSendStatus>
        }
        else
        {
          USBD_CtlSendStatus(pdev);
        }
        break;
 80067fa:	e04e      	b.n	800689a <USBD_SetConfig+0x112>
          USBD_CtlSendStatus(pdev);
 80067fc:	6878      	ldr	r0, [r7, #4]
 80067fe:	f000 fb69 	bl	8006ed4 <USBD_CtlSendStatus>
        break;
 8006802:	e04a      	b.n	800689a <USBD_SetConfig+0x112>

      case USBD_STATE_CONFIGURED:
        if (cfgidx == 0U)
 8006804:	4b26      	ldr	r3, [pc, #152]	@ (80068a0 <USBD_SetConfig+0x118>)
 8006806:	781b      	ldrb	r3, [r3, #0]
 8006808:	2b00      	cmp	r3, #0
 800680a:	d112      	bne.n	8006832 <USBD_SetConfig+0xaa>
        {
          pdev->dev_state = USBD_STATE_ADDRESSED;
 800680c:	687b      	ldr	r3, [r7, #4]
 800680e:	2202      	movs	r2, #2
 8006810:	f883 229c 	strb.w	r2, [r3, #668]	@ 0x29c
          pdev->dev_config = cfgidx;
 8006814:	4b22      	ldr	r3, [pc, #136]	@ (80068a0 <USBD_SetConfig+0x118>)
 8006816:	781b      	ldrb	r3, [r3, #0]
 8006818:	461a      	mov	r2, r3
 800681a:	687b      	ldr	r3, [r7, #4]
 800681c:	605a      	str	r2, [r3, #4]
          USBD_ClrClassConfig(pdev, cfgidx);
 800681e:	4b20      	ldr	r3, [pc, #128]	@ (80068a0 <USBD_SetConfig+0x118>)
 8006820:	781b      	ldrb	r3, [r3, #0]
 8006822:	4619      	mov	r1, r3
 8006824:	6878      	ldr	r0, [r7, #4]
 8006826:	f7ff f9e3 	bl	8005bf0 <USBD_ClrClassConfig>
          USBD_CtlSendStatus(pdev);
 800682a:	6878      	ldr	r0, [r7, #4]
 800682c:	f000 fb52 	bl	8006ed4 <USBD_CtlSendStatus>
        }
        else
        {
          USBD_CtlSendStatus(pdev);
        }
        break;
 8006830:	e033      	b.n	800689a <USBD_SetConfig+0x112>
        else if (cfgidx != pdev->dev_config)
 8006832:	4b1b      	ldr	r3, [pc, #108]	@ (80068a0 <USBD_SetConfig+0x118>)
 8006834:	781b      	ldrb	r3, [r3, #0]
 8006836:	461a      	mov	r2, r3
 8006838:	687b      	ldr	r3, [r7, #4]
 800683a:	685b      	ldr	r3, [r3, #4]
 800683c:	429a      	cmp	r2, r3
 800683e:	d01d      	beq.n	800687c <USBD_SetConfig+0xf4>
          USBD_ClrClassConfig(pdev, (uint8_t)pdev->dev_config);
 8006840:	687b      	ldr	r3, [r7, #4]
 8006842:	685b      	ldr	r3, [r3, #4]
 8006844:	b2db      	uxtb	r3, r3
 8006846:	4619      	mov	r1, r3
 8006848:	6878      	ldr	r0, [r7, #4]
 800684a:	f7ff f9d1 	bl	8005bf0 <USBD_ClrClassConfig>
          pdev->dev_config = cfgidx;
 800684e:	4b14      	ldr	r3, [pc, #80]	@ (80068a0 <USBD_SetConfig+0x118>)
 8006850:	781b      	ldrb	r3, [r3, #0]
 8006852:	461a      	mov	r2, r3
 8006854:	687b      	ldr	r3, [r7, #4]
 8006856:	605a      	str	r2, [r3, #4]
          if (USBD_SetClassConfig(pdev, cfgidx) == USBD_FAIL)
 8006858:	4b11      	ldr	r3, [pc, #68]	@ (80068a0 <USBD_SetConfig+0x118>)
 800685a:	781b      	ldrb	r3, [r3, #0]
 800685c:	4619      	mov	r1, r3
 800685e:	6878      	ldr	r0, [r7, #4]
 8006860:	f7ff f9a7 	bl	8005bb2 <USBD_SetClassConfig>
 8006864:	4603      	mov	r3, r0
 8006866:	2b02      	cmp	r3, #2
 8006868:	d104      	bne.n	8006874 <USBD_SetConfig+0xec>
            USBD_CtlError(pdev, req);
 800686a:	6839      	ldr	r1, [r7, #0]
 800686c:	6878      	ldr	r0, [r7, #4]
 800686e:	f000 f8ef 	bl	8006a50 <USBD_CtlError>
            return;
 8006872:	e012      	b.n	800689a <USBD_SetConfig+0x112>
          USBD_CtlSendStatus(pdev);
 8006874:	6878      	ldr	r0, [r7, #4]
 8006876:	f000 fb2d 	bl	8006ed4 <USBD_CtlSendStatus>
        break;
 800687a:	e00e      	b.n	800689a <USBD_SetConfig+0x112>
          USBD_CtlSendStatus(pdev);
 800687c:	6878      	ldr	r0, [r7, #4]
 800687e:	f000 fb29 	bl	8006ed4 <USBD_CtlSendStatus>
        break;
 8006882:	e00a      	b.n	800689a <USBD_SetConfig+0x112>

      default:
        USBD_CtlError(pdev, req);
 8006884:	6839      	ldr	r1, [r7, #0]
 8006886:	6878      	ldr	r0, [r7, #4]
 8006888:	f000 f8e2 	bl	8006a50 <USBD_CtlError>
        USBD_ClrClassConfig(pdev, cfgidx);
 800688c:	4b04      	ldr	r3, [pc, #16]	@ (80068a0 <USBD_SetConfig+0x118>)
 800688e:	781b      	ldrb	r3, [r3, #0]
 8006890:	4619      	mov	r1, r3
 8006892:	6878      	ldr	r0, [r7, #4]
 8006894:	f7ff f9ac 	bl	8005bf0 <USBD_ClrClassConfig>
        break;
 8006898:	bf00      	nop
    }
  }
}
 800689a:	3708      	adds	r7, #8
 800689c:	46bd      	mov	sp, r7
 800689e:	bd80      	pop	{r7, pc}
 80068a0:	200001d0 	.word	0x200001d0

080068a4 <USBD_GetConfig>:
* @param  pdev: device instance
* @param  req: usb request
* @retval status
*/
static void USBD_GetConfig(USBD_HandleTypeDef *pdev, USBD_SetupReqTypedef *req)
{
 80068a4:	b580      	push	{r7, lr}
 80068a6:	b082      	sub	sp, #8
 80068a8:	af00      	add	r7, sp, #0
 80068aa:	6078      	str	r0, [r7, #4]
 80068ac:	6039      	str	r1, [r7, #0]
  if (req->wLength != 1U)
 80068ae:	683b      	ldr	r3, [r7, #0]
 80068b0:	88db      	ldrh	r3, [r3, #6]
 80068b2:	2b01      	cmp	r3, #1
 80068b4:	d004      	beq.n	80068c0 <USBD_GetConfig+0x1c>
  {
    USBD_CtlError(pdev, req);
 80068b6:	6839      	ldr	r1, [r7, #0]
 80068b8:	6878      	ldr	r0, [r7, #4]
 80068ba:	f000 f8c9 	bl	8006a50 <USBD_CtlError>
      default:
        USBD_CtlError(pdev, req);
        break;
    }
  }
}
 80068be:	e022      	b.n	8006906 <USBD_GetConfig+0x62>
    switch (pdev->dev_state)
 80068c0:	687b      	ldr	r3, [r7, #4]
 80068c2:	f893 329c 	ldrb.w	r3, [r3, #668]	@ 0x29c
 80068c6:	2b02      	cmp	r3, #2
 80068c8:	dc02      	bgt.n	80068d0 <USBD_GetConfig+0x2c>
 80068ca:	2b00      	cmp	r3, #0
 80068cc:	dc03      	bgt.n	80068d6 <USBD_GetConfig+0x32>
 80068ce:	e015      	b.n	80068fc <USBD_GetConfig+0x58>
 80068d0:	2b03      	cmp	r3, #3
 80068d2:	d00b      	beq.n	80068ec <USBD_GetConfig+0x48>
 80068d4:	e012      	b.n	80068fc <USBD_GetConfig+0x58>
        pdev->dev_default_config = 0U;
 80068d6:	687b      	ldr	r3, [r7, #4]
 80068d8:	2200      	movs	r2, #0
 80068da:	609a      	str	r2, [r3, #8]
        USBD_CtlSendData(pdev, (uint8_t *)(void *)&pdev->dev_default_config, 1U);
 80068dc:	687b      	ldr	r3, [r7, #4]
 80068de:	3308      	adds	r3, #8
 80068e0:	2201      	movs	r2, #1
 80068e2:	4619      	mov	r1, r3
 80068e4:	6878      	ldr	r0, [r7, #4]
 80068e6:	f000 fab5 	bl	8006e54 <USBD_CtlSendData>
        break;
 80068ea:	e00c      	b.n	8006906 <USBD_GetConfig+0x62>
        USBD_CtlSendData(pdev, (uint8_t *)(void *)&pdev->dev_config, 1U);
 80068ec:	687b      	ldr	r3, [r7, #4]
 80068ee:	3304      	adds	r3, #4
 80068f0:	2201      	movs	r2, #1
 80068f2:	4619      	mov	r1, r3
 80068f4:	6878      	ldr	r0, [r7, #4]
 80068f6:	f000 faad 	bl	8006e54 <USBD_CtlSendData>
        break;
 80068fa:	e004      	b.n	8006906 <USBD_GetConfig+0x62>
        USBD_CtlError(pdev, req);
 80068fc:	6839      	ldr	r1, [r7, #0]
 80068fe:	6878      	ldr	r0, [r7, #4]
 8006900:	f000 f8a6 	bl	8006a50 <USBD_CtlError>
        break;
 8006904:	bf00      	nop
}
 8006906:	bf00      	nop
 8006908:	3708      	adds	r7, #8
 800690a:	46bd      	mov	sp, r7
 800690c:	bd80      	pop	{r7, pc}

0800690e <USBD_GetStatus>:
* @param  pdev: device instance
* @param  req: usb request
* @retval status
*/
static void USBD_GetStatus(USBD_HandleTypeDef *pdev, USBD_SetupReqTypedef *req)
{
 800690e:	b580      	push	{r7, lr}
 8006910:	b082      	sub	sp, #8
 8006912:	af00      	add	r7, sp, #0
 8006914:	6078      	str	r0, [r7, #4]
 8006916:	6039      	str	r1, [r7, #0]
  switch (pdev->dev_state)
 8006918:	687b      	ldr	r3, [r7, #4]
 800691a:	f893 329c 	ldrb.w	r3, [r3, #668]	@ 0x29c
 800691e:	3b01      	subs	r3, #1
 8006920:	2b02      	cmp	r3, #2
 8006922:	d81e      	bhi.n	8006962 <USBD_GetStatus+0x54>
  {
    case USBD_STATE_DEFAULT:
    case USBD_STATE_ADDRESSED:
    case USBD_STATE_CONFIGURED:
      if (req->wLength != 0x2U)
 8006924:	683b      	ldr	r3, [r7, #0]
 8006926:	88db      	ldrh	r3, [r3, #6]
 8006928:	2b02      	cmp	r3, #2
 800692a:	d004      	beq.n	8006936 <USBD_GetStatus+0x28>
      {
        USBD_CtlError(pdev, req);
 800692c:	6839      	ldr	r1, [r7, #0]
 800692e:	6878      	ldr	r0, [r7, #4]
 8006930:	f000 f88e 	bl	8006a50 <USBD_CtlError>
        break;
 8006934:	e01a      	b.n	800696c <USBD_GetStatus+0x5e>
      }

#if (USBD_SELF_POWERED == 1U)
      pdev->dev_config_status = USB_CONFIG_SELF_POWERED;
 8006936:	687b      	ldr	r3, [r7, #4]
 8006938:	2201      	movs	r2, #1
 800693a:	60da      	str	r2, [r3, #12]
#else
      pdev->dev_config_status = 0U;
#endif

      if (pdev->dev_remote_wakeup)
 800693c:	687b      	ldr	r3, [r7, #4]
 800693e:	f8d3 32a4 	ldr.w	r3, [r3, #676]	@ 0x2a4
 8006942:	2b00      	cmp	r3, #0
 8006944:	d005      	beq.n	8006952 <USBD_GetStatus+0x44>
      {
        pdev->dev_config_status |= USB_CONFIG_REMOTE_WAKEUP;
 8006946:	687b      	ldr	r3, [r7, #4]
 8006948:	68db      	ldr	r3, [r3, #12]
 800694a:	f043 0202 	orr.w	r2, r3, #2
 800694e:	687b      	ldr	r3, [r7, #4]
 8006950:	60da      	str	r2, [r3, #12]
      }

      USBD_CtlSendData(pdev, (uint8_t *)(void *)&pdev->dev_config_status, 2U);
 8006952:	687b      	ldr	r3, [r7, #4]
 8006954:	330c      	adds	r3, #12
 8006956:	2202      	movs	r2, #2
 8006958:	4619      	mov	r1, r3
 800695a:	6878      	ldr	r0, [r7, #4]
 800695c:	f000 fa7a 	bl	8006e54 <USBD_CtlSendData>
      break;
 8006960:	e004      	b.n	800696c <USBD_GetStatus+0x5e>

    default:
      USBD_CtlError(pdev, req);
 8006962:	6839      	ldr	r1, [r7, #0]
 8006964:	6878      	ldr	r0, [r7, #4]
 8006966:	f000 f873 	bl	8006a50 <USBD_CtlError>
      break;
 800696a:	bf00      	nop
  }
}
 800696c:	bf00      	nop
 800696e:	3708      	adds	r7, #8
 8006970:	46bd      	mov	sp, r7
 8006972:	bd80      	pop	{r7, pc}

08006974 <USBD_SetFeature>:
* @param  req: usb request
* @retval status
*/
static void USBD_SetFeature(USBD_HandleTypeDef *pdev,
                            USBD_SetupReqTypedef *req)
{
 8006974:	b580      	push	{r7, lr}
 8006976:	b082      	sub	sp, #8
 8006978:	af00      	add	r7, sp, #0
 800697a:	6078      	str	r0, [r7, #4]
 800697c:	6039      	str	r1, [r7, #0]
  if (req->wValue == USB_FEATURE_REMOTE_WAKEUP)
 800697e:	683b      	ldr	r3, [r7, #0]
 8006980:	885b      	ldrh	r3, [r3, #2]
 8006982:	2b01      	cmp	r3, #1
 8006984:	d106      	bne.n	8006994 <USBD_SetFeature+0x20>
  {
    pdev->dev_remote_wakeup = 1U;
 8006986:	687b      	ldr	r3, [r7, #4]
 8006988:	2201      	movs	r2, #1
 800698a:	f8c3 22a4 	str.w	r2, [r3, #676]	@ 0x2a4
    USBD_CtlSendStatus(pdev);
 800698e:	6878      	ldr	r0, [r7, #4]
 8006990:	f000 faa0 	bl	8006ed4 <USBD_CtlSendStatus>
  }
}
 8006994:	bf00      	nop
 8006996:	3708      	adds	r7, #8
 8006998:	46bd      	mov	sp, r7
 800699a:	bd80      	pop	{r7, pc}

0800699c <USBD_ClrFeature>:
* @param  req: usb request
* @retval status
*/
static void USBD_ClrFeature(USBD_HandleTypeDef *pdev,
                            USBD_SetupReqTypedef *req)
{
 800699c:	b580      	push	{r7, lr}
 800699e:	b082      	sub	sp, #8
 80069a0:	af00      	add	r7, sp, #0
 80069a2:	6078      	str	r0, [r7, #4]
 80069a4:	6039      	str	r1, [r7, #0]
  switch (pdev->dev_state)
 80069a6:	687b      	ldr	r3, [r7, #4]
 80069a8:	f893 329c 	ldrb.w	r3, [r3, #668]	@ 0x29c
 80069ac:	3b01      	subs	r3, #1
 80069ae:	2b02      	cmp	r3, #2
 80069b0:	d80b      	bhi.n	80069ca <USBD_ClrFeature+0x2e>
  {
    case USBD_STATE_DEFAULT:
    case USBD_STATE_ADDRESSED:
    case USBD_STATE_CONFIGURED:
      if (req->wValue == USB_FEATURE_REMOTE_WAKEUP)
 80069b2:	683b      	ldr	r3, [r7, #0]
 80069b4:	885b      	ldrh	r3, [r3, #2]
 80069b6:	2b01      	cmp	r3, #1
 80069b8:	d10c      	bne.n	80069d4 <USBD_ClrFeature+0x38>
      {
        pdev->dev_remote_wakeup = 0U;
 80069ba:	687b      	ldr	r3, [r7, #4]
 80069bc:	2200      	movs	r2, #0
 80069be:	f8c3 22a4 	str.w	r2, [r3, #676]	@ 0x2a4
        USBD_CtlSendStatus(pdev);
 80069c2:	6878      	ldr	r0, [r7, #4]
 80069c4:	f000 fa86 	bl	8006ed4 <USBD_CtlSendStatus>
      }
      break;
 80069c8:	e004      	b.n	80069d4 <USBD_ClrFeature+0x38>

    default:
      USBD_CtlError(pdev, req);
 80069ca:	6839      	ldr	r1, [r7, #0]
 80069cc:	6878      	ldr	r0, [r7, #4]
 80069ce:	f000 f83f 	bl	8006a50 <USBD_CtlError>
      break;
 80069d2:	e000      	b.n	80069d6 <USBD_ClrFeature+0x3a>
      break;
 80069d4:	bf00      	nop
  }
}
 80069d6:	bf00      	nop
 80069d8:	3708      	adds	r7, #8
 80069da:	46bd      	mov	sp, r7
 80069dc:	bd80      	pop	{r7, pc}

080069de <USBD_ParseSetupRequest>:
* @param  req: usb request
* @retval None
*/

void USBD_ParseSetupRequest(USBD_SetupReqTypedef *req, uint8_t *pdata)
{
 80069de:	b480      	push	{r7}
 80069e0:	b083      	sub	sp, #12
 80069e2:	af00      	add	r7, sp, #0
 80069e4:	6078      	str	r0, [r7, #4]
 80069e6:	6039      	str	r1, [r7, #0]
  req->bmRequest = *(uint8_t *)(pdata);
 80069e8:	683b      	ldr	r3, [r7, #0]
 80069ea:	781a      	ldrb	r2, [r3, #0]
 80069ec:	687b      	ldr	r3, [r7, #4]
 80069ee:	701a      	strb	r2, [r3, #0]
  req->bRequest = *(uint8_t *)(pdata + 1U);
 80069f0:	683b      	ldr	r3, [r7, #0]
 80069f2:	785a      	ldrb	r2, [r3, #1]
 80069f4:	687b      	ldr	r3, [r7, #4]
 80069f6:	705a      	strb	r2, [r3, #1]
  req->wValue = SWAPBYTE(pdata + 2U);
 80069f8:	683b      	ldr	r3, [r7, #0]
 80069fa:	3302      	adds	r3, #2
 80069fc:	781b      	ldrb	r3, [r3, #0]
 80069fe:	461a      	mov	r2, r3
 8006a00:	683b      	ldr	r3, [r7, #0]
 8006a02:	3303      	adds	r3, #3
 8006a04:	781b      	ldrb	r3, [r3, #0]
 8006a06:	021b      	lsls	r3, r3, #8
 8006a08:	b29b      	uxth	r3, r3
 8006a0a:	4413      	add	r3, r2
 8006a0c:	b29a      	uxth	r2, r3
 8006a0e:	687b      	ldr	r3, [r7, #4]
 8006a10:	805a      	strh	r2, [r3, #2]
  req->wIndex = SWAPBYTE(pdata + 4U);
 8006a12:	683b      	ldr	r3, [r7, #0]
 8006a14:	3304      	adds	r3, #4
 8006a16:	781b      	ldrb	r3, [r3, #0]
 8006a18:	461a      	mov	r2, r3
 8006a1a:	683b      	ldr	r3, [r7, #0]
 8006a1c:	3305      	adds	r3, #5
 8006a1e:	781b      	ldrb	r3, [r3, #0]
 8006a20:	021b      	lsls	r3, r3, #8
 8006a22:	b29b      	uxth	r3, r3
 8006a24:	4413      	add	r3, r2
 8006a26:	b29a      	uxth	r2, r3
 8006a28:	687b      	ldr	r3, [r7, #4]
 8006a2a:	809a      	strh	r2, [r3, #4]
  req->wLength = SWAPBYTE(pdata + 6U);
 8006a2c:	683b      	ldr	r3, [r7, #0]
 8006a2e:	3306      	adds	r3, #6
 8006a30:	781b      	ldrb	r3, [r3, #0]
 8006a32:	461a      	mov	r2, r3
 8006a34:	683b      	ldr	r3, [r7, #0]
 8006a36:	3307      	adds	r3, #7
 8006a38:	781b      	ldrb	r3, [r3, #0]
 8006a3a:	021b      	lsls	r3, r3, #8
 8006a3c:	b29b      	uxth	r3, r3
 8006a3e:	4413      	add	r3, r2
 8006a40:	b29a      	uxth	r2, r3
 8006a42:	687b      	ldr	r3, [r7, #4]
 8006a44:	80da      	strh	r2, [r3, #6]

}
 8006a46:	bf00      	nop
 8006a48:	370c      	adds	r7, #12
 8006a4a:	46bd      	mov	sp, r7
 8006a4c:	bc80      	pop	{r7}
 8006a4e:	4770      	bx	lr

08006a50 <USBD_CtlError>:
* @retval None
*/

void USBD_CtlError(USBD_HandleTypeDef *pdev,
                   USBD_SetupReqTypedef *req)
{
 8006a50:	b580      	push	{r7, lr}
 8006a52:	b082      	sub	sp, #8
 8006a54:	af00      	add	r7, sp, #0
 8006a56:	6078      	str	r0, [r7, #4]
 8006a58:	6039      	str	r1, [r7, #0]
  USBD_LL_StallEP(pdev, 0x80U);
 8006a5a:	2180      	movs	r1, #128	@ 0x80
 8006a5c:	6878      	ldr	r0, [r7, #4]
 8006a5e:	f000 fcfd 	bl	800745c <USBD_LL_StallEP>
  USBD_LL_StallEP(pdev, 0U);
 8006a62:	2100      	movs	r1, #0
 8006a64:	6878      	ldr	r0, [r7, #4]
 8006a66:	f000 fcf9 	bl	800745c <USBD_LL_StallEP>
}
 8006a6a:	bf00      	nop
 8006a6c:	3708      	adds	r7, #8
 8006a6e:	46bd      	mov	sp, r7
 8006a70:	bd80      	pop	{r7, pc}

08006a72 <USBD_GetString>:
  * @param  unicode : Formatted string buffer (unicode)
  * @param  len : descriptor length
  * @retval None
  */
void USBD_GetString(uint8_t *desc, uint8_t *unicode, uint16_t *len)
{
 8006a72:	b580      	push	{r7, lr}
 8006a74:	b086      	sub	sp, #24
 8006a76:	af00      	add	r7, sp, #0
 8006a78:	60f8      	str	r0, [r7, #12]
 8006a7a:	60b9      	str	r1, [r7, #8]
 8006a7c:	607a      	str	r2, [r7, #4]
  uint8_t idx = 0U;
 8006a7e:	2300      	movs	r3, #0
 8006a80:	75fb      	strb	r3, [r7, #23]

  if (desc != NULL)
 8006a82:	68fb      	ldr	r3, [r7, #12]
 8006a84:	2b00      	cmp	r3, #0
 8006a86:	d032      	beq.n	8006aee <USBD_GetString+0x7c>
  {
    *len = (uint16_t)USBD_GetLen(desc) * 2U + 2U;
 8006a88:	68f8      	ldr	r0, [r7, #12]
 8006a8a:	f000 f834 	bl	8006af6 <USBD_GetLen>
 8006a8e:	4603      	mov	r3, r0
 8006a90:	3301      	adds	r3, #1
 8006a92:	b29b      	uxth	r3, r3
 8006a94:	005b      	lsls	r3, r3, #1
 8006a96:	b29a      	uxth	r2, r3
 8006a98:	687b      	ldr	r3, [r7, #4]
 8006a9a:	801a      	strh	r2, [r3, #0]
    unicode[idx++] = *(uint8_t *)(void *)len;
 8006a9c:	7dfb      	ldrb	r3, [r7, #23]
 8006a9e:	1c5a      	adds	r2, r3, #1
 8006aa0:	75fa      	strb	r2, [r7, #23]
 8006aa2:	461a      	mov	r2, r3
 8006aa4:	68bb      	ldr	r3, [r7, #8]
 8006aa6:	4413      	add	r3, r2
 8006aa8:	687a      	ldr	r2, [r7, #4]
 8006aaa:	7812      	ldrb	r2, [r2, #0]
 8006aac:	701a      	strb	r2, [r3, #0]
    unicode[idx++] = USB_DESC_TYPE_STRING;
 8006aae:	7dfb      	ldrb	r3, [r7, #23]
 8006ab0:	1c5a      	adds	r2, r3, #1
 8006ab2:	75fa      	strb	r2, [r7, #23]
 8006ab4:	461a      	mov	r2, r3
 8006ab6:	68bb      	ldr	r3, [r7, #8]
 8006ab8:	4413      	add	r3, r2
 8006aba:	2203      	movs	r2, #3
 8006abc:	701a      	strb	r2, [r3, #0]

    while (*desc != '\0')
 8006abe:	e012      	b.n	8006ae6 <USBD_GetString+0x74>
    {
      unicode[idx++] = *desc++;
 8006ac0:	68fb      	ldr	r3, [r7, #12]
 8006ac2:	1c5a      	adds	r2, r3, #1
 8006ac4:	60fa      	str	r2, [r7, #12]
 8006ac6:	7dfa      	ldrb	r2, [r7, #23]
 8006ac8:	1c51      	adds	r1, r2, #1
 8006aca:	75f9      	strb	r1, [r7, #23]
 8006acc:	4611      	mov	r1, r2
 8006ace:	68ba      	ldr	r2, [r7, #8]
 8006ad0:	440a      	add	r2, r1
 8006ad2:	781b      	ldrb	r3, [r3, #0]
 8006ad4:	7013      	strb	r3, [r2, #0]
      unicode[idx++] =  0U;
 8006ad6:	7dfb      	ldrb	r3, [r7, #23]
 8006ad8:	1c5a      	adds	r2, r3, #1
 8006ada:	75fa      	strb	r2, [r7, #23]
 8006adc:	461a      	mov	r2, r3
 8006ade:	68bb      	ldr	r3, [r7, #8]
 8006ae0:	4413      	add	r3, r2
 8006ae2:	2200      	movs	r2, #0
 8006ae4:	701a      	strb	r2, [r3, #0]
    while (*desc != '\0')
 8006ae6:	68fb      	ldr	r3, [r7, #12]
 8006ae8:	781b      	ldrb	r3, [r3, #0]
 8006aea:	2b00      	cmp	r3, #0
 8006aec:	d1e8      	bne.n	8006ac0 <USBD_GetString+0x4e>
    }
  }
}
 8006aee:	bf00      	nop
 8006af0:	3718      	adds	r7, #24
 8006af2:	46bd      	mov	sp, r7
 8006af4:	bd80      	pop	{r7, pc}

08006af6 <USBD_GetLen>:
  *         return the string length
   * @param  buf : pointer to the ascii string buffer
  * @retval string length
  */
static uint8_t USBD_GetLen(uint8_t *buf)
{
 8006af6:	b480      	push	{r7}
 8006af8:	b085      	sub	sp, #20
 8006afa:	af00      	add	r7, sp, #0
 8006afc:	6078      	str	r0, [r7, #4]
  uint8_t  len = 0U;
 8006afe:	2300      	movs	r3, #0
 8006b00:	73fb      	strb	r3, [r7, #15]

  while (*buf != '\0')
 8006b02:	e005      	b.n	8006b10 <USBD_GetLen+0x1a>
  {
    len++;
 8006b04:	7bfb      	ldrb	r3, [r7, #15]
 8006b06:	3301      	adds	r3, #1
 8006b08:	73fb      	strb	r3, [r7, #15]
    buf++;
 8006b0a:	687b      	ldr	r3, [r7, #4]
 8006b0c:	3301      	adds	r3, #1
 8006b0e:	607b      	str	r3, [r7, #4]
  while (*buf != '\0')
 8006b10:	687b      	ldr	r3, [r7, #4]
 8006b12:	781b      	ldrb	r3, [r3, #0]
 8006b14:	2b00      	cmp	r3, #0
 8006b16:	d1f5      	bne.n	8006b04 <USBD_GetLen+0xe>
  }

  return len;
 8006b18:	7bfb      	ldrb	r3, [r7, #15]
}
 8006b1a:	4618      	mov	r0, r3
 8006b1c:	3714      	adds	r7, #20
 8006b1e:	46bd      	mov	sp, r7
 8006b20:	bc80      	pop	{r7}
 8006b22:	4770      	bx	lr

08006b24 <USBD_HID_Init>:
  * @param  pdev: device instance
  * @param  cfgidx: Configuration index
  * @retval status
  */
static uint8_t  USBD_HID_Init(USBD_HandleTypeDef *pdev, uint8_t cfgidx)
{
 8006b24:	b580      	push	{r7, lr}
 8006b26:	b082      	sub	sp, #8
 8006b28:	af00      	add	r7, sp, #0
 8006b2a:	6078      	str	r0, [r7, #4]
 8006b2c:	460b      	mov	r3, r1
 8006b2e:	70fb      	strb	r3, [r7, #3]
  /* Open EP IN */
  USBD_LL_OpenEP(pdev, HID_EPIN_ADDR, USBD_EP_TYPE_INTR, HID_EPIN_SIZE);
 8006b30:	2304      	movs	r3, #4
 8006b32:	2203      	movs	r2, #3
 8006b34:	2181      	movs	r1, #129	@ 0x81
 8006b36:	6878      	ldr	r0, [r7, #4]
 8006b38:	f000 fc4b 	bl	80073d2 <USBD_LL_OpenEP>
  pdev->ep_in[HID_EPIN_ADDR & 0xFU].is_used = 1U;
 8006b3c:	687b      	ldr	r3, [r7, #4]
 8006b3e:	2201      	movs	r2, #1
 8006b40:	62da      	str	r2, [r3, #44]	@ 0x2c

  pdev->pClassData = USBD_malloc(sizeof(USBD_HID_HandleTypeDef));
 8006b42:	2010      	movs	r0, #16
 8006b44:	f000 fd58 	bl	80075f8 <USBD_static_malloc>
 8006b48:	4602      	mov	r2, r0
 8006b4a:	687b      	ldr	r3, [r7, #4]
 8006b4c:	f8c3 22b8 	str.w	r2, [r3, #696]	@ 0x2b8

  if (pdev->pClassData == NULL)
 8006b50:	687b      	ldr	r3, [r7, #4]
 8006b52:	f8d3 32b8 	ldr.w	r3, [r3, #696]	@ 0x2b8
 8006b56:	2b00      	cmp	r3, #0
 8006b58:	d101      	bne.n	8006b5e <USBD_HID_Init+0x3a>
  {
    return USBD_FAIL;
 8006b5a:	2302      	movs	r3, #2
 8006b5c:	e005      	b.n	8006b6a <USBD_HID_Init+0x46>
  }

  ((USBD_HID_HandleTypeDef *)pdev->pClassData)->state = HID_IDLE;
 8006b5e:	687b      	ldr	r3, [r7, #4]
 8006b60:	f8d3 32b8 	ldr.w	r3, [r3, #696]	@ 0x2b8
 8006b64:	2200      	movs	r2, #0
 8006b66:	731a      	strb	r2, [r3, #12]

  return USBD_OK;
 8006b68:	2300      	movs	r3, #0
}
 8006b6a:	4618      	mov	r0, r3
 8006b6c:	3708      	adds	r7, #8
 8006b6e:	46bd      	mov	sp, r7
 8006b70:	bd80      	pop	{r7, pc}

08006b72 <USBD_HID_DeInit>:
  * @param  cfgidx: Configuration index
  * @retval status
  */
static uint8_t  USBD_HID_DeInit(USBD_HandleTypeDef *pdev,
                                uint8_t cfgidx)
{
 8006b72:	b580      	push	{r7, lr}
 8006b74:	b082      	sub	sp, #8
 8006b76:	af00      	add	r7, sp, #0
 8006b78:	6078      	str	r0, [r7, #4]
 8006b7a:	460b      	mov	r3, r1
 8006b7c:	70fb      	strb	r3, [r7, #3]
  /* Close HID EPs */
  USBD_LL_CloseEP(pdev, HID_EPIN_ADDR);
 8006b7e:	2181      	movs	r1, #129	@ 0x81
 8006b80:	6878      	ldr	r0, [r7, #4]
 8006b82:	f000 fc4c 	bl	800741e <USBD_LL_CloseEP>
  pdev->ep_in[HID_EPIN_ADDR & 0xFU].is_used = 0U;
 8006b86:	687b      	ldr	r3, [r7, #4]
 8006b88:	2200      	movs	r2, #0
 8006b8a:	62da      	str	r2, [r3, #44]	@ 0x2c

  /* FRee allocated memory */
  if (pdev->pClassData != NULL)
 8006b8c:	687b      	ldr	r3, [r7, #4]
 8006b8e:	f8d3 32b8 	ldr.w	r3, [r3, #696]	@ 0x2b8
 8006b92:	2b00      	cmp	r3, #0
 8006b94:	d009      	beq.n	8006baa <USBD_HID_DeInit+0x38>
  {
    USBD_free(pdev->pClassData);
 8006b96:	687b      	ldr	r3, [r7, #4]
 8006b98:	f8d3 32b8 	ldr.w	r3, [r3, #696]	@ 0x2b8
 8006b9c:	4618      	mov	r0, r3
 8006b9e:	f000 fd37 	bl	8007610 <USBD_static_free>
    pdev->pClassData = NULL;
 8006ba2:	687b      	ldr	r3, [r7, #4]
 8006ba4:	2200      	movs	r2, #0
 8006ba6:	f8c3 22b8 	str.w	r2, [r3, #696]	@ 0x2b8
  }

  return USBD_OK;
 8006baa:	2300      	movs	r3, #0
}
 8006bac:	4618      	mov	r0, r3
 8006bae:	3708      	adds	r7, #8
 8006bb0:	46bd      	mov	sp, r7
 8006bb2:	bd80      	pop	{r7, pc}

08006bb4 <USBD_HID_Setup>:
  * @retval status
  */

static uint8_t  USBD_HID_Setup(USBD_HandleTypeDef *pdev,
                               USBD_SetupReqTypedef *req)
{
 8006bb4:	b580      	push	{r7, lr}
 8006bb6:	b088      	sub	sp, #32
 8006bb8:	af00      	add	r7, sp, #0
 8006bba:	6078      	str	r0, [r7, #4]
 8006bbc:	6039      	str	r1, [r7, #0]
  USBD_HID_HandleTypeDef *hhid = (USBD_HID_HandleTypeDef *) pdev->pClassData;
 8006bbe:	687b      	ldr	r3, [r7, #4]
 8006bc0:	f8d3 32b8 	ldr.w	r3, [r3, #696]	@ 0x2b8
 8006bc4:	613b      	str	r3, [r7, #16]
  uint16_t len = 0U;
 8006bc6:	2300      	movs	r3, #0
 8006bc8:	83fb      	strh	r3, [r7, #30]
  uint8_t *pbuf = NULL;
 8006bca:	2300      	movs	r3, #0
 8006bcc:	61bb      	str	r3, [r7, #24]
  uint16_t status_info = 0U;
 8006bce:	2300      	movs	r3, #0
 8006bd0:	81fb      	strh	r3, [r7, #14]
  USBD_StatusTypeDef ret = USBD_OK;
 8006bd2:	2300      	movs	r3, #0
 8006bd4:	75fb      	strb	r3, [r7, #23]

  switch (req->bmRequest & USB_REQ_TYPE_MASK)
 8006bd6:	683b      	ldr	r3, [r7, #0]
 8006bd8:	781b      	ldrb	r3, [r3, #0]
 8006bda:	f003 0360 	and.w	r3, r3, #96	@ 0x60
 8006bde:	2b00      	cmp	r3, #0
 8006be0:	d045      	beq.n	8006c6e <USBD_HID_Setup+0xba>
 8006be2:	2b20      	cmp	r3, #32
 8006be4:	f040 80d3 	bne.w	8006d8e <USBD_HID_Setup+0x1da>
  {
    case USB_REQ_TYPE_CLASS :
      switch (req->bRequest)
 8006be8:	683b      	ldr	r3, [r7, #0]
 8006bea:	785b      	ldrb	r3, [r3, #1]
 8006bec:	3b02      	subs	r3, #2
 8006bee:	2b09      	cmp	r3, #9
 8006bf0:	d835      	bhi.n	8006c5e <USBD_HID_Setup+0xaa>
 8006bf2:	a201      	add	r2, pc, #4	@ (adr r2, 8006bf8 <USBD_HID_Setup+0x44>)
 8006bf4:	f852 f023 	ldr.w	pc, [r2, r3, lsl #2]
 8006bf8:	08006c4f 	.word	0x08006c4f
 8006bfc:	08006c2f 	.word	0x08006c2f
 8006c00:	08006c5f 	.word	0x08006c5f
 8006c04:	08006c5f 	.word	0x08006c5f
 8006c08:	08006c5f 	.word	0x08006c5f
 8006c0c:	08006c5f 	.word	0x08006c5f
 8006c10:	08006c5f 	.word	0x08006c5f
 8006c14:	08006c5f 	.word	0x08006c5f
 8006c18:	08006c3d 	.word	0x08006c3d
 8006c1c:	08006c21 	.word	0x08006c21
      {
        case HID_REQ_SET_PROTOCOL:
          hhid->Protocol = (uint8_t)(req->wValue);
 8006c20:	683b      	ldr	r3, [r7, #0]
 8006c22:	885b      	ldrh	r3, [r3, #2]
 8006c24:	b2db      	uxtb	r3, r3
 8006c26:	461a      	mov	r2, r3
 8006c28:	693b      	ldr	r3, [r7, #16]
 8006c2a:	601a      	str	r2, [r3, #0]
          break;
 8006c2c:	e01e      	b.n	8006c6c <USBD_HID_Setup+0xb8>

        case HID_REQ_GET_PROTOCOL:
          USBD_CtlSendData(pdev, (uint8_t *)(void *)&hhid->Protocol, 1U);
 8006c2e:	693b      	ldr	r3, [r7, #16]
 8006c30:	2201      	movs	r2, #1
 8006c32:	4619      	mov	r1, r3
 8006c34:	6878      	ldr	r0, [r7, #4]
 8006c36:	f000 f90d 	bl	8006e54 <USBD_CtlSendData>
          break;
 8006c3a:	e017      	b.n	8006c6c <USBD_HID_Setup+0xb8>

        case HID_REQ_SET_IDLE:
          hhid->IdleState = (uint8_t)(req->wValue >> 8);
 8006c3c:	683b      	ldr	r3, [r7, #0]
 8006c3e:	885b      	ldrh	r3, [r3, #2]
 8006c40:	0a1b      	lsrs	r3, r3, #8
 8006c42:	b29b      	uxth	r3, r3
 8006c44:	b2db      	uxtb	r3, r3
 8006c46:	461a      	mov	r2, r3
 8006c48:	693b      	ldr	r3, [r7, #16]
 8006c4a:	605a      	str	r2, [r3, #4]
          break;
 8006c4c:	e00e      	b.n	8006c6c <USBD_HID_Setup+0xb8>

        case HID_REQ_GET_IDLE:
          USBD_CtlSendData(pdev, (uint8_t *)(void *)&hhid->IdleState, 1U);
 8006c4e:	693b      	ldr	r3, [r7, #16]
 8006c50:	3304      	adds	r3, #4
 8006c52:	2201      	movs	r2, #1
 8006c54:	4619      	mov	r1, r3
 8006c56:	6878      	ldr	r0, [r7, #4]
 8006c58:	f000 f8fc 	bl	8006e54 <USBD_CtlSendData>
          break;
 8006c5c:	e006      	b.n	8006c6c <USBD_HID_Setup+0xb8>

        default:
          USBD_CtlError(pdev, req);
 8006c5e:	6839      	ldr	r1, [r7, #0]
 8006c60:	6878      	ldr	r0, [r7, #4]
 8006c62:	f7ff fef5 	bl	8006a50 <USBD_CtlError>
          ret = USBD_FAIL;
 8006c66:	2302      	movs	r3, #2
 8006c68:	75fb      	strb	r3, [r7, #23]
          break;
 8006c6a:	bf00      	nop
      }
      break;
 8006c6c:	e096      	b.n	8006d9c <USBD_HID_Setup+0x1e8>
    case USB_REQ_TYPE_STANDARD:
      switch (req->bRequest)
 8006c6e:	683b      	ldr	r3, [r7, #0]
 8006c70:	785b      	ldrb	r3, [r3, #1]
 8006c72:	2b0b      	cmp	r3, #11
 8006c74:	f200 8083 	bhi.w	8006d7e <USBD_HID_Setup+0x1ca>
 8006c78:	a201      	add	r2, pc, #4	@ (adr r2, 8006c80 <USBD_HID_Setup+0xcc>)
 8006c7a:	f852 f023 	ldr.w	pc, [r2, r3, lsl #2]
 8006c7e:	bf00      	nop
 8006c80:	08006cb1 	.word	0x08006cb1
 8006c84:	08006d7f 	.word	0x08006d7f
 8006c88:	08006d7f 	.word	0x08006d7f
 8006c8c:	08006d7f 	.word	0x08006d7f
 8006c90:	08006d7f 	.word	0x08006d7f
 8006c94:	08006d7f 	.word	0x08006d7f
 8006c98:	08006cd9 	.word	0x08006cd9
 8006c9c:	08006d7f 	.word	0x08006d7f
 8006ca0:	08006d7f 	.word	0x08006d7f
 8006ca4:	08006d7f 	.word	0x08006d7f
 8006ca8:	08006d31 	.word	0x08006d31
 8006cac:	08006d59 	.word	0x08006d59
      {
        case USB_REQ_GET_STATUS:
          if (pdev->dev_state == USBD_STATE_CONFIGURED)
 8006cb0:	687b      	ldr	r3, [r7, #4]
 8006cb2:	f893 329c 	ldrb.w	r3, [r3, #668]	@ 0x29c
 8006cb6:	2b03      	cmp	r3, #3
 8006cb8:	d107      	bne.n	8006cca <USBD_HID_Setup+0x116>
          {
            USBD_CtlSendData(pdev, (uint8_t *)(void *)&status_info, 2U);
 8006cba:	f107 030e 	add.w	r3, r7, #14
 8006cbe:	2202      	movs	r2, #2
 8006cc0:	4619      	mov	r1, r3
 8006cc2:	6878      	ldr	r0, [r7, #4]
 8006cc4:	f000 f8c6 	bl	8006e54 <USBD_CtlSendData>
          else
          {
            USBD_CtlError(pdev, req);
            ret = USBD_FAIL;
          }
          break;
 8006cc8:	e060      	b.n	8006d8c <USBD_HID_Setup+0x1d8>
            USBD_CtlError(pdev, req);
 8006cca:	6839      	ldr	r1, [r7, #0]
 8006ccc:	6878      	ldr	r0, [r7, #4]
 8006cce:	f7ff febf 	bl	8006a50 <USBD_CtlError>
            ret = USBD_FAIL;
 8006cd2:	2302      	movs	r3, #2
 8006cd4:	75fb      	strb	r3, [r7, #23]
          break;
 8006cd6:	e059      	b.n	8006d8c <USBD_HID_Setup+0x1d8>

        case USB_REQ_GET_DESCRIPTOR:
          if (req->wValue >> 8 == HID_REPORT_DESC)
 8006cd8:	683b      	ldr	r3, [r7, #0]
 8006cda:	885b      	ldrh	r3, [r3, #2]
 8006cdc:	0a1b      	lsrs	r3, r3, #8
 8006cde:	b29b      	uxth	r3, r3
 8006ce0:	2b22      	cmp	r3, #34	@ 0x22
 8006ce2:	d108      	bne.n	8006cf6 <USBD_HID_Setup+0x142>
          {
            len = MIN(HID_MOUSE_REPORT_DESC_SIZE, req->wLength);
 8006ce4:	683b      	ldr	r3, [r7, #0]
 8006ce6:	88db      	ldrh	r3, [r3, #6]
 8006ce8:	2b73      	cmp	r3, #115	@ 0x73
 8006cea:	bf28      	it	cs
 8006cec:	2373      	movcs	r3, #115	@ 0x73
 8006cee:	83fb      	strh	r3, [r7, #30]
            pbuf = HID_MOUSE_ReportDesc;
 8006cf0:	4b2d      	ldr	r3, [pc, #180]	@ (8006da8 <USBD_HID_Setup+0x1f4>)
 8006cf2:	61bb      	str	r3, [r7, #24]
 8006cf4:	e015      	b.n	8006d22 <USBD_HID_Setup+0x16e>
          }
          else if (req->wValue >> 8 == HID_DESCRIPTOR_TYPE)
 8006cf6:	683b      	ldr	r3, [r7, #0]
 8006cf8:	885b      	ldrh	r3, [r3, #2]
 8006cfa:	0a1b      	lsrs	r3, r3, #8
 8006cfc:	b29b      	uxth	r3, r3
 8006cfe:	2b21      	cmp	r3, #33	@ 0x21
 8006d00:	d108      	bne.n	8006d14 <USBD_HID_Setup+0x160>
          {
            pbuf = USBD_HID_Desc;
 8006d02:	4b2a      	ldr	r3, [pc, #168]	@ (8006dac <USBD_HID_Setup+0x1f8>)
 8006d04:	61bb      	str	r3, [r7, #24]
            len = MIN(USB_HID_DESC_SIZ, req->wLength);
 8006d06:	683b      	ldr	r3, [r7, #0]
 8006d08:	88db      	ldrh	r3, [r3, #6]
 8006d0a:	2b09      	cmp	r3, #9
 8006d0c:	bf28      	it	cs
 8006d0e:	2309      	movcs	r3, #9
 8006d10:	83fb      	strh	r3, [r7, #30]
 8006d12:	e006      	b.n	8006d22 <USBD_HID_Setup+0x16e>
          }
          else
          {
            USBD_CtlError(pdev, req);
 8006d14:	6839      	ldr	r1, [r7, #0]
 8006d16:	6878      	ldr	r0, [r7, #4]
 8006d18:	f7ff fe9a 	bl	8006a50 <USBD_CtlError>
            ret = USBD_FAIL;
 8006d1c:	2302      	movs	r3, #2
 8006d1e:	75fb      	strb	r3, [r7, #23]
            break;
 8006d20:	e034      	b.n	8006d8c <USBD_HID_Setup+0x1d8>
          }
          USBD_CtlSendData(pdev, pbuf, len);
 8006d22:	8bfb      	ldrh	r3, [r7, #30]
 8006d24:	461a      	mov	r2, r3
 8006d26:	69b9      	ldr	r1, [r7, #24]
 8006d28:	6878      	ldr	r0, [r7, #4]
 8006d2a:	f000 f893 	bl	8006e54 <USBD_CtlSendData>
          break;
 8006d2e:	e02d      	b.n	8006d8c <USBD_HID_Setup+0x1d8>

        case USB_REQ_GET_INTERFACE :
          if (pdev->dev_state == USBD_STATE_CONFIGURED)
 8006d30:	687b      	ldr	r3, [r7, #4]
 8006d32:	f893 329c 	ldrb.w	r3, [r3, #668]	@ 0x29c
 8006d36:	2b03      	cmp	r3, #3
 8006d38:	d107      	bne.n	8006d4a <USBD_HID_Setup+0x196>
          {
            USBD_CtlSendData(pdev, (uint8_t *)(void *)&hhid->AltSetting, 1U);
 8006d3a:	693b      	ldr	r3, [r7, #16]
 8006d3c:	3308      	adds	r3, #8
 8006d3e:	2201      	movs	r2, #1
 8006d40:	4619      	mov	r1, r3
 8006d42:	6878      	ldr	r0, [r7, #4]
 8006d44:	f000 f886 	bl	8006e54 <USBD_CtlSendData>
          else
          {
            USBD_CtlError(pdev, req);
            ret = USBD_FAIL;
          }
          break;
 8006d48:	e020      	b.n	8006d8c <USBD_HID_Setup+0x1d8>
            USBD_CtlError(pdev, req);
 8006d4a:	6839      	ldr	r1, [r7, #0]
 8006d4c:	6878      	ldr	r0, [r7, #4]
 8006d4e:	f7ff fe7f 	bl	8006a50 <USBD_CtlError>
            ret = USBD_FAIL;
 8006d52:	2302      	movs	r3, #2
 8006d54:	75fb      	strb	r3, [r7, #23]
          break;
 8006d56:	e019      	b.n	8006d8c <USBD_HID_Setup+0x1d8>

        case USB_REQ_SET_INTERFACE :
          if (pdev->dev_state == USBD_STATE_CONFIGURED)
 8006d58:	687b      	ldr	r3, [r7, #4]
 8006d5a:	f893 329c 	ldrb.w	r3, [r3, #668]	@ 0x29c
 8006d5e:	2b03      	cmp	r3, #3
 8006d60:	d106      	bne.n	8006d70 <USBD_HID_Setup+0x1bc>
          {
            hhid->AltSetting = (uint8_t)(req->wValue);
 8006d62:	683b      	ldr	r3, [r7, #0]
 8006d64:	885b      	ldrh	r3, [r3, #2]
 8006d66:	b2db      	uxtb	r3, r3
 8006d68:	461a      	mov	r2, r3
 8006d6a:	693b      	ldr	r3, [r7, #16]
 8006d6c:	609a      	str	r2, [r3, #8]
          else
          {
            USBD_CtlError(pdev, req);
            ret = USBD_FAIL;
          }
          break;
 8006d6e:	e00d      	b.n	8006d8c <USBD_HID_Setup+0x1d8>
            USBD_CtlError(pdev, req);
 8006d70:	6839      	ldr	r1, [r7, #0]
 8006d72:	6878      	ldr	r0, [r7, #4]
 8006d74:	f7ff fe6c 	bl	8006a50 <USBD_CtlError>
            ret = USBD_FAIL;
 8006d78:	2302      	movs	r3, #2
 8006d7a:	75fb      	strb	r3, [r7, #23]
          break;
 8006d7c:	e006      	b.n	8006d8c <USBD_HID_Setup+0x1d8>

        default:
          USBD_CtlError(pdev, req);
 8006d7e:	6839      	ldr	r1, [r7, #0]
 8006d80:	6878      	ldr	r0, [r7, #4]
 8006d82:	f7ff fe65 	bl	8006a50 <USBD_CtlError>
          ret = USBD_FAIL;
 8006d86:	2302      	movs	r3, #2
 8006d88:	75fb      	strb	r3, [r7, #23]
          break;
 8006d8a:	bf00      	nop
      }
      break;
 8006d8c:	e006      	b.n	8006d9c <USBD_HID_Setup+0x1e8>

    default:
      USBD_CtlError(pdev, req);
 8006d8e:	6839      	ldr	r1, [r7, #0]
 8006d90:	6878      	ldr	r0, [r7, #4]
 8006d92:	f7ff fe5d 	bl	8006a50 <USBD_CtlError>
      ret = USBD_FAIL;
 8006d96:	2302      	movs	r3, #2
 8006d98:	75fb      	strb	r3, [r7, #23]
      break;
 8006d9a:	bf00      	nop
  }

  return ret;
 8006d9c:	7dfb      	ldrb	r3, [r7, #23]
}
 8006d9e:	4618      	mov	r0, r3
 8006da0:	3720      	adds	r7, #32
 8006da2:	46bd      	mov	sp, r7
 8006da4:	bd80      	pop	{r7, pc}
 8006da6:	bf00      	nop
 8006da8:	200000c8 	.word	0x200000c8
 8006dac:	200000b0 	.word	0x200000b0

08006db0 <USBD_HID_GetFSCfgDesc>:
  * @param  speed : current device speed
  * @param  length : pointer data length
  * @retval pointer to descriptor buffer
  */
static uint8_t  *USBD_HID_GetFSCfgDesc(uint16_t *length)
{
 8006db0:	b480      	push	{r7}
 8006db2:	b083      	sub	sp, #12
 8006db4:	af00      	add	r7, sp, #0
 8006db6:	6078      	str	r0, [r7, #4]
  *length = sizeof(USBD_HID_CfgFSDesc);
 8006db8:	687b      	ldr	r3, [r7, #4]
 8006dba:	2222      	movs	r2, #34	@ 0x22
 8006dbc:	801a      	strh	r2, [r3, #0]
  return USBD_HID_CfgFSDesc;
 8006dbe:	4b03      	ldr	r3, [pc, #12]	@ (8006dcc <USBD_HID_GetFSCfgDesc+0x1c>)
}
 8006dc0:	4618      	mov	r0, r3
 8006dc2:	370c      	adds	r7, #12
 8006dc4:	46bd      	mov	sp, r7
 8006dc6:	bc80      	pop	{r7}
 8006dc8:	4770      	bx	lr
 8006dca:	bf00      	nop
 8006dcc:	20000044 	.word	0x20000044

08006dd0 <USBD_HID_GetHSCfgDesc>:
  * @param  speed : current device speed
  * @param  length : pointer data length
  * @retval pointer to descriptor buffer
  */
static uint8_t  *USBD_HID_GetHSCfgDesc(uint16_t *length)
{
 8006dd0:	b480      	push	{r7}
 8006dd2:	b083      	sub	sp, #12
 8006dd4:	af00      	add	r7, sp, #0
 8006dd6:	6078      	str	r0, [r7, #4]
  *length = sizeof(USBD_HID_CfgHSDesc);
 8006dd8:	687b      	ldr	r3, [r7, #4]
 8006dda:	2222      	movs	r2, #34	@ 0x22
 8006ddc:	801a      	strh	r2, [r3, #0]
  return USBD_HID_CfgHSDesc;
 8006dde:	4b03      	ldr	r3, [pc, #12]	@ (8006dec <USBD_HID_GetHSCfgDesc+0x1c>)
}
 8006de0:	4618      	mov	r0, r3
 8006de2:	370c      	adds	r7, #12
 8006de4:	46bd      	mov	sp, r7
 8006de6:	bc80      	pop	{r7}
 8006de8:	4770      	bx	lr
 8006dea:	bf00      	nop
 8006dec:	20000068 	.word	0x20000068

08006df0 <USBD_HID_GetOtherSpeedCfgDesc>:
  * @param  speed : current device speed
  * @param  length : pointer data length
  * @retval pointer to descriptor buffer
  */
static uint8_t  *USBD_HID_GetOtherSpeedCfgDesc(uint16_t *length)
{
 8006df0:	b480      	push	{r7}
 8006df2:	b083      	sub	sp, #12
 8006df4:	af00      	add	r7, sp, #0
 8006df6:	6078      	str	r0, [r7, #4]
  *length = sizeof(USBD_HID_OtherSpeedCfgDesc);
 8006df8:	687b      	ldr	r3, [r7, #4]
 8006dfa:	2222      	movs	r2, #34	@ 0x22
 8006dfc:	801a      	strh	r2, [r3, #0]
  return USBD_HID_OtherSpeedCfgDesc;
 8006dfe:	4b03      	ldr	r3, [pc, #12]	@ (8006e0c <USBD_HID_GetOtherSpeedCfgDesc+0x1c>)
}
 8006e00:	4618      	mov	r0, r3
 8006e02:	370c      	adds	r7, #12
 8006e04:	46bd      	mov	sp, r7
 8006e06:	bc80      	pop	{r7}
 8006e08:	4770      	bx	lr
 8006e0a:	bf00      	nop
 8006e0c:	2000008c 	.word	0x2000008c

08006e10 <USBD_HID_DataIn>:
  * @param  epnum: endpoint index
  * @retval status
  */
static uint8_t  USBD_HID_DataIn(USBD_HandleTypeDef *pdev,
                                uint8_t epnum)
{
 8006e10:	b480      	push	{r7}
 8006e12:	b083      	sub	sp, #12
 8006e14:	af00      	add	r7, sp, #0
 8006e16:	6078      	str	r0, [r7, #4]
 8006e18:	460b      	mov	r3, r1
 8006e1a:	70fb      	strb	r3, [r7, #3]

  /* Ensure that the FIFO is empty before a new transfer, this condition could
  be caused by  a new transfer before the end of the previous transfer */
  ((USBD_HID_HandleTypeDef *)pdev->pClassData)->state = HID_IDLE;
 8006e1c:	687b      	ldr	r3, [r7, #4]
 8006e1e:	f8d3 32b8 	ldr.w	r3, [r3, #696]	@ 0x2b8
 8006e22:	2200      	movs	r2, #0
 8006e24:	731a      	strb	r2, [r3, #12]
  return USBD_OK;
 8006e26:	2300      	movs	r3, #0
}
 8006e28:	4618      	mov	r0, r3
 8006e2a:	370c      	adds	r7, #12
 8006e2c:	46bd      	mov	sp, r7
 8006e2e:	bc80      	pop	{r7}
 8006e30:	4770      	bx	lr
	...

08006e34 <USBD_HID_GetDeviceQualifierDesc>:
*         return Device Qualifier descriptor
* @param  length : pointer data length
* @retval pointer to descriptor buffer
*/
static uint8_t  *USBD_HID_GetDeviceQualifierDesc(uint16_t *length)
{
 8006e34:	b480      	push	{r7}
 8006e36:	b083      	sub	sp, #12
 8006e38:	af00      	add	r7, sp, #0
 8006e3a:	6078      	str	r0, [r7, #4]
  *length = sizeof(USBD_HID_DeviceQualifierDesc);
 8006e3c:	687b      	ldr	r3, [r7, #4]
 8006e3e:	220a      	movs	r2, #10
 8006e40:	801a      	strh	r2, [r3, #0]
  return USBD_HID_DeviceQualifierDesc;
 8006e42:	4b03      	ldr	r3, [pc, #12]	@ (8006e50 <USBD_HID_GetDeviceQualifierDesc+0x1c>)
}
 8006e44:	4618      	mov	r0, r3
 8006e46:	370c      	adds	r7, #12
 8006e48:	46bd      	mov	sp, r7
 8006e4a:	bc80      	pop	{r7}
 8006e4c:	4770      	bx	lr
 8006e4e:	bf00      	nop
 8006e50:	200000bc 	.word	0x200000bc

08006e54 <USBD_CtlSendData>:
* @param  len: length of data to be sent
* @retval status
*/
USBD_StatusTypeDef USBD_CtlSendData(USBD_HandleTypeDef *pdev,
                                    uint8_t *pbuf, uint16_t len)
{
 8006e54:	b580      	push	{r7, lr}
 8006e56:	b084      	sub	sp, #16
 8006e58:	af00      	add	r7, sp, #0
 8006e5a:	60f8      	str	r0, [r7, #12]
 8006e5c:	60b9      	str	r1, [r7, #8]
 8006e5e:	4613      	mov	r3, r2
 8006e60:	80fb      	strh	r3, [r7, #6]
  /* Set EP0 State */
  pdev->ep0_state = USBD_EP0_DATA_IN;
 8006e62:	68fb      	ldr	r3, [r7, #12]
 8006e64:	2202      	movs	r2, #2
 8006e66:	f8c3 2294 	str.w	r2, [r3, #660]	@ 0x294
  pdev->ep_in[0].total_length = len;
 8006e6a:	88fa      	ldrh	r2, [r7, #6]
 8006e6c:	68fb      	ldr	r3, [r7, #12]
 8006e6e:	61da      	str	r2, [r3, #28]
  pdev->ep_in[0].rem_length   = len;
 8006e70:	88fa      	ldrh	r2, [r7, #6]
 8006e72:	68fb      	ldr	r3, [r7, #12]
 8006e74:	621a      	str	r2, [r3, #32]

  /* Start the transfer */
  USBD_LL_Transmit(pdev, 0x00U, pbuf, len);
 8006e76:	88fb      	ldrh	r3, [r7, #6]
 8006e78:	68ba      	ldr	r2, [r7, #8]
 8006e7a:	2100      	movs	r1, #0
 8006e7c:	68f8      	ldr	r0, [r7, #12]
 8006e7e:	f000 fb75 	bl	800756c <USBD_LL_Transmit>

  return USBD_OK;
 8006e82:	2300      	movs	r3, #0
}
 8006e84:	4618      	mov	r0, r3
 8006e86:	3710      	adds	r7, #16
 8006e88:	46bd      	mov	sp, r7
 8006e8a:	bd80      	pop	{r7, pc}

08006e8c <USBD_CtlContinueSendData>:
* @param  len: length of data to be sent
* @retval status
*/
USBD_StatusTypeDef USBD_CtlContinueSendData(USBD_HandleTypeDef *pdev,
                                            uint8_t *pbuf, uint16_t len)
{
 8006e8c:	b580      	push	{r7, lr}
 8006e8e:	b084      	sub	sp, #16
 8006e90:	af00      	add	r7, sp, #0
 8006e92:	60f8      	str	r0, [r7, #12]
 8006e94:	60b9      	str	r1, [r7, #8]
 8006e96:	4613      	mov	r3, r2
 8006e98:	80fb      	strh	r3, [r7, #6]
  /* Start the next transfer */
  USBD_LL_Transmit(pdev, 0x00U, pbuf, len);
 8006e9a:	88fb      	ldrh	r3, [r7, #6]
 8006e9c:	68ba      	ldr	r2, [r7, #8]
 8006e9e:	2100      	movs	r1, #0
 8006ea0:	68f8      	ldr	r0, [r7, #12]
 8006ea2:	f000 fb63 	bl	800756c <USBD_LL_Transmit>

  return USBD_OK;
 8006ea6:	2300      	movs	r3, #0
}
 8006ea8:	4618      	mov	r0, r3
 8006eaa:	3710      	adds	r7, #16
 8006eac:	46bd      	mov	sp, r7
 8006eae:	bd80      	pop	{r7, pc}

08006eb0 <USBD_CtlContinueRx>:
* @param  len: length of data to be received
* @retval status
*/
USBD_StatusTypeDef USBD_CtlContinueRx(USBD_HandleTypeDef *pdev,
                                      uint8_t *pbuf, uint16_t len)
{
 8006eb0:	b580      	push	{r7, lr}
 8006eb2:	b084      	sub	sp, #16
 8006eb4:	af00      	add	r7, sp, #0
 8006eb6:	60f8      	str	r0, [r7, #12]
 8006eb8:	60b9      	str	r1, [r7, #8]
 8006eba:	4613      	mov	r3, r2
 8006ebc:	80fb      	strh	r3, [r7, #6]
  USBD_LL_PrepareReceive(pdev, 0U, pbuf, len);
 8006ebe:	88fb      	ldrh	r3, [r7, #6]
 8006ec0:	68ba      	ldr	r2, [r7, #8]
 8006ec2:	2100      	movs	r1, #0
 8006ec4:	68f8      	ldr	r0, [r7, #12]
 8006ec6:	f000 fb74 	bl	80075b2 <USBD_LL_PrepareReceive>

  return USBD_OK;
 8006eca:	2300      	movs	r3, #0
}
 8006ecc:	4618      	mov	r0, r3
 8006ece:	3710      	adds	r7, #16
 8006ed0:	46bd      	mov	sp, r7
 8006ed2:	bd80      	pop	{r7, pc}

08006ed4 <USBD_CtlSendStatus>:
*         send zero lzngth packet on the ctl pipe
* @param  pdev: device instance
* @retval status
*/
USBD_StatusTypeDef USBD_CtlSendStatus(USBD_HandleTypeDef *pdev)
{
 8006ed4:	b580      	push	{r7, lr}
 8006ed6:	b082      	sub	sp, #8
 8006ed8:	af00      	add	r7, sp, #0
 8006eda:	6078      	str	r0, [r7, #4]
  /* Set EP0 State */
  pdev->ep0_state = USBD_EP0_STATUS_IN;
 8006edc:	687b      	ldr	r3, [r7, #4]
 8006ede:	2204      	movs	r2, #4
 8006ee0:	f8c3 2294 	str.w	r2, [r3, #660]	@ 0x294

  /* Start the transfer */
  USBD_LL_Transmit(pdev, 0x00U, NULL, 0U);
 8006ee4:	2300      	movs	r3, #0
 8006ee6:	2200      	movs	r2, #0
 8006ee8:	2100      	movs	r1, #0
 8006eea:	6878      	ldr	r0, [r7, #4]
 8006eec:	f000 fb3e 	bl	800756c <USBD_LL_Transmit>

  return USBD_OK;
 8006ef0:	2300      	movs	r3, #0
}
 8006ef2:	4618      	mov	r0, r3
 8006ef4:	3708      	adds	r7, #8
 8006ef6:	46bd      	mov	sp, r7
 8006ef8:	bd80      	pop	{r7, pc}

08006efa <USBD_CtlReceiveStatus>:
*         receive zero lzngth packet on the ctl pipe
* @param  pdev: device instance
* @retval status
*/
USBD_StatusTypeDef USBD_CtlReceiveStatus(USBD_HandleTypeDef *pdev)
{
 8006efa:	b580      	push	{r7, lr}
 8006efc:	b082      	sub	sp, #8
 8006efe:	af00      	add	r7, sp, #0
 8006f00:	6078      	str	r0, [r7, #4]
  /* Set EP0 State */
  pdev->ep0_state = USBD_EP0_STATUS_OUT;
 8006f02:	687b      	ldr	r3, [r7, #4]
 8006f04:	2205      	movs	r2, #5
 8006f06:	f8c3 2294 	str.w	r2, [r3, #660]	@ 0x294

  /* Start the transfer */
  USBD_LL_PrepareReceive(pdev, 0U, NULL, 0U);
 8006f0a:	2300      	movs	r3, #0
 8006f0c:	2200      	movs	r2, #0
 8006f0e:	2100      	movs	r1, #0
 8006f10:	6878      	ldr	r0, [r7, #4]
 8006f12:	f000 fb4e 	bl	80075b2 <USBD_LL_PrepareReceive>

  return USBD_OK;
 8006f16:	2300      	movs	r3, #0
}
 8006f18:	4618      	mov	r0, r3
 8006f1a:	3708      	adds	r7, #8
 8006f1c:	46bd      	mov	sp, r7
 8006f1e:	bd80      	pop	{r7, pc}

08006f20 <MX_USB_DEVICE_Init>:
/**
  * Init USB device Library, add supported class and start the library
  * @retval None
  */
void MX_USB_DEVICE_Init(void)
{
 8006f20:	b580      	push	{r7, lr}
 8006f22:	af00      	add	r7, sp, #0
  /* USER CODE BEGIN USB_DEVICE_Init_PreTreatment */

  /* USER CODE END USB_DEVICE_Init_PreTreatment */

  /* Init Device Library, add supported class and start the library. */
  if (USBD_Init(&hUsbDeviceFS, &FS_Desc, DEVICE_FS) != USBD_OK)
 8006f24:	2200      	movs	r2, #0
 8006f26:	490e      	ldr	r1, [pc, #56]	@ (8006f60 <MX_USB_DEVICE_Init+0x40>)
 8006f28:	480e      	ldr	r0, [pc, #56]	@ (8006f64 <MX_USB_DEVICE_Init+0x44>)
 8006f2a:	f7fe fde8 	bl	8005afe <USBD_Init>
 8006f2e:	4603      	mov	r3, r0
 8006f30:	2b00      	cmp	r3, #0
 8006f32:	d001      	beq.n	8006f38 <MX_USB_DEVICE_Init+0x18>
  {
    Error_Handler();
 8006f34:	f7f9 f9df 	bl	80002f6 <Error_Handler>
  }
  if (USBD_RegisterClass(&hUsbDeviceFS, &USBD_HID) != USBD_OK)
 8006f38:	490b      	ldr	r1, [pc, #44]	@ (8006f68 <MX_USB_DEVICE_Init+0x48>)
 8006f3a:	480a      	ldr	r0, [pc, #40]	@ (8006f64 <MX_USB_DEVICE_Init+0x44>)
 8006f3c:	f7fe fe0a 	bl	8005b54 <USBD_RegisterClass>
 8006f40:	4603      	mov	r3, r0
 8006f42:	2b00      	cmp	r3, #0
 8006f44:	d001      	beq.n	8006f4a <MX_USB_DEVICE_Init+0x2a>
  {
    Error_Handler();
 8006f46:	f7f9 f9d6 	bl	80002f6 <Error_Handler>
  }
  if (USBD_Start(&hUsbDeviceFS) != USBD_OK)
 8006f4a:	4806      	ldr	r0, [pc, #24]	@ (8006f64 <MX_USB_DEVICE_Init+0x44>)
 8006f4c:	f7fe fe1b 	bl	8005b86 <USBD_Start>
 8006f50:	4603      	mov	r3, r0
 8006f52:	2b00      	cmp	r3, #0
 8006f54:	d001      	beq.n	8006f5a <MX_USB_DEVICE_Init+0x3a>
  {
    Error_Handler();
 8006f56:	f7f9 f9ce 	bl	80002f6 <Error_Handler>
  }

  /* USER CODE BEGIN USB_DEVICE_Init_PostTreatment */

  /* USER CODE END USB_DEVICE_Init_PostTreatment */
}
 8006f5a:	bf00      	nop
 8006f5c:	bd80      	pop	{r7, pc}
 8006f5e:	bf00      	nop
 8006f60:	2000013c 	.word	0x2000013c
 8006f64:	200001d4 	.word	0x200001d4
 8006f68:	2000000c 	.word	0x2000000c

08006f6c <USBD_FS_DeviceDescriptor>:
  * @param  speed : Current device speed
  * @param  length : Pointer to data length variable
  * @retval Pointer to descriptor buffer
  */
uint8_t * USBD_FS_DeviceDescriptor(USBD_SpeedTypeDef speed, uint16_t *length)
{
 8006f6c:	b480      	push	{r7}
 8006f6e:	b083      	sub	sp, #12
 8006f70:	af00      	add	r7, sp, #0
 8006f72:	4603      	mov	r3, r0
 8006f74:	6039      	str	r1, [r7, #0]
 8006f76:	71fb      	strb	r3, [r7, #7]
  UNUSED(speed);
  *length = sizeof(USBD_FS_DeviceDesc);
 8006f78:	683b      	ldr	r3, [r7, #0]
 8006f7a:	2212      	movs	r2, #18
 8006f7c:	801a      	strh	r2, [r3, #0]
  return USBD_FS_DeviceDesc;
 8006f7e:	4b03      	ldr	r3, [pc, #12]	@ (8006f8c <USBD_FS_DeviceDescriptor+0x20>)
}
 8006f80:	4618      	mov	r0, r3
 8006f82:	370c      	adds	r7, #12
 8006f84:	46bd      	mov	sp, r7
 8006f86:	bc80      	pop	{r7}
 8006f88:	4770      	bx	lr
 8006f8a:	bf00      	nop
 8006f8c:	20000158 	.word	0x20000158

08006f90 <USBD_FS_LangIDStrDescriptor>:
  * @param  speed : Current device speed
  * @param  length : Pointer to data length variable
  * @retval Pointer to descriptor buffer
  */
uint8_t * USBD_FS_LangIDStrDescriptor(USBD_SpeedTypeDef speed, uint16_t *length)
{
 8006f90:	b480      	push	{r7}
 8006f92:	b083      	sub	sp, #12
 8006f94:	af00      	add	r7, sp, #0
 8006f96:	4603      	mov	r3, r0
 8006f98:	6039      	str	r1, [r7, #0]
 8006f9a:	71fb      	strb	r3, [r7, #7]
  UNUSED(speed);
  *length = sizeof(USBD_LangIDDesc);
 8006f9c:	683b      	ldr	r3, [r7, #0]
 8006f9e:	2204      	movs	r2, #4
 8006fa0:	801a      	strh	r2, [r3, #0]
  return USBD_LangIDDesc;
 8006fa2:	4b03      	ldr	r3, [pc, #12]	@ (8006fb0 <USBD_FS_LangIDStrDescriptor+0x20>)
}
 8006fa4:	4618      	mov	r0, r3
 8006fa6:	370c      	adds	r7, #12
 8006fa8:	46bd      	mov	sp, r7
 8006faa:	bc80      	pop	{r7}
 8006fac:	4770      	bx	lr
 8006fae:	bf00      	nop
 8006fb0:	2000016c 	.word	0x2000016c

08006fb4 <USBD_FS_ProductStrDescriptor>:
  * @param  speed : Current device speed
  * @param  length : Pointer to data length variable
  * @retval Pointer to descriptor buffer
  */
uint8_t * USBD_FS_ProductStrDescriptor(USBD_SpeedTypeDef speed, uint16_t *length)
{
 8006fb4:	b580      	push	{r7, lr}
 8006fb6:	b082      	sub	sp, #8
 8006fb8:	af00      	add	r7, sp, #0
 8006fba:	4603      	mov	r3, r0
 8006fbc:	6039      	str	r1, [r7, #0]
 8006fbe:	71fb      	strb	r3, [r7, #7]
  if(speed == 0)
 8006fc0:	79fb      	ldrb	r3, [r7, #7]
 8006fc2:	2b00      	cmp	r3, #0
 8006fc4:	d105      	bne.n	8006fd2 <USBD_FS_ProductStrDescriptor+0x1e>
  {
    USBD_GetString((uint8_t *)USBD_PRODUCT_STRING_FS, USBD_StrDesc, length);
 8006fc6:	683a      	ldr	r2, [r7, #0]
 8006fc8:	4907      	ldr	r1, [pc, #28]	@ (8006fe8 <USBD_FS_ProductStrDescriptor+0x34>)
 8006fca:	4808      	ldr	r0, [pc, #32]	@ (8006fec <USBD_FS_ProductStrDescriptor+0x38>)
 8006fcc:	f7ff fd51 	bl	8006a72 <USBD_GetString>
 8006fd0:	e004      	b.n	8006fdc <USBD_FS_ProductStrDescriptor+0x28>
  }
  else
  {
    USBD_GetString((uint8_t *)USBD_PRODUCT_STRING_FS, USBD_StrDesc, length);
 8006fd2:	683a      	ldr	r2, [r7, #0]
 8006fd4:	4904      	ldr	r1, [pc, #16]	@ (8006fe8 <USBD_FS_ProductStrDescriptor+0x34>)
 8006fd6:	4805      	ldr	r0, [pc, #20]	@ (8006fec <USBD_FS_ProductStrDescriptor+0x38>)
 8006fd8:	f7ff fd4b 	bl	8006a72 <USBD_GetString>
  }
  return USBD_StrDesc;
 8006fdc:	4b02      	ldr	r3, [pc, #8]	@ (8006fe8 <USBD_FS_ProductStrDescriptor+0x34>)
}
 8006fde:	4618      	mov	r0, r3
 8006fe0:	3708      	adds	r7, #8
 8006fe2:	46bd      	mov	sp, r7
 8006fe4:	bd80      	pop	{r7, pc}
 8006fe6:	bf00      	nop
 8006fe8:	20000498 	.word	0x20000498
 8006fec:	08007700 	.word	0x08007700

08006ff0 <USBD_FS_ManufacturerStrDescriptor>:
  * @param  speed : Current device speed
  * @param  length : Pointer to data length variable
  * @retval Pointer to descriptor buffer
  */
uint8_t * USBD_FS_ManufacturerStrDescriptor(USBD_SpeedTypeDef speed, uint16_t *length)
{
 8006ff0:	b580      	push	{r7, lr}
 8006ff2:	b082      	sub	sp, #8
 8006ff4:	af00      	add	r7, sp, #0
 8006ff6:	4603      	mov	r3, r0
 8006ff8:	6039      	str	r1, [r7, #0]
 8006ffa:	71fb      	strb	r3, [r7, #7]
  UNUSED(speed);
  USBD_GetString((uint8_t *)USBD_MANUFACTURER_STRING, USBD_StrDesc, length);
 8006ffc:	683a      	ldr	r2, [r7, #0]
 8006ffe:	4904      	ldr	r1, [pc, #16]	@ (8007010 <USBD_FS_ManufacturerStrDescriptor+0x20>)
 8007000:	4804      	ldr	r0, [pc, #16]	@ (8007014 <USBD_FS_ManufacturerStrDescriptor+0x24>)
 8007002:	f7ff fd36 	bl	8006a72 <USBD_GetString>
  return USBD_StrDesc;
 8007006:	4b02      	ldr	r3, [pc, #8]	@ (8007010 <USBD_FS_ManufacturerStrDescriptor+0x20>)
}
 8007008:	4618      	mov	r0, r3
 800700a:	3708      	adds	r7, #8
 800700c:	46bd      	mov	sp, r7
 800700e:	bd80      	pop	{r7, pc}
 8007010:	20000498 	.word	0x20000498
 8007014:	08007710 	.word	0x08007710

08007018 <USBD_FS_SerialStrDescriptor>:
  * @param  speed : Current device speed
  * @param  length : Pointer to data length variable
  * @retval Pointer to descriptor buffer
  */
uint8_t * USBD_FS_SerialStrDescriptor(USBD_SpeedTypeDef speed, uint16_t *length)
{
 8007018:	b580      	push	{r7, lr}
 800701a:	b082      	sub	sp, #8
 800701c:	af00      	add	r7, sp, #0
 800701e:	4603      	mov	r3, r0
 8007020:	6039      	str	r1, [r7, #0]
 8007022:	71fb      	strb	r3, [r7, #7]
  UNUSED(speed);
  *length = USB_SIZ_STRING_SERIAL;
 8007024:	683b      	ldr	r3, [r7, #0]
 8007026:	221a      	movs	r2, #26
 8007028:	801a      	strh	r2, [r3, #0]

  /* Update the serial number string descriptor with the data from the unique
   * ID */
  Get_SerialNum();
 800702a:	f000 f843 	bl	80070b4 <Get_SerialNum>
  /* USER CODE BEGIN USBD_FS_SerialStrDescriptor */

  /* USER CODE END USBD_FS_SerialStrDescriptor */
  return (uint8_t *) USBD_StringSerial;
 800702e:	4b02      	ldr	r3, [pc, #8]	@ (8007038 <USBD_FS_SerialStrDescriptor+0x20>)
}
 8007030:	4618      	mov	r0, r3
 8007032:	3708      	adds	r7, #8
 8007034:	46bd      	mov	sp, r7
 8007036:	bd80      	pop	{r7, pc}
 8007038:	20000170 	.word	0x20000170

0800703c <USBD_FS_ConfigStrDescriptor>:
  * @param  speed : Current device speed
  * @param  length : Pointer to data length variable
  * @retval Pointer to descriptor buffer
  */
uint8_t * USBD_FS_ConfigStrDescriptor(USBD_SpeedTypeDef speed, uint16_t *length)
{
 800703c:	b580      	push	{r7, lr}
 800703e:	b082      	sub	sp, #8
 8007040:	af00      	add	r7, sp, #0
 8007042:	4603      	mov	r3, r0
 8007044:	6039      	str	r1, [r7, #0]
 8007046:	71fb      	strb	r3, [r7, #7]
  if(speed == USBD_SPEED_HIGH)
 8007048:	79fb      	ldrb	r3, [r7, #7]
 800704a:	2b00      	cmp	r3, #0
 800704c:	d105      	bne.n	800705a <USBD_FS_ConfigStrDescriptor+0x1e>
  {
    USBD_GetString((uint8_t *)USBD_CONFIGURATION_STRING_FS, USBD_StrDesc, length);
 800704e:	683a      	ldr	r2, [r7, #0]
 8007050:	4907      	ldr	r1, [pc, #28]	@ (8007070 <USBD_FS_ConfigStrDescriptor+0x34>)
 8007052:	4808      	ldr	r0, [pc, #32]	@ (8007074 <USBD_FS_ConfigStrDescriptor+0x38>)
 8007054:	f7ff fd0d 	bl	8006a72 <USBD_GetString>
 8007058:	e004      	b.n	8007064 <USBD_FS_ConfigStrDescriptor+0x28>
  }
  else
  {
    USBD_GetString((uint8_t *)USBD_CONFIGURATION_STRING_FS, USBD_StrDesc, length);
 800705a:	683a      	ldr	r2, [r7, #0]
 800705c:	4904      	ldr	r1, [pc, #16]	@ (8007070 <USBD_FS_ConfigStrDescriptor+0x34>)
 800705e:	4805      	ldr	r0, [pc, #20]	@ (8007074 <USBD_FS_ConfigStrDescriptor+0x38>)
 8007060:	f7ff fd07 	bl	8006a72 <USBD_GetString>
  }
  return USBD_StrDesc;
 8007064:	4b02      	ldr	r3, [pc, #8]	@ (8007070 <USBD_FS_ConfigStrDescriptor+0x34>)
}
 8007066:	4618      	mov	r0, r3
 8007068:	3708      	adds	r7, #8
 800706a:	46bd      	mov	sp, r7
 800706c:	bd80      	pop	{r7, pc}
 800706e:	bf00      	nop
 8007070:	20000498 	.word	0x20000498
 8007074:	08007718 	.word	0x08007718

08007078 <USBD_FS_InterfaceStrDescriptor>:
  * @param  speed : Current device speed
  * @param  length : Pointer to data length variable
  * @retval Pointer to descriptor buffer
  */
uint8_t * USBD_FS_InterfaceStrDescriptor(USBD_SpeedTypeDef speed, uint16_t *length)
{
 8007078:	b580      	push	{r7, lr}
 800707a:	b082      	sub	sp, #8
 800707c:	af00      	add	r7, sp, #0
 800707e:	4603      	mov	r3, r0
 8007080:	6039      	str	r1, [r7, #0]
 8007082:	71fb      	strb	r3, [r7, #7]
  if(speed == 0)
 8007084:	79fb      	ldrb	r3, [r7, #7]
 8007086:	2b00      	cmp	r3, #0
 8007088:	d105      	bne.n	8007096 <USBD_FS_InterfaceStrDescriptor+0x1e>
  {
    USBD_GetString((uint8_t *)USBD_INTERFACE_STRING_FS, USBD_StrDesc, length);
 800708a:	683a      	ldr	r2, [r7, #0]
 800708c:	4907      	ldr	r1, [pc, #28]	@ (80070ac <USBD_FS_InterfaceStrDescriptor+0x34>)
 800708e:	4808      	ldr	r0, [pc, #32]	@ (80070b0 <USBD_FS_InterfaceStrDescriptor+0x38>)
 8007090:	f7ff fcef 	bl	8006a72 <USBD_GetString>
 8007094:	e004      	b.n	80070a0 <USBD_FS_InterfaceStrDescriptor+0x28>
  }
  else
  {
    USBD_GetString((uint8_t *)USBD_INTERFACE_STRING_FS, USBD_StrDesc, length);
 8007096:	683a      	ldr	r2, [r7, #0]
 8007098:	4904      	ldr	r1, [pc, #16]	@ (80070ac <USBD_FS_InterfaceStrDescriptor+0x34>)
 800709a:	4805      	ldr	r0, [pc, #20]	@ (80070b0 <USBD_FS_InterfaceStrDescriptor+0x38>)
 800709c:	f7ff fce9 	bl	8006a72 <USBD_GetString>
  }
  return USBD_StrDesc;
 80070a0:	4b02      	ldr	r3, [pc, #8]	@ (80070ac <USBD_FS_InterfaceStrDescriptor+0x34>)
}
 80070a2:	4618      	mov	r0, r3
 80070a4:	3708      	adds	r7, #8
 80070a6:	46bd      	mov	sp, r7
 80070a8:	bd80      	pop	{r7, pc}
 80070aa:	bf00      	nop
 80070ac:	20000498 	.word	0x20000498
 80070b0:	08007724 	.word	0x08007724

080070b4 <Get_SerialNum>:
  * @brief  Create the serial number string descriptor
  * @param  None
  * @retval None
  */
static void Get_SerialNum(void)
{
 80070b4:	b580      	push	{r7, lr}
 80070b6:	b084      	sub	sp, #16
 80070b8:	af00      	add	r7, sp, #0
  uint32_t deviceserial0;
  uint32_t deviceserial1;
  uint32_t deviceserial2;

  deviceserial0 = *(uint32_t *) DEVICE_ID1;
 80070ba:	4b0f      	ldr	r3, [pc, #60]	@ (80070f8 <Get_SerialNum+0x44>)
 80070bc:	681b      	ldr	r3, [r3, #0]
 80070be:	60fb      	str	r3, [r7, #12]
  deviceserial1 = *(uint32_t *) DEVICE_ID2;
 80070c0:	4b0e      	ldr	r3, [pc, #56]	@ (80070fc <Get_SerialNum+0x48>)
 80070c2:	681b      	ldr	r3, [r3, #0]
 80070c4:	60bb      	str	r3, [r7, #8]
  deviceserial2 = *(uint32_t *) DEVICE_ID3;
 80070c6:	4b0e      	ldr	r3, [pc, #56]	@ (8007100 <Get_SerialNum+0x4c>)
 80070c8:	681b      	ldr	r3, [r3, #0]
 80070ca:	607b      	str	r3, [r7, #4]

  deviceserial0 += deviceserial2;
 80070cc:	68fa      	ldr	r2, [r7, #12]
 80070ce:	687b      	ldr	r3, [r7, #4]
 80070d0:	4413      	add	r3, r2
 80070d2:	60fb      	str	r3, [r7, #12]

  if (deviceserial0 != 0)
 80070d4:	68fb      	ldr	r3, [r7, #12]
 80070d6:	2b00      	cmp	r3, #0
 80070d8:	d009      	beq.n	80070ee <Get_SerialNum+0x3a>
  {
    IntToUnicode(deviceserial0, &USBD_StringSerial[2], 8);
 80070da:	2208      	movs	r2, #8
 80070dc:	4909      	ldr	r1, [pc, #36]	@ (8007104 <Get_SerialNum+0x50>)
 80070de:	68f8      	ldr	r0, [r7, #12]
 80070e0:	f000 f814 	bl	800710c <IntToUnicode>
    IntToUnicode(deviceserial1, &USBD_StringSerial[18], 4);
 80070e4:	2204      	movs	r2, #4
 80070e6:	4908      	ldr	r1, [pc, #32]	@ (8007108 <Get_SerialNum+0x54>)
 80070e8:	68b8      	ldr	r0, [r7, #8]
 80070ea:	f000 f80f 	bl	800710c <IntToUnicode>
  }
}
 80070ee:	bf00      	nop
 80070f0:	3710      	adds	r7, #16
 80070f2:	46bd      	mov	sp, r7
 80070f4:	bd80      	pop	{r7, pc}
 80070f6:	bf00      	nop
 80070f8:	1ffff7e8 	.word	0x1ffff7e8
 80070fc:	1ffff7ec 	.word	0x1ffff7ec
 8007100:	1ffff7f0 	.word	0x1ffff7f0
 8007104:	20000172 	.word	0x20000172
 8007108:	20000182 	.word	0x20000182

0800710c <IntToUnicode>:
  * @param  pbuf: pointer to the buffer
  * @param  len: buffer length
  * @retval None
  */
static void IntToUnicode(uint32_t value, uint8_t * pbuf, uint8_t len)
{
 800710c:	b480      	push	{r7}
 800710e:	b087      	sub	sp, #28
 8007110:	af00      	add	r7, sp, #0
 8007112:	60f8      	str	r0, [r7, #12]
 8007114:	60b9      	str	r1, [r7, #8]
 8007116:	4613      	mov	r3, r2
 8007118:	71fb      	strb	r3, [r7, #7]
  uint8_t idx = 0;
 800711a:	2300      	movs	r3, #0
 800711c:	75fb      	strb	r3, [r7, #23]

  for (idx = 0; idx < len; idx++)
 800711e:	2300      	movs	r3, #0
 8007120:	75fb      	strb	r3, [r7, #23]
 8007122:	e027      	b.n	8007174 <IntToUnicode+0x68>
  {
    if (((value >> 28)) < 0xA)
 8007124:	68fb      	ldr	r3, [r7, #12]
 8007126:	0f1b      	lsrs	r3, r3, #28
 8007128:	2b09      	cmp	r3, #9
 800712a:	d80b      	bhi.n	8007144 <IntToUnicode+0x38>
    {
      pbuf[2 * idx] = (value >> 28) + '0';
 800712c:	68fb      	ldr	r3, [r7, #12]
 800712e:	0f1b      	lsrs	r3, r3, #28
 8007130:	b2da      	uxtb	r2, r3
 8007132:	7dfb      	ldrb	r3, [r7, #23]
 8007134:	005b      	lsls	r3, r3, #1
 8007136:	4619      	mov	r1, r3
 8007138:	68bb      	ldr	r3, [r7, #8]
 800713a:	440b      	add	r3, r1
 800713c:	3230      	adds	r2, #48	@ 0x30
 800713e:	b2d2      	uxtb	r2, r2
 8007140:	701a      	strb	r2, [r3, #0]
 8007142:	e00a      	b.n	800715a <IntToUnicode+0x4e>
    }
    else
    {
      pbuf[2 * idx] = (value >> 28) + 'A' - 10;
 8007144:	68fb      	ldr	r3, [r7, #12]
 8007146:	0f1b      	lsrs	r3, r3, #28
 8007148:	b2da      	uxtb	r2, r3
 800714a:	7dfb      	ldrb	r3, [r7, #23]
 800714c:	005b      	lsls	r3, r3, #1
 800714e:	4619      	mov	r1, r3
 8007150:	68bb      	ldr	r3, [r7, #8]
 8007152:	440b      	add	r3, r1
 8007154:	3237      	adds	r2, #55	@ 0x37
 8007156:	b2d2      	uxtb	r2, r2
 8007158:	701a      	strb	r2, [r3, #0]
    }

    value = value << 4;
 800715a:	68fb      	ldr	r3, [r7, #12]
 800715c:	011b      	lsls	r3, r3, #4
 800715e:	60fb      	str	r3, [r7, #12]

    pbuf[2 * idx + 1] = 0;
 8007160:	7dfb      	ldrb	r3, [r7, #23]
 8007162:	005b      	lsls	r3, r3, #1
 8007164:	3301      	adds	r3, #1
 8007166:	68ba      	ldr	r2, [r7, #8]
 8007168:	4413      	add	r3, r2
 800716a:	2200      	movs	r2, #0
 800716c:	701a      	strb	r2, [r3, #0]
  for (idx = 0; idx < len; idx++)
 800716e:	7dfb      	ldrb	r3, [r7, #23]
 8007170:	3301      	adds	r3, #1
 8007172:	75fb      	strb	r3, [r7, #23]
 8007174:	7dfa      	ldrb	r2, [r7, #23]
 8007176:	79fb      	ldrb	r3, [r7, #7]
 8007178:	429a      	cmp	r2, r3
 800717a:	d3d3      	bcc.n	8007124 <IntToUnicode+0x18>
  }
}
 800717c:	bf00      	nop
 800717e:	bf00      	nop
 8007180:	371c      	adds	r7, #28
 8007182:	46bd      	mov	sp, r7
 8007184:	bc80      	pop	{r7}
 8007186:	4770      	bx	lr

08007188 <HAL_PCD_MspInit>:
                       LL Driver Callbacks (PCD -> USB Device Library)
*******************************************************************************/
/* MSP Init */

void HAL_PCD_MspInit(PCD_HandleTypeDef* pcdHandle)
{
 8007188:	b580      	push	{r7, lr}
 800718a:	b084      	sub	sp, #16
 800718c:	af00      	add	r7, sp, #0
 800718e:	6078      	str	r0, [r7, #4]
  if(pcdHandle->Instance==USB)
 8007190:	687b      	ldr	r3, [r7, #4]
 8007192:	681b      	ldr	r3, [r3, #0]
 8007194:	4a0d      	ldr	r2, [pc, #52]	@ (80071cc <HAL_PCD_MspInit+0x44>)
 8007196:	4293      	cmp	r3, r2
 8007198:	d113      	bne.n	80071c2 <HAL_PCD_MspInit+0x3a>
  {
  /* USER CODE BEGIN USB_MspInit 0 */

  /* USER CODE END USB_MspInit 0 */
    /* Peripheral clock enable */
    __HAL_RCC_USB_CLK_ENABLE();
 800719a:	4b0d      	ldr	r3, [pc, #52]	@ (80071d0 <HAL_PCD_MspInit+0x48>)
 800719c:	69db      	ldr	r3, [r3, #28]
 800719e:	4a0c      	ldr	r2, [pc, #48]	@ (80071d0 <HAL_PCD_MspInit+0x48>)
 80071a0:	f443 0300 	orr.w	r3, r3, #8388608	@ 0x800000
 80071a4:	61d3      	str	r3, [r2, #28]
 80071a6:	4b0a      	ldr	r3, [pc, #40]	@ (80071d0 <HAL_PCD_MspInit+0x48>)
 80071a8:	69db      	ldr	r3, [r3, #28]
 80071aa:	f403 0300 	and.w	r3, r3, #8388608	@ 0x800000
 80071ae:	60fb      	str	r3, [r7, #12]
 80071b0:	68fb      	ldr	r3, [r7, #12]

    /* Peripheral interrupt init */
    HAL_NVIC_SetPriority(USB_LP_CAN1_RX0_IRQn, 0, 0);
 80071b2:	2200      	movs	r2, #0
 80071b4:	2100      	movs	r1, #0
 80071b6:	2014      	movs	r0, #20
 80071b8:	f7f9 fbd3 	bl	8000962 <HAL_NVIC_SetPriority>
    HAL_NVIC_EnableIRQ(USB_LP_CAN1_RX0_IRQn);
 80071bc:	2014      	movs	r0, #20
 80071be:	f7f9 fbec 	bl	800099a <HAL_NVIC_EnableIRQ>
  /* USER CODE BEGIN USB_MspInit 1 */

  /* USER CODE END USB_MspInit 1 */
  }
}
 80071c2:	bf00      	nop
 80071c4:	3710      	adds	r7, #16
 80071c6:	46bd      	mov	sp, r7
 80071c8:	bd80      	pop	{r7, pc}
 80071ca:	bf00      	nop
 80071cc:	40005c00 	.word	0x40005c00
 80071d0:	40021000 	.word	0x40021000

080071d4 <HAL_PCD_SetupStageCallback>:
#if (USE_HAL_PCD_REGISTER_CALLBACKS == 1U)
static void PCD_SetupStageCallback(PCD_HandleTypeDef *hpcd)
#else
void HAL_PCD_SetupStageCallback(PCD_HandleTypeDef *hpcd)
#endif /* USE_HAL_PCD_REGISTER_CALLBACKS */
{
 80071d4:	b580      	push	{r7, lr}
 80071d6:	b082      	sub	sp, #8
 80071d8:	af00      	add	r7, sp, #0
 80071da:	6078      	str	r0, [r7, #4]
  USBD_LL_SetupStage((USBD_HandleTypeDef*)hpcd->pData, (uint8_t *)hpcd->Setup);
 80071dc:	687b      	ldr	r3, [r7, #4]
 80071de:	f8d3 22d4 	ldr.w	r2, [r3, #724]	@ 0x2d4
 80071e2:	687b      	ldr	r3, [r7, #4]
 80071e4:	f503 7326 	add.w	r3, r3, #664	@ 0x298
 80071e8:	4619      	mov	r1, r3
 80071ea:	4610      	mov	r0, r2
 80071ec:	f7fe fd13 	bl	8005c16 <USBD_LL_SetupStage>
}
 80071f0:	bf00      	nop
 80071f2:	3708      	adds	r7, #8
 80071f4:	46bd      	mov	sp, r7
 80071f6:	bd80      	pop	{r7, pc}

080071f8 <HAL_PCD_DataOutStageCallback>:
#if (USE_HAL_PCD_REGISTER_CALLBACKS == 1U)
static void PCD_DataOutStageCallback(PCD_HandleTypeDef *hpcd, uint8_t epnum)
#else
void HAL_PCD_DataOutStageCallback(PCD_HandleTypeDef *hpcd, uint8_t epnum)
#endif /* USE_HAL_PCD_REGISTER_CALLBACKS */
{
 80071f8:	b580      	push	{r7, lr}
 80071fa:	b082      	sub	sp, #8
 80071fc:	af00      	add	r7, sp, #0
 80071fe:	6078      	str	r0, [r7, #4]
 8007200:	460b      	mov	r3, r1
 8007202:	70fb      	strb	r3, [r7, #3]
  USBD_LL_DataOutStage((USBD_HandleTypeDef*)hpcd->pData, epnum, hpcd->OUT_ep[epnum].xfer_buff);
 8007204:	687b      	ldr	r3, [r7, #4]
 8007206:	f8d3 02d4 	ldr.w	r0, [r3, #724]	@ 0x2d4
 800720a:	78fa      	ldrb	r2, [r7, #3]
 800720c:	6879      	ldr	r1, [r7, #4]
 800720e:	4613      	mov	r3, r2
 8007210:	009b      	lsls	r3, r3, #2
 8007212:	4413      	add	r3, r2
 8007214:	00db      	lsls	r3, r3, #3
 8007216:	440b      	add	r3, r1
 8007218:	f503 73b2 	add.w	r3, r3, #356	@ 0x164
 800721c:	681a      	ldr	r2, [r3, #0]
 800721e:	78fb      	ldrb	r3, [r7, #3]
 8007220:	4619      	mov	r1, r3
 8007222:	f7fe fd45 	bl	8005cb0 <USBD_LL_DataOutStage>
}
 8007226:	bf00      	nop
 8007228:	3708      	adds	r7, #8
 800722a:	46bd      	mov	sp, r7
 800722c:	bd80      	pop	{r7, pc}

0800722e <HAL_PCD_DataInStageCallback>:
#if (USE_HAL_PCD_REGISTER_CALLBACKS == 1U)
static void PCD_DataInStageCallback(PCD_HandleTypeDef *hpcd, uint8_t epnum)
#else
void HAL_PCD_DataInStageCallback(PCD_HandleTypeDef *hpcd, uint8_t epnum)
#endif /* USE_HAL_PCD_REGISTER_CALLBACKS */
{
 800722e:	b580      	push	{r7, lr}
 8007230:	b082      	sub	sp, #8
 8007232:	af00      	add	r7, sp, #0
 8007234:	6078      	str	r0, [r7, #4]
 8007236:	460b      	mov	r3, r1
 8007238:	70fb      	strb	r3, [r7, #3]
  USBD_LL_DataInStage((USBD_HandleTypeDef*)hpcd->pData, epnum, hpcd->IN_ep[epnum].xfer_buff);
 800723a:	687b      	ldr	r3, [r7, #4]
 800723c:	f8d3 02d4 	ldr.w	r0, [r3, #724]	@ 0x2d4
 8007240:	78fa      	ldrb	r2, [r7, #3]
 8007242:	6879      	ldr	r1, [r7, #4]
 8007244:	4613      	mov	r3, r2
 8007246:	009b      	lsls	r3, r3, #2
 8007248:	4413      	add	r3, r2
 800724a:	00db      	lsls	r3, r3, #3
 800724c:	440b      	add	r3, r1
 800724e:	3324      	adds	r3, #36	@ 0x24
 8007250:	681a      	ldr	r2, [r3, #0]
 8007252:	78fb      	ldrb	r3, [r7, #3]
 8007254:	4619      	mov	r1, r3
 8007256:	f7fe fd9c 	bl	8005d92 <USBD_LL_DataInStage>
}
 800725a:	bf00      	nop
 800725c:	3708      	adds	r7, #8
 800725e:	46bd      	mov	sp, r7
 8007260:	bd80      	pop	{r7, pc}

08007262 <HAL_PCD_SOFCallback>:
#if (USE_HAL_PCD_REGISTER_CALLBACKS == 1U)
static void PCD_SOFCallback(PCD_HandleTypeDef *hpcd)
#else
void HAL_PCD_SOFCallback(PCD_HandleTypeDef *hpcd)
#endif /* USE_HAL_PCD_REGISTER_CALLBACKS */
{
 8007262:	b580      	push	{r7, lr}
 8007264:	b082      	sub	sp, #8
 8007266:	af00      	add	r7, sp, #0
 8007268:	6078      	str	r0, [r7, #4]
  USBD_LL_SOF((USBD_HandleTypeDef*)hpcd->pData);
 800726a:	687b      	ldr	r3, [r7, #4]
 800726c:	f8d3 32d4 	ldr.w	r3, [r3, #724]	@ 0x2d4
 8007270:	4618      	mov	r0, r3
 8007272:	f7fe feac 	bl	8005fce <USBD_LL_SOF>
}
 8007276:	bf00      	nop
 8007278:	3708      	adds	r7, #8
 800727a:	46bd      	mov	sp, r7
 800727c:	bd80      	pop	{r7, pc}

0800727e <HAL_PCD_ResetCallback>:
#if (USE_HAL_PCD_REGISTER_CALLBACKS == 1U)
static void PCD_ResetCallback(PCD_HandleTypeDef *hpcd)
#else
void HAL_PCD_ResetCallback(PCD_HandleTypeDef *hpcd)
#endif /* USE_HAL_PCD_REGISTER_CALLBACKS */
{
 800727e:	b580      	push	{r7, lr}
 8007280:	b084      	sub	sp, #16
 8007282:	af00      	add	r7, sp, #0
 8007284:	6078      	str	r0, [r7, #4]
  USBD_SpeedTypeDef speed = USBD_SPEED_FULL;
 8007286:	2301      	movs	r3, #1
 8007288:	73fb      	strb	r3, [r7, #15]

  if ( hpcd->Init.speed != PCD_SPEED_FULL)
 800728a:	687b      	ldr	r3, [r7, #4]
 800728c:	799b      	ldrb	r3, [r3, #6]
 800728e:	2b02      	cmp	r3, #2
 8007290:	d001      	beq.n	8007296 <HAL_PCD_ResetCallback+0x18>
  {
    Error_Handler();
 8007292:	f7f9 f830 	bl	80002f6 <Error_Handler>
  }
    /* Set Speed. */
  USBD_LL_SetSpeed((USBD_HandleTypeDef*)hpcd->pData, speed);
 8007296:	687b      	ldr	r3, [r7, #4]
 8007298:	f8d3 32d4 	ldr.w	r3, [r3, #724]	@ 0x2d4
 800729c:	7bfa      	ldrb	r2, [r7, #15]
 800729e:	4611      	mov	r1, r2
 80072a0:	4618      	mov	r0, r3
 80072a2:	f7fe fe5c 	bl	8005f5e <USBD_LL_SetSpeed>

  /* Reset Device. */
  USBD_LL_Reset((USBD_HandleTypeDef*)hpcd->pData);
 80072a6:	687b      	ldr	r3, [r7, #4]
 80072a8:	f8d3 32d4 	ldr.w	r3, [r3, #724]	@ 0x2d4
 80072ac:	4618      	mov	r0, r3
 80072ae:	f7fe fe15 	bl	8005edc <USBD_LL_Reset>
}
 80072b2:	bf00      	nop
 80072b4:	3710      	adds	r7, #16
 80072b6:	46bd      	mov	sp, r7
 80072b8:	bd80      	pop	{r7, pc}
	...

080072bc <HAL_PCD_SuspendCallback>:
#if (USE_HAL_PCD_REGISTER_CALLBACKS == 1U)
static void PCD_SuspendCallback(PCD_HandleTypeDef *hpcd)
#else
void HAL_PCD_SuspendCallback(PCD_HandleTypeDef *hpcd)
#endif /* USE_HAL_PCD_REGISTER_CALLBACKS */
{
 80072bc:	b580      	push	{r7, lr}
 80072be:	b082      	sub	sp, #8
 80072c0:	af00      	add	r7, sp, #0
 80072c2:	6078      	str	r0, [r7, #4]
  /* Inform USB library that core enters in suspend Mode. */
  USBD_LL_Suspend((USBD_HandleTypeDef*)hpcd->pData);
 80072c4:	687b      	ldr	r3, [r7, #4]
 80072c6:	f8d3 32d4 	ldr.w	r3, [r3, #724]	@ 0x2d4
 80072ca:	4618      	mov	r0, r3
 80072cc:	f7fe fe56 	bl	8005f7c <USBD_LL_Suspend>
  /* Enter in STOP mode. */
  /* USER CODE BEGIN 2 */
  if (hpcd->Init.low_power_enable)
 80072d0:	687b      	ldr	r3, [r7, #4]
 80072d2:	7a9b      	ldrb	r3, [r3, #10]
 80072d4:	2b00      	cmp	r3, #0
 80072d6:	d005      	beq.n	80072e4 <HAL_PCD_SuspendCallback+0x28>
  {
    /* Set SLEEPDEEP bit and SleepOnExit of Cortex System Control Register. */
    SCB->SCR |= (uint32_t)((uint32_t)(SCB_SCR_SLEEPDEEP_Msk | SCB_SCR_SLEEPONEXIT_Msk));
 80072d8:	4b04      	ldr	r3, [pc, #16]	@ (80072ec <HAL_PCD_SuspendCallback+0x30>)
 80072da:	691b      	ldr	r3, [r3, #16]
 80072dc:	4a03      	ldr	r2, [pc, #12]	@ (80072ec <HAL_PCD_SuspendCallback+0x30>)
 80072de:	f043 0306 	orr.w	r3, r3, #6
 80072e2:	6113      	str	r3, [r2, #16]
  }
  /* USER CODE END 2 */
}
 80072e4:	bf00      	nop
 80072e6:	3708      	adds	r7, #8
 80072e8:	46bd      	mov	sp, r7
 80072ea:	bd80      	pop	{r7, pc}
 80072ec:	e000ed00 	.word	0xe000ed00

080072f0 <HAL_PCD_ResumeCallback>:
#if (USE_HAL_PCD_REGISTER_CALLBACKS == 1U)
static void PCD_ResumeCallback(PCD_HandleTypeDef *hpcd)
#else
void HAL_PCD_ResumeCallback(PCD_HandleTypeDef *hpcd)
#endif /* USE_HAL_PCD_REGISTER_CALLBACKS */
{
 80072f0:	b580      	push	{r7, lr}
 80072f2:	b082      	sub	sp, #8
 80072f4:	af00      	add	r7, sp, #0
 80072f6:	6078      	str	r0, [r7, #4]
  /* USER CODE BEGIN 3 */

  /* USER CODE END 3 */
  USBD_LL_Resume((USBD_HandleTypeDef*)hpcd->pData);
 80072f8:	687b      	ldr	r3, [r7, #4]
 80072fa:	f8d3 32d4 	ldr.w	r3, [r3, #724]	@ 0x2d4
 80072fe:	4618      	mov	r0, r3
 8007300:	f7fe fe50 	bl	8005fa4 <USBD_LL_Resume>
}
 8007304:	bf00      	nop
 8007306:	3708      	adds	r7, #8
 8007308:	46bd      	mov	sp, r7
 800730a:	bd80      	pop	{r7, pc}

0800730c <USBD_LL_Init>:
  * @brief  Initializes the low level portion of the device driver.
  * @param  pdev: Device handle
  * @retval USBD status
  */
USBD_StatusTypeDef USBD_LL_Init(USBD_HandleTypeDef *pdev)
{
 800730c:	b580      	push	{r7, lr}
 800730e:	b082      	sub	sp, #8
 8007310:	af00      	add	r7, sp, #0
 8007312:	6078      	str	r0, [r7, #4]
  /* Init USB Ip. */
  /* Link the driver to the stack. */
  hpcd_USB_FS.pData = pdev;
 8007314:	4a1f      	ldr	r2, [pc, #124]	@ (8007394 <USBD_LL_Init+0x88>)
 8007316:	687b      	ldr	r3, [r7, #4]
 8007318:	f8c2 32d4 	str.w	r3, [r2, #724]	@ 0x2d4
  pdev->pData = &hpcd_USB_FS;
 800731c:	687b      	ldr	r3, [r7, #4]
 800731e:	4a1d      	ldr	r2, [pc, #116]	@ (8007394 <USBD_LL_Init+0x88>)
 8007320:	f8c3 22c0 	str.w	r2, [r3, #704]	@ 0x2c0

  hpcd_USB_FS.Instance = USB;
 8007324:	4b1b      	ldr	r3, [pc, #108]	@ (8007394 <USBD_LL_Init+0x88>)
 8007326:	4a1c      	ldr	r2, [pc, #112]	@ (8007398 <USBD_LL_Init+0x8c>)
 8007328:	601a      	str	r2, [r3, #0]
  hpcd_USB_FS.Init.dev_endpoints = 8;
 800732a:	4b1a      	ldr	r3, [pc, #104]	@ (8007394 <USBD_LL_Init+0x88>)
 800732c:	2208      	movs	r2, #8
 800732e:	711a      	strb	r2, [r3, #4]
  hpcd_USB_FS.Init.speed = PCD_SPEED_FULL;
 8007330:	4b18      	ldr	r3, [pc, #96]	@ (8007394 <USBD_LL_Init+0x88>)
 8007332:	2202      	movs	r2, #2
 8007334:	719a      	strb	r2, [r3, #6]
  hpcd_USB_FS.Init.low_power_enable = DISABLE;
 8007336:	4b17      	ldr	r3, [pc, #92]	@ (8007394 <USBD_LL_Init+0x88>)
 8007338:	2200      	movs	r2, #0
 800733a:	729a      	strb	r2, [r3, #10]
  hpcd_USB_FS.Init.lpm_enable = DISABLE;
 800733c:	4b15      	ldr	r3, [pc, #84]	@ (8007394 <USBD_LL_Init+0x88>)
 800733e:	2200      	movs	r2, #0
 8007340:	72da      	strb	r2, [r3, #11]
  hpcd_USB_FS.Init.battery_charging_enable = DISABLE;
 8007342:	4b14      	ldr	r3, [pc, #80]	@ (8007394 <USBD_LL_Init+0x88>)
 8007344:	2200      	movs	r2, #0
 8007346:	731a      	strb	r2, [r3, #12]
  if (HAL_PCD_Init(&hpcd_USB_FS) != HAL_OK)
 8007348:	4812      	ldr	r0, [pc, #72]	@ (8007394 <USBD_LL_Init+0x88>)
 800734a:	f7f9 fb40 	bl	80009ce <HAL_PCD_Init>
 800734e:	4603      	mov	r3, r0
 8007350:	2b00      	cmp	r3, #0
 8007352:	d001      	beq.n	8007358 <USBD_LL_Init+0x4c>
  {
    Error_Handler( );
 8007354:	f7f8 ffcf 	bl	80002f6 <Error_Handler>
  HAL_PCD_RegisterDataInStageCallback(&hpcd_USB_FS, PCD_DataInStageCallback);
  HAL_PCD_RegisterIsoOutIncpltCallback(&hpcd_USB_FS, PCD_ISOOUTIncompleteCallback);
  HAL_PCD_RegisterIsoInIncpltCallback(&hpcd_USB_FS, PCD_ISOINIncompleteCallback);
#endif /* USE_HAL_PCD_REGISTER_CALLBACKS */
  /* USER CODE BEGIN EndPoint_Configuration */
  HAL_PCDEx_PMAConfig((PCD_HandleTypeDef*)pdev->pData , 0x00 , PCD_SNG_BUF, 0x18);
 8007358:	687b      	ldr	r3, [r7, #4]
 800735a:	f8d3 02c0 	ldr.w	r0, [r3, #704]	@ 0x2c0
 800735e:	2318      	movs	r3, #24
 8007360:	2200      	movs	r2, #0
 8007362:	2100      	movs	r1, #0
 8007364:	f7fb f83a 	bl	80023dc <HAL_PCDEx_PMAConfig>
  HAL_PCDEx_PMAConfig((PCD_HandleTypeDef*)pdev->pData , 0x80 , PCD_SNG_BUF, 0x58);
 8007368:	687b      	ldr	r3, [r7, #4]
 800736a:	f8d3 02c0 	ldr.w	r0, [r3, #704]	@ 0x2c0
 800736e:	2358      	movs	r3, #88	@ 0x58
 8007370:	2200      	movs	r2, #0
 8007372:	2180      	movs	r1, #128	@ 0x80
 8007374:	f7fb f832 	bl	80023dc <HAL_PCDEx_PMAConfig>
  /* USER CODE END EndPoint_Configuration */
  /* USER CODE BEGIN EndPoint_Configuration_HID */
  HAL_PCDEx_PMAConfig((PCD_HandleTypeDef*)pdev->pData , 0x81 , PCD_SNG_BUF, 0x100);
 8007378:	687b      	ldr	r3, [r7, #4]
 800737a:	f8d3 02c0 	ldr.w	r0, [r3, #704]	@ 0x2c0
 800737e:	f44f 7380 	mov.w	r3, #256	@ 0x100
 8007382:	2200      	movs	r2, #0
 8007384:	2181      	movs	r1, #129	@ 0x81
 8007386:	f7fb f829 	bl	80023dc <HAL_PCDEx_PMAConfig>
  /* USER CODE END EndPoint_Configuration_HID */
  return USBD_OK;
 800738a:	2300      	movs	r3, #0
}
 800738c:	4618      	mov	r0, r3
 800738e:	3708      	adds	r7, #8
 8007390:	46bd      	mov	sp, r7
 8007392:	bd80      	pop	{r7, pc}
 8007394:	20000698 	.word	0x20000698
 8007398:	40005c00 	.word	0x40005c00

0800739c <USBD_LL_Start>:
  * @brief  Starts the low level portion of the device driver.
  * @param  pdev: Device handle
  * @retval USBD status
  */
USBD_StatusTypeDef USBD_LL_Start(USBD_HandleTypeDef *pdev)
{
 800739c:	b580      	push	{r7, lr}
 800739e:	b084      	sub	sp, #16
 80073a0:	af00      	add	r7, sp, #0
 80073a2:	6078      	str	r0, [r7, #4]
  HAL_StatusTypeDef hal_status = HAL_OK;
 80073a4:	2300      	movs	r3, #0
 80073a6:	73fb      	strb	r3, [r7, #15]
  USBD_StatusTypeDef usb_status = USBD_OK;
 80073a8:	2300      	movs	r3, #0
 80073aa:	73bb      	strb	r3, [r7, #14]

  hal_status = HAL_PCD_Start(pdev->pData);
 80073ac:	687b      	ldr	r3, [r7, #4]
 80073ae:	f8d3 32c0 	ldr.w	r3, [r3, #704]	@ 0x2c0
 80073b2:	4618      	mov	r0, r3
 80073b4:	f7f9 fc01 	bl	8000bba <HAL_PCD_Start>
 80073b8:	4603      	mov	r3, r0
 80073ba:	73fb      	strb	r3, [r7, #15]

  usb_status =  USBD_Get_USB_Status(hal_status);
 80073bc:	7bfb      	ldrb	r3, [r7, #15]
 80073be:	4618      	mov	r0, r3
 80073c0:	f000 f93a 	bl	8007638 <USBD_Get_USB_Status>
 80073c4:	4603      	mov	r3, r0
 80073c6:	73bb      	strb	r3, [r7, #14]

  return usb_status;
 80073c8:	7bbb      	ldrb	r3, [r7, #14]
}
 80073ca:	4618      	mov	r0, r3
 80073cc:	3710      	adds	r7, #16
 80073ce:	46bd      	mov	sp, r7
 80073d0:	bd80      	pop	{r7, pc}

080073d2 <USBD_LL_OpenEP>:
  * @param  ep_type: Endpoint type
  * @param  ep_mps: Endpoint max packet size
  * @retval USBD status
  */
USBD_StatusTypeDef USBD_LL_OpenEP(USBD_HandleTypeDef *pdev, uint8_t ep_addr, uint8_t ep_type, uint16_t ep_mps)
{
 80073d2:	b580      	push	{r7, lr}
 80073d4:	b084      	sub	sp, #16
 80073d6:	af00      	add	r7, sp, #0
 80073d8:	6078      	str	r0, [r7, #4]
 80073da:	4608      	mov	r0, r1
 80073dc:	4611      	mov	r1, r2
 80073de:	461a      	mov	r2, r3
 80073e0:	4603      	mov	r3, r0
 80073e2:	70fb      	strb	r3, [r7, #3]
 80073e4:	460b      	mov	r3, r1
 80073e6:	70bb      	strb	r3, [r7, #2]
 80073e8:	4613      	mov	r3, r2
 80073ea:	803b      	strh	r3, [r7, #0]
  HAL_StatusTypeDef hal_status = HAL_OK;
 80073ec:	2300      	movs	r3, #0
 80073ee:	73fb      	strb	r3, [r7, #15]
  USBD_StatusTypeDef usb_status = USBD_OK;
 80073f0:	2300      	movs	r3, #0
 80073f2:	73bb      	strb	r3, [r7, #14]

  hal_status = HAL_PCD_EP_Open(pdev->pData, ep_addr, ep_mps, ep_type);
 80073f4:	687b      	ldr	r3, [r7, #4]
 80073f6:	f8d3 02c0 	ldr.w	r0, [r3, #704]	@ 0x2c0
 80073fa:	78bb      	ldrb	r3, [r7, #2]
 80073fc:	883a      	ldrh	r2, [r7, #0]
 80073fe:	78f9      	ldrb	r1, [r7, #3]
 8007400:	f7f9 fd55 	bl	8000eae <HAL_PCD_EP_Open>
 8007404:	4603      	mov	r3, r0
 8007406:	73fb      	strb	r3, [r7, #15]

  usb_status =  USBD_Get_USB_Status(hal_status);
 8007408:	7bfb      	ldrb	r3, [r7, #15]
 800740a:	4618      	mov	r0, r3
 800740c:	f000 f914 	bl	8007638 <USBD_Get_USB_Status>
 8007410:	4603      	mov	r3, r0
 8007412:	73bb      	strb	r3, [r7, #14]

  return usb_status;
 8007414:	7bbb      	ldrb	r3, [r7, #14]
}
 8007416:	4618      	mov	r0, r3
 8007418:	3710      	adds	r7, #16
 800741a:	46bd      	mov	sp, r7
 800741c:	bd80      	pop	{r7, pc}

0800741e <USBD_LL_CloseEP>:
  * @param  pdev: Device handle
  * @param  ep_addr: Endpoint number
  * @retval USBD status
  */
USBD_StatusTypeDef USBD_LL_CloseEP(USBD_HandleTypeDef *pdev, uint8_t ep_addr)
{
 800741e:	b580      	push	{r7, lr}
 8007420:	b084      	sub	sp, #16
 8007422:	af00      	add	r7, sp, #0
 8007424:	6078      	str	r0, [r7, #4]
 8007426:	460b      	mov	r3, r1
 8007428:	70fb      	strb	r3, [r7, #3]
  HAL_StatusTypeDef hal_status = HAL_OK;
 800742a:	2300      	movs	r3, #0
 800742c:	73fb      	strb	r3, [r7, #15]
  USBD_StatusTypeDef usb_status = USBD_OK;
 800742e:	2300      	movs	r3, #0
 8007430:	73bb      	strb	r3, [r7, #14]

  hal_status = HAL_PCD_EP_Close(pdev->pData, ep_addr);
 8007432:	687b      	ldr	r3, [r7, #4]
 8007434:	f8d3 32c0 	ldr.w	r3, [r3, #704]	@ 0x2c0
 8007438:	78fa      	ldrb	r2, [r7, #3]
 800743a:	4611      	mov	r1, r2
 800743c:	4618      	mov	r0, r3
 800743e:	f7f9 fd93 	bl	8000f68 <HAL_PCD_EP_Close>
 8007442:	4603      	mov	r3, r0
 8007444:	73fb      	strb	r3, [r7, #15]

  usb_status =  USBD_Get_USB_Status(hal_status);
 8007446:	7bfb      	ldrb	r3, [r7, #15]
 8007448:	4618      	mov	r0, r3
 800744a:	f000 f8f5 	bl	8007638 <USBD_Get_USB_Status>
 800744e:	4603      	mov	r3, r0
 8007450:	73bb      	strb	r3, [r7, #14]

  return usb_status;
 8007452:	7bbb      	ldrb	r3, [r7, #14]
}
 8007454:	4618      	mov	r0, r3
 8007456:	3710      	adds	r7, #16
 8007458:	46bd      	mov	sp, r7
 800745a:	bd80      	pop	{r7, pc}

0800745c <USBD_LL_StallEP>:
  * @param  pdev: Device handle
  * @param  ep_addr: Endpoint number
  * @retval USBD status
  */
USBD_StatusTypeDef USBD_LL_StallEP(USBD_HandleTypeDef *pdev, uint8_t ep_addr)
{
 800745c:	b580      	push	{r7, lr}
 800745e:	b084      	sub	sp, #16
 8007460:	af00      	add	r7, sp, #0
 8007462:	6078      	str	r0, [r7, #4]
 8007464:	460b      	mov	r3, r1
 8007466:	70fb      	strb	r3, [r7, #3]
  HAL_StatusTypeDef hal_status = HAL_OK;
 8007468:	2300      	movs	r3, #0
 800746a:	73fb      	strb	r3, [r7, #15]
  USBD_StatusTypeDef usb_status = USBD_OK;
 800746c:	2300      	movs	r3, #0
 800746e:	73bb      	strb	r3, [r7, #14]

  hal_status = HAL_PCD_EP_SetStall(pdev->pData, ep_addr);
 8007470:	687b      	ldr	r3, [r7, #4]
 8007472:	f8d3 32c0 	ldr.w	r3, [r3, #704]	@ 0x2c0
 8007476:	78fa      	ldrb	r2, [r7, #3]
 8007478:	4611      	mov	r1, r2
 800747a:	4618      	mov	r0, r3
 800747c:	f7f9 fe24 	bl	80010c8 <HAL_PCD_EP_SetStall>
 8007480:	4603      	mov	r3, r0
 8007482:	73fb      	strb	r3, [r7, #15]

  usb_status =  USBD_Get_USB_Status(hal_status);
 8007484:	7bfb      	ldrb	r3, [r7, #15]
 8007486:	4618      	mov	r0, r3
 8007488:	f000 f8d6 	bl	8007638 <USBD_Get_USB_Status>
 800748c:	4603      	mov	r3, r0
 800748e:	73bb      	strb	r3, [r7, #14]

  return usb_status;
 8007490:	7bbb      	ldrb	r3, [r7, #14]
}
 8007492:	4618      	mov	r0, r3
 8007494:	3710      	adds	r7, #16
 8007496:	46bd      	mov	sp, r7
 8007498:	bd80      	pop	{r7, pc}

0800749a <USBD_LL_ClearStallEP>:
  * @param  pdev: Device handle
  * @param  ep_addr: Endpoint number
  * @retval USBD status
  */
USBD_StatusTypeDef USBD_LL_ClearStallEP(USBD_HandleTypeDef *pdev, uint8_t ep_addr)
{
 800749a:	b580      	push	{r7, lr}
 800749c:	b084      	sub	sp, #16
 800749e:	af00      	add	r7, sp, #0
 80074a0:	6078      	str	r0, [r7, #4]
 80074a2:	460b      	mov	r3, r1
 80074a4:	70fb      	strb	r3, [r7, #3]
  HAL_StatusTypeDef hal_status = HAL_OK;
 80074a6:	2300      	movs	r3, #0
 80074a8:	73fb      	strb	r3, [r7, #15]
  USBD_StatusTypeDef usb_status = USBD_OK;
 80074aa:	2300      	movs	r3, #0
 80074ac:	73bb      	strb	r3, [r7, #14]

  hal_status = HAL_PCD_EP_ClrStall(pdev->pData, ep_addr);
 80074ae:	687b      	ldr	r3, [r7, #4]
 80074b0:	f8d3 32c0 	ldr.w	r3, [r3, #704]	@ 0x2c0
 80074b4:	78fa      	ldrb	r2, [r7, #3]
 80074b6:	4611      	mov	r1, r2
 80074b8:	4618      	mov	r0, r3
 80074ba:	f7f9 fe65 	bl	8001188 <HAL_PCD_EP_ClrStall>
 80074be:	4603      	mov	r3, r0
 80074c0:	73fb      	strb	r3, [r7, #15]

  usb_status =  USBD_Get_USB_Status(hal_status);
 80074c2:	7bfb      	ldrb	r3, [r7, #15]
 80074c4:	4618      	mov	r0, r3
 80074c6:	f000 f8b7 	bl	8007638 <USBD_Get_USB_Status>
 80074ca:	4603      	mov	r3, r0
 80074cc:	73bb      	strb	r3, [r7, #14]

  return usb_status;
 80074ce:	7bbb      	ldrb	r3, [r7, #14]
}
 80074d0:	4618      	mov	r0, r3
 80074d2:	3710      	adds	r7, #16
 80074d4:	46bd      	mov	sp, r7
 80074d6:	bd80      	pop	{r7, pc}

080074d8 <USBD_LL_IsStallEP>:
  * @param  pdev: Device handle
  * @param  ep_addr: Endpoint number
  * @retval Stall (1: Yes, 0: No)
  */
uint8_t USBD_LL_IsStallEP(USBD_HandleTypeDef *pdev, uint8_t ep_addr)
{
 80074d8:	b480      	push	{r7}
 80074da:	b085      	sub	sp, #20
 80074dc:	af00      	add	r7, sp, #0
 80074de:	6078      	str	r0, [r7, #4]
 80074e0:	460b      	mov	r3, r1
 80074e2:	70fb      	strb	r3, [r7, #3]
  PCD_HandleTypeDef *hpcd = (PCD_HandleTypeDef*) pdev->pData;
 80074e4:	687b      	ldr	r3, [r7, #4]
 80074e6:	f8d3 32c0 	ldr.w	r3, [r3, #704]	@ 0x2c0
 80074ea:	60fb      	str	r3, [r7, #12]

  if((ep_addr & 0x80) == 0x80)
 80074ec:	f997 3003 	ldrsb.w	r3, [r7, #3]
 80074f0:	2b00      	cmp	r3, #0
 80074f2:	da0b      	bge.n	800750c <USBD_LL_IsStallEP+0x34>
  {
    return hpcd->IN_ep[ep_addr & 0x7F].is_stall;
 80074f4:	78fb      	ldrb	r3, [r7, #3]
 80074f6:	f003 027f 	and.w	r2, r3, #127	@ 0x7f
 80074fa:	68f9      	ldr	r1, [r7, #12]
 80074fc:	4613      	mov	r3, r2
 80074fe:	009b      	lsls	r3, r3, #2
 8007500:	4413      	add	r3, r2
 8007502:	00db      	lsls	r3, r3, #3
 8007504:	440b      	add	r3, r1
 8007506:	3312      	adds	r3, #18
 8007508:	781b      	ldrb	r3, [r3, #0]
 800750a:	e00b      	b.n	8007524 <USBD_LL_IsStallEP+0x4c>
  }
  else
  {
    return hpcd->OUT_ep[ep_addr & 0x7F].is_stall;
 800750c:	78fb      	ldrb	r3, [r7, #3]
 800750e:	f003 027f 	and.w	r2, r3, #127	@ 0x7f
 8007512:	68f9      	ldr	r1, [r7, #12]
 8007514:	4613      	mov	r3, r2
 8007516:	009b      	lsls	r3, r3, #2
 8007518:	4413      	add	r3, r2
 800751a:	00db      	lsls	r3, r3, #3
 800751c:	440b      	add	r3, r1
 800751e:	f503 73a9 	add.w	r3, r3, #338	@ 0x152
 8007522:	781b      	ldrb	r3, [r3, #0]
  }
}
 8007524:	4618      	mov	r0, r3
 8007526:	3714      	adds	r7, #20
 8007528:	46bd      	mov	sp, r7
 800752a:	bc80      	pop	{r7}
 800752c:	4770      	bx	lr

0800752e <USBD_LL_SetUSBAddress>:
  * @param  pdev: Device handle
  * @param  dev_addr: Device address
  * @retval USBD status
  */
USBD_StatusTypeDef USBD_LL_SetUSBAddress(USBD_HandleTypeDef *pdev, uint8_t dev_addr)
{
 800752e:	b580      	push	{r7, lr}
 8007530:	b084      	sub	sp, #16
 8007532:	af00      	add	r7, sp, #0
 8007534:	6078      	str	r0, [r7, #4]
 8007536:	460b      	mov	r3, r1
 8007538:	70fb      	strb	r3, [r7, #3]
  HAL_StatusTypeDef hal_status = HAL_OK;
 800753a:	2300      	movs	r3, #0
 800753c:	73fb      	strb	r3, [r7, #15]
  USBD_StatusTypeDef usb_status = USBD_OK;
 800753e:	2300      	movs	r3, #0
 8007540:	73bb      	strb	r3, [r7, #14]

  hal_status = HAL_PCD_SetAddress(pdev->pData, dev_addr);
 8007542:	687b      	ldr	r3, [r7, #4]
 8007544:	f8d3 32c0 	ldr.w	r3, [r3, #704]	@ 0x2c0
 8007548:	78fa      	ldrb	r2, [r7, #3]
 800754a:	4611      	mov	r1, r2
 800754c:	4618      	mov	r0, r3
 800754e:	f7f9 fc8a 	bl	8000e66 <HAL_PCD_SetAddress>
 8007552:	4603      	mov	r3, r0
 8007554:	73fb      	strb	r3, [r7, #15]

  usb_status =  USBD_Get_USB_Status(hal_status);
 8007556:	7bfb      	ldrb	r3, [r7, #15]
 8007558:	4618      	mov	r0, r3
 800755a:	f000 f86d 	bl	8007638 <USBD_Get_USB_Status>
 800755e:	4603      	mov	r3, r0
 8007560:	73bb      	strb	r3, [r7, #14]

  return usb_status;
 8007562:	7bbb      	ldrb	r3, [r7, #14]
}
 8007564:	4618      	mov	r0, r3
 8007566:	3710      	adds	r7, #16
 8007568:	46bd      	mov	sp, r7
 800756a:	bd80      	pop	{r7, pc}

0800756c <USBD_LL_Transmit>:
  * @param  pbuf: Pointer to data to be sent
  * @param  size: Data size
  * @retval USBD status
  */
USBD_StatusTypeDef USBD_LL_Transmit(USBD_HandleTypeDef *pdev, uint8_t ep_addr, uint8_t *pbuf, uint16_t size)
{
 800756c:	b580      	push	{r7, lr}
 800756e:	b086      	sub	sp, #24
 8007570:	af00      	add	r7, sp, #0
 8007572:	60f8      	str	r0, [r7, #12]
 8007574:	607a      	str	r2, [r7, #4]
 8007576:	461a      	mov	r2, r3
 8007578:	460b      	mov	r3, r1
 800757a:	72fb      	strb	r3, [r7, #11]
 800757c:	4613      	mov	r3, r2
 800757e:	813b      	strh	r3, [r7, #8]
  HAL_StatusTypeDef hal_status = HAL_OK;
 8007580:	2300      	movs	r3, #0
 8007582:	75fb      	strb	r3, [r7, #23]
  USBD_StatusTypeDef usb_status = USBD_OK;
 8007584:	2300      	movs	r3, #0
 8007586:	75bb      	strb	r3, [r7, #22]

  hal_status = HAL_PCD_EP_Transmit(pdev->pData, ep_addr, pbuf, size);
 8007588:	68fb      	ldr	r3, [r7, #12]
 800758a:	f8d3 02c0 	ldr.w	r0, [r3, #704]	@ 0x2c0
 800758e:	893b      	ldrh	r3, [r7, #8]
 8007590:	7af9      	ldrb	r1, [r7, #11]
 8007592:	687a      	ldr	r2, [r7, #4]
 8007594:	f7f9 fd61 	bl	800105a <HAL_PCD_EP_Transmit>
 8007598:	4603      	mov	r3, r0
 800759a:	75fb      	strb	r3, [r7, #23]

  usb_status =  USBD_Get_USB_Status(hal_status);
 800759c:	7dfb      	ldrb	r3, [r7, #23]
 800759e:	4618      	mov	r0, r3
 80075a0:	f000 f84a 	bl	8007638 <USBD_Get_USB_Status>
 80075a4:	4603      	mov	r3, r0
 80075a6:	75bb      	strb	r3, [r7, #22]

  return usb_status;
 80075a8:	7dbb      	ldrb	r3, [r7, #22]
}
 80075aa:	4618      	mov	r0, r3
 80075ac:	3718      	adds	r7, #24
 80075ae:	46bd      	mov	sp, r7
 80075b0:	bd80      	pop	{r7, pc}

080075b2 <USBD_LL_PrepareReceive>:
  * @param  pbuf: Pointer to data to be received
  * @param  size: Data size
  * @retval USBD status
  */
USBD_StatusTypeDef USBD_LL_PrepareReceive(USBD_HandleTypeDef *pdev, uint8_t ep_addr, uint8_t *pbuf, uint16_t size)
{
 80075b2:	b580      	push	{r7, lr}
 80075b4:	b086      	sub	sp, #24
 80075b6:	af00      	add	r7, sp, #0
 80075b8:	60f8      	str	r0, [r7, #12]
 80075ba:	607a      	str	r2, [r7, #4]
 80075bc:	461a      	mov	r2, r3
 80075be:	460b      	mov	r3, r1
 80075c0:	72fb      	strb	r3, [r7, #11]
 80075c2:	4613      	mov	r3, r2
 80075c4:	813b      	strh	r3, [r7, #8]
  HAL_StatusTypeDef hal_status = HAL_OK;
 80075c6:	2300      	movs	r3, #0
 80075c8:	75fb      	strb	r3, [r7, #23]
  USBD_StatusTypeDef usb_status = USBD_OK;
 80075ca:	2300      	movs	r3, #0
 80075cc:	75bb      	strb	r3, [r7, #22]

  hal_status = HAL_PCD_EP_Receive(pdev->pData, ep_addr, pbuf, size);
 80075ce:	68fb      	ldr	r3, [r7, #12]
 80075d0:	f8d3 02c0 	ldr.w	r0, [r3, #704]	@ 0x2c0
 80075d4:	893b      	ldrh	r3, [r7, #8]
 80075d6:	7af9      	ldrb	r1, [r7, #11]
 80075d8:	687a      	ldr	r2, [r7, #4]
 80075da:	f7f9 fd0d 	bl	8000ff8 <HAL_PCD_EP_Receive>
 80075de:	4603      	mov	r3, r0
 80075e0:	75fb      	strb	r3, [r7, #23]

  usb_status =  USBD_Get_USB_Status(hal_status);
 80075e2:	7dfb      	ldrb	r3, [r7, #23]
 80075e4:	4618      	mov	r0, r3
 80075e6:	f000 f827 	bl	8007638 <USBD_Get_USB_Status>
 80075ea:	4603      	mov	r3, r0
 80075ec:	75bb      	strb	r3, [r7, #22]

  return usb_status;
 80075ee:	7dbb      	ldrb	r3, [r7, #22]
}
 80075f0:	4618      	mov	r0, r3
 80075f2:	3718      	adds	r7, #24
 80075f4:	46bd      	mov	sp, r7
 80075f6:	bd80      	pop	{r7, pc}

080075f8 <USBD_static_malloc>:
  * @brief  Static single allocation.
  * @param  size: Size of allocated memory
  * @retval None
  */
void *USBD_static_malloc(uint32_t size)
{
 80075f8:	b480      	push	{r7}
 80075fa:	b083      	sub	sp, #12
 80075fc:	af00      	add	r7, sp, #0
 80075fe:	6078      	str	r0, [r7, #4]
  static uint32_t mem[(sizeof(USBD_HID_HandleTypeDef)/4)+1];/* On 32-bit boundary */
  return mem;
 8007600:	4b02      	ldr	r3, [pc, #8]	@ (800760c <USBD_static_malloc+0x14>)
}
 8007602:	4618      	mov	r0, r3
 8007604:	370c      	adds	r7, #12
 8007606:	46bd      	mov	sp, r7
 8007608:	bc80      	pop	{r7}
 800760a:	4770      	bx	lr
 800760c:	20000970 	.word	0x20000970

08007610 <USBD_static_free>:
  * @brief  Dummy memory free
  * @param  p: Pointer to allocated  memory address
  * @retval None
  */
void USBD_static_free(void *p)
{
 8007610:	b480      	push	{r7}
 8007612:	b083      	sub	sp, #12
 8007614:	af00      	add	r7, sp, #0
 8007616:	6078      	str	r0, [r7, #4]

}
 8007618:	bf00      	nop
 800761a:	370c      	adds	r7, #12
 800761c:	46bd      	mov	sp, r7
 800761e:	bc80      	pop	{r7}
 8007620:	4770      	bx	lr

08007622 <HAL_PCDEx_SetConnectionState>:
#if (USE_HAL_PCD_REGISTER_CALLBACKS == 1U)
static void PCDEx_SetConnectionState(PCD_HandleTypeDef *hpcd, uint8_t state)
#else
void HAL_PCDEx_SetConnectionState(PCD_HandleTypeDef *hpcd, uint8_t state)
#endif /* USE_HAL_PCD_REGISTER_CALLBACKS */
{
 8007622:	b480      	push	{r7}
 8007624:	b083      	sub	sp, #12
 8007626:	af00      	add	r7, sp, #0
 8007628:	6078      	str	r0, [r7, #4]
 800762a:	460b      	mov	r3, r1
 800762c:	70fb      	strb	r3, [r7, #3]
  {
    /* Configure High connection state. */

  }
  /* USER CODE END 6 */
}
 800762e:	bf00      	nop
 8007630:	370c      	adds	r7, #12
 8007632:	46bd      	mov	sp, r7
 8007634:	bc80      	pop	{r7}
 8007636:	4770      	bx	lr

08007638 <USBD_Get_USB_Status>:
  * @brief  Returns the USB status depending on the HAL status:
  * @param  hal_status: HAL status
  * @retval USB status
  */
USBD_StatusTypeDef USBD_Get_USB_Status(HAL_StatusTypeDef hal_status)
{
 8007638:	b480      	push	{r7}
 800763a:	b085      	sub	sp, #20
 800763c:	af00      	add	r7, sp, #0
 800763e:	4603      	mov	r3, r0
 8007640:	71fb      	strb	r3, [r7, #7]
  USBD_StatusTypeDef usb_status = USBD_OK;
 8007642:	2300      	movs	r3, #0
 8007644:	73fb      	strb	r3, [r7, #15]

  switch (hal_status)
 8007646:	79fb      	ldrb	r3, [r7, #7]
 8007648:	2b03      	cmp	r3, #3
 800764a:	d817      	bhi.n	800767c <USBD_Get_USB_Status+0x44>
 800764c:	a201      	add	r2, pc, #4	@ (adr r2, 8007654 <USBD_Get_USB_Status+0x1c>)
 800764e:	f852 f023 	ldr.w	pc, [r2, r3, lsl #2]
 8007652:	bf00      	nop
 8007654:	08007665 	.word	0x08007665
 8007658:	0800766b 	.word	0x0800766b
 800765c:	08007671 	.word	0x08007671
 8007660:	08007677 	.word	0x08007677
  {
    case HAL_OK :
      usb_status = USBD_OK;
 8007664:	2300      	movs	r3, #0
 8007666:	73fb      	strb	r3, [r7, #15]
    break;
 8007668:	e00b      	b.n	8007682 <USBD_Get_USB_Status+0x4a>
    case HAL_ERROR :
      usb_status = USBD_FAIL;
 800766a:	2302      	movs	r3, #2
 800766c:	73fb      	strb	r3, [r7, #15]
    break;
 800766e:	e008      	b.n	8007682 <USBD_Get_USB_Status+0x4a>
    case HAL_BUSY :
      usb_status = USBD_BUSY;
 8007670:	2301      	movs	r3, #1
 8007672:	73fb      	strb	r3, [r7, #15]
    break;
 8007674:	e005      	b.n	8007682 <USBD_Get_USB_Status+0x4a>
    case HAL_TIMEOUT :
      usb_status = USBD_FAIL;
 8007676:	2302      	movs	r3, #2
 8007678:	73fb      	strb	r3, [r7, #15]
    break;
 800767a:	e002      	b.n	8007682 <USBD_Get_USB_Status+0x4a>
    default :
      usb_status = USBD_FAIL;
 800767c:	2302      	movs	r3, #2
 800767e:	73fb      	strb	r3, [r7, #15]
    break;
 8007680:	bf00      	nop
  }
  return usb_status;
 8007682:	7bfb      	ldrb	r3, [r7, #15]
}
 8007684:	4618      	mov	r0, r3
 8007686:	3714      	adds	r7, #20
 8007688:	46bd      	mov	sp, r7
 800768a:	bc80      	pop	{r7}
 800768c:	4770      	bx	lr
 800768e:	bf00      	nop

08007690 <memset>:
 8007690:	4603      	mov	r3, r0
 8007692:	4402      	add	r2, r0
 8007694:	4293      	cmp	r3, r2
 8007696:	d100      	bne.n	800769a <memset+0xa>
 8007698:	4770      	bx	lr
 800769a:	f803 1b01 	strb.w	r1, [r3], #1
 800769e:	e7f9      	b.n	8007694 <memset+0x4>

080076a0 <__libc_init_array>:
 80076a0:	b570      	push	{r4, r5, r6, lr}
 80076a2:	2600      	movs	r6, #0
 80076a4:	4d0c      	ldr	r5, [pc, #48]	@ (80076d8 <__libc_init_array+0x38>)
 80076a6:	4c0d      	ldr	r4, [pc, #52]	@ (80076dc <__libc_init_array+0x3c>)
 80076a8:	1b64      	subs	r4, r4, r5
 80076aa:	10a4      	asrs	r4, r4, #2
 80076ac:	42a6      	cmp	r6, r4
 80076ae:	d109      	bne.n	80076c4 <__libc_init_array+0x24>
 80076b0:	f000 f81a 	bl	80076e8 <_init>
 80076b4:	2600      	movs	r6, #0
 80076b6:	4d0a      	ldr	r5, [pc, #40]	@ (80076e0 <__libc_init_array+0x40>)
 80076b8:	4c0a      	ldr	r4, [pc, #40]	@ (80076e4 <__libc_init_array+0x44>)
 80076ba:	1b64      	subs	r4, r4, r5
 80076bc:	10a4      	asrs	r4, r4, #2
 80076be:	42a6      	cmp	r6, r4
 80076c0:	d105      	bne.n	80076ce <__libc_init_array+0x2e>
 80076c2:	bd70      	pop	{r4, r5, r6, pc}
 80076c4:	f855 3b04 	ldr.w	r3, [r5], #4
 80076c8:	4798      	blx	r3
 80076ca:	3601      	adds	r6, #1
 80076cc:	e7ee      	b.n	80076ac <__libc_init_array+0xc>
 80076ce:	f855 3b04 	ldr.w	r3, [r5], #4
 80076d2:	4798      	blx	r3
 80076d4:	3601      	adds	r6, #1
 80076d6:	e7f2      	b.n	80076be <__libc_init_array+0x1e>
 80076d8:	08007760 	.word	0x08007760
 80076dc:	08007760 	.word	0x08007760
 80076e0:	08007760 	.word	0x08007760
 80076e4:	08007764 	.word	0x08007764

080076e8 <_init>:
 80076e8:	b5f8      	push	{r3, r4, r5, r6, r7, lr}
 80076ea:	bf00      	nop
 80076ec:	bcf8      	pop	{r3, r4, r5, r6, r7}
 80076ee:	bc08      	pop	{r3}
 80076f0:	469e      	mov	lr, r3
 80076f2:	4770      	bx	lr

080076f4 <_fini>:
 80076f4:	b5f8      	push	{r3, r4, r5, r6, r7, lr}
 80076f6:	bf00      	nop
 80076f8:	bcf8      	pop	{r3, r4, r5, r6, r7}
 80076fa:	bc08      	pop	{r3}
 80076fc:	469e      	mov	lr, r3
 80076fe:	4770      	bx	lr
