
STM32F103HidDeviceEmulator.elf:     file format elf32-littlearm

Sections:
Idx Name          Size      VMA       LMA       File off  Algn
  0 .isr_vector   0000010c  08000000  08000000  00001000  2**0
                  CONTENTS, ALLOC, LOAD, READONLY, DATA
  1 .text         00007b3c  0800010c  0800010c  0000110c  2**2
                  CONTENTS, ALLOC, LOAD, READONLY, CODE
  2 .rodata       00000064  08007c48  08007c48  00008c48  2**2
                  CONTENTS, ALLOC, LOAD, READONLY, DATA
  3 .ARM.extab    00000000  08007cac  08007cac  0000918c  2**0
                  CONTENTS
  4 .ARM          00000000  08007cac  08007cac  0000918c  2**0
                  CONTENTS
  5 .preinit_array 00000000  08007cac  08007cac  0000918c  2**0
                  CONTENTS, ALLOC, LOAD, DATA
  6 .init_array   00000004  08007cac  08007cac  00008cac  2**2
                  CONTENTS, ALLOC, LOAD, READONLY, DATA
  7 .fini_array   00000004  08007cb0  08007cb0  00008cb0  2**2
                  CONTENTS, ALLOC, LOAD, READONLY, DATA
  8 .data         0000018c  20000000  08007cb4  00009000  2**2
                  CONTENTS, ALLOC, LOAD, DATA
  9 .bss          000007f8  2000018c  08007e40  0000918c  2**2
                  ALLOC
 10 ._user_heap_stack 00000604  20000984  08007e40  00009984  2**0
                  ALLOC
 11 .ARM.attributes 00000029  00000000  00000000  0000918c  2**0
                  CONTENTS, READONLY
 12 .debug_info   0000d07d  00000000  00000000  000091b5  2**0
                  CONTENTS, READONLY, DEBUGGING, OCTETS
 13 .debug_abbrev 00003354  00000000  00000000  00016232  2**0
                  CONTENTS, READONLY, DEBUGGING, OCTETS
 14 .debug_aranges 00000ca8  00000000  00000000  00019588  2**3
                  CONTENTS, READONLY, DEBUGGING, OCTETS
 15 .debug_rnglists 00000928  00000000  00000000  0001a230  2**0
                  CONTENTS, READONLY, DEBUGGING, OCTETS
 16 .debug_macro  0001b1b0  00000000  00000000  0001ab58  2**0
                  CONTENTS, READONLY, DEBUGGING, OCTETS
 17 .debug_line   00013e4b  00000000  00000000  00035d08  2**0
                  CONTENTS, READONLY, DEBUGGING, OCTETS
 18 .debug_str    0008ab46  00000000  00000000  00049b53  2**0
                  CONTENTS, READONLY, DEBUGGING, OCTETS
 19 .comment      00000043  00000000  00000000  000d4699  2**0
                  CONTENTS, READONLY
 20 .debug_frame  00002ff0  00000000  00000000  000d46dc  2**2
                  CONTENTS, READONLY, DEBUGGING, OCTETS
 21 .debug_line_str 0000006d  00000000  00000000  000d76cc  2**0
                  CONTENTS, READONLY, DEBUGGING, OCTETS

Disassembly of section .text:

0800010c <__do_global_dtors_aux>:
 800010c:	b510      	push	{r4, lr}
 800010e:	4c05      	ldr	r4, [pc, #20]	@ (8000124 <__do_global_dtors_aux+0x18>)
 8000110:	7823      	ldrb	r3, [r4, #0]
 8000112:	b933      	cbnz	r3, 8000122 <__do_global_dtors_aux+0x16>
 8000114:	4b04      	ldr	r3, [pc, #16]	@ (8000128 <__do_global_dtors_aux+0x1c>)
 8000116:	b113      	cbz	r3, 800011e <__do_global_dtors_aux+0x12>
 8000118:	4804      	ldr	r0, [pc, #16]	@ (800012c <__do_global_dtors_aux+0x20>)
 800011a:	f3af 8000 	nop.w
 800011e:	2301      	movs	r3, #1
 8000120:	7023      	strb	r3, [r4, #0]
 8000122:	bd10      	pop	{r4, pc}
 8000124:	2000018c 	.word	0x2000018c
 8000128:	00000000 	.word	0x00000000
 800012c:	08007c30 	.word	0x08007c30

08000130 <frame_dummy>:
 8000130:	b508      	push	{r3, lr}
 8000132:	4b03      	ldr	r3, [pc, #12]	@ (8000140 <frame_dummy+0x10>)
 8000134:	b11b      	cbz	r3, 800013e <frame_dummy+0xe>
 8000136:	4903      	ldr	r1, [pc, #12]	@ (8000144 <frame_dummy+0x14>)
 8000138:	4803      	ldr	r0, [pc, #12]	@ (8000148 <frame_dummy+0x18>)
 800013a:	f3af 8000 	nop.w
 800013e:	bd08      	pop	{r3, pc}
 8000140:	00000000 	.word	0x00000000
 8000144:	20000190 	.word	0x20000190
 8000148:	08007c30 	.word	0x08007c30

0800014c <UsartCallback>:
uint8_t length = 0;
uint8_t parsedData = 0;
uint8_t buffer[32] = {};


void UsartCallback(){
 800014c:	b580      	push	{r7, lr}
 800014e:	b082      	sub	sp, #8
 8000150:	af00      	add	r7, sp, #0
	uint8_t byte = USART1->DR;
 8000152:	4b1b      	ldr	r3, [pc, #108]	@ (80001c0 <UsartCallback+0x74>)
 8000154:	685b      	ldr	r3, [r3, #4]
 8000156:	71fb      	strb	r3, [r7, #7]
	if(byte == HEADER || flag){
 8000158:	79fb      	ldrb	r3, [r7, #7]
 800015a:	2bc5      	cmp	r3, #197	@ 0xc5
 800015c:	d003      	beq.n	8000166 <UsartCallback+0x1a>
 800015e:	4b19      	ldr	r3, [pc, #100]	@ (80001c4 <UsartCallback+0x78>)
 8000160:	781b      	ldrb	r3, [r3, #0]
 8000162:	2b00      	cmp	r3, #0
 8000164:	d027      	beq.n	80001b6 <UsartCallback+0x6a>
		flag = 1;
 8000166:	4b17      	ldr	r3, [pc, #92]	@ (80001c4 <UsartCallback+0x78>)
 8000168:	2201      	movs	r2, #1
 800016a:	701a      	strb	r2, [r3, #0]
		buffer[parsedData] = byte;
 800016c:	4b16      	ldr	r3, [pc, #88]	@ (80001c8 <UsartCallback+0x7c>)
 800016e:	781b      	ldrb	r3, [r3, #0]
 8000170:	4619      	mov	r1, r3
 8000172:	4a16      	ldr	r2, [pc, #88]	@ (80001cc <UsartCallback+0x80>)
 8000174:	79fb      	ldrb	r3, [r7, #7]
 8000176:	5453      	strb	r3, [r2, r1]
		if(parsedData == 3)
 8000178:	4b13      	ldr	r3, [pc, #76]	@ (80001c8 <UsartCallback+0x7c>)
 800017a:	781b      	ldrb	r3, [r3, #0]
 800017c:	2b03      	cmp	r3, #3
 800017e:	d102      	bne.n	8000186 <UsartCallback+0x3a>
			length = byte;
 8000180:	4a13      	ldr	r2, [pc, #76]	@ (80001d0 <UsartCallback+0x84>)
 8000182:	79fb      	ldrb	r3, [r7, #7]
 8000184:	7013      	strb	r3, [r2, #0]
		if(parsedData >= length+4){
 8000186:	4b12      	ldr	r3, [pc, #72]	@ (80001d0 <UsartCallback+0x84>)
 8000188:	781b      	ldrb	r3, [r3, #0]
 800018a:	3303      	adds	r3, #3
 800018c:	4a0e      	ldr	r2, [pc, #56]	@ (80001c8 <UsartCallback+0x7c>)
 800018e:	7812      	ldrb	r2, [r2, #0]
 8000190:	4293      	cmp	r3, r2
 8000192:	da0a      	bge.n	80001aa <UsartCallback+0x5e>
			RxData *rxdata = &buffer;
 8000194:	4b0d      	ldr	r3, [pc, #52]	@ (80001cc <UsartCallback+0x80>)
 8000196:	603b      	str	r3, [r7, #0]
			length = 0;
 8000198:	4b0d      	ldr	r3, [pc, #52]	@ (80001d0 <UsartCallback+0x84>)
 800019a:	2200      	movs	r2, #0
 800019c:	701a      	strb	r2, [r3, #0]
			flag = 0;
 800019e:	4b09      	ldr	r3, [pc, #36]	@ (80001c4 <UsartCallback+0x78>)
 80001a0:	2200      	movs	r2, #0
 80001a2:	701a      	strb	r2, [r3, #0]
			ParsingData(rxdata);
 80001a4:	6838      	ldr	r0, [r7, #0]
 80001a6:	f000 f895 	bl	80002d4 <ParsingData>
		}
		parsedData++;
 80001aa:	4b07      	ldr	r3, [pc, #28]	@ (80001c8 <UsartCallback+0x7c>)
 80001ac:	781b      	ldrb	r3, [r3, #0]
 80001ae:	3301      	adds	r3, #1
 80001b0:	b2da      	uxtb	r2, r3
 80001b2:	4b05      	ldr	r3, [pc, #20]	@ (80001c8 <UsartCallback+0x7c>)
 80001b4:	701a      	strb	r2, [r3, #0]
	}
}
 80001b6:	bf00      	nop
 80001b8:	3708      	adds	r7, #8
 80001ba:	46bd      	mov	sp, r7
 80001bc:	bd80      	pop	{r7, pc}
 80001be:	bf00      	nop
 80001c0:	40013800 	.word	0x40013800
 80001c4:	200001a8 	.word	0x200001a8
 80001c8:	200001aa 	.word	0x200001aa
 80001cc:	200001ac 	.word	0x200001ac
 80001d0:	200001a9 	.word	0x200001a9

080001d4 <UsartDataTransmit>:

void UsartDataTransmit(uint8_t *buf, uint8_t len){
 80001d4:	b480      	push	{r7}
 80001d6:	b085      	sub	sp, #20
 80001d8:	af00      	add	r7, sp, #0
 80001da:	6078      	str	r0, [r7, #4]
 80001dc:	460b      	mov	r3, r1
 80001de:	70fb      	strb	r3, [r7, #3]
	for (int i = 0; i < len; i++){
 80001e0:	2300      	movs	r3, #0
 80001e2:	60fb      	str	r3, [r7, #12]
 80001e4:	e00f      	b.n	8000206 <UsartDataTransmit+0x32>
		while ((USART1->SR & USART_SR_TXE) == 0);
 80001e6:	bf00      	nop
 80001e8:	4b0c      	ldr	r3, [pc, #48]	@ (800021c <UsartDataTransmit+0x48>)
 80001ea:	681b      	ldr	r3, [r3, #0]
 80001ec:	f003 0380 	and.w	r3, r3, #128	@ 0x80
 80001f0:	2b00      	cmp	r3, #0
 80001f2:	d0f9      	beq.n	80001e8 <UsartDataTransmit+0x14>
		USART1->DR = buf[i];
 80001f4:	68fb      	ldr	r3, [r7, #12]
 80001f6:	687a      	ldr	r2, [r7, #4]
 80001f8:	4413      	add	r3, r2
 80001fa:	781a      	ldrb	r2, [r3, #0]
 80001fc:	4b07      	ldr	r3, [pc, #28]	@ (800021c <UsartDataTransmit+0x48>)
 80001fe:	605a      	str	r2, [r3, #4]
	for (int i = 0; i < len; i++){
 8000200:	68fb      	ldr	r3, [r7, #12]
 8000202:	3301      	adds	r3, #1
 8000204:	60fb      	str	r3, [r7, #12]
 8000206:	78fb      	ldrb	r3, [r7, #3]
 8000208:	68fa      	ldr	r2, [r7, #12]
 800020a:	429a      	cmp	r2, r3
 800020c:	dbeb      	blt.n	80001e6 <UsartDataTransmit+0x12>
	}
}
 800020e:	bf00      	nop
 8000210:	bf00      	nop
 8000212:	3714      	adds	r7, #20
 8000214:	46bd      	mov	sp, r7
 8000216:	bc80      	pop	{r7}
 8000218:	4770      	bx	lr
 800021a:	bf00      	nop
 800021c:	40013800 	.word	0x40013800

08000220 <crc8>:
#ifndef INC_CRC8_H_
#define INC_CRC8_H_

#include "main.h"

uint8_t crc8(uint8_t *buffer, uint8_t size) {
 8000220:	b480      	push	{r7}
 8000222:	b085      	sub	sp, #20
 8000224:	af00      	add	r7, sp, #0
 8000226:	6078      	str	r0, [r7, #4]
 8000228:	460b      	mov	r3, r1
 800022a:	70fb      	strb	r3, [r7, #3]
	uint8_t crc = 0;
 800022c:	2300      	movs	r3, #0
 800022e:	73fb      	strb	r3, [r7, #15]
	for (uint8_t i = 0; i < size; i++) {
 8000230:	2300      	movs	r3, #0
 8000232:	73bb      	strb	r3, [r7, #14]
 8000234:	e027      	b.n	8000286 <crc8+0x66>
		uint8_t data = buffer[i];
 8000236:	7bbb      	ldrb	r3, [r7, #14]
 8000238:	687a      	ldr	r2, [r7, #4]
 800023a:	4413      	add	r3, r2
 800023c:	781b      	ldrb	r3, [r3, #0]
 800023e:	737b      	strb	r3, [r7, #13]
		for (int j = 8; j > 0; j--) {
 8000240:	2308      	movs	r3, #8
 8000242:	60bb      	str	r3, [r7, #8]
 8000244:	e019      	b.n	800027a <crc8+0x5a>
		crc = ((crc ^ data) & 1) ? (crc >> 1) ^ 0x8C : (crc >> 1);
 8000246:	7bfa      	ldrb	r2, [r7, #15]
 8000248:	7b7b      	ldrb	r3, [r7, #13]
 800024a:	4053      	eors	r3, r2
 800024c:	b2db      	uxtb	r3, r3
 800024e:	f003 0301 	and.w	r3, r3, #1
 8000252:	2b00      	cmp	r3, #0
 8000254:	d007      	beq.n	8000266 <crc8+0x46>
 8000256:	7bfb      	ldrb	r3, [r7, #15]
 8000258:	085b      	lsrs	r3, r3, #1
 800025a:	b2db      	uxtb	r3, r3
 800025c:	f083 0373 	eor.w	r3, r3, #115	@ 0x73
 8000260:	43db      	mvns	r3, r3
 8000262:	b2db      	uxtb	r3, r3
 8000264:	e002      	b.n	800026c <crc8+0x4c>
 8000266:	7bfb      	ldrb	r3, [r7, #15]
 8000268:	085b      	lsrs	r3, r3, #1
 800026a:	b2db      	uxtb	r3, r3
 800026c:	73fb      	strb	r3, [r7, #15]
		data >>= 1;
 800026e:	7b7b      	ldrb	r3, [r7, #13]
 8000270:	085b      	lsrs	r3, r3, #1
 8000272:	737b      	strb	r3, [r7, #13]
		for (int j = 8; j > 0; j--) {
 8000274:	68bb      	ldr	r3, [r7, #8]
 8000276:	3b01      	subs	r3, #1
 8000278:	60bb      	str	r3, [r7, #8]
 800027a:	68bb      	ldr	r3, [r7, #8]
 800027c:	2b00      	cmp	r3, #0
 800027e:	dce2      	bgt.n	8000246 <crc8+0x26>
	for (uint8_t i = 0; i < size; i++) {
 8000280:	7bbb      	ldrb	r3, [r7, #14]
 8000282:	3301      	adds	r3, #1
 8000284:	73bb      	strb	r3, [r7, #14]
 8000286:	7bba      	ldrb	r2, [r7, #14]
 8000288:	78fb      	ldrb	r3, [r7, #3]
 800028a:	429a      	cmp	r2, r3
 800028c:	d3d3      	bcc.n	8000236 <crc8+0x16>
		}
	}
	return crc;
 800028e:	7bfb      	ldrb	r3, [r7, #15]
}
 8000290:	4618      	mov	r0, r3
 8000292:	3714      	adds	r7, #20
 8000294:	46bd      	mov	sp, r7
 8000296:	bc80      	pop	{r7}
 8000298:	4770      	bx	lr

0800029a <answer>:


#include "UsartController.h"
#include "crc8.h"

void answer(uint8_t data){
 800029a:	b580      	push	{r7, lr}
 800029c:	b084      	sub	sp, #16
 800029e:	af00      	add	r7, sp, #0
 80002a0:	4603      	mov	r3, r0
 80002a2:	71fb      	strb	r3, [r7, #7]
	TxData data_out = {HEADER, data, 0};
 80002a4:	23c5      	movs	r3, #197	@ 0xc5
 80002a6:	733b      	strb	r3, [r7, #12]
 80002a8:	79fb      	ldrb	r3, [r7, #7]
 80002aa:	737b      	strb	r3, [r7, #13]
 80002ac:	2300      	movs	r3, #0
 80002ae:	73bb      	strb	r3, [r7, #14]
	data_out.crc8 = crc8(&data_out, 2);
 80002b0:	f107 030c 	add.w	r3, r7, #12
 80002b4:	2102      	movs	r1, #2
 80002b6:	4618      	mov	r0, r3
 80002b8:	f7ff ffb2 	bl	8000220 <crc8>
 80002bc:	4603      	mov	r3, r0
 80002be:	73bb      	strb	r3, [r7, #14]
	UsartDataTransmit(&data_out, 3);
 80002c0:	f107 030c 	add.w	r3, r7, #12
 80002c4:	2103      	movs	r1, #3
 80002c6:	4618      	mov	r0, r3
 80002c8:	f7ff ff84 	bl	80001d4 <UsartDataTransmit>
}
 80002cc:	bf00      	nop
 80002ce:	3710      	adds	r7, #16
 80002d0:	46bd      	mov	sp, r7
 80002d2:	bd80      	pop	{r7, pc}

080002d4 <ParsingData>:

#include "UsartRouter.h"
#include "crc8.h"
#include "UsartAnswerModule.h"

void ParsingData(RxData *rxdata){
 80002d4:	b580      	push	{r7, lr}
 80002d6:	b082      	sub	sp, #8
 80002d8:	af00      	add	r7, sp, #0
 80002da:	6078      	str	r0, [r7, #4]
				answer(USART_OK);
				return 0;
			}
		}
	}
	answer(USART_ERROR);
 80002dc:	2000      	movs	r0, #0
 80002de:	f7ff ffdc 	bl	800029a <answer>
}
 80002e2:	3708      	adds	r7, #8
 80002e4:	46bd      	mov	sp, r7
 80002e6:	bd80      	pop	{r7, pc}

080002e8 <MX_GPIO_Init>:
        * Output
        * EVENT_OUT
        * EXTI
*/
void MX_GPIO_Init(void)
{
 80002e8:	b580      	push	{r7, lr}
 80002ea:	b088      	sub	sp, #32
 80002ec:	af00      	add	r7, sp, #0

  GPIO_InitTypeDef GPIO_InitStruct = {0};
 80002ee:	f107 0310 	add.w	r3, r7, #16
 80002f2:	2200      	movs	r2, #0
 80002f4:	601a      	str	r2, [r3, #0]
 80002f6:	605a      	str	r2, [r3, #4]
 80002f8:	609a      	str	r2, [r3, #8]
 80002fa:	60da      	str	r2, [r3, #12]

  /* GPIO Ports Clock Enable */
  __HAL_RCC_GPIOC_CLK_ENABLE();
 80002fc:	4b1e      	ldr	r3, [pc, #120]	@ (8000378 <MX_GPIO_Init+0x90>)
 80002fe:	699b      	ldr	r3, [r3, #24]
 8000300:	4a1d      	ldr	r2, [pc, #116]	@ (8000378 <MX_GPIO_Init+0x90>)
 8000302:	f043 0310 	orr.w	r3, r3, #16
 8000306:	6193      	str	r3, [r2, #24]
 8000308:	4b1b      	ldr	r3, [pc, #108]	@ (8000378 <MX_GPIO_Init+0x90>)
 800030a:	699b      	ldr	r3, [r3, #24]
 800030c:	f003 0310 	and.w	r3, r3, #16
 8000310:	60fb      	str	r3, [r7, #12]
 8000312:	68fb      	ldr	r3, [r7, #12]
  __HAL_RCC_GPIOD_CLK_ENABLE();
 8000314:	4b18      	ldr	r3, [pc, #96]	@ (8000378 <MX_GPIO_Init+0x90>)
 8000316:	699b      	ldr	r3, [r3, #24]
 8000318:	4a17      	ldr	r2, [pc, #92]	@ (8000378 <MX_GPIO_Init+0x90>)
 800031a:	f043 0320 	orr.w	r3, r3, #32
 800031e:	6193      	str	r3, [r2, #24]
 8000320:	4b15      	ldr	r3, [pc, #84]	@ (8000378 <MX_GPIO_Init+0x90>)
 8000322:	699b      	ldr	r3, [r3, #24]
 8000324:	f003 0320 	and.w	r3, r3, #32
 8000328:	60bb      	str	r3, [r7, #8]
 800032a:	68bb      	ldr	r3, [r7, #8]
  __HAL_RCC_GPIOA_CLK_ENABLE();
 800032c:	4b12      	ldr	r3, [pc, #72]	@ (8000378 <MX_GPIO_Init+0x90>)
 800032e:	699b      	ldr	r3, [r3, #24]
 8000330:	4a11      	ldr	r2, [pc, #68]	@ (8000378 <MX_GPIO_Init+0x90>)
 8000332:	f043 0304 	orr.w	r3, r3, #4
 8000336:	6193      	str	r3, [r2, #24]
 8000338:	4b0f      	ldr	r3, [pc, #60]	@ (8000378 <MX_GPIO_Init+0x90>)
 800033a:	699b      	ldr	r3, [r3, #24]
 800033c:	f003 0304 	and.w	r3, r3, #4
 8000340:	607b      	str	r3, [r7, #4]
 8000342:	687b      	ldr	r3, [r7, #4]

  /*Configure GPIO pin Output Level */
  HAL_GPIO_WritePin(GPIOC, GPIO_PIN_13, GPIO_PIN_SET);
 8000344:	2201      	movs	r2, #1
 8000346:	f44f 5100 	mov.w	r1, #8192	@ 0x2000
 800034a:	480c      	ldr	r0, [pc, #48]	@ (800037c <MX_GPIO_Init+0x94>)
 800034c:	f000 fdb2 	bl	8000eb4 <HAL_GPIO_WritePin>

  /*Configure GPIO pin : PC13 */
  GPIO_InitStruct.Pin = GPIO_PIN_13;
 8000350:	f44f 5300 	mov.w	r3, #8192	@ 0x2000
 8000354:	613b      	str	r3, [r7, #16]
  GPIO_InitStruct.Mode = GPIO_MODE_OUTPUT_PP;
 8000356:	2301      	movs	r3, #1
 8000358:	617b      	str	r3, [r7, #20]
  GPIO_InitStruct.Pull = GPIO_NOPULL;
 800035a:	2300      	movs	r3, #0
 800035c:	61bb      	str	r3, [r7, #24]
  GPIO_InitStruct.Speed = GPIO_SPEED_FREQ_LOW;
 800035e:	2302      	movs	r3, #2
 8000360:	61fb      	str	r3, [r7, #28]
  HAL_GPIO_Init(GPIOC, &GPIO_InitStruct);
 8000362:	f107 0310 	add.w	r3, r7, #16
 8000366:	4619      	mov	r1, r3
 8000368:	4804      	ldr	r0, [pc, #16]	@ (800037c <MX_GPIO_Init+0x94>)
 800036a:	f000 fc1f 	bl	8000bac <HAL_GPIO_Init>

}
 800036e:	bf00      	nop
 8000370:	3720      	adds	r7, #32
 8000372:	46bd      	mov	sp, r7
 8000374:	bd80      	pop	{r7, pc}
 8000376:	bf00      	nop
 8000378:	40021000 	.word	0x40021000
 800037c:	40011000 	.word	0x40011000

08000380 <main>:
/**
  * @brief  The application entry point.
  * @retval int
  */
int main(void)
{
 8000380:	b580      	push	{r7, lr}
 8000382:	b082      	sub	sp, #8
 8000384:	af00      	add	r7, sp, #0
  /* USER CODE END 1 */

  /* MCU Configuration--------------------------------------------------------*/

  /* Reset of all peripherals, Initializes the Flash interface and the Systick. */
  HAL_Init();
 8000386:	f000 fa7d 	bl	8000884 <HAL_Init>
  /* USER CODE BEGIN Init */

  /* USER CODE END Init */

  /* Configure the system clock */
  SystemClock_Config();
 800038a:	f000 f81b 	bl	80003c4 <SystemClock_Config>
  /* USER CODE BEGIN SysInit */

  /* USER CODE END SysInit */

  /* Initialize all configured peripherals */
  MX_GPIO_Init();
 800038e:	f7ff ffab 	bl	80002e8 <MX_GPIO_Init>
  MX_USART1_UART_Init();
 8000392:	f000 f9e9 	bl	8000768 <MX_USART1_UART_Init>
  MX_USB_DEVICE_Init();
 8000396:	f007 f867 	bl	8007468 <MX_USB_DEVICE_Init>

  /* Infinite loop */
  /* USER CODE BEGIN WHILE */
  while (1)
  {
	  uint8_t data[3] = {0xC5, 0x1, 0xBB};
 800039a:	4a09      	ldr	r2, [pc, #36]	@ (80003c0 <main+0x40>)
 800039c:	1d3b      	adds	r3, r7, #4
 800039e:	6812      	ldr	r2, [r2, #0]
 80003a0:	4611      	mov	r1, r2
 80003a2:	8019      	strh	r1, [r3, #0]
 80003a4:	3302      	adds	r3, #2
 80003a6:	0c12      	lsrs	r2, r2, #16
 80003a8:	701a      	strb	r2, [r3, #0]
	  UsartDataTransmit(data, 3);
 80003aa:	1d3b      	adds	r3, r7, #4
 80003ac:	2103      	movs	r1, #3
 80003ae:	4618      	mov	r0, r3
 80003b0:	f7ff ff10 	bl	80001d4 <UsartDataTransmit>
	  HAL_Delay(1000);
 80003b4:	f44f 707a 	mov.w	r0, #1000	@ 0x3e8
 80003b8:	f000 fac6 	bl	8000948 <HAL_Delay>
  {
 80003bc:	bf00      	nop
 80003be:	e7ec      	b.n	800039a <main+0x1a>
 80003c0:	08007c48 	.word	0x08007c48

080003c4 <SystemClock_Config>:
/**
  * @brief System Clock Configuration
  * @retval None
  */
void SystemClock_Config(void)
{
 80003c4:	b580      	push	{r7, lr}
 80003c6:	b094      	sub	sp, #80	@ 0x50
 80003c8:	af00      	add	r7, sp, #0
  RCC_OscInitTypeDef RCC_OscInitStruct = {0};
 80003ca:	f107 0328 	add.w	r3, r7, #40	@ 0x28
 80003ce:	2228      	movs	r2, #40	@ 0x28
 80003d0:	2100      	movs	r1, #0
 80003d2:	4618      	mov	r0, r3
 80003d4:	f007 fc00 	bl	8007bd8 <memset>
  RCC_ClkInitTypeDef RCC_ClkInitStruct = {0};
 80003d8:	f107 0314 	add.w	r3, r7, #20
 80003dc:	2200      	movs	r2, #0
 80003de:	601a      	str	r2, [r3, #0]
 80003e0:	605a      	str	r2, [r3, #4]
 80003e2:	609a      	str	r2, [r3, #8]
 80003e4:	60da      	str	r2, [r3, #12]
 80003e6:	611a      	str	r2, [r3, #16]
  RCC_PeriphCLKInitTypeDef PeriphClkInit = {0};
 80003e8:	1d3b      	adds	r3, r7, #4
 80003ea:	2200      	movs	r2, #0
 80003ec:	601a      	str	r2, [r3, #0]
 80003ee:	605a      	str	r2, [r3, #4]
 80003f0:	609a      	str	r2, [r3, #8]
 80003f2:	60da      	str	r2, [r3, #12]

  /** Initializes the RCC Oscillators according to the specified parameters
  * in the RCC_OscInitTypeDef structure.
  */
  RCC_OscInitStruct.OscillatorType = RCC_OSCILLATORTYPE_HSE;
 80003f4:	2301      	movs	r3, #1
 80003f6:	62bb      	str	r3, [r7, #40]	@ 0x28
  RCC_OscInitStruct.HSEState = RCC_HSE_ON;
 80003f8:	f44f 3380 	mov.w	r3, #65536	@ 0x10000
 80003fc:	62fb      	str	r3, [r7, #44]	@ 0x2c
  RCC_OscInitStruct.HSEPredivValue = RCC_HSE_PREDIV_DIV1;
 80003fe:	2300      	movs	r3, #0
 8000400:	633b      	str	r3, [r7, #48]	@ 0x30
  RCC_OscInitStruct.HSIState = RCC_HSI_ON;
 8000402:	2301      	movs	r3, #1
 8000404:	63bb      	str	r3, [r7, #56]	@ 0x38
  RCC_OscInitStruct.PLL.PLLState = RCC_PLL_ON;
 8000406:	2302      	movs	r3, #2
 8000408:	647b      	str	r3, [r7, #68]	@ 0x44
  RCC_OscInitStruct.PLL.PLLSource = RCC_PLLSOURCE_HSE;
 800040a:	f44f 3380 	mov.w	r3, #65536	@ 0x10000
 800040e:	64bb      	str	r3, [r7, #72]	@ 0x48
  RCC_OscInitStruct.PLL.PLLMUL = RCC_PLL_MUL6;
 8000410:	f44f 1380 	mov.w	r3, #1048576	@ 0x100000
 8000414:	64fb      	str	r3, [r7, #76]	@ 0x4c
  if (HAL_RCC_OscConfig(&RCC_OscInitStruct) != HAL_OK)
 8000416:	f107 0328 	add.w	r3, r7, #40	@ 0x28
 800041a:	4618      	mov	r0, r3
 800041c:	f002 fac4 	bl	80029a8 <HAL_RCC_OscConfig>
 8000420:	4603      	mov	r3, r0
 8000422:	2b00      	cmp	r3, #0
 8000424:	d001      	beq.n	800042a <SystemClock_Config+0x66>
  {
    Error_Handler();
 8000426:	f000 f828 	bl	800047a <Error_Handler>
  }

  /** Initializes the CPU, AHB and APB buses clocks
  */
  RCC_ClkInitStruct.ClockType = RCC_CLOCKTYPE_HCLK|RCC_CLOCKTYPE_SYSCLK
 800042a:	230f      	movs	r3, #15
 800042c:	617b      	str	r3, [r7, #20]
                              |RCC_CLOCKTYPE_PCLK1|RCC_CLOCKTYPE_PCLK2;
  RCC_ClkInitStruct.SYSCLKSource = RCC_SYSCLKSOURCE_PLLCLK;
 800042e:	2302      	movs	r3, #2
 8000430:	61bb      	str	r3, [r7, #24]
  RCC_ClkInitStruct.AHBCLKDivider = RCC_SYSCLK_DIV1;
 8000432:	2300      	movs	r3, #0
 8000434:	61fb      	str	r3, [r7, #28]
  RCC_ClkInitStruct.APB1CLKDivider = RCC_HCLK_DIV2;
 8000436:	f44f 6380 	mov.w	r3, #1024	@ 0x400
 800043a:	623b      	str	r3, [r7, #32]
  RCC_ClkInitStruct.APB2CLKDivider = RCC_HCLK_DIV1;
 800043c:	2300      	movs	r3, #0
 800043e:	627b      	str	r3, [r7, #36]	@ 0x24

  if (HAL_RCC_ClockConfig(&RCC_ClkInitStruct, FLASH_LATENCY_1) != HAL_OK)
 8000440:	f107 0314 	add.w	r3, r7, #20
 8000444:	2101      	movs	r1, #1
 8000446:	4618      	mov	r0, r3
 8000448:	f002 fd30 	bl	8002eac <HAL_RCC_ClockConfig>
 800044c:	4603      	mov	r3, r0
 800044e:	2b00      	cmp	r3, #0
 8000450:	d001      	beq.n	8000456 <SystemClock_Config+0x92>
  {
    Error_Handler();
 8000452:	f000 f812 	bl	800047a <Error_Handler>
  }
  PeriphClkInit.PeriphClockSelection = RCC_PERIPHCLK_USB;
 8000456:	2310      	movs	r3, #16
 8000458:	607b      	str	r3, [r7, #4]
  PeriphClkInit.UsbClockSelection = RCC_USBCLKSOURCE_PLL;
 800045a:	f44f 0380 	mov.w	r3, #4194304	@ 0x400000
 800045e:	613b      	str	r3, [r7, #16]
  if (HAL_RCCEx_PeriphCLKConfig(&PeriphClkInit) != HAL_OK)
 8000460:	1d3b      	adds	r3, r7, #4
 8000462:	4618      	mov	r0, r3
 8000464:	f002 fe7e 	bl	8003164 <HAL_RCCEx_PeriphCLKConfig>
 8000468:	4603      	mov	r3, r0
 800046a:	2b00      	cmp	r3, #0
 800046c:	d001      	beq.n	8000472 <SystemClock_Config+0xae>
  {
    Error_Handler();
 800046e:	f000 f804 	bl	800047a <Error_Handler>
  }
}
 8000472:	bf00      	nop
 8000474:	3750      	adds	r7, #80	@ 0x50
 8000476:	46bd      	mov	sp, r7
 8000478:	bd80      	pop	{r7, pc}

0800047a <Error_Handler>:
/**
  * @brief  This function is executed in case of error occurrence.
  * @retval None
  */
void Error_Handler(void)
{
 800047a:	b480      	push	{r7}
 800047c:	af00      	add	r7, sp, #0
  \details Disables IRQ interrupts by setting the I-bit in the CPSR.
           Can only be executed in Privileged modes.
 */
__STATIC_FORCEINLINE void __disable_irq(void)
{
  __ASM volatile ("cpsid i" : : : "memory");
 800047e:	b672      	cpsid	i
}
 8000480:	bf00      	nop
  /* USER CODE BEGIN Error_Handler_Debug */
  /* User can add his own implementation to report the HAL error return state */
  __disable_irq();
  while (1)
 8000482:	bf00      	nop
 8000484:	e7fd      	b.n	8000482 <Error_Handler+0x8>
	...

08000488 <HAL_MspInit>:
/* USER CODE END 0 */
/**
  * Initializes the Global MSP.
  */
void HAL_MspInit(void)
{
 8000488:	b480      	push	{r7}
 800048a:	b085      	sub	sp, #20
 800048c:	af00      	add	r7, sp, #0

  /* USER CODE BEGIN MspInit 0 */

  /* USER CODE END MspInit 0 */

  __HAL_RCC_AFIO_CLK_ENABLE();
 800048e:	4b15      	ldr	r3, [pc, #84]	@ (80004e4 <HAL_MspInit+0x5c>)
 8000490:	699b      	ldr	r3, [r3, #24]
 8000492:	4a14      	ldr	r2, [pc, #80]	@ (80004e4 <HAL_MspInit+0x5c>)
 8000494:	f043 0301 	orr.w	r3, r3, #1
 8000498:	6193      	str	r3, [r2, #24]
 800049a:	4b12      	ldr	r3, [pc, #72]	@ (80004e4 <HAL_MspInit+0x5c>)
 800049c:	699b      	ldr	r3, [r3, #24]
 800049e:	f003 0301 	and.w	r3, r3, #1
 80004a2:	60bb      	str	r3, [r7, #8]
 80004a4:	68bb      	ldr	r3, [r7, #8]
  __HAL_RCC_PWR_CLK_ENABLE();
 80004a6:	4b0f      	ldr	r3, [pc, #60]	@ (80004e4 <HAL_MspInit+0x5c>)
 80004a8:	69db      	ldr	r3, [r3, #28]
 80004aa:	4a0e      	ldr	r2, [pc, #56]	@ (80004e4 <HAL_MspInit+0x5c>)
 80004ac:	f043 5380 	orr.w	r3, r3, #268435456	@ 0x10000000
 80004b0:	61d3      	str	r3, [r2, #28]
 80004b2:	4b0c      	ldr	r3, [pc, #48]	@ (80004e4 <HAL_MspInit+0x5c>)
 80004b4:	69db      	ldr	r3, [r3, #28]
 80004b6:	f003 5380 	and.w	r3, r3, #268435456	@ 0x10000000
 80004ba:	607b      	str	r3, [r7, #4]
 80004bc:	687b      	ldr	r3, [r7, #4]

  /* System interrupt init*/

  /** NOJTAG: JTAG-DP Disabled and SW-DP Enabled
  */
  __HAL_AFIO_REMAP_SWJ_NOJTAG();
 80004be:	4b0a      	ldr	r3, [pc, #40]	@ (80004e8 <HAL_MspInit+0x60>)
 80004c0:	685b      	ldr	r3, [r3, #4]
 80004c2:	60fb      	str	r3, [r7, #12]
 80004c4:	68fb      	ldr	r3, [r7, #12]
 80004c6:	f023 63e0 	bic.w	r3, r3, #117440512	@ 0x7000000
 80004ca:	60fb      	str	r3, [r7, #12]
 80004cc:	68fb      	ldr	r3, [r7, #12]
 80004ce:	f043 7300 	orr.w	r3, r3, #33554432	@ 0x2000000
 80004d2:	60fb      	str	r3, [r7, #12]
 80004d4:	4a04      	ldr	r2, [pc, #16]	@ (80004e8 <HAL_MspInit+0x60>)
 80004d6:	68fb      	ldr	r3, [r7, #12]
 80004d8:	6053      	str	r3, [r2, #4]

  /* USER CODE BEGIN MspInit 1 */

  /* USER CODE END MspInit 1 */
}
 80004da:	bf00      	nop
 80004dc:	3714      	adds	r7, #20
 80004de:	46bd      	mov	sp, r7
 80004e0:	bc80      	pop	{r7}
 80004e2:	4770      	bx	lr
 80004e4:	40021000 	.word	0x40021000
 80004e8:	40010000 	.word	0x40010000

080004ec <LL_USART_IsActiveFlag_RXNE>:
  * @rmtoll SR           RXNE          LL_USART_IsActiveFlag_RXNE
  * @param  USARTx USART Instance
  * @retval State of bit (1 or 0).
  */
__STATIC_INLINE uint32_t LL_USART_IsActiveFlag_RXNE(const USART_TypeDef *USARTx)
{
 80004ec:	b480      	push	{r7}
 80004ee:	b083      	sub	sp, #12
 80004f0:	af00      	add	r7, sp, #0
 80004f2:	6078      	str	r0, [r7, #4]
  return (READ_BIT(USARTx->SR, USART_SR_RXNE) == (USART_SR_RXNE));
 80004f4:	687b      	ldr	r3, [r7, #4]
 80004f6:	681b      	ldr	r3, [r3, #0]
 80004f8:	f003 0320 	and.w	r3, r3, #32
 80004fc:	2b20      	cmp	r3, #32
 80004fe:	bf0c      	ite	eq
 8000500:	2301      	moveq	r3, #1
 8000502:	2300      	movne	r3, #0
 8000504:	b2db      	uxtb	r3, r3
}
 8000506:	4618      	mov	r0, r3
 8000508:	370c      	adds	r7, #12
 800050a:	46bd      	mov	sp, r7
 800050c:	bc80      	pop	{r7}
 800050e:	4770      	bx	lr

08000510 <LL_USART_IsEnabledIT_RXNE>:
  * @rmtoll CR1          RXNEIE        LL_USART_IsEnabledIT_RXNE
  * @param  USARTx USART Instance
  * @retval State of bit (1 or 0).
  */
__STATIC_INLINE uint32_t LL_USART_IsEnabledIT_RXNE(const USART_TypeDef *USARTx)
{
 8000510:	b480      	push	{r7}
 8000512:	b083      	sub	sp, #12
 8000514:	af00      	add	r7, sp, #0
 8000516:	6078      	str	r0, [r7, #4]
  return (READ_BIT(USARTx->CR1, USART_CR1_RXNEIE) == (USART_CR1_RXNEIE));
 8000518:	687b      	ldr	r3, [r7, #4]
 800051a:	68db      	ldr	r3, [r3, #12]
 800051c:	f003 0320 	and.w	r3, r3, #32
 8000520:	2b20      	cmp	r3, #32
 8000522:	bf0c      	ite	eq
 8000524:	2301      	moveq	r3, #1
 8000526:	2300      	movne	r3, #0
 8000528:	b2db      	uxtb	r3, r3
}
 800052a:	4618      	mov	r0, r3
 800052c:	370c      	adds	r7, #12
 800052e:	46bd      	mov	sp, r7
 8000530:	bc80      	pop	{r7}
 8000532:	4770      	bx	lr

08000534 <NMI_Handler>:
/******************************************************************************/
/**
  * @brief This function handles Non maskable interrupt.
  */
void NMI_Handler(void)
{
 8000534:	b480      	push	{r7}
 8000536:	af00      	add	r7, sp, #0
  /* USER CODE BEGIN NonMaskableInt_IRQn 0 */

  /* USER CODE END NonMaskableInt_IRQn 0 */
  /* USER CODE BEGIN NonMaskableInt_IRQn 1 */
   while (1)
 8000538:	bf00      	nop
 800053a:	e7fd      	b.n	8000538 <NMI_Handler+0x4>

0800053c <HardFault_Handler>:

/**
  * @brief This function handles Hard fault interrupt.
  */
void HardFault_Handler(void)
{
 800053c:	b480      	push	{r7}
 800053e:	af00      	add	r7, sp, #0
  /* USER CODE BEGIN HardFault_IRQn 0 */

  /* USER CODE END HardFault_IRQn 0 */
  while (1)
 8000540:	bf00      	nop
 8000542:	e7fd      	b.n	8000540 <HardFault_Handler+0x4>

08000544 <MemManage_Handler>:

/**
  * @brief This function handles Memory management fault.
  */
void MemManage_Handler(void)
{
 8000544:	b480      	push	{r7}
 8000546:	af00      	add	r7, sp, #0
  /* USER CODE BEGIN MemoryManagement_IRQn 0 */

  /* USER CODE END MemoryManagement_IRQn 0 */
  while (1)
 8000548:	bf00      	nop
 800054a:	e7fd      	b.n	8000548 <MemManage_Handler+0x4>

0800054c <BusFault_Handler>:

/**
  * @brief This function handles Prefetch fault, memory access fault.
  */
void BusFault_Handler(void)
{
 800054c:	b480      	push	{r7}
 800054e:	af00      	add	r7, sp, #0
  /* USER CODE BEGIN BusFault_IRQn 0 */

  /* USER CODE END BusFault_IRQn 0 */
  while (1)
 8000550:	bf00      	nop
 8000552:	e7fd      	b.n	8000550 <BusFault_Handler+0x4>

08000554 <UsageFault_Handler>:

/**
  * @brief This function handles Undefined instruction or illegal state.
  */
void UsageFault_Handler(void)
{
 8000554:	b480      	push	{r7}
 8000556:	af00      	add	r7, sp, #0
  /* USER CODE BEGIN UsageFault_IRQn 0 */

  /* USER CODE END UsageFault_IRQn 0 */
  while (1)
 8000558:	bf00      	nop
 800055a:	e7fd      	b.n	8000558 <UsageFault_Handler+0x4>

0800055c <SVC_Handler>:

/**
  * @brief This function handles System service call via SWI instruction.
  */
void SVC_Handler(void)
{
 800055c:	b480      	push	{r7}
 800055e:	af00      	add	r7, sp, #0

  /* USER CODE END SVCall_IRQn 0 */
  /* USER CODE BEGIN SVCall_IRQn 1 */

  /* USER CODE END SVCall_IRQn 1 */
}
 8000560:	bf00      	nop
 8000562:	46bd      	mov	sp, r7
 8000564:	bc80      	pop	{r7}
 8000566:	4770      	bx	lr

08000568 <DebugMon_Handler>:

/**
  * @brief This function handles Debug monitor.
  */
void DebugMon_Handler(void)
{
 8000568:	b480      	push	{r7}
 800056a:	af00      	add	r7, sp, #0

  /* USER CODE END DebugMonitor_IRQn 0 */
  /* USER CODE BEGIN DebugMonitor_IRQn 1 */

  /* USER CODE END DebugMonitor_IRQn 1 */
}
 800056c:	bf00      	nop
 800056e:	46bd      	mov	sp, r7
 8000570:	bc80      	pop	{r7}
 8000572:	4770      	bx	lr

08000574 <PendSV_Handler>:

/**
  * @brief This function handles Pendable request for system service.
  */
void PendSV_Handler(void)
{
 8000574:	b480      	push	{r7}
 8000576:	af00      	add	r7, sp, #0

  /* USER CODE END PendSV_IRQn 0 */
  /* USER CODE BEGIN PendSV_IRQn 1 */

  /* USER CODE END PendSV_IRQn 1 */
}
 8000578:	bf00      	nop
 800057a:	46bd      	mov	sp, r7
 800057c:	bc80      	pop	{r7}
 800057e:	4770      	bx	lr

08000580 <SysTick_Handler>:

/**
  * @brief This function handles System tick timer.
  */
void SysTick_Handler(void)
{
 8000580:	b580      	push	{r7, lr}
 8000582:	af00      	add	r7, sp, #0
  /* USER CODE BEGIN SysTick_IRQn 0 */

  /* USER CODE END SysTick_IRQn 0 */
  HAL_IncTick();
 8000584:	f000 f9c4 	bl	8000910 <HAL_IncTick>
  /* USER CODE BEGIN SysTick_IRQn 1 */

  /* USER CODE END SysTick_IRQn 1 */
}
 8000588:	bf00      	nop
 800058a:	bd80      	pop	{r7, pc}

0800058c <USB_LP_CAN1_RX0_IRQHandler>:

/**
  * @brief This function handles USB low priority or CAN RX0 interrupts.
  */
void USB_LP_CAN1_RX0_IRQHandler(void)
{
 800058c:	b580      	push	{r7, lr}
 800058e:	af00      	add	r7, sp, #0
  /* USER CODE BEGIN USB_LP_CAN1_RX0_IRQn 0 */

  /* USER CODE END USB_LP_CAN1_RX0_IRQn 0 */
  HAL_PCD_IRQHandler(&hpcd_USB_FS);
 8000590:	4802      	ldr	r0, [pc, #8]	@ (800059c <USB_LP_CAN1_RX0_IRQHandler+0x10>)
 8000592:	f000 fddc 	bl	800114e <HAL_PCD_IRQHandler>
  /* USER CODE BEGIN USB_LP_CAN1_RX0_IRQn 1 */

  /* USER CODE END USB_LP_CAN1_RX0_IRQn 1 */
}
 8000596:	bf00      	nop
 8000598:	bd80      	pop	{r7, pc}
 800059a:	bf00      	nop
 800059c:	20000698 	.word	0x20000698

080005a0 <USART1_IRQHandler>:

/**
  * @brief This function handles USART1 global interrupt.
  */
void USART1_IRQHandler(void)
{
 80005a0:	b580      	push	{r7, lr}
 80005a2:	af00      	add	r7, sp, #0
	HAL_GPIO_TogglePin(GPIOC, GPIO_PIN_13);
 80005a4:	f44f 5100 	mov.w	r1, #8192	@ 0x2000
 80005a8:	4809      	ldr	r0, [pc, #36]	@ (80005d0 <USART1_IRQHandler+0x30>)
 80005aa:	f000 fc9b 	bl	8000ee4 <HAL_GPIO_TogglePin>
	if (LL_USART_IsActiveFlag_RXNE(USART1) && LL_USART_IsEnabledIT_RXNE(USART1)) {
 80005ae:	4809      	ldr	r0, [pc, #36]	@ (80005d4 <USART1_IRQHandler+0x34>)
 80005b0:	f7ff ff9c 	bl	80004ec <LL_USART_IsActiveFlag_RXNE>
 80005b4:	4603      	mov	r3, r0
 80005b6:	2b00      	cmp	r3, #0
 80005b8:	d007      	beq.n	80005ca <USART1_IRQHandler+0x2a>
 80005ba:	4806      	ldr	r0, [pc, #24]	@ (80005d4 <USART1_IRQHandler+0x34>)
 80005bc:	f7ff ffa8 	bl	8000510 <LL_USART_IsEnabledIT_RXNE>
 80005c0:	4603      	mov	r3, r0
 80005c2:	2b00      	cmp	r3, #0
 80005c4:	d001      	beq.n	80005ca <USART1_IRQHandler+0x2a>
			UsartCallback();
 80005c6:	f7ff fdc1 	bl	800014c <UsartCallback>
	}
}
 80005ca:	bf00      	nop
 80005cc:	bd80      	pop	{r7, pc}
 80005ce:	bf00      	nop
 80005d0:	40011000 	.word	0x40011000
 80005d4:	40013800 	.word	0x40013800

080005d8 <SystemInit>:
  * @note   This function should be used only after reset.
  * @param  None
  * @retval None
  */
void SystemInit (void)
{
 80005d8:	b480      	push	{r7}
 80005da:	af00      	add	r7, sp, #0

  /* Configure the Vector Table location -------------------------------------*/
#if defined(USER_VECT_TAB_ADDRESS)
  SCB->VTOR = VECT_TAB_BASE_ADDRESS | VECT_TAB_OFFSET; /* Vector Table Relocation in Internal SRAM. */
#endif /* USER_VECT_TAB_ADDRESS */
}
 80005dc:	bf00      	nop
 80005de:	46bd      	mov	sp, r7
 80005e0:	bc80      	pop	{r7}
 80005e2:	4770      	bx	lr

080005e4 <__NVIC_GetPriorityGrouping>:
  \brief   Get Priority Grouping
  \details Reads the priority grouping field from the NVIC Interrupt Controller.
  \return                Priority grouping field (SCB->AIRCR [10:8] PRIGROUP field).
 */
__STATIC_INLINE uint32_t __NVIC_GetPriorityGrouping(void)
{
 80005e4:	b480      	push	{r7}
 80005e6:	af00      	add	r7, sp, #0
  return ((uint32_t)((SCB->AIRCR & SCB_AIRCR_PRIGROUP_Msk) >> SCB_AIRCR_PRIGROUP_Pos));
 80005e8:	4b04      	ldr	r3, [pc, #16]	@ (80005fc <__NVIC_GetPriorityGrouping+0x18>)
 80005ea:	68db      	ldr	r3, [r3, #12]
 80005ec:	0a1b      	lsrs	r3, r3, #8
 80005ee:	f003 0307 	and.w	r3, r3, #7
}
 80005f2:	4618      	mov	r0, r3
 80005f4:	46bd      	mov	sp, r7
 80005f6:	bc80      	pop	{r7}
 80005f8:	4770      	bx	lr
 80005fa:	bf00      	nop
 80005fc:	e000ed00 	.word	0xe000ed00

08000600 <__NVIC_EnableIRQ>:
  \details Enables a device specific interrupt in the NVIC interrupt controller.
  \param [in]      IRQn  Device specific interrupt number.
  \note    IRQn must not be negative.
 */
__STATIC_INLINE void __NVIC_EnableIRQ(IRQn_Type IRQn)
{
 8000600:	b480      	push	{r7}
 8000602:	b083      	sub	sp, #12
 8000604:	af00      	add	r7, sp, #0
 8000606:	4603      	mov	r3, r0
 8000608:	71fb      	strb	r3, [r7, #7]
  if ((int32_t)(IRQn) >= 0)
 800060a:	f997 3007 	ldrsb.w	r3, [r7, #7]
 800060e:	2b00      	cmp	r3, #0
 8000610:	db0b      	blt.n	800062a <__NVIC_EnableIRQ+0x2a>
  {
    NVIC->ISER[(((uint32_t)IRQn) >> 5UL)] = (uint32_t)(1UL << (((uint32_t)IRQn) & 0x1FUL));
 8000612:	79fb      	ldrb	r3, [r7, #7]
 8000614:	f003 021f 	and.w	r2, r3, #31
 8000618:	4906      	ldr	r1, [pc, #24]	@ (8000634 <__NVIC_EnableIRQ+0x34>)
 800061a:	f997 3007 	ldrsb.w	r3, [r7, #7]
 800061e:	095b      	lsrs	r3, r3, #5
 8000620:	2001      	movs	r0, #1
 8000622:	fa00 f202 	lsl.w	r2, r0, r2
 8000626:	f841 2023 	str.w	r2, [r1, r3, lsl #2]
  }
}
 800062a:	bf00      	nop
 800062c:	370c      	adds	r7, #12
 800062e:	46bd      	mov	sp, r7
 8000630:	bc80      	pop	{r7}
 8000632:	4770      	bx	lr
 8000634:	e000e100 	.word	0xe000e100

08000638 <__NVIC_SetPriority>:
  \param [in]      IRQn  Interrupt number.
  \param [in]  priority  Priority to set.
  \note    The priority cannot be set for every processor exception.
 */
__STATIC_INLINE void __NVIC_SetPriority(IRQn_Type IRQn, uint32_t priority)
{
 8000638:	b480      	push	{r7}
 800063a:	b083      	sub	sp, #12
 800063c:	af00      	add	r7, sp, #0
 800063e:	4603      	mov	r3, r0
 8000640:	6039      	str	r1, [r7, #0]
 8000642:	71fb      	strb	r3, [r7, #7]
  if ((int32_t)(IRQn) >= 0)
 8000644:	f997 3007 	ldrsb.w	r3, [r7, #7]
 8000648:	2b00      	cmp	r3, #0
 800064a:	db0a      	blt.n	8000662 <__NVIC_SetPriority+0x2a>
  {
    NVIC->IP[((uint32_t)IRQn)]               = (uint8_t)((priority << (8U - __NVIC_PRIO_BITS)) & (uint32_t)0xFFUL);
 800064c:	683b      	ldr	r3, [r7, #0]
 800064e:	b2da      	uxtb	r2, r3
 8000650:	490c      	ldr	r1, [pc, #48]	@ (8000684 <__NVIC_SetPriority+0x4c>)
 8000652:	f997 3007 	ldrsb.w	r3, [r7, #7]
 8000656:	0112      	lsls	r2, r2, #4
 8000658:	b2d2      	uxtb	r2, r2
 800065a:	440b      	add	r3, r1
 800065c:	f883 2300 	strb.w	r2, [r3, #768]	@ 0x300
  }
  else
  {
    SCB->SHP[(((uint32_t)IRQn) & 0xFUL)-4UL] = (uint8_t)((priority << (8U - __NVIC_PRIO_BITS)) & (uint32_t)0xFFUL);
  }
}
 8000660:	e00a      	b.n	8000678 <__NVIC_SetPriority+0x40>
    SCB->SHP[(((uint32_t)IRQn) & 0xFUL)-4UL] = (uint8_t)((priority << (8U - __NVIC_PRIO_BITS)) & (uint32_t)0xFFUL);
 8000662:	683b      	ldr	r3, [r7, #0]
 8000664:	b2da      	uxtb	r2, r3
 8000666:	4908      	ldr	r1, [pc, #32]	@ (8000688 <__NVIC_SetPriority+0x50>)
 8000668:	79fb      	ldrb	r3, [r7, #7]
 800066a:	f003 030f 	and.w	r3, r3, #15
 800066e:	3b04      	subs	r3, #4
 8000670:	0112      	lsls	r2, r2, #4
 8000672:	b2d2      	uxtb	r2, r2
 8000674:	440b      	add	r3, r1
 8000676:	761a      	strb	r2, [r3, #24]
}
 8000678:	bf00      	nop
 800067a:	370c      	adds	r7, #12
 800067c:	46bd      	mov	sp, r7
 800067e:	bc80      	pop	{r7}
 8000680:	4770      	bx	lr
 8000682:	bf00      	nop
 8000684:	e000e100 	.word	0xe000e100
 8000688:	e000ed00 	.word	0xe000ed00

0800068c <NVIC_EncodePriority>:
  \param [in]   PreemptPriority  Preemptive priority value (starting from 0).
  \param [in]       SubPriority  Subpriority value (starting from 0).
  \return                        Encoded priority. Value can be used in the function \ref NVIC_SetPriority().
 */
__STATIC_INLINE uint32_t NVIC_EncodePriority (uint32_t PriorityGroup, uint32_t PreemptPriority, uint32_t SubPriority)
{
 800068c:	b480      	push	{r7}
 800068e:	b089      	sub	sp, #36	@ 0x24
 8000690:	af00      	add	r7, sp, #0
 8000692:	60f8      	str	r0, [r7, #12]
 8000694:	60b9      	str	r1, [r7, #8]
 8000696:	607a      	str	r2, [r7, #4]
  uint32_t PriorityGroupTmp = (PriorityGroup & (uint32_t)0x07UL);   /* only values 0..7 are used          */
 8000698:	68fb      	ldr	r3, [r7, #12]
 800069a:	f003 0307 	and.w	r3, r3, #7
 800069e:	61fb      	str	r3, [r7, #28]
  uint32_t PreemptPriorityBits;
  uint32_t SubPriorityBits;

  PreemptPriorityBits = ((7UL - PriorityGroupTmp) > (uint32_t)(__NVIC_PRIO_BITS)) ? (uint32_t)(__NVIC_PRIO_BITS) : (uint32_t)(7UL - PriorityGroupTmp);
 80006a0:	69fb      	ldr	r3, [r7, #28]
 80006a2:	f1c3 0307 	rsb	r3, r3, #7
 80006a6:	2b04      	cmp	r3, #4
 80006a8:	bf28      	it	cs
 80006aa:	2304      	movcs	r3, #4
 80006ac:	61bb      	str	r3, [r7, #24]
  SubPriorityBits     = ((PriorityGroupTmp + (uint32_t)(__NVIC_PRIO_BITS)) < (uint32_t)7UL) ? (uint32_t)0UL : (uint32_t)((PriorityGroupTmp - 7UL) + (uint32_t)(__NVIC_PRIO_BITS));
 80006ae:	69fb      	ldr	r3, [r7, #28]
 80006b0:	3304      	adds	r3, #4
 80006b2:	2b06      	cmp	r3, #6
 80006b4:	d902      	bls.n	80006bc <NVIC_EncodePriority+0x30>
 80006b6:	69fb      	ldr	r3, [r7, #28]
 80006b8:	3b03      	subs	r3, #3
 80006ba:	e000      	b.n	80006be <NVIC_EncodePriority+0x32>
 80006bc:	2300      	movs	r3, #0
 80006be:	617b      	str	r3, [r7, #20]

  return (
           ((PreemptPriority & (uint32_t)((1UL << (PreemptPriorityBits)) - 1UL)) << SubPriorityBits) |
 80006c0:	f04f 32ff 	mov.w	r2, #4294967295
 80006c4:	69bb      	ldr	r3, [r7, #24]
 80006c6:	fa02 f303 	lsl.w	r3, r2, r3
 80006ca:	43da      	mvns	r2, r3
 80006cc:	68bb      	ldr	r3, [r7, #8]
 80006ce:	401a      	ands	r2, r3
 80006d0:	697b      	ldr	r3, [r7, #20]
 80006d2:	409a      	lsls	r2, r3
           ((SubPriority     & (uint32_t)((1UL << (SubPriorityBits    )) - 1UL)))
 80006d4:	f04f 31ff 	mov.w	r1, #4294967295
 80006d8:	697b      	ldr	r3, [r7, #20]
 80006da:	fa01 f303 	lsl.w	r3, r1, r3
 80006de:	43d9      	mvns	r1, r3
 80006e0:	687b      	ldr	r3, [r7, #4]
 80006e2:	400b      	ands	r3, r1
           ((PreemptPriority & (uint32_t)((1UL << (PreemptPriorityBits)) - 1UL)) << SubPriorityBits) |
 80006e4:	4313      	orrs	r3, r2
         );
}
 80006e6:	4618      	mov	r0, r3
 80006e8:	3724      	adds	r7, #36	@ 0x24
 80006ea:	46bd      	mov	sp, r7
 80006ec:	bc80      	pop	{r7}
 80006ee:	4770      	bx	lr

080006f0 <LL_USART_Enable>:
{
 80006f0:	b480      	push	{r7}
 80006f2:	b083      	sub	sp, #12
 80006f4:	af00      	add	r7, sp, #0
 80006f6:	6078      	str	r0, [r7, #4]
  SET_BIT(USARTx->CR1, USART_CR1_UE);
 80006f8:	687b      	ldr	r3, [r7, #4]
 80006fa:	68db      	ldr	r3, [r3, #12]
 80006fc:	f443 5200 	orr.w	r2, r3, #8192	@ 0x2000
 8000700:	687b      	ldr	r3, [r7, #4]
 8000702:	60da      	str	r2, [r3, #12]
}
 8000704:	bf00      	nop
 8000706:	370c      	adds	r7, #12
 8000708:	46bd      	mov	sp, r7
 800070a:	bc80      	pop	{r7}
 800070c:	4770      	bx	lr

0800070e <LL_USART_ConfigAsyncMode>:
{
 800070e:	b480      	push	{r7}
 8000710:	b083      	sub	sp, #12
 8000712:	af00      	add	r7, sp, #0
 8000714:	6078      	str	r0, [r7, #4]
  CLEAR_BIT(USARTx->CR2, (USART_CR2_LINEN | USART_CR2_CLKEN));
 8000716:	687b      	ldr	r3, [r7, #4]
 8000718:	691b      	ldr	r3, [r3, #16]
 800071a:	f423 4290 	bic.w	r2, r3, #18432	@ 0x4800
 800071e:	687b      	ldr	r3, [r7, #4]
 8000720:	611a      	str	r2, [r3, #16]
  CLEAR_BIT(USARTx->CR3, (USART_CR3_SCEN | USART_CR3_IREN | USART_CR3_HDSEL));
 8000722:	687b      	ldr	r3, [r7, #4]
 8000724:	695b      	ldr	r3, [r3, #20]
 8000726:	f023 022a 	bic.w	r2, r3, #42	@ 0x2a
 800072a:	687b      	ldr	r3, [r7, #4]
 800072c:	615a      	str	r2, [r3, #20]
}
 800072e:	bf00      	nop
 8000730:	370c      	adds	r7, #12
 8000732:	46bd      	mov	sp, r7
 8000734:	bc80      	pop	{r7}
 8000736:	4770      	bx	lr

08000738 <LL_APB2_GRP1_EnableClock>:
  *
  *         (*) value not defined in all devices.
  * @retval None
*/
__STATIC_INLINE void LL_APB2_GRP1_EnableClock(uint32_t Periphs)
{
 8000738:	b480      	push	{r7}
 800073a:	b085      	sub	sp, #20
 800073c:	af00      	add	r7, sp, #0
 800073e:	6078      	str	r0, [r7, #4]
  __IO uint32_t tmpreg;
  SET_BIT(RCC->APB2ENR, Periphs);
 8000740:	4b08      	ldr	r3, [pc, #32]	@ (8000764 <LL_APB2_GRP1_EnableClock+0x2c>)
 8000742:	699a      	ldr	r2, [r3, #24]
 8000744:	4907      	ldr	r1, [pc, #28]	@ (8000764 <LL_APB2_GRP1_EnableClock+0x2c>)
 8000746:	687b      	ldr	r3, [r7, #4]
 8000748:	4313      	orrs	r3, r2
 800074a:	618b      	str	r3, [r1, #24]
  /* Delay after an RCC peripheral clock enabling */
  tmpreg = READ_BIT(RCC->APB2ENR, Periphs);
 800074c:	4b05      	ldr	r3, [pc, #20]	@ (8000764 <LL_APB2_GRP1_EnableClock+0x2c>)
 800074e:	699a      	ldr	r2, [r3, #24]
 8000750:	687b      	ldr	r3, [r7, #4]
 8000752:	4013      	ands	r3, r2
 8000754:	60fb      	str	r3, [r7, #12]
  (void)tmpreg;
 8000756:	68fb      	ldr	r3, [r7, #12]
}
 8000758:	bf00      	nop
 800075a:	3714      	adds	r7, #20
 800075c:	46bd      	mov	sp, r7
 800075e:	bc80      	pop	{r7}
 8000760:	4770      	bx	lr
 8000762:	bf00      	nop
 8000764:	40021000 	.word	0x40021000

08000768 <MX_USART1_UART_Init>:
/* USER CODE END 0 */

/* USART1 init function */

void MX_USART1_UART_Init(void)
{
 8000768:	b580      	push	{r7, lr}
 800076a:	b08c      	sub	sp, #48	@ 0x30
 800076c:	af00      	add	r7, sp, #0

  /* USER CODE BEGIN USART1_Init 0 */

  /* USER CODE END USART1_Init 0 */

  LL_USART_InitTypeDef USART_InitStruct = {0};
 800076e:	f107 0314 	add.w	r3, r7, #20
 8000772:	2200      	movs	r2, #0
 8000774:	601a      	str	r2, [r3, #0]
 8000776:	605a      	str	r2, [r3, #4]
 8000778:	609a      	str	r2, [r3, #8]
 800077a:	60da      	str	r2, [r3, #12]
 800077c:	611a      	str	r2, [r3, #16]
 800077e:	615a      	str	r2, [r3, #20]
 8000780:	619a      	str	r2, [r3, #24]

  LL_GPIO_InitTypeDef GPIO_InitStruct = {0};
 8000782:	463b      	mov	r3, r7
 8000784:	2200      	movs	r2, #0
 8000786:	601a      	str	r2, [r3, #0]
 8000788:	605a      	str	r2, [r3, #4]
 800078a:	609a      	str	r2, [r3, #8]
 800078c:	60da      	str	r2, [r3, #12]
 800078e:	611a      	str	r2, [r3, #16]

  /* Peripheral clock enable */
  LL_APB2_GRP1_EnableClock(LL_APB2_GRP1_PERIPH_USART1);
 8000790:	f44f 4080 	mov.w	r0, #16384	@ 0x4000
 8000794:	f7ff ffd0 	bl	8000738 <LL_APB2_GRP1_EnableClock>

  LL_APB2_GRP1_EnableClock(LL_APB2_GRP1_PERIPH_GPIOA);
 8000798:	2004      	movs	r0, #4
 800079a:	f7ff ffcd 	bl	8000738 <LL_APB2_GRP1_EnableClock>
  /**USART1 GPIO Configuration
  PA9   ------> USART1_TX
  PA10   ------> USART1_RX
  */
  GPIO_InitStruct.Pin = LL_GPIO_PIN_9;
 800079e:	4b22      	ldr	r3, [pc, #136]	@ (8000828 <MX_USART1_UART_Init+0xc0>)
 80007a0:	603b      	str	r3, [r7, #0]
  GPIO_InitStruct.Mode = LL_GPIO_MODE_ALTERNATE;
 80007a2:	2309      	movs	r3, #9
 80007a4:	607b      	str	r3, [r7, #4]
  GPIO_InitStruct.Speed = LL_GPIO_SPEED_FREQ_HIGH;
 80007a6:	2303      	movs	r3, #3
 80007a8:	60bb      	str	r3, [r7, #8]
  GPIO_InitStruct.OutputType = LL_GPIO_OUTPUT_PUSHPULL;
 80007aa:	2300      	movs	r3, #0
 80007ac:	60fb      	str	r3, [r7, #12]
  LL_GPIO_Init(GPIOA, &GPIO_InitStruct);
 80007ae:	463b      	mov	r3, r7
 80007b0:	4619      	mov	r1, r3
 80007b2:	481e      	ldr	r0, [pc, #120]	@ (800082c <MX_USART1_UART_Init+0xc4>)
 80007b4:	f002 fe44 	bl	8003440 <LL_GPIO_Init>

  GPIO_InitStruct.Pin = LL_GPIO_PIN_10;
 80007b8:	4b1d      	ldr	r3, [pc, #116]	@ (8000830 <MX_USART1_UART_Init+0xc8>)
 80007ba:	603b      	str	r3, [r7, #0]
  GPIO_InitStruct.Mode = LL_GPIO_MODE_FLOATING;
 80007bc:	2304      	movs	r3, #4
 80007be:	607b      	str	r3, [r7, #4]
  LL_GPIO_Init(GPIOA, &GPIO_InitStruct);
 80007c0:	463b      	mov	r3, r7
 80007c2:	4619      	mov	r1, r3
 80007c4:	4819      	ldr	r0, [pc, #100]	@ (800082c <MX_USART1_UART_Init+0xc4>)
 80007c6:	f002 fe3b 	bl	8003440 <LL_GPIO_Init>

  /* USART1 interrupt Init */
  NVIC_SetPriority(USART1_IRQn, NVIC_EncodePriority(NVIC_GetPriorityGrouping(),0, 0));
 80007ca:	f7ff ff0b 	bl	80005e4 <__NVIC_GetPriorityGrouping>
 80007ce:	4603      	mov	r3, r0
 80007d0:	2200      	movs	r2, #0
 80007d2:	2100      	movs	r1, #0
 80007d4:	4618      	mov	r0, r3
 80007d6:	f7ff ff59 	bl	800068c <NVIC_EncodePriority>
 80007da:	4603      	mov	r3, r0
 80007dc:	4619      	mov	r1, r3
 80007de:	2025      	movs	r0, #37	@ 0x25
 80007e0:	f7ff ff2a 	bl	8000638 <__NVIC_SetPriority>
  NVIC_EnableIRQ(USART1_IRQn);
 80007e4:	2025      	movs	r0, #37	@ 0x25
 80007e6:	f7ff ff0b 	bl	8000600 <__NVIC_EnableIRQ>

  /* USER CODE BEGIN USART1_Init 1 */

  /* USER CODE END USART1_Init 1 */
  USART_InitStruct.BaudRate = 115200;
 80007ea:	f44f 33e1 	mov.w	r3, #115200	@ 0x1c200
 80007ee:	617b      	str	r3, [r7, #20]
  USART_InitStruct.DataWidth = LL_USART_DATAWIDTH_8B;
 80007f0:	2300      	movs	r3, #0
 80007f2:	61bb      	str	r3, [r7, #24]
  USART_InitStruct.StopBits = LL_USART_STOPBITS_1;
 80007f4:	2300      	movs	r3, #0
 80007f6:	61fb      	str	r3, [r7, #28]
  USART_InitStruct.Parity = LL_USART_PARITY_NONE;
 80007f8:	2300      	movs	r3, #0
 80007fa:	623b      	str	r3, [r7, #32]
  USART_InitStruct.TransferDirection = LL_USART_DIRECTION_TX_RX;
 80007fc:	230c      	movs	r3, #12
 80007fe:	627b      	str	r3, [r7, #36]	@ 0x24
  USART_InitStruct.HardwareFlowControl = LL_USART_HWCONTROL_NONE;
 8000800:	2300      	movs	r3, #0
 8000802:	62bb      	str	r3, [r7, #40]	@ 0x28
  USART_InitStruct.OverSampling = LL_USART_OVERSAMPLING_16;
 8000804:	2300      	movs	r3, #0
 8000806:	62fb      	str	r3, [r7, #44]	@ 0x2c
  LL_USART_Init(USART1, &USART_InitStruct);
 8000808:	f107 0314 	add.w	r3, r7, #20
 800080c:	4619      	mov	r1, r3
 800080e:	4809      	ldr	r0, [pc, #36]	@ (8000834 <MX_USART1_UART_Init+0xcc>)
 8000810:	f003 f824 	bl	800385c <LL_USART_Init>
  LL_USART_ConfigAsyncMode(USART1);
 8000814:	4807      	ldr	r0, [pc, #28]	@ (8000834 <MX_USART1_UART_Init+0xcc>)
 8000816:	f7ff ff7a 	bl	800070e <LL_USART_ConfigAsyncMode>
  LL_USART_Enable(USART1);
 800081a:	4806      	ldr	r0, [pc, #24]	@ (8000834 <MX_USART1_UART_Init+0xcc>)
 800081c:	f7ff ff68 	bl	80006f0 <LL_USART_Enable>
  /* USER CODE BEGIN USART1_Init 2 */

  /* USER CODE END USART1_Init 2 */

}
 8000820:	bf00      	nop
 8000822:	3730      	adds	r7, #48	@ 0x30
 8000824:	46bd      	mov	sp, r7
 8000826:	bd80      	pop	{r7, pc}
 8000828:	04020002 	.word	0x04020002
 800082c:	40010800 	.word	0x40010800
 8000830:	04040004 	.word	0x04040004
 8000834:	40013800 	.word	0x40013800

08000838 <Reset_Handler>:
  .weak Reset_Handler
  .type Reset_Handler, %function
Reset_Handler:

/* Call the clock system initialization function.*/
    bl  SystemInit
 8000838:	f7ff fece 	bl	80005d8 <SystemInit>

/* Copy the data segment initializers from flash to SRAM */
  ldr r0, =_sdata
 800083c:	480b      	ldr	r0, [pc, #44]	@ (800086c <LoopFillZerobss+0xe>)
  ldr r1, =_edata
 800083e:	490c      	ldr	r1, [pc, #48]	@ (8000870 <LoopFillZerobss+0x12>)
  ldr r2, =_sidata
 8000840:	4a0c      	ldr	r2, [pc, #48]	@ (8000874 <LoopFillZerobss+0x16>)
  movs r3, #0
 8000842:	2300      	movs	r3, #0
  b LoopCopyDataInit
 8000844:	e002      	b.n	800084c <LoopCopyDataInit>

08000846 <CopyDataInit>:

CopyDataInit:
  ldr r4, [r2, r3]
 8000846:	58d4      	ldr	r4, [r2, r3]
  str r4, [r0, r3]
 8000848:	50c4      	str	r4, [r0, r3]
  adds r3, r3, #4
 800084a:	3304      	adds	r3, #4

0800084c <LoopCopyDataInit>:

LoopCopyDataInit:
  adds r4, r0, r3
 800084c:	18c4      	adds	r4, r0, r3
  cmp r4, r1
 800084e:	428c      	cmp	r4, r1
  bcc CopyDataInit
 8000850:	d3f9      	bcc.n	8000846 <CopyDataInit>
  
/* Zero fill the bss segment. */
  ldr r2, =_sbss
 8000852:	4a09      	ldr	r2, [pc, #36]	@ (8000878 <LoopFillZerobss+0x1a>)
  ldr r4, =_ebss
 8000854:	4c09      	ldr	r4, [pc, #36]	@ (800087c <LoopFillZerobss+0x1e>)
  movs r3, #0
 8000856:	2300      	movs	r3, #0
  b LoopFillZerobss
 8000858:	e001      	b.n	800085e <LoopFillZerobss>

0800085a <FillZerobss>:

FillZerobss:
  str  r3, [r2]
 800085a:	6013      	str	r3, [r2, #0]
  adds r2, r2, #4
 800085c:	3204      	adds	r2, #4

0800085e <LoopFillZerobss>:

LoopFillZerobss:
  cmp r2, r4
 800085e:	42a2      	cmp	r2, r4
  bcc FillZerobss
 8000860:	d3fb      	bcc.n	800085a <FillZerobss>

/* Call static constructors */
    bl __libc_init_array
 8000862:	f007 f9c1 	bl	8007be8 <__libc_init_array>
/* Call the application's entry point.*/
  bl main
 8000866:	f7ff fd8b 	bl	8000380 <main>
  bx lr
 800086a:	4770      	bx	lr
  ldr r0, =_sdata
 800086c:	20000000 	.word	0x20000000
  ldr r1, =_edata
 8000870:	2000018c 	.word	0x2000018c
  ldr r2, =_sidata
 8000874:	08007cb4 	.word	0x08007cb4
  ldr r2, =_sbss
 8000878:	2000018c 	.word	0x2000018c
  ldr r4, =_ebss
 800087c:	20000984 	.word	0x20000984

08000880 <ADC1_2_IRQHandler>:
 * @retval : None
*/
    .section .text.Default_Handler,"ax",%progbits
Default_Handler:
Infinite_Loop:
  b Infinite_Loop
 8000880:	e7fe      	b.n	8000880 <ADC1_2_IRQHandler>
	...

08000884 <HAL_Init>:
  *         need to ensure that the SysTick time base is always set to 1 millisecond
  *         to have correct HAL operation.
  * @retval HAL status
  */
HAL_StatusTypeDef HAL_Init(void)
{
 8000884:	b580      	push	{r7, lr}
 8000886:	af00      	add	r7, sp, #0
    defined(STM32F102x6) || defined(STM32F102xB) || \
    defined(STM32F103x6) || defined(STM32F103xB) || defined(STM32F103xE) || defined(STM32F103xG) || \
    defined(STM32F105xC) || defined(STM32F107xC)

  /* Prefetch buffer is not available on value line devices */
  __HAL_FLASH_PREFETCH_BUFFER_ENABLE();
 8000888:	4b08      	ldr	r3, [pc, #32]	@ (80008ac <HAL_Init+0x28>)
 800088a:	681b      	ldr	r3, [r3, #0]
 800088c:	4a07      	ldr	r2, [pc, #28]	@ (80008ac <HAL_Init+0x28>)
 800088e:	f043 0310 	orr.w	r3, r3, #16
 8000892:	6013      	str	r3, [r2, #0]
#endif
#endif /* PREFETCH_ENABLE */

  /* Set Interrupt Group Priority */
  HAL_NVIC_SetPriorityGrouping(NVIC_PRIORITYGROUP_4);
 8000894:	2003      	movs	r0, #3
 8000896:	f000 f947 	bl	8000b28 <HAL_NVIC_SetPriorityGrouping>

  /* Use systick as time base source and configure 1ms tick (default clock after Reset is HSI) */
  HAL_InitTick(TICK_INT_PRIORITY);
 800089a:	200f      	movs	r0, #15
 800089c:	f000 f808 	bl	80008b0 <HAL_InitTick>

  /* Init the low level hardware */
  HAL_MspInit();
 80008a0:	f7ff fdf2 	bl	8000488 <HAL_MspInit>

  /* Return function status */
  return HAL_OK;
 80008a4:	2300      	movs	r3, #0
}
 80008a6:	4618      	mov	r0, r3
 80008a8:	bd80      	pop	{r7, pc}
 80008aa:	bf00      	nop
 80008ac:	40022000 	.word	0x40022000

080008b0 <HAL_InitTick>:
  *       implementation  in user file.
  * @param TickPriority Tick interrupt priority.
  * @retval HAL status
  */
__weak HAL_StatusTypeDef HAL_InitTick(uint32_t TickPriority)
{
 80008b0:	b580      	push	{r7, lr}
 80008b2:	b082      	sub	sp, #8
 80008b4:	af00      	add	r7, sp, #0
 80008b6:	6078      	str	r0, [r7, #4]
  /* Configure the SysTick to have interrupt in 1ms time basis*/
  if (HAL_SYSTICK_Config(SystemCoreClock / (1000U / uwTickFreq)) > 0U)
 80008b8:	4b12      	ldr	r3, [pc, #72]	@ (8000904 <HAL_InitTick+0x54>)
 80008ba:	681a      	ldr	r2, [r3, #0]
 80008bc:	4b12      	ldr	r3, [pc, #72]	@ (8000908 <HAL_InitTick+0x58>)
 80008be:	781b      	ldrb	r3, [r3, #0]
 80008c0:	4619      	mov	r1, r3
 80008c2:	f44f 737a 	mov.w	r3, #1000	@ 0x3e8
 80008c6:	fbb3 f3f1 	udiv	r3, r3, r1
 80008ca:	fbb2 f3f3 	udiv	r3, r2, r3
 80008ce:	4618      	mov	r0, r3
 80008d0:	f000 f95f 	bl	8000b92 <HAL_SYSTICK_Config>
 80008d4:	4603      	mov	r3, r0
 80008d6:	2b00      	cmp	r3, #0
 80008d8:	d001      	beq.n	80008de <HAL_InitTick+0x2e>
  {
    return HAL_ERROR;
 80008da:	2301      	movs	r3, #1
 80008dc:	e00e      	b.n	80008fc <HAL_InitTick+0x4c>
  }

  /* Configure the SysTick IRQ priority */
  if (TickPriority < (1UL << __NVIC_PRIO_BITS))
 80008de:	687b      	ldr	r3, [r7, #4]
 80008e0:	2b0f      	cmp	r3, #15
 80008e2:	d80a      	bhi.n	80008fa <HAL_InitTick+0x4a>
  {
    HAL_NVIC_SetPriority(SysTick_IRQn, TickPriority, 0U);
 80008e4:	2200      	movs	r2, #0
 80008e6:	6879      	ldr	r1, [r7, #4]
 80008e8:	f04f 30ff 	mov.w	r0, #4294967295
 80008ec:	f000 f927 	bl	8000b3e <HAL_NVIC_SetPriority>
    uwTickPrio = TickPriority;
 80008f0:	4a06      	ldr	r2, [pc, #24]	@ (800090c <HAL_InitTick+0x5c>)
 80008f2:	687b      	ldr	r3, [r7, #4]
 80008f4:	6013      	str	r3, [r2, #0]
  {
    return HAL_ERROR;
  }

  /* Return function status */
  return HAL_OK;
 80008f6:	2300      	movs	r3, #0
 80008f8:	e000      	b.n	80008fc <HAL_InitTick+0x4c>
    return HAL_ERROR;
 80008fa:	2301      	movs	r3, #1
}
 80008fc:	4618      	mov	r0, r3
 80008fe:	3708      	adds	r7, #8
 8000900:	46bd      	mov	sp, r7
 8000902:	bd80      	pop	{r7, pc}
 8000904:	20000000 	.word	0x20000000
 8000908:	20000008 	.word	0x20000008
 800090c:	20000004 	.word	0x20000004

08000910 <HAL_IncTick>:
  * @note This function is declared as __weak to be overwritten in case of other
  *      implementations in user file.
  * @retval None
  */
__weak void HAL_IncTick(void)
{
 8000910:	b480      	push	{r7}
 8000912:	af00      	add	r7, sp, #0
  uwTick += uwTickFreq;
 8000914:	4b05      	ldr	r3, [pc, #20]	@ (800092c <HAL_IncTick+0x1c>)
 8000916:	781b      	ldrb	r3, [r3, #0]
 8000918:	461a      	mov	r2, r3
 800091a:	4b05      	ldr	r3, [pc, #20]	@ (8000930 <HAL_IncTick+0x20>)
 800091c:	681b      	ldr	r3, [r3, #0]
 800091e:	4413      	add	r3, r2
 8000920:	4a03      	ldr	r2, [pc, #12]	@ (8000930 <HAL_IncTick+0x20>)
 8000922:	6013      	str	r3, [r2, #0]
}
 8000924:	bf00      	nop
 8000926:	46bd      	mov	sp, r7
 8000928:	bc80      	pop	{r7}
 800092a:	4770      	bx	lr
 800092c:	20000008 	.word	0x20000008
 8000930:	200001cc 	.word	0x200001cc

08000934 <HAL_GetTick>:
  * @note  This function is declared as __weak to be overwritten in case of other
  *       implementations in user file.
  * @retval tick value
  */
__weak uint32_t HAL_GetTick(void)
{
 8000934:	b480      	push	{r7}
 8000936:	af00      	add	r7, sp, #0
  return uwTick;
 8000938:	4b02      	ldr	r3, [pc, #8]	@ (8000944 <HAL_GetTick+0x10>)
 800093a:	681b      	ldr	r3, [r3, #0]
}
 800093c:	4618      	mov	r0, r3
 800093e:	46bd      	mov	sp, r7
 8000940:	bc80      	pop	{r7}
 8000942:	4770      	bx	lr
 8000944:	200001cc 	.word	0x200001cc

08000948 <HAL_Delay>:
  *       implementations in user file.
  * @param Delay specifies the delay time length, in milliseconds.
  * @retval None
  */
__weak void HAL_Delay(uint32_t Delay)
{
 8000948:	b580      	push	{r7, lr}
 800094a:	b084      	sub	sp, #16
 800094c:	af00      	add	r7, sp, #0
 800094e:	6078      	str	r0, [r7, #4]
  uint32_t tickstart = HAL_GetTick();
 8000950:	f7ff fff0 	bl	8000934 <HAL_GetTick>
 8000954:	60b8      	str	r0, [r7, #8]
  uint32_t wait = Delay;
 8000956:	687b      	ldr	r3, [r7, #4]
 8000958:	60fb      	str	r3, [r7, #12]

  /* Add a freq to guarantee minimum wait */
  if (wait < HAL_MAX_DELAY)
 800095a:	68fb      	ldr	r3, [r7, #12]
 800095c:	f1b3 3fff 	cmp.w	r3, #4294967295
 8000960:	d005      	beq.n	800096e <HAL_Delay+0x26>
  {
    wait += (uint32_t)(uwTickFreq);
 8000962:	4b0a      	ldr	r3, [pc, #40]	@ (800098c <HAL_Delay+0x44>)
 8000964:	781b      	ldrb	r3, [r3, #0]
 8000966:	461a      	mov	r2, r3
 8000968:	68fb      	ldr	r3, [r7, #12]
 800096a:	4413      	add	r3, r2
 800096c:	60fb      	str	r3, [r7, #12]
  }

  while ((HAL_GetTick() - tickstart) < wait)
 800096e:	bf00      	nop
 8000970:	f7ff ffe0 	bl	8000934 <HAL_GetTick>
 8000974:	4602      	mov	r2, r0
 8000976:	68bb      	ldr	r3, [r7, #8]
 8000978:	1ad3      	subs	r3, r2, r3
 800097a:	68fa      	ldr	r2, [r7, #12]
 800097c:	429a      	cmp	r2, r3
 800097e:	d8f7      	bhi.n	8000970 <HAL_Delay+0x28>
  {
  }
}
 8000980:	bf00      	nop
 8000982:	bf00      	nop
 8000984:	3710      	adds	r7, #16
 8000986:	46bd      	mov	sp, r7
 8000988:	bd80      	pop	{r7, pc}
 800098a:	bf00      	nop
 800098c:	20000008 	.word	0x20000008

08000990 <__NVIC_SetPriorityGrouping>:
{
 8000990:	b480      	push	{r7}
 8000992:	b085      	sub	sp, #20
 8000994:	af00      	add	r7, sp, #0
 8000996:	6078      	str	r0, [r7, #4]
  uint32_t PriorityGroupTmp = (PriorityGroup & (uint32_t)0x07UL);             /* only values 0..7 are used          */
 8000998:	687b      	ldr	r3, [r7, #4]
 800099a:	f003 0307 	and.w	r3, r3, #7
 800099e:	60fb      	str	r3, [r7, #12]
  reg_value  =  SCB->AIRCR;                                                   /* read old register configuration    */
 80009a0:	4b0c      	ldr	r3, [pc, #48]	@ (80009d4 <__NVIC_SetPriorityGrouping+0x44>)
 80009a2:	68db      	ldr	r3, [r3, #12]
 80009a4:	60bb      	str	r3, [r7, #8]
  reg_value &= ~((uint32_t)(SCB_AIRCR_VECTKEY_Msk | SCB_AIRCR_PRIGROUP_Msk)); /* clear bits to change               */
 80009a6:	68ba      	ldr	r2, [r7, #8]
 80009a8:	f64f 03ff 	movw	r3, #63743	@ 0xf8ff
 80009ac:	4013      	ands	r3, r2
 80009ae:	60bb      	str	r3, [r7, #8]
                (PriorityGroupTmp << SCB_AIRCR_PRIGROUP_Pos) );               /* Insert write key and priority group */
 80009b0:	68fb      	ldr	r3, [r7, #12]
 80009b2:	021a      	lsls	r2, r3, #8
                ((uint32_t)0x5FAUL << SCB_AIRCR_VECTKEY_Pos) |
 80009b4:	68bb      	ldr	r3, [r7, #8]
 80009b6:	4313      	orrs	r3, r2
  reg_value  =  (reg_value                                   |
 80009b8:	f043 63bf 	orr.w	r3, r3, #100139008	@ 0x5f80000
 80009bc:	f443 3300 	orr.w	r3, r3, #131072	@ 0x20000
 80009c0:	60bb      	str	r3, [r7, #8]
  SCB->AIRCR =  reg_value;
 80009c2:	4a04      	ldr	r2, [pc, #16]	@ (80009d4 <__NVIC_SetPriorityGrouping+0x44>)
 80009c4:	68bb      	ldr	r3, [r7, #8]
 80009c6:	60d3      	str	r3, [r2, #12]
}
 80009c8:	bf00      	nop
 80009ca:	3714      	adds	r7, #20
 80009cc:	46bd      	mov	sp, r7
 80009ce:	bc80      	pop	{r7}
 80009d0:	4770      	bx	lr
 80009d2:	bf00      	nop
 80009d4:	e000ed00 	.word	0xe000ed00

080009d8 <__NVIC_GetPriorityGrouping>:
{
 80009d8:	b480      	push	{r7}
 80009da:	af00      	add	r7, sp, #0
  return ((uint32_t)((SCB->AIRCR & SCB_AIRCR_PRIGROUP_Msk) >> SCB_AIRCR_PRIGROUP_Pos));
 80009dc:	4b04      	ldr	r3, [pc, #16]	@ (80009f0 <__NVIC_GetPriorityGrouping+0x18>)
 80009de:	68db      	ldr	r3, [r3, #12]
 80009e0:	0a1b      	lsrs	r3, r3, #8
 80009e2:	f003 0307 	and.w	r3, r3, #7
}
 80009e6:	4618      	mov	r0, r3
 80009e8:	46bd      	mov	sp, r7
 80009ea:	bc80      	pop	{r7}
 80009ec:	4770      	bx	lr
 80009ee:	bf00      	nop
 80009f0:	e000ed00 	.word	0xe000ed00

080009f4 <__NVIC_EnableIRQ>:
{
 80009f4:	b480      	push	{r7}
 80009f6:	b083      	sub	sp, #12
 80009f8:	af00      	add	r7, sp, #0
 80009fa:	4603      	mov	r3, r0
 80009fc:	71fb      	strb	r3, [r7, #7]
  if ((int32_t)(IRQn) >= 0)
 80009fe:	f997 3007 	ldrsb.w	r3, [r7, #7]
 8000a02:	2b00      	cmp	r3, #0
 8000a04:	db0b      	blt.n	8000a1e <__NVIC_EnableIRQ+0x2a>
    NVIC->ISER[(((uint32_t)IRQn) >> 5UL)] = (uint32_t)(1UL << (((uint32_t)IRQn) & 0x1FUL));
 8000a06:	79fb      	ldrb	r3, [r7, #7]
 8000a08:	f003 021f 	and.w	r2, r3, #31
 8000a0c:	4906      	ldr	r1, [pc, #24]	@ (8000a28 <__NVIC_EnableIRQ+0x34>)
 8000a0e:	f997 3007 	ldrsb.w	r3, [r7, #7]
 8000a12:	095b      	lsrs	r3, r3, #5
 8000a14:	2001      	movs	r0, #1
 8000a16:	fa00 f202 	lsl.w	r2, r0, r2
 8000a1a:	f841 2023 	str.w	r2, [r1, r3, lsl #2]
}
 8000a1e:	bf00      	nop
 8000a20:	370c      	adds	r7, #12
 8000a22:	46bd      	mov	sp, r7
 8000a24:	bc80      	pop	{r7}
 8000a26:	4770      	bx	lr
 8000a28:	e000e100 	.word	0xe000e100

08000a2c <__NVIC_SetPriority>:
{
 8000a2c:	b480      	push	{r7}
 8000a2e:	b083      	sub	sp, #12
 8000a30:	af00      	add	r7, sp, #0
 8000a32:	4603      	mov	r3, r0
 8000a34:	6039      	str	r1, [r7, #0]
 8000a36:	71fb      	strb	r3, [r7, #7]
  if ((int32_t)(IRQn) >= 0)
 8000a38:	f997 3007 	ldrsb.w	r3, [r7, #7]
 8000a3c:	2b00      	cmp	r3, #0
 8000a3e:	db0a      	blt.n	8000a56 <__NVIC_SetPriority+0x2a>
    NVIC->IP[((uint32_t)IRQn)]               = (uint8_t)((priority << (8U - __NVIC_PRIO_BITS)) & (uint32_t)0xFFUL);
 8000a40:	683b      	ldr	r3, [r7, #0]
 8000a42:	b2da      	uxtb	r2, r3
 8000a44:	490c      	ldr	r1, [pc, #48]	@ (8000a78 <__NVIC_SetPriority+0x4c>)
 8000a46:	f997 3007 	ldrsb.w	r3, [r7, #7]
 8000a4a:	0112      	lsls	r2, r2, #4
 8000a4c:	b2d2      	uxtb	r2, r2
 8000a4e:	440b      	add	r3, r1
 8000a50:	f883 2300 	strb.w	r2, [r3, #768]	@ 0x300
}
 8000a54:	e00a      	b.n	8000a6c <__NVIC_SetPriority+0x40>
    SCB->SHP[(((uint32_t)IRQn) & 0xFUL)-4UL] = (uint8_t)((priority << (8U - __NVIC_PRIO_BITS)) & (uint32_t)0xFFUL);
 8000a56:	683b      	ldr	r3, [r7, #0]
 8000a58:	b2da      	uxtb	r2, r3
 8000a5a:	4908      	ldr	r1, [pc, #32]	@ (8000a7c <__NVIC_SetPriority+0x50>)
 8000a5c:	79fb      	ldrb	r3, [r7, #7]
 8000a5e:	f003 030f 	and.w	r3, r3, #15
 8000a62:	3b04      	subs	r3, #4
 8000a64:	0112      	lsls	r2, r2, #4
 8000a66:	b2d2      	uxtb	r2, r2
 8000a68:	440b      	add	r3, r1
 8000a6a:	761a      	strb	r2, [r3, #24]
}
 8000a6c:	bf00      	nop
 8000a6e:	370c      	adds	r7, #12
 8000a70:	46bd      	mov	sp, r7
 8000a72:	bc80      	pop	{r7}
 8000a74:	4770      	bx	lr
 8000a76:	bf00      	nop
 8000a78:	e000e100 	.word	0xe000e100
 8000a7c:	e000ed00 	.word	0xe000ed00

08000a80 <NVIC_EncodePriority>:
{
 8000a80:	b480      	push	{r7}
 8000a82:	b089      	sub	sp, #36	@ 0x24
 8000a84:	af00      	add	r7, sp, #0
 8000a86:	60f8      	str	r0, [r7, #12]
 8000a88:	60b9      	str	r1, [r7, #8]
 8000a8a:	607a      	str	r2, [r7, #4]
  uint32_t PriorityGroupTmp = (PriorityGroup & (uint32_t)0x07UL);   /* only values 0..7 are used          */
 8000a8c:	68fb      	ldr	r3, [r7, #12]
 8000a8e:	f003 0307 	and.w	r3, r3, #7
 8000a92:	61fb      	str	r3, [r7, #28]
  PreemptPriorityBits = ((7UL - PriorityGroupTmp) > (uint32_t)(__NVIC_PRIO_BITS)) ? (uint32_t)(__NVIC_PRIO_BITS) : (uint32_t)(7UL - PriorityGroupTmp);
 8000a94:	69fb      	ldr	r3, [r7, #28]
 8000a96:	f1c3 0307 	rsb	r3, r3, #7
 8000a9a:	2b04      	cmp	r3, #4
 8000a9c:	bf28      	it	cs
 8000a9e:	2304      	movcs	r3, #4
 8000aa0:	61bb      	str	r3, [r7, #24]
  SubPriorityBits     = ((PriorityGroupTmp + (uint32_t)(__NVIC_PRIO_BITS)) < (uint32_t)7UL) ? (uint32_t)0UL : (uint32_t)((PriorityGroupTmp - 7UL) + (uint32_t)(__NVIC_PRIO_BITS));
 8000aa2:	69fb      	ldr	r3, [r7, #28]
 8000aa4:	3304      	adds	r3, #4
 8000aa6:	2b06      	cmp	r3, #6
 8000aa8:	d902      	bls.n	8000ab0 <NVIC_EncodePriority+0x30>
 8000aaa:	69fb      	ldr	r3, [r7, #28]
 8000aac:	3b03      	subs	r3, #3
 8000aae:	e000      	b.n	8000ab2 <NVIC_EncodePriority+0x32>
 8000ab0:	2300      	movs	r3, #0
 8000ab2:	617b      	str	r3, [r7, #20]
           ((PreemptPriority & (uint32_t)((1UL << (PreemptPriorityBits)) - 1UL)) << SubPriorityBits) |
 8000ab4:	f04f 32ff 	mov.w	r2, #4294967295
 8000ab8:	69bb      	ldr	r3, [r7, #24]
 8000aba:	fa02 f303 	lsl.w	r3, r2, r3
 8000abe:	43da      	mvns	r2, r3
 8000ac0:	68bb      	ldr	r3, [r7, #8]
 8000ac2:	401a      	ands	r2, r3
 8000ac4:	697b      	ldr	r3, [r7, #20]
 8000ac6:	409a      	lsls	r2, r3
           ((SubPriority     & (uint32_t)((1UL << (SubPriorityBits    )) - 1UL)))
 8000ac8:	f04f 31ff 	mov.w	r1, #4294967295
 8000acc:	697b      	ldr	r3, [r7, #20]
 8000ace:	fa01 f303 	lsl.w	r3, r1, r3
 8000ad2:	43d9      	mvns	r1, r3
 8000ad4:	687b      	ldr	r3, [r7, #4]
 8000ad6:	400b      	ands	r3, r1
           ((PreemptPriority & (uint32_t)((1UL << (PreemptPriorityBits)) - 1UL)) << SubPriorityBits) |
 8000ad8:	4313      	orrs	r3, r2
}
 8000ada:	4618      	mov	r0, r3
 8000adc:	3724      	adds	r7, #36	@ 0x24
 8000ade:	46bd      	mov	sp, r7
 8000ae0:	bc80      	pop	{r7}
 8000ae2:	4770      	bx	lr

08000ae4 <SysTick_Config>:
  \note    When the variable <b>__Vendor_SysTickConfig</b> is set to 1, then the
           function <b>SysTick_Config</b> is not included. In this case, the file <b><i>device</i>.h</b>
           must contain a vendor-specific implementation of this function.
 */
__STATIC_INLINE uint32_t SysTick_Config(uint32_t ticks)
{
 8000ae4:	b580      	push	{r7, lr}
 8000ae6:	b082      	sub	sp, #8
 8000ae8:	af00      	add	r7, sp, #0
 8000aea:	6078      	str	r0, [r7, #4]
  if ((ticks - 1UL) > SysTick_LOAD_RELOAD_Msk)
 8000aec:	687b      	ldr	r3, [r7, #4]
 8000aee:	3b01      	subs	r3, #1
 8000af0:	f1b3 7f80 	cmp.w	r3, #16777216	@ 0x1000000
 8000af4:	d301      	bcc.n	8000afa <SysTick_Config+0x16>
  {
    return (1UL);                                                   /* Reload value impossible */
 8000af6:	2301      	movs	r3, #1
 8000af8:	e00f      	b.n	8000b1a <SysTick_Config+0x36>
  }

  SysTick->LOAD  = (uint32_t)(ticks - 1UL);                         /* set reload register */
 8000afa:	4a0a      	ldr	r2, [pc, #40]	@ (8000b24 <SysTick_Config+0x40>)
 8000afc:	687b      	ldr	r3, [r7, #4]
 8000afe:	3b01      	subs	r3, #1
 8000b00:	6053      	str	r3, [r2, #4]
  NVIC_SetPriority (SysTick_IRQn, (1UL << __NVIC_PRIO_BITS) - 1UL); /* set Priority for Systick Interrupt */
 8000b02:	210f      	movs	r1, #15
 8000b04:	f04f 30ff 	mov.w	r0, #4294967295
 8000b08:	f7ff ff90 	bl	8000a2c <__NVIC_SetPriority>
  SysTick->VAL   = 0UL;                                             /* Load the SysTick Counter Value */
 8000b0c:	4b05      	ldr	r3, [pc, #20]	@ (8000b24 <SysTick_Config+0x40>)
 8000b0e:	2200      	movs	r2, #0
 8000b10:	609a      	str	r2, [r3, #8]
  SysTick->CTRL  = SysTick_CTRL_CLKSOURCE_Msk |
 8000b12:	4b04      	ldr	r3, [pc, #16]	@ (8000b24 <SysTick_Config+0x40>)
 8000b14:	2207      	movs	r2, #7
 8000b16:	601a      	str	r2, [r3, #0]
                   SysTick_CTRL_TICKINT_Msk   |
                   SysTick_CTRL_ENABLE_Msk;                         /* Enable SysTick IRQ and SysTick Timer */
  return (0UL);                                                     /* Function successful */
 8000b18:	2300      	movs	r3, #0
}
 8000b1a:	4618      	mov	r0, r3
 8000b1c:	3708      	adds	r7, #8
 8000b1e:	46bd      	mov	sp, r7
 8000b20:	bd80      	pop	{r7, pc}
 8000b22:	bf00      	nop
 8000b24:	e000e010 	.word	0xe000e010

08000b28 <HAL_NVIC_SetPriorityGrouping>:
  * @note   When the NVIC_PriorityGroup_0 is selected, IRQ preemption is no more possible. 
  *         The pending IRQ priority will be managed only by the subpriority. 
  * @retval None
  */
void HAL_NVIC_SetPriorityGrouping(uint32_t PriorityGroup)
{
 8000b28:	b580      	push	{r7, lr}
 8000b2a:	b082      	sub	sp, #8
 8000b2c:	af00      	add	r7, sp, #0
 8000b2e:	6078      	str	r0, [r7, #4]
  /* Check the parameters */
  assert_param(IS_NVIC_PRIORITY_GROUP(PriorityGroup));
  
  /* Set the PRIGROUP[10:8] bits according to the PriorityGroup parameter value */
  NVIC_SetPriorityGrouping(PriorityGroup);
 8000b30:	6878      	ldr	r0, [r7, #4]
 8000b32:	f7ff ff2d 	bl	8000990 <__NVIC_SetPriorityGrouping>
}
 8000b36:	bf00      	nop
 8000b38:	3708      	adds	r7, #8
 8000b3a:	46bd      	mov	sp, r7
 8000b3c:	bd80      	pop	{r7, pc}

08000b3e <HAL_NVIC_SetPriority>:
  *         This parameter can be a value between 0 and 15
  *         A lower priority value indicates a higher priority.          
  * @retval None
  */
void HAL_NVIC_SetPriority(IRQn_Type IRQn, uint32_t PreemptPriority, uint32_t SubPriority)
{ 
 8000b3e:	b580      	push	{r7, lr}
 8000b40:	b086      	sub	sp, #24
 8000b42:	af00      	add	r7, sp, #0
 8000b44:	4603      	mov	r3, r0
 8000b46:	60b9      	str	r1, [r7, #8]
 8000b48:	607a      	str	r2, [r7, #4]
 8000b4a:	73fb      	strb	r3, [r7, #15]
  uint32_t prioritygroup = 0x00U;
 8000b4c:	2300      	movs	r3, #0
 8000b4e:	617b      	str	r3, [r7, #20]
  
  /* Check the parameters */
  assert_param(IS_NVIC_SUB_PRIORITY(SubPriority));
  assert_param(IS_NVIC_PREEMPTION_PRIORITY(PreemptPriority));
  
  prioritygroup = NVIC_GetPriorityGrouping();
 8000b50:	f7ff ff42 	bl	80009d8 <__NVIC_GetPriorityGrouping>
 8000b54:	6178      	str	r0, [r7, #20]
  
  NVIC_SetPriority(IRQn, NVIC_EncodePriority(prioritygroup, PreemptPriority, SubPriority));
 8000b56:	687a      	ldr	r2, [r7, #4]
 8000b58:	68b9      	ldr	r1, [r7, #8]
 8000b5a:	6978      	ldr	r0, [r7, #20]
 8000b5c:	f7ff ff90 	bl	8000a80 <NVIC_EncodePriority>
 8000b60:	4602      	mov	r2, r0
 8000b62:	f997 300f 	ldrsb.w	r3, [r7, #15]
 8000b66:	4611      	mov	r1, r2
 8000b68:	4618      	mov	r0, r3
 8000b6a:	f7ff ff5f 	bl	8000a2c <__NVIC_SetPriority>
}
 8000b6e:	bf00      	nop
 8000b70:	3718      	adds	r7, #24
 8000b72:	46bd      	mov	sp, r7
 8000b74:	bd80      	pop	{r7, pc}

08000b76 <HAL_NVIC_EnableIRQ>:
  *         This parameter can be an enumerator of IRQn_Type enumeration
  *         (For the complete STM32 Devices IRQ Channels list, please refer to the appropriate CMSIS device file (stm32f10xxx.h))
  * @retval None
  */
void HAL_NVIC_EnableIRQ(IRQn_Type IRQn)
{
 8000b76:	b580      	push	{r7, lr}
 8000b78:	b082      	sub	sp, #8
 8000b7a:	af00      	add	r7, sp, #0
 8000b7c:	4603      	mov	r3, r0
 8000b7e:	71fb      	strb	r3, [r7, #7]
  /* Check the parameters */
  assert_param(IS_NVIC_DEVICE_IRQ(IRQn));

  /* Enable interrupt */
  NVIC_EnableIRQ(IRQn);
 8000b80:	f997 3007 	ldrsb.w	r3, [r7, #7]
 8000b84:	4618      	mov	r0, r3
 8000b86:	f7ff ff35 	bl	80009f4 <__NVIC_EnableIRQ>
}
 8000b8a:	bf00      	nop
 8000b8c:	3708      	adds	r7, #8
 8000b8e:	46bd      	mov	sp, r7
 8000b90:	bd80      	pop	{r7, pc}

08000b92 <HAL_SYSTICK_Config>:
  * @param  TicksNumb: Specifies the ticks Number of ticks between two interrupts.
  * @retval status:  - 0  Function succeeded.
  *                  - 1  Function failed.
  */
uint32_t HAL_SYSTICK_Config(uint32_t TicksNumb)
{
 8000b92:	b580      	push	{r7, lr}
 8000b94:	b082      	sub	sp, #8
 8000b96:	af00      	add	r7, sp, #0
 8000b98:	6078      	str	r0, [r7, #4]
   return SysTick_Config(TicksNumb);
 8000b9a:	6878      	ldr	r0, [r7, #4]
 8000b9c:	f7ff ffa2 	bl	8000ae4 <SysTick_Config>
 8000ba0:	4603      	mov	r3, r0
}
 8000ba2:	4618      	mov	r0, r3
 8000ba4:	3708      	adds	r7, #8
 8000ba6:	46bd      	mov	sp, r7
 8000ba8:	bd80      	pop	{r7, pc}
	...

08000bac <HAL_GPIO_Init>:
  * @param  GPIO_Init: pointer to a GPIO_InitTypeDef structure that contains
  *         the configuration information for the specified GPIO peripheral.
  * @retval None
  */
void HAL_GPIO_Init(GPIO_TypeDef  *GPIOx, GPIO_InitTypeDef *GPIO_Init)
{
 8000bac:	b480      	push	{r7}
 8000bae:	b08b      	sub	sp, #44	@ 0x2c
 8000bb0:	af00      	add	r7, sp, #0
 8000bb2:	6078      	str	r0, [r7, #4]
 8000bb4:	6039      	str	r1, [r7, #0]
  uint32_t position = 0x00u;
 8000bb6:	2300      	movs	r3, #0
 8000bb8:	627b      	str	r3, [r7, #36]	@ 0x24
  uint32_t ioposition;
  uint32_t iocurrent;
  uint32_t temp;
  uint32_t config = 0x00u;
 8000bba:	2300      	movs	r3, #0
 8000bbc:	623b      	str	r3, [r7, #32]
  assert_param(IS_GPIO_ALL_INSTANCE(GPIOx));
  assert_param(IS_GPIO_PIN(GPIO_Init->Pin));
  assert_param(IS_GPIO_MODE(GPIO_Init->Mode));

  /* Configure the port pins */
  while (((GPIO_Init->Pin) >> position) != 0x00u)
 8000bbe:	e169      	b.n	8000e94 <HAL_GPIO_Init+0x2e8>
  {
    /* Get the IO position */
    ioposition = (0x01uL << position);
 8000bc0:	2201      	movs	r2, #1
 8000bc2:	6a7b      	ldr	r3, [r7, #36]	@ 0x24
 8000bc4:	fa02 f303 	lsl.w	r3, r2, r3
 8000bc8:	61fb      	str	r3, [r7, #28]

    /* Get the current IO position */
    iocurrent = (uint32_t)(GPIO_Init->Pin) & ioposition;
 8000bca:	683b      	ldr	r3, [r7, #0]
 8000bcc:	681b      	ldr	r3, [r3, #0]
 8000bce:	69fa      	ldr	r2, [r7, #28]
 8000bd0:	4013      	ands	r3, r2
 8000bd2:	61bb      	str	r3, [r7, #24]

    if (iocurrent == ioposition)
 8000bd4:	69ba      	ldr	r2, [r7, #24]
 8000bd6:	69fb      	ldr	r3, [r7, #28]
 8000bd8:	429a      	cmp	r2, r3
 8000bda:	f040 8158 	bne.w	8000e8e <HAL_GPIO_Init+0x2e2>
    {
      /* Check the Alternate function parameters */
      assert_param(IS_GPIO_AF_INSTANCE(GPIOx));

      /* Based on the required mode, filling config variable with MODEy[1:0] and CNFy[3:2] corresponding bits */
      switch (GPIO_Init->Mode)
 8000bde:	683b      	ldr	r3, [r7, #0]
 8000be0:	685b      	ldr	r3, [r3, #4]
 8000be2:	4a9a      	ldr	r2, [pc, #616]	@ (8000e4c <HAL_GPIO_Init+0x2a0>)
 8000be4:	4293      	cmp	r3, r2
 8000be6:	d05e      	beq.n	8000ca6 <HAL_GPIO_Init+0xfa>
 8000be8:	4a98      	ldr	r2, [pc, #608]	@ (8000e4c <HAL_GPIO_Init+0x2a0>)
 8000bea:	4293      	cmp	r3, r2
 8000bec:	d875      	bhi.n	8000cda <HAL_GPIO_Init+0x12e>
 8000bee:	4a98      	ldr	r2, [pc, #608]	@ (8000e50 <HAL_GPIO_Init+0x2a4>)
 8000bf0:	4293      	cmp	r3, r2
 8000bf2:	d058      	beq.n	8000ca6 <HAL_GPIO_Init+0xfa>
 8000bf4:	4a96      	ldr	r2, [pc, #600]	@ (8000e50 <HAL_GPIO_Init+0x2a4>)
 8000bf6:	4293      	cmp	r3, r2
 8000bf8:	d86f      	bhi.n	8000cda <HAL_GPIO_Init+0x12e>
 8000bfa:	4a96      	ldr	r2, [pc, #600]	@ (8000e54 <HAL_GPIO_Init+0x2a8>)
 8000bfc:	4293      	cmp	r3, r2
 8000bfe:	d052      	beq.n	8000ca6 <HAL_GPIO_Init+0xfa>
 8000c00:	4a94      	ldr	r2, [pc, #592]	@ (8000e54 <HAL_GPIO_Init+0x2a8>)
 8000c02:	4293      	cmp	r3, r2
 8000c04:	d869      	bhi.n	8000cda <HAL_GPIO_Init+0x12e>
 8000c06:	4a94      	ldr	r2, [pc, #592]	@ (8000e58 <HAL_GPIO_Init+0x2ac>)
 8000c08:	4293      	cmp	r3, r2
 8000c0a:	d04c      	beq.n	8000ca6 <HAL_GPIO_Init+0xfa>
 8000c0c:	4a92      	ldr	r2, [pc, #584]	@ (8000e58 <HAL_GPIO_Init+0x2ac>)
 8000c0e:	4293      	cmp	r3, r2
 8000c10:	d863      	bhi.n	8000cda <HAL_GPIO_Init+0x12e>
 8000c12:	4a92      	ldr	r2, [pc, #584]	@ (8000e5c <HAL_GPIO_Init+0x2b0>)
 8000c14:	4293      	cmp	r3, r2
 8000c16:	d046      	beq.n	8000ca6 <HAL_GPIO_Init+0xfa>
 8000c18:	4a90      	ldr	r2, [pc, #576]	@ (8000e5c <HAL_GPIO_Init+0x2b0>)
 8000c1a:	4293      	cmp	r3, r2
 8000c1c:	d85d      	bhi.n	8000cda <HAL_GPIO_Init+0x12e>
 8000c1e:	2b12      	cmp	r3, #18
 8000c20:	d82a      	bhi.n	8000c78 <HAL_GPIO_Init+0xcc>
 8000c22:	2b12      	cmp	r3, #18
 8000c24:	d859      	bhi.n	8000cda <HAL_GPIO_Init+0x12e>
 8000c26:	a201      	add	r2, pc, #4	@ (adr r2, 8000c2c <HAL_GPIO_Init+0x80>)
 8000c28:	f852 f023 	ldr.w	pc, [r2, r3, lsl #2]
 8000c2c:	08000ca7 	.word	0x08000ca7
 8000c30:	08000c81 	.word	0x08000c81
 8000c34:	08000c93 	.word	0x08000c93
 8000c38:	08000cd5 	.word	0x08000cd5
 8000c3c:	08000cdb 	.word	0x08000cdb
 8000c40:	08000cdb 	.word	0x08000cdb
 8000c44:	08000cdb 	.word	0x08000cdb
 8000c48:	08000cdb 	.word	0x08000cdb
 8000c4c:	08000cdb 	.word	0x08000cdb
 8000c50:	08000cdb 	.word	0x08000cdb
 8000c54:	08000cdb 	.word	0x08000cdb
 8000c58:	08000cdb 	.word	0x08000cdb
 8000c5c:	08000cdb 	.word	0x08000cdb
 8000c60:	08000cdb 	.word	0x08000cdb
 8000c64:	08000cdb 	.word	0x08000cdb
 8000c68:	08000cdb 	.word	0x08000cdb
 8000c6c:	08000cdb 	.word	0x08000cdb
 8000c70:	08000c89 	.word	0x08000c89
 8000c74:	08000c9d 	.word	0x08000c9d
 8000c78:	4a79      	ldr	r2, [pc, #484]	@ (8000e60 <HAL_GPIO_Init+0x2b4>)
 8000c7a:	4293      	cmp	r3, r2
 8000c7c:	d013      	beq.n	8000ca6 <HAL_GPIO_Init+0xfa>
          config = GPIO_CR_MODE_INPUT + GPIO_CR_CNF_ANALOG;
          break;

        /* Parameters are checked with assert_param */
        default:
          break;
 8000c7e:	e02c      	b.n	8000cda <HAL_GPIO_Init+0x12e>
          config = GPIO_Init->Speed + GPIO_CR_CNF_GP_OUTPUT_PP;
 8000c80:	683b      	ldr	r3, [r7, #0]
 8000c82:	68db      	ldr	r3, [r3, #12]
 8000c84:	623b      	str	r3, [r7, #32]
          break;
 8000c86:	e029      	b.n	8000cdc <HAL_GPIO_Init+0x130>
          config = GPIO_Init->Speed + GPIO_CR_CNF_GP_OUTPUT_OD;
 8000c88:	683b      	ldr	r3, [r7, #0]
 8000c8a:	68db      	ldr	r3, [r3, #12]
 8000c8c:	3304      	adds	r3, #4
 8000c8e:	623b      	str	r3, [r7, #32]
          break;
 8000c90:	e024      	b.n	8000cdc <HAL_GPIO_Init+0x130>
          config = GPIO_Init->Speed + GPIO_CR_CNF_AF_OUTPUT_PP;
 8000c92:	683b      	ldr	r3, [r7, #0]
 8000c94:	68db      	ldr	r3, [r3, #12]
 8000c96:	3308      	adds	r3, #8
 8000c98:	623b      	str	r3, [r7, #32]
          break;
 8000c9a:	e01f      	b.n	8000cdc <HAL_GPIO_Init+0x130>
          config = GPIO_Init->Speed + GPIO_CR_CNF_AF_OUTPUT_OD;
 8000c9c:	683b      	ldr	r3, [r7, #0]
 8000c9e:	68db      	ldr	r3, [r3, #12]
 8000ca0:	330c      	adds	r3, #12
 8000ca2:	623b      	str	r3, [r7, #32]
          break;
 8000ca4:	e01a      	b.n	8000cdc <HAL_GPIO_Init+0x130>
          if (GPIO_Init->Pull == GPIO_NOPULL)
 8000ca6:	683b      	ldr	r3, [r7, #0]
 8000ca8:	689b      	ldr	r3, [r3, #8]
 8000caa:	2b00      	cmp	r3, #0
 8000cac:	d102      	bne.n	8000cb4 <HAL_GPIO_Init+0x108>
            config = GPIO_CR_MODE_INPUT + GPIO_CR_CNF_INPUT_FLOATING;
 8000cae:	2304      	movs	r3, #4
 8000cb0:	623b      	str	r3, [r7, #32]
          break;
 8000cb2:	e013      	b.n	8000cdc <HAL_GPIO_Init+0x130>
          else if (GPIO_Init->Pull == GPIO_PULLUP)
 8000cb4:	683b      	ldr	r3, [r7, #0]
 8000cb6:	689b      	ldr	r3, [r3, #8]
 8000cb8:	2b01      	cmp	r3, #1
 8000cba:	d105      	bne.n	8000cc8 <HAL_GPIO_Init+0x11c>
            config = GPIO_CR_MODE_INPUT + GPIO_CR_CNF_INPUT_PU_PD;
 8000cbc:	2308      	movs	r3, #8
 8000cbe:	623b      	str	r3, [r7, #32]
            GPIOx->BSRR = ioposition;
 8000cc0:	687b      	ldr	r3, [r7, #4]
 8000cc2:	69fa      	ldr	r2, [r7, #28]
 8000cc4:	611a      	str	r2, [r3, #16]
          break;
 8000cc6:	e009      	b.n	8000cdc <HAL_GPIO_Init+0x130>
            config = GPIO_CR_MODE_INPUT + GPIO_CR_CNF_INPUT_PU_PD;
 8000cc8:	2308      	movs	r3, #8
 8000cca:	623b      	str	r3, [r7, #32]
            GPIOx->BRR = ioposition;
 8000ccc:	687b      	ldr	r3, [r7, #4]
 8000cce:	69fa      	ldr	r2, [r7, #28]
 8000cd0:	615a      	str	r2, [r3, #20]
          break;
 8000cd2:	e003      	b.n	8000cdc <HAL_GPIO_Init+0x130>
          config = GPIO_CR_MODE_INPUT + GPIO_CR_CNF_ANALOG;
 8000cd4:	2300      	movs	r3, #0
 8000cd6:	623b      	str	r3, [r7, #32]
          break;
 8000cd8:	e000      	b.n	8000cdc <HAL_GPIO_Init+0x130>
          break;
 8000cda:	bf00      	nop
      }

      /* Check if the current bit belongs to first half or last half of the pin count number
       in order to address CRH or CRL register*/
      configregister = (iocurrent < GPIO_PIN_8) ? &GPIOx->CRL     : &GPIOx->CRH;
 8000cdc:	69bb      	ldr	r3, [r7, #24]
 8000cde:	2bff      	cmp	r3, #255	@ 0xff
 8000ce0:	d801      	bhi.n	8000ce6 <HAL_GPIO_Init+0x13a>
 8000ce2:	687b      	ldr	r3, [r7, #4]
 8000ce4:	e001      	b.n	8000cea <HAL_GPIO_Init+0x13e>
 8000ce6:	687b      	ldr	r3, [r7, #4]
 8000ce8:	3304      	adds	r3, #4
 8000cea:	617b      	str	r3, [r7, #20]
      registeroffset = (iocurrent < GPIO_PIN_8) ? (position << 2u) : ((position - 8u) << 2u);
 8000cec:	69bb      	ldr	r3, [r7, #24]
 8000cee:	2bff      	cmp	r3, #255	@ 0xff
 8000cf0:	d802      	bhi.n	8000cf8 <HAL_GPIO_Init+0x14c>
 8000cf2:	6a7b      	ldr	r3, [r7, #36]	@ 0x24
 8000cf4:	009b      	lsls	r3, r3, #2
 8000cf6:	e002      	b.n	8000cfe <HAL_GPIO_Init+0x152>
 8000cf8:	6a7b      	ldr	r3, [r7, #36]	@ 0x24
 8000cfa:	3b08      	subs	r3, #8
 8000cfc:	009b      	lsls	r3, r3, #2
 8000cfe:	613b      	str	r3, [r7, #16]

      /* Apply the new configuration of the pin to the register */
      MODIFY_REG((*configregister), ((GPIO_CRL_MODE0 | GPIO_CRL_CNF0) << registeroffset), (config << registeroffset));
 8000d00:	697b      	ldr	r3, [r7, #20]
 8000d02:	681a      	ldr	r2, [r3, #0]
 8000d04:	210f      	movs	r1, #15
 8000d06:	693b      	ldr	r3, [r7, #16]
 8000d08:	fa01 f303 	lsl.w	r3, r1, r3
 8000d0c:	43db      	mvns	r3, r3
 8000d0e:	401a      	ands	r2, r3
 8000d10:	6a39      	ldr	r1, [r7, #32]
 8000d12:	693b      	ldr	r3, [r7, #16]
 8000d14:	fa01 f303 	lsl.w	r3, r1, r3
 8000d18:	431a      	orrs	r2, r3
 8000d1a:	697b      	ldr	r3, [r7, #20]
 8000d1c:	601a      	str	r2, [r3, #0]

      /*--------------------- EXTI Mode Configuration ------------------------*/
      /* Configure the External Interrupt or event for the current IO */
      if ((GPIO_Init->Mode & EXTI_MODE) == EXTI_MODE)
 8000d1e:	683b      	ldr	r3, [r7, #0]
 8000d20:	685b      	ldr	r3, [r3, #4]
 8000d22:	f003 5380 	and.w	r3, r3, #268435456	@ 0x10000000
 8000d26:	2b00      	cmp	r3, #0
 8000d28:	f000 80b1 	beq.w	8000e8e <HAL_GPIO_Init+0x2e2>
      {
        /* Enable AFIO Clock */
        __HAL_RCC_AFIO_CLK_ENABLE();
 8000d2c:	4b4d      	ldr	r3, [pc, #308]	@ (8000e64 <HAL_GPIO_Init+0x2b8>)
 8000d2e:	699b      	ldr	r3, [r3, #24]
 8000d30:	4a4c      	ldr	r2, [pc, #304]	@ (8000e64 <HAL_GPIO_Init+0x2b8>)
 8000d32:	f043 0301 	orr.w	r3, r3, #1
 8000d36:	6193      	str	r3, [r2, #24]
 8000d38:	4b4a      	ldr	r3, [pc, #296]	@ (8000e64 <HAL_GPIO_Init+0x2b8>)
 8000d3a:	699b      	ldr	r3, [r3, #24]
 8000d3c:	f003 0301 	and.w	r3, r3, #1
 8000d40:	60bb      	str	r3, [r7, #8]
 8000d42:	68bb      	ldr	r3, [r7, #8]
        temp = AFIO->EXTICR[position >> 2u];
 8000d44:	4a48      	ldr	r2, [pc, #288]	@ (8000e68 <HAL_GPIO_Init+0x2bc>)
 8000d46:	6a7b      	ldr	r3, [r7, #36]	@ 0x24
 8000d48:	089b      	lsrs	r3, r3, #2
 8000d4a:	3302      	adds	r3, #2
 8000d4c:	f852 3023 	ldr.w	r3, [r2, r3, lsl #2]
 8000d50:	60fb      	str	r3, [r7, #12]
        CLEAR_BIT(temp, (0x0Fu) << (4u * (position & 0x03u)));
 8000d52:	6a7b      	ldr	r3, [r7, #36]	@ 0x24
 8000d54:	f003 0303 	and.w	r3, r3, #3
 8000d58:	009b      	lsls	r3, r3, #2
 8000d5a:	220f      	movs	r2, #15
 8000d5c:	fa02 f303 	lsl.w	r3, r2, r3
 8000d60:	43db      	mvns	r3, r3
 8000d62:	68fa      	ldr	r2, [r7, #12]
 8000d64:	4013      	ands	r3, r2
 8000d66:	60fb      	str	r3, [r7, #12]
        SET_BIT(temp, (GPIO_GET_INDEX(GPIOx)) << (4u * (position & 0x03u)));
 8000d68:	687b      	ldr	r3, [r7, #4]
 8000d6a:	4a40      	ldr	r2, [pc, #256]	@ (8000e6c <HAL_GPIO_Init+0x2c0>)
 8000d6c:	4293      	cmp	r3, r2
 8000d6e:	d013      	beq.n	8000d98 <HAL_GPIO_Init+0x1ec>
 8000d70:	687b      	ldr	r3, [r7, #4]
 8000d72:	4a3f      	ldr	r2, [pc, #252]	@ (8000e70 <HAL_GPIO_Init+0x2c4>)
 8000d74:	4293      	cmp	r3, r2
 8000d76:	d00d      	beq.n	8000d94 <HAL_GPIO_Init+0x1e8>
 8000d78:	687b      	ldr	r3, [r7, #4]
 8000d7a:	4a3e      	ldr	r2, [pc, #248]	@ (8000e74 <HAL_GPIO_Init+0x2c8>)
 8000d7c:	4293      	cmp	r3, r2
 8000d7e:	d007      	beq.n	8000d90 <HAL_GPIO_Init+0x1e4>
 8000d80:	687b      	ldr	r3, [r7, #4]
 8000d82:	4a3d      	ldr	r2, [pc, #244]	@ (8000e78 <HAL_GPIO_Init+0x2cc>)
 8000d84:	4293      	cmp	r3, r2
 8000d86:	d101      	bne.n	8000d8c <HAL_GPIO_Init+0x1e0>
 8000d88:	2303      	movs	r3, #3
 8000d8a:	e006      	b.n	8000d9a <HAL_GPIO_Init+0x1ee>
 8000d8c:	2304      	movs	r3, #4
 8000d8e:	e004      	b.n	8000d9a <HAL_GPIO_Init+0x1ee>
 8000d90:	2302      	movs	r3, #2
 8000d92:	e002      	b.n	8000d9a <HAL_GPIO_Init+0x1ee>
 8000d94:	2301      	movs	r3, #1
 8000d96:	e000      	b.n	8000d9a <HAL_GPIO_Init+0x1ee>
 8000d98:	2300      	movs	r3, #0
 8000d9a:	6a7a      	ldr	r2, [r7, #36]	@ 0x24
 8000d9c:	f002 0203 	and.w	r2, r2, #3
 8000da0:	0092      	lsls	r2, r2, #2
 8000da2:	4093      	lsls	r3, r2
 8000da4:	68fa      	ldr	r2, [r7, #12]
 8000da6:	4313      	orrs	r3, r2
 8000da8:	60fb      	str	r3, [r7, #12]
        AFIO->EXTICR[position >> 2u] = temp;
 8000daa:	492f      	ldr	r1, [pc, #188]	@ (8000e68 <HAL_GPIO_Init+0x2bc>)
 8000dac:	6a7b      	ldr	r3, [r7, #36]	@ 0x24
 8000dae:	089b      	lsrs	r3, r3, #2
 8000db0:	3302      	adds	r3, #2
 8000db2:	68fa      	ldr	r2, [r7, #12]
 8000db4:	f841 2023 	str.w	r2, [r1, r3, lsl #2]


        /* Enable or disable the rising trigger */
        if ((GPIO_Init->Mode & RISING_EDGE) == RISING_EDGE)
 8000db8:	683b      	ldr	r3, [r7, #0]
 8000dba:	685b      	ldr	r3, [r3, #4]
 8000dbc:	f403 1380 	and.w	r3, r3, #1048576	@ 0x100000
 8000dc0:	2b00      	cmp	r3, #0
 8000dc2:	d006      	beq.n	8000dd2 <HAL_GPIO_Init+0x226>
        {
          SET_BIT(EXTI->RTSR, iocurrent);
 8000dc4:	4b2d      	ldr	r3, [pc, #180]	@ (8000e7c <HAL_GPIO_Init+0x2d0>)
 8000dc6:	689a      	ldr	r2, [r3, #8]
 8000dc8:	492c      	ldr	r1, [pc, #176]	@ (8000e7c <HAL_GPIO_Init+0x2d0>)
 8000dca:	69bb      	ldr	r3, [r7, #24]
 8000dcc:	4313      	orrs	r3, r2
 8000dce:	608b      	str	r3, [r1, #8]
 8000dd0:	e006      	b.n	8000de0 <HAL_GPIO_Init+0x234>
        }
        else
        {
          CLEAR_BIT(EXTI->RTSR, iocurrent);
 8000dd2:	4b2a      	ldr	r3, [pc, #168]	@ (8000e7c <HAL_GPIO_Init+0x2d0>)
 8000dd4:	689a      	ldr	r2, [r3, #8]
 8000dd6:	69bb      	ldr	r3, [r7, #24]
 8000dd8:	43db      	mvns	r3, r3
 8000dda:	4928      	ldr	r1, [pc, #160]	@ (8000e7c <HAL_GPIO_Init+0x2d0>)
 8000ddc:	4013      	ands	r3, r2
 8000dde:	608b      	str	r3, [r1, #8]
        }

        /* Enable or disable the falling trigger */
        if ((GPIO_Init->Mode & FALLING_EDGE) == FALLING_EDGE)
 8000de0:	683b      	ldr	r3, [r7, #0]
 8000de2:	685b      	ldr	r3, [r3, #4]
 8000de4:	f403 1300 	and.w	r3, r3, #2097152	@ 0x200000
 8000de8:	2b00      	cmp	r3, #0
 8000dea:	d006      	beq.n	8000dfa <HAL_GPIO_Init+0x24e>
        {
          SET_BIT(EXTI->FTSR, iocurrent);
 8000dec:	4b23      	ldr	r3, [pc, #140]	@ (8000e7c <HAL_GPIO_Init+0x2d0>)
 8000dee:	68da      	ldr	r2, [r3, #12]
 8000df0:	4922      	ldr	r1, [pc, #136]	@ (8000e7c <HAL_GPIO_Init+0x2d0>)
 8000df2:	69bb      	ldr	r3, [r7, #24]
 8000df4:	4313      	orrs	r3, r2
 8000df6:	60cb      	str	r3, [r1, #12]
 8000df8:	e006      	b.n	8000e08 <HAL_GPIO_Init+0x25c>
        }
        else
        {
          CLEAR_BIT(EXTI->FTSR, iocurrent);
 8000dfa:	4b20      	ldr	r3, [pc, #128]	@ (8000e7c <HAL_GPIO_Init+0x2d0>)
 8000dfc:	68da      	ldr	r2, [r3, #12]
 8000dfe:	69bb      	ldr	r3, [r7, #24]
 8000e00:	43db      	mvns	r3, r3
 8000e02:	491e      	ldr	r1, [pc, #120]	@ (8000e7c <HAL_GPIO_Init+0x2d0>)
 8000e04:	4013      	ands	r3, r2
 8000e06:	60cb      	str	r3, [r1, #12]
        }

        /* Configure the event mask */
        if ((GPIO_Init->Mode & GPIO_MODE_EVT) == GPIO_MODE_EVT)
 8000e08:	683b      	ldr	r3, [r7, #0]
 8000e0a:	685b      	ldr	r3, [r3, #4]
 8000e0c:	f403 3300 	and.w	r3, r3, #131072	@ 0x20000
 8000e10:	2b00      	cmp	r3, #0
 8000e12:	d006      	beq.n	8000e22 <HAL_GPIO_Init+0x276>
        {
          SET_BIT(EXTI->EMR, iocurrent);
 8000e14:	4b19      	ldr	r3, [pc, #100]	@ (8000e7c <HAL_GPIO_Init+0x2d0>)
 8000e16:	685a      	ldr	r2, [r3, #4]
 8000e18:	4918      	ldr	r1, [pc, #96]	@ (8000e7c <HAL_GPIO_Init+0x2d0>)
 8000e1a:	69bb      	ldr	r3, [r7, #24]
 8000e1c:	4313      	orrs	r3, r2
 8000e1e:	604b      	str	r3, [r1, #4]
 8000e20:	e006      	b.n	8000e30 <HAL_GPIO_Init+0x284>
        }
        else
        {
          CLEAR_BIT(EXTI->EMR, iocurrent);
 8000e22:	4b16      	ldr	r3, [pc, #88]	@ (8000e7c <HAL_GPIO_Init+0x2d0>)
 8000e24:	685a      	ldr	r2, [r3, #4]
 8000e26:	69bb      	ldr	r3, [r7, #24]
 8000e28:	43db      	mvns	r3, r3
 8000e2a:	4914      	ldr	r1, [pc, #80]	@ (8000e7c <HAL_GPIO_Init+0x2d0>)
 8000e2c:	4013      	ands	r3, r2
 8000e2e:	604b      	str	r3, [r1, #4]
        }

        /* Configure the interrupt mask */
        if ((GPIO_Init->Mode & GPIO_MODE_IT) == GPIO_MODE_IT)
 8000e30:	683b      	ldr	r3, [r7, #0]
 8000e32:	685b      	ldr	r3, [r3, #4]
 8000e34:	f403 3380 	and.w	r3, r3, #65536	@ 0x10000
 8000e38:	2b00      	cmp	r3, #0
 8000e3a:	d021      	beq.n	8000e80 <HAL_GPIO_Init+0x2d4>
        {
          SET_BIT(EXTI->IMR, iocurrent);
 8000e3c:	4b0f      	ldr	r3, [pc, #60]	@ (8000e7c <HAL_GPIO_Init+0x2d0>)
 8000e3e:	681a      	ldr	r2, [r3, #0]
 8000e40:	490e      	ldr	r1, [pc, #56]	@ (8000e7c <HAL_GPIO_Init+0x2d0>)
 8000e42:	69bb      	ldr	r3, [r7, #24]
 8000e44:	4313      	orrs	r3, r2
 8000e46:	600b      	str	r3, [r1, #0]
 8000e48:	e021      	b.n	8000e8e <HAL_GPIO_Init+0x2e2>
 8000e4a:	bf00      	nop
 8000e4c:	10320000 	.word	0x10320000
 8000e50:	10310000 	.word	0x10310000
 8000e54:	10220000 	.word	0x10220000
 8000e58:	10210000 	.word	0x10210000
 8000e5c:	10120000 	.word	0x10120000
 8000e60:	10110000 	.word	0x10110000
 8000e64:	40021000 	.word	0x40021000
 8000e68:	40010000 	.word	0x40010000
 8000e6c:	40010800 	.word	0x40010800
 8000e70:	40010c00 	.word	0x40010c00
 8000e74:	40011000 	.word	0x40011000
 8000e78:	40011400 	.word	0x40011400
 8000e7c:	40010400 	.word	0x40010400
        }
        else
        {
          CLEAR_BIT(EXTI->IMR, iocurrent);
 8000e80:	4b0b      	ldr	r3, [pc, #44]	@ (8000eb0 <HAL_GPIO_Init+0x304>)
 8000e82:	681a      	ldr	r2, [r3, #0]
 8000e84:	69bb      	ldr	r3, [r7, #24]
 8000e86:	43db      	mvns	r3, r3
 8000e88:	4909      	ldr	r1, [pc, #36]	@ (8000eb0 <HAL_GPIO_Init+0x304>)
 8000e8a:	4013      	ands	r3, r2
 8000e8c:	600b      	str	r3, [r1, #0]
        }
      }
    }

	position++;
 8000e8e:	6a7b      	ldr	r3, [r7, #36]	@ 0x24
 8000e90:	3301      	adds	r3, #1
 8000e92:	627b      	str	r3, [r7, #36]	@ 0x24
  while (((GPIO_Init->Pin) >> position) != 0x00u)
 8000e94:	683b      	ldr	r3, [r7, #0]
 8000e96:	681a      	ldr	r2, [r3, #0]
 8000e98:	6a7b      	ldr	r3, [r7, #36]	@ 0x24
 8000e9a:	fa22 f303 	lsr.w	r3, r2, r3
 8000e9e:	2b00      	cmp	r3, #0
 8000ea0:	f47f ae8e 	bne.w	8000bc0 <HAL_GPIO_Init+0x14>
  }
}
 8000ea4:	bf00      	nop
 8000ea6:	bf00      	nop
 8000ea8:	372c      	adds	r7, #44	@ 0x2c
 8000eaa:	46bd      	mov	sp, r7
 8000eac:	bc80      	pop	{r7}
 8000eae:	4770      	bx	lr
 8000eb0:	40010400 	.word	0x40010400

08000eb4 <HAL_GPIO_WritePin>:
  *            @arg GPIO_PIN_RESET: to clear the port pin
  *            @arg GPIO_PIN_SET: to set the port pin
  * @retval None
  */
void HAL_GPIO_WritePin(GPIO_TypeDef *GPIOx, uint16_t GPIO_Pin, GPIO_PinState PinState)
{
 8000eb4:	b480      	push	{r7}
 8000eb6:	b083      	sub	sp, #12
 8000eb8:	af00      	add	r7, sp, #0
 8000eba:	6078      	str	r0, [r7, #4]
 8000ebc:	460b      	mov	r3, r1
 8000ebe:	807b      	strh	r3, [r7, #2]
 8000ec0:	4613      	mov	r3, r2
 8000ec2:	707b      	strb	r3, [r7, #1]
  /* Check the parameters */
  assert_param(IS_GPIO_PIN(GPIO_Pin));
  assert_param(IS_GPIO_PIN_ACTION(PinState));

  if (PinState != GPIO_PIN_RESET)
 8000ec4:	787b      	ldrb	r3, [r7, #1]
 8000ec6:	2b00      	cmp	r3, #0
 8000ec8:	d003      	beq.n	8000ed2 <HAL_GPIO_WritePin+0x1e>
  {
    GPIOx->BSRR = GPIO_Pin;
 8000eca:	887a      	ldrh	r2, [r7, #2]
 8000ecc:	687b      	ldr	r3, [r7, #4]
 8000ece:	611a      	str	r2, [r3, #16]
  }
  else
  {
    GPIOx->BSRR = (uint32_t)GPIO_Pin << 16u;
  }
}
 8000ed0:	e003      	b.n	8000eda <HAL_GPIO_WritePin+0x26>
    GPIOx->BSRR = (uint32_t)GPIO_Pin << 16u;
 8000ed2:	887b      	ldrh	r3, [r7, #2]
 8000ed4:	041a      	lsls	r2, r3, #16
 8000ed6:	687b      	ldr	r3, [r7, #4]
 8000ed8:	611a      	str	r2, [r3, #16]
}
 8000eda:	bf00      	nop
 8000edc:	370c      	adds	r7, #12
 8000ede:	46bd      	mov	sp, r7
 8000ee0:	bc80      	pop	{r7}
 8000ee2:	4770      	bx	lr

08000ee4 <HAL_GPIO_TogglePin>:
  * @param  GPIOx: where x can be (A..G depending on device used) to select the GPIO peripheral
  * @param  GPIO_Pin: Specifies the pins to be toggled.
  * @retval None
  */
void HAL_GPIO_TogglePin(GPIO_TypeDef *GPIOx, uint16_t GPIO_Pin)
{
 8000ee4:	b480      	push	{r7}
 8000ee6:	b085      	sub	sp, #20
 8000ee8:	af00      	add	r7, sp, #0
 8000eea:	6078      	str	r0, [r7, #4]
 8000eec:	460b      	mov	r3, r1
 8000eee:	807b      	strh	r3, [r7, #2]

  /* Check the parameters */
  assert_param(IS_GPIO_PIN(GPIO_Pin));

  /* get current Output Data Register value */
  odr = GPIOx->ODR;
 8000ef0:	687b      	ldr	r3, [r7, #4]
 8000ef2:	68db      	ldr	r3, [r3, #12]
 8000ef4:	60fb      	str	r3, [r7, #12]

  /* Set selected pins that were at low level, and reset ones that were high */
  GPIOx->BSRR = ((odr & GPIO_Pin) << GPIO_NUMBER) | (~odr & GPIO_Pin);
 8000ef6:	887a      	ldrh	r2, [r7, #2]
 8000ef8:	68fb      	ldr	r3, [r7, #12]
 8000efa:	4013      	ands	r3, r2
 8000efc:	041a      	lsls	r2, r3, #16
 8000efe:	68fb      	ldr	r3, [r7, #12]
 8000f00:	43d9      	mvns	r1, r3
 8000f02:	887b      	ldrh	r3, [r7, #2]
 8000f04:	400b      	ands	r3, r1
 8000f06:	431a      	orrs	r2, r3
 8000f08:	687b      	ldr	r3, [r7, #4]
 8000f0a:	611a      	str	r2, [r3, #16]
}
 8000f0c:	bf00      	nop
 8000f0e:	3714      	adds	r7, #20
 8000f10:	46bd      	mov	sp, r7
 8000f12:	bc80      	pop	{r7}
 8000f14:	4770      	bx	lr

08000f16 <HAL_PCD_Init>:
  *         parameters in the PCD_InitTypeDef and initialize the associated handle.
  * @param  hpcd PCD handle
  * @retval HAL status
  */
HAL_StatusTypeDef HAL_PCD_Init(PCD_HandleTypeDef *hpcd)
{
 8000f16:	b580      	push	{r7, lr}
 8000f18:	b084      	sub	sp, #16
 8000f1a:	af00      	add	r7, sp, #0
 8000f1c:	6078      	str	r0, [r7, #4]
  uint8_t i;

  /* Check the PCD handle allocation */
  if (hpcd == NULL)
 8000f1e:	687b      	ldr	r3, [r7, #4]
 8000f20:	2b00      	cmp	r3, #0
 8000f22:	d101      	bne.n	8000f28 <HAL_PCD_Init+0x12>
  {
    return HAL_ERROR;
 8000f24:	2301      	movs	r3, #1
 8000f26:	e0e8      	b.n	80010fa <HAL_PCD_Init+0x1e4>
  }

  /* Check the parameters */
  assert_param(IS_PCD_ALL_INSTANCE(hpcd->Instance));

  if (hpcd->State == HAL_PCD_STATE_RESET)
 8000f28:	687b      	ldr	r3, [r7, #4]
 8000f2a:	f893 3291 	ldrb.w	r3, [r3, #657]	@ 0x291
 8000f2e:	b2db      	uxtb	r3, r3
 8000f30:	2b00      	cmp	r3, #0
 8000f32:	d106      	bne.n	8000f42 <HAL_PCD_Init+0x2c>
  {
    /* Allocate lock resource and initialize it */
    hpcd->Lock = HAL_UNLOCKED;
 8000f34:	687b      	ldr	r3, [r7, #4]
 8000f36:	2200      	movs	r2, #0
 8000f38:	f883 2290 	strb.w	r2, [r3, #656]	@ 0x290

    /* Init the low level hardware */
    hpcd->MspInitCallback(hpcd);
#else
    /* Init the low level hardware : GPIO, CLOCK, NVIC... */
    HAL_PCD_MspInit(hpcd);
 8000f3c:	6878      	ldr	r0, [r7, #4]
 8000f3e:	f006 fbc7 	bl	80076d0 <HAL_PCD_MspInit>
#endif /* (USE_HAL_PCD_REGISTER_CALLBACKS) */
  }

  hpcd->State = HAL_PCD_STATE_BUSY;
 8000f42:	687b      	ldr	r3, [r7, #4]
 8000f44:	2203      	movs	r2, #3
 8000f46:	f883 2291 	strb.w	r2, [r3, #657]	@ 0x291

  /* Disable DMA mode for FS instance */
  hpcd->Init.dma_enable = 0U;
 8000f4a:	687b      	ldr	r3, [r7, #4]
 8000f4c:	2200      	movs	r2, #0
 8000f4e:	715a      	strb	r2, [r3, #5]

  /* Disable the Interrupts */
  __HAL_PCD_DISABLE(hpcd);
 8000f50:	687b      	ldr	r3, [r7, #4]
 8000f52:	681b      	ldr	r3, [r3, #0]
 8000f54:	4618      	mov	r0, r3
 8000f56:	f002 fd04 	bl	8003962 <USB_DisableGlobalInt>

  /*Init the Core (common init.) */
  if (USB_CoreInit(hpcd->Instance, hpcd->Init) != HAL_OK)
 8000f5a:	687b      	ldr	r3, [r7, #4]
 8000f5c:	6818      	ldr	r0, [r3, #0]
 8000f5e:	687b      	ldr	r3, [r7, #4]
 8000f60:	3304      	adds	r3, #4
 8000f62:	cb0e      	ldmia	r3, {r1, r2, r3}
 8000f64:	f002 fcda 	bl	800391c <USB_CoreInit>
 8000f68:	4603      	mov	r3, r0
 8000f6a:	2b00      	cmp	r3, #0
 8000f6c:	d005      	beq.n	8000f7a <HAL_PCD_Init+0x64>
  {
    hpcd->State = HAL_PCD_STATE_ERROR;
 8000f6e:	687b      	ldr	r3, [r7, #4]
 8000f70:	2202      	movs	r2, #2
 8000f72:	f883 2291 	strb.w	r2, [r3, #657]	@ 0x291
    return HAL_ERROR;
 8000f76:	2301      	movs	r3, #1
 8000f78:	e0bf      	b.n	80010fa <HAL_PCD_Init+0x1e4>
  }

  /* Force Device Mode */
  if (USB_SetCurrentMode(hpcd->Instance, USB_DEVICE_MODE) != HAL_OK)
 8000f7a:	687b      	ldr	r3, [r7, #4]
 8000f7c:	681b      	ldr	r3, [r3, #0]
 8000f7e:	2100      	movs	r1, #0
 8000f80:	4618      	mov	r0, r3
 8000f82:	f002 fd08 	bl	8003996 <USB_SetCurrentMode>
 8000f86:	4603      	mov	r3, r0
 8000f88:	2b00      	cmp	r3, #0
 8000f8a:	d005      	beq.n	8000f98 <HAL_PCD_Init+0x82>
  {
    hpcd->State = HAL_PCD_STATE_ERROR;
 8000f8c:	687b      	ldr	r3, [r7, #4]
 8000f8e:	2202      	movs	r2, #2
 8000f90:	f883 2291 	strb.w	r2, [r3, #657]	@ 0x291
    return HAL_ERROR;
 8000f94:	2301      	movs	r3, #1
 8000f96:	e0b0      	b.n	80010fa <HAL_PCD_Init+0x1e4>
  }

  /* Init endpoints structures */
  for (i = 0U; i < hpcd->Init.dev_endpoints; i++)
 8000f98:	2300      	movs	r3, #0
 8000f9a:	73fb      	strb	r3, [r7, #15]
 8000f9c:	e03e      	b.n	800101c <HAL_PCD_Init+0x106>
  {
    /* Init ep structure */
    hpcd->IN_ep[i].is_in = 1U;
 8000f9e:	7bfa      	ldrb	r2, [r7, #15]
 8000fa0:	6879      	ldr	r1, [r7, #4]
 8000fa2:	4613      	mov	r3, r2
 8000fa4:	009b      	lsls	r3, r3, #2
 8000fa6:	4413      	add	r3, r2
 8000fa8:	00db      	lsls	r3, r3, #3
 8000faa:	440b      	add	r3, r1
 8000fac:	3311      	adds	r3, #17
 8000fae:	2201      	movs	r2, #1
 8000fb0:	701a      	strb	r2, [r3, #0]
    hpcd->IN_ep[i].num = i;
 8000fb2:	7bfa      	ldrb	r2, [r7, #15]
 8000fb4:	6879      	ldr	r1, [r7, #4]
 8000fb6:	4613      	mov	r3, r2
 8000fb8:	009b      	lsls	r3, r3, #2
 8000fba:	4413      	add	r3, r2
 8000fbc:	00db      	lsls	r3, r3, #3
 8000fbe:	440b      	add	r3, r1
 8000fc0:	3310      	adds	r3, #16
 8000fc2:	7bfa      	ldrb	r2, [r7, #15]
 8000fc4:	701a      	strb	r2, [r3, #0]
#if defined (USB_OTG_FS)
    hpcd->IN_ep[i].tx_fifo_num = i;
#endif /* defined (USB_OTG_FS) */
    /* Control until ep is activated */
    hpcd->IN_ep[i].type = EP_TYPE_CTRL;
 8000fc6:	7bfa      	ldrb	r2, [r7, #15]
 8000fc8:	6879      	ldr	r1, [r7, #4]
 8000fca:	4613      	mov	r3, r2
 8000fcc:	009b      	lsls	r3, r3, #2
 8000fce:	4413      	add	r3, r2
 8000fd0:	00db      	lsls	r3, r3, #3
 8000fd2:	440b      	add	r3, r1
 8000fd4:	3313      	adds	r3, #19
 8000fd6:	2200      	movs	r2, #0
 8000fd8:	701a      	strb	r2, [r3, #0]
    hpcd->IN_ep[i].maxpacket = 0U;
 8000fda:	7bfa      	ldrb	r2, [r7, #15]
 8000fdc:	6879      	ldr	r1, [r7, #4]
 8000fde:	4613      	mov	r3, r2
 8000fe0:	009b      	lsls	r3, r3, #2
 8000fe2:	4413      	add	r3, r2
 8000fe4:	00db      	lsls	r3, r3, #3
 8000fe6:	440b      	add	r3, r1
 8000fe8:	3320      	adds	r3, #32
 8000fea:	2200      	movs	r2, #0
 8000fec:	601a      	str	r2, [r3, #0]
    hpcd->IN_ep[i].xfer_buff = 0U;
 8000fee:	7bfa      	ldrb	r2, [r7, #15]
 8000ff0:	6879      	ldr	r1, [r7, #4]
 8000ff2:	4613      	mov	r3, r2
 8000ff4:	009b      	lsls	r3, r3, #2
 8000ff6:	4413      	add	r3, r2
 8000ff8:	00db      	lsls	r3, r3, #3
 8000ffa:	440b      	add	r3, r1
 8000ffc:	3324      	adds	r3, #36	@ 0x24
 8000ffe:	2200      	movs	r2, #0
 8001000:	601a      	str	r2, [r3, #0]
    hpcd->IN_ep[i].xfer_len = 0U;
 8001002:	7bfb      	ldrb	r3, [r7, #15]
 8001004:	6879      	ldr	r1, [r7, #4]
 8001006:	1c5a      	adds	r2, r3, #1
 8001008:	4613      	mov	r3, r2
 800100a:	009b      	lsls	r3, r3, #2
 800100c:	4413      	add	r3, r2
 800100e:	00db      	lsls	r3, r3, #3
 8001010:	440b      	add	r3, r1
 8001012:	2200      	movs	r2, #0
 8001014:	601a      	str	r2, [r3, #0]
  for (i = 0U; i < hpcd->Init.dev_endpoints; i++)
 8001016:	7bfb      	ldrb	r3, [r7, #15]
 8001018:	3301      	adds	r3, #1
 800101a:	73fb      	strb	r3, [r7, #15]
 800101c:	687b      	ldr	r3, [r7, #4]
 800101e:	791b      	ldrb	r3, [r3, #4]
 8001020:	7bfa      	ldrb	r2, [r7, #15]
 8001022:	429a      	cmp	r2, r3
 8001024:	d3bb      	bcc.n	8000f9e <HAL_PCD_Init+0x88>
  }

  for (i = 0U; i < hpcd->Init.dev_endpoints; i++)
 8001026:	2300      	movs	r3, #0
 8001028:	73fb      	strb	r3, [r7, #15]
 800102a:	e044      	b.n	80010b6 <HAL_PCD_Init+0x1a0>
  {
    hpcd->OUT_ep[i].is_in = 0U;
 800102c:	7bfa      	ldrb	r2, [r7, #15]
 800102e:	6879      	ldr	r1, [r7, #4]
 8001030:	4613      	mov	r3, r2
 8001032:	009b      	lsls	r3, r3, #2
 8001034:	4413      	add	r3, r2
 8001036:	00db      	lsls	r3, r3, #3
 8001038:	440b      	add	r3, r1
 800103a:	f203 1351 	addw	r3, r3, #337	@ 0x151
 800103e:	2200      	movs	r2, #0
 8001040:	701a      	strb	r2, [r3, #0]
    hpcd->OUT_ep[i].num = i;
 8001042:	7bfa      	ldrb	r2, [r7, #15]
 8001044:	6879      	ldr	r1, [r7, #4]
 8001046:	4613      	mov	r3, r2
 8001048:	009b      	lsls	r3, r3, #2
 800104a:	4413      	add	r3, r2
 800104c:	00db      	lsls	r3, r3, #3
 800104e:	440b      	add	r3, r1
 8001050:	f503 73a8 	add.w	r3, r3, #336	@ 0x150
 8001054:	7bfa      	ldrb	r2, [r7, #15]
 8001056:	701a      	strb	r2, [r3, #0]
    /* Control until ep is activated */
    hpcd->OUT_ep[i].type = EP_TYPE_CTRL;
 8001058:	7bfa      	ldrb	r2, [r7, #15]
 800105a:	6879      	ldr	r1, [r7, #4]
 800105c:	4613      	mov	r3, r2
 800105e:	009b      	lsls	r3, r3, #2
 8001060:	4413      	add	r3, r2
 8001062:	00db      	lsls	r3, r3, #3
 8001064:	440b      	add	r3, r1
 8001066:	f203 1353 	addw	r3, r3, #339	@ 0x153
 800106a:	2200      	movs	r2, #0
 800106c:	701a      	strb	r2, [r3, #0]
    hpcd->OUT_ep[i].maxpacket = 0U;
 800106e:	7bfa      	ldrb	r2, [r7, #15]
 8001070:	6879      	ldr	r1, [r7, #4]
 8001072:	4613      	mov	r3, r2
 8001074:	009b      	lsls	r3, r3, #2
 8001076:	4413      	add	r3, r2
 8001078:	00db      	lsls	r3, r3, #3
 800107a:	440b      	add	r3, r1
 800107c:	f503 73b0 	add.w	r3, r3, #352	@ 0x160
 8001080:	2200      	movs	r2, #0
 8001082:	601a      	str	r2, [r3, #0]
    hpcd->OUT_ep[i].xfer_buff = 0U;
 8001084:	7bfa      	ldrb	r2, [r7, #15]
 8001086:	6879      	ldr	r1, [r7, #4]
 8001088:	4613      	mov	r3, r2
 800108a:	009b      	lsls	r3, r3, #2
 800108c:	4413      	add	r3, r2
 800108e:	00db      	lsls	r3, r3, #3
 8001090:	440b      	add	r3, r1
 8001092:	f503 73b2 	add.w	r3, r3, #356	@ 0x164
 8001096:	2200      	movs	r2, #0
 8001098:	601a      	str	r2, [r3, #0]
    hpcd->OUT_ep[i].xfer_len = 0U;
 800109a:	7bfa      	ldrb	r2, [r7, #15]
 800109c:	6879      	ldr	r1, [r7, #4]
 800109e:	4613      	mov	r3, r2
 80010a0:	009b      	lsls	r3, r3, #2
 80010a2:	4413      	add	r3, r2
 80010a4:	00db      	lsls	r3, r3, #3
 80010a6:	440b      	add	r3, r1
 80010a8:	f503 73b4 	add.w	r3, r3, #360	@ 0x168
 80010ac:	2200      	movs	r2, #0
 80010ae:	601a      	str	r2, [r3, #0]
  for (i = 0U; i < hpcd->Init.dev_endpoints; i++)
 80010b0:	7bfb      	ldrb	r3, [r7, #15]
 80010b2:	3301      	adds	r3, #1
 80010b4:	73fb      	strb	r3, [r7, #15]
 80010b6:	687b      	ldr	r3, [r7, #4]
 80010b8:	791b      	ldrb	r3, [r3, #4]
 80010ba:	7bfa      	ldrb	r2, [r7, #15]
 80010bc:	429a      	cmp	r2, r3
 80010be:	d3b5      	bcc.n	800102c <HAL_PCD_Init+0x116>
  }

  /* Init Device */
  if (USB_DevInit(hpcd->Instance, hpcd->Init) != HAL_OK)
 80010c0:	687b      	ldr	r3, [r7, #4]
 80010c2:	6818      	ldr	r0, [r3, #0]
 80010c4:	687b      	ldr	r3, [r7, #4]
 80010c6:	3304      	adds	r3, #4
 80010c8:	cb0e      	ldmia	r3, {r1, r2, r3}
 80010ca:	f002 fc70 	bl	80039ae <USB_DevInit>
 80010ce:	4603      	mov	r3, r0
 80010d0:	2b00      	cmp	r3, #0
 80010d2:	d005      	beq.n	80010e0 <HAL_PCD_Init+0x1ca>
  {
    hpcd->State = HAL_PCD_STATE_ERROR;
 80010d4:	687b      	ldr	r3, [r7, #4]
 80010d6:	2202      	movs	r2, #2
 80010d8:	f883 2291 	strb.w	r2, [r3, #657]	@ 0x291
    return HAL_ERROR;
 80010dc:	2301      	movs	r3, #1
 80010de:	e00c      	b.n	80010fa <HAL_PCD_Init+0x1e4>
  }

  hpcd->USB_Address = 0U;
 80010e0:	687b      	ldr	r3, [r7, #4]
 80010e2:	2200      	movs	r2, #0
 80010e4:	735a      	strb	r2, [r3, #13]
  hpcd->State = HAL_PCD_STATE_READY;
 80010e6:	687b      	ldr	r3, [r7, #4]
 80010e8:	2201      	movs	r2, #1
 80010ea:	f883 2291 	strb.w	r2, [r3, #657]	@ 0x291
  (void)USB_DevDisconnect(hpcd->Instance);
 80010ee:	687b      	ldr	r3, [r7, #4]
 80010f0:	681b      	ldr	r3, [r3, #0]
 80010f2:	4618      	mov	r0, r3
 80010f4:	f004 feef 	bl	8005ed6 <USB_DevDisconnect>

  return HAL_OK;
 80010f8:	2300      	movs	r3, #0
}
 80010fa:	4618      	mov	r0, r3
 80010fc:	3710      	adds	r7, #16
 80010fe:	46bd      	mov	sp, r7
 8001100:	bd80      	pop	{r7, pc}

08001102 <HAL_PCD_Start>:
  * @brief  Start the USB device
  * @param  hpcd PCD handle
  * @retval HAL status
  */
HAL_StatusTypeDef HAL_PCD_Start(PCD_HandleTypeDef *hpcd)
{
 8001102:	b580      	push	{r7, lr}
 8001104:	b082      	sub	sp, #8
 8001106:	af00      	add	r7, sp, #0
 8001108:	6078      	str	r0, [r7, #4]
  __HAL_LOCK(hpcd);
 800110a:	687b      	ldr	r3, [r7, #4]
 800110c:	f893 3290 	ldrb.w	r3, [r3, #656]	@ 0x290
 8001110:	2b01      	cmp	r3, #1
 8001112:	d101      	bne.n	8001118 <HAL_PCD_Start+0x16>
 8001114:	2302      	movs	r3, #2
 8001116:	e016      	b.n	8001146 <HAL_PCD_Start+0x44>
 8001118:	687b      	ldr	r3, [r7, #4]
 800111a:	2201      	movs	r2, #1
 800111c:	f883 2290 	strb.w	r2, [r3, #656]	@ 0x290
  __HAL_PCD_ENABLE(hpcd);
 8001120:	687b      	ldr	r3, [r7, #4]
 8001122:	681b      	ldr	r3, [r3, #0]
 8001124:	4618      	mov	r0, r3
 8001126:	f002 fc06 	bl	8003936 <USB_EnableGlobalInt>

#if defined (USB)
  HAL_PCDEx_SetConnectionState(hpcd, 1U);
 800112a:	2101      	movs	r1, #1
 800112c:	6878      	ldr	r0, [r7, #4]
 800112e:	f006 fd1c 	bl	8007b6a <HAL_PCDEx_SetConnectionState>
#endif /* defined (USB) */

  (void)USB_DevConnect(hpcd->Instance);
 8001132:	687b      	ldr	r3, [r7, #4]
 8001134:	681b      	ldr	r3, [r3, #0]
 8001136:	4618      	mov	r0, r3
 8001138:	f004 fec3 	bl	8005ec2 <USB_DevConnect>
  __HAL_UNLOCK(hpcd);
 800113c:	687b      	ldr	r3, [r7, #4]
 800113e:	2200      	movs	r2, #0
 8001140:	f883 2290 	strb.w	r2, [r3, #656]	@ 0x290

  return HAL_OK;
 8001144:	2300      	movs	r3, #0
}
 8001146:	4618      	mov	r0, r3
 8001148:	3708      	adds	r7, #8
 800114a:	46bd      	mov	sp, r7
 800114c:	bd80      	pop	{r7, pc}

0800114e <HAL_PCD_IRQHandler>:
  * @brief  This function handles PCD interrupt request.
  * @param  hpcd PCD handle
  * @retval HAL status
  */
void HAL_PCD_IRQHandler(PCD_HandleTypeDef *hpcd)
{
 800114e:	b580      	push	{r7, lr}
 8001150:	b088      	sub	sp, #32
 8001152:	af00      	add	r7, sp, #0
 8001154:	6078      	str	r0, [r7, #4]
  uint32_t wIstr = USB_ReadInterrupts(hpcd->Instance);
 8001156:	687b      	ldr	r3, [r7, #4]
 8001158:	681b      	ldr	r3, [r3, #0]
 800115a:	4618      	mov	r0, r3
 800115c:	f004 fec5 	bl	8005eea <USB_ReadInterrupts>
 8001160:	61b8      	str	r0, [r7, #24]
  uint16_t store_ep[8];
  uint8_t i;

  if ((wIstr & USB_ISTR_CTR) == USB_ISTR_CTR)
 8001162:	69bb      	ldr	r3, [r7, #24]
 8001164:	f403 4300 	and.w	r3, r3, #32768	@ 0x8000
 8001168:	2b00      	cmp	r3, #0
 800116a:	d003      	beq.n	8001174 <HAL_PCD_IRQHandler+0x26>
  {
    /* servicing of the endpoint correct transfer interrupt */
    /* clear of the CTR flag into the sub */
    (void)PCD_EP_ISR_Handler(hpcd);
 800116c:	6878      	ldr	r0, [r7, #4]
 800116e:	f000 fb03 	bl	8001778 <PCD_EP_ISR_Handler>

    return;
 8001172:	e119      	b.n	80013a8 <HAL_PCD_IRQHandler+0x25a>
  }

  if ((wIstr & USB_ISTR_RESET) == USB_ISTR_RESET)
 8001174:	69bb      	ldr	r3, [r7, #24]
 8001176:	f403 6380 	and.w	r3, r3, #1024	@ 0x400
 800117a:	2b00      	cmp	r3, #0
 800117c:	d013      	beq.n	80011a6 <HAL_PCD_IRQHandler+0x58>
  {
    __HAL_PCD_CLEAR_FLAG(hpcd, USB_ISTR_RESET);
 800117e:	687b      	ldr	r3, [r7, #4]
 8001180:	681b      	ldr	r3, [r3, #0]
 8001182:	f8b3 3044 	ldrh.w	r3, [r3, #68]	@ 0x44
 8001186:	b29a      	uxth	r2, r3
 8001188:	687b      	ldr	r3, [r7, #4]
 800118a:	681b      	ldr	r3, [r3, #0]
 800118c:	f422 6280 	bic.w	r2, r2, #1024	@ 0x400
 8001190:	b292      	uxth	r2, r2
 8001192:	f8a3 2044 	strh.w	r2, [r3, #68]	@ 0x44

#if (USE_HAL_PCD_REGISTER_CALLBACKS == 1U)
    hpcd->ResetCallback(hpcd);
#else
    HAL_PCD_ResetCallback(hpcd);
 8001196:	6878      	ldr	r0, [r7, #4]
 8001198:	f006 fb15 	bl	80077c6 <HAL_PCD_ResetCallback>
#endif /* USE_HAL_PCD_REGISTER_CALLBACKS */

    (void)HAL_PCD_SetAddress(hpcd, 0U);
 800119c:	2100      	movs	r1, #0
 800119e:	6878      	ldr	r0, [r7, #4]
 80011a0:	f000 f905 	bl	80013ae <HAL_PCD_SetAddress>

    return;
 80011a4:	e100      	b.n	80013a8 <HAL_PCD_IRQHandler+0x25a>
  }

  if ((wIstr & USB_ISTR_PMAOVR) == USB_ISTR_PMAOVR)
 80011a6:	69bb      	ldr	r3, [r7, #24]
 80011a8:	f403 4380 	and.w	r3, r3, #16384	@ 0x4000
 80011ac:	2b00      	cmp	r3, #0
 80011ae:	d00c      	beq.n	80011ca <HAL_PCD_IRQHandler+0x7c>
  {
    __HAL_PCD_CLEAR_FLAG(hpcd, USB_ISTR_PMAOVR);
 80011b0:	687b      	ldr	r3, [r7, #4]
 80011b2:	681b      	ldr	r3, [r3, #0]
 80011b4:	f8b3 3044 	ldrh.w	r3, [r3, #68]	@ 0x44
 80011b8:	b29a      	uxth	r2, r3
 80011ba:	687b      	ldr	r3, [r7, #4]
 80011bc:	681b      	ldr	r3, [r3, #0]
 80011be:	f422 4280 	bic.w	r2, r2, #16384	@ 0x4000
 80011c2:	b292      	uxth	r2, r2
 80011c4:	f8a3 2044 	strh.w	r2, [r3, #68]	@ 0x44

    return;
 80011c8:	e0ee      	b.n	80013a8 <HAL_PCD_IRQHandler+0x25a>
  }

  if ((wIstr & USB_ISTR_ERR) == USB_ISTR_ERR)
 80011ca:	69bb      	ldr	r3, [r7, #24]
 80011cc:	f403 5300 	and.w	r3, r3, #8192	@ 0x2000
 80011d0:	2b00      	cmp	r3, #0
 80011d2:	d00c      	beq.n	80011ee <HAL_PCD_IRQHandler+0xa0>
  {
    __HAL_PCD_CLEAR_FLAG(hpcd, USB_ISTR_ERR);
 80011d4:	687b      	ldr	r3, [r7, #4]
 80011d6:	681b      	ldr	r3, [r3, #0]
 80011d8:	f8b3 3044 	ldrh.w	r3, [r3, #68]	@ 0x44
 80011dc:	b29a      	uxth	r2, r3
 80011de:	687b      	ldr	r3, [r7, #4]
 80011e0:	681b      	ldr	r3, [r3, #0]
 80011e2:	f422 5200 	bic.w	r2, r2, #8192	@ 0x2000
 80011e6:	b292      	uxth	r2, r2
 80011e8:	f8a3 2044 	strh.w	r2, [r3, #68]	@ 0x44

    return;
 80011ec:	e0dc      	b.n	80013a8 <HAL_PCD_IRQHandler+0x25a>
  }

  if ((wIstr & USB_ISTR_WKUP) == USB_ISTR_WKUP)
 80011ee:	69bb      	ldr	r3, [r7, #24]
 80011f0:	f403 5380 	and.w	r3, r3, #4096	@ 0x1000
 80011f4:	2b00      	cmp	r3, #0
 80011f6:	d027      	beq.n	8001248 <HAL_PCD_IRQHandler+0xfa>
  {
    hpcd->Instance->CNTR &= (uint16_t) ~(USB_CNTR_LP_MODE);
 80011f8:	687b      	ldr	r3, [r7, #4]
 80011fa:	681b      	ldr	r3, [r3, #0]
 80011fc:	f8b3 3040 	ldrh.w	r3, [r3, #64]	@ 0x40
 8001200:	b29a      	uxth	r2, r3
 8001202:	687b      	ldr	r3, [r7, #4]
 8001204:	681b      	ldr	r3, [r3, #0]
 8001206:	f022 0204 	bic.w	r2, r2, #4
 800120a:	b292      	uxth	r2, r2
 800120c:	f8a3 2040 	strh.w	r2, [r3, #64]	@ 0x40
    hpcd->Instance->CNTR &= (uint16_t) ~(USB_CNTR_FSUSP);
 8001210:	687b      	ldr	r3, [r7, #4]
 8001212:	681b      	ldr	r3, [r3, #0]
 8001214:	f8b3 3040 	ldrh.w	r3, [r3, #64]	@ 0x40
 8001218:	b29a      	uxth	r2, r3
 800121a:	687b      	ldr	r3, [r7, #4]
 800121c:	681b      	ldr	r3, [r3, #0]
 800121e:	f022 0208 	bic.w	r2, r2, #8
 8001222:	b292      	uxth	r2, r2
 8001224:	f8a3 2040 	strh.w	r2, [r3, #64]	@ 0x40

#if (USE_HAL_PCD_REGISTER_CALLBACKS == 1U)
    hpcd->ResumeCallback(hpcd);
#else
    HAL_PCD_ResumeCallback(hpcd);
 8001228:	6878      	ldr	r0, [r7, #4]
 800122a:	f006 fb05 	bl	8007838 <HAL_PCD_ResumeCallback>
#endif /* USE_HAL_PCD_REGISTER_CALLBACKS */

    __HAL_PCD_CLEAR_FLAG(hpcd, USB_ISTR_WKUP);
 800122e:	687b      	ldr	r3, [r7, #4]
 8001230:	681b      	ldr	r3, [r3, #0]
 8001232:	f8b3 3044 	ldrh.w	r3, [r3, #68]	@ 0x44
 8001236:	b29a      	uxth	r2, r3
 8001238:	687b      	ldr	r3, [r7, #4]
 800123a:	681b      	ldr	r3, [r3, #0]
 800123c:	f422 5280 	bic.w	r2, r2, #4096	@ 0x1000
 8001240:	b292      	uxth	r2, r2
 8001242:	f8a3 2044 	strh.w	r2, [r3, #68]	@ 0x44

    return;
 8001246:	e0af      	b.n	80013a8 <HAL_PCD_IRQHandler+0x25a>
  }

  if ((wIstr & USB_ISTR_SUSP) == USB_ISTR_SUSP)
 8001248:	69bb      	ldr	r3, [r7, #24]
 800124a:	f403 6300 	and.w	r3, r3, #2048	@ 0x800
 800124e:	2b00      	cmp	r3, #0
 8001250:	f000 8083 	beq.w	800135a <HAL_PCD_IRQHandler+0x20c>
  {
    /* WA: To Clear Wakeup flag if raised with suspend signal */

    /* Store Endpoint registers */
    for (i = 0U; i < 8U; i++)
 8001254:	2300      	movs	r3, #0
 8001256:	77fb      	strb	r3, [r7, #31]
 8001258:	e010      	b.n	800127c <HAL_PCD_IRQHandler+0x12e>
    {
      store_ep[i] = PCD_GET_ENDPOINT(hpcd->Instance, i);
 800125a:	687b      	ldr	r3, [r7, #4]
 800125c:	681b      	ldr	r3, [r3, #0]
 800125e:	461a      	mov	r2, r3
 8001260:	7ffb      	ldrb	r3, [r7, #31]
 8001262:	009b      	lsls	r3, r3, #2
 8001264:	441a      	add	r2, r3
 8001266:	7ffb      	ldrb	r3, [r7, #31]
 8001268:	8812      	ldrh	r2, [r2, #0]
 800126a:	b292      	uxth	r2, r2
 800126c:	005b      	lsls	r3, r3, #1
 800126e:	3320      	adds	r3, #32
 8001270:	443b      	add	r3, r7
 8001272:	f823 2c18 	strh.w	r2, [r3, #-24]
    for (i = 0U; i < 8U; i++)
 8001276:	7ffb      	ldrb	r3, [r7, #31]
 8001278:	3301      	adds	r3, #1
 800127a:	77fb      	strb	r3, [r7, #31]
 800127c:	7ffb      	ldrb	r3, [r7, #31]
 800127e:	2b07      	cmp	r3, #7
 8001280:	d9eb      	bls.n	800125a <HAL_PCD_IRQHandler+0x10c>
    }

    /* FORCE RESET */
    hpcd->Instance->CNTR |= (uint16_t)(USB_CNTR_FRES);
 8001282:	687b      	ldr	r3, [r7, #4]
 8001284:	681b      	ldr	r3, [r3, #0]
 8001286:	f8b3 3040 	ldrh.w	r3, [r3, #64]	@ 0x40
 800128a:	b29a      	uxth	r2, r3
 800128c:	687b      	ldr	r3, [r7, #4]
 800128e:	681b      	ldr	r3, [r3, #0]
 8001290:	f042 0201 	orr.w	r2, r2, #1
 8001294:	b292      	uxth	r2, r2
 8001296:	f8a3 2040 	strh.w	r2, [r3, #64]	@ 0x40

    /* CLEAR RESET */
    hpcd->Instance->CNTR &= (uint16_t)(~USB_CNTR_FRES);
 800129a:	687b      	ldr	r3, [r7, #4]
 800129c:	681b      	ldr	r3, [r3, #0]
 800129e:	f8b3 3040 	ldrh.w	r3, [r3, #64]	@ 0x40
 80012a2:	b29a      	uxth	r2, r3
 80012a4:	687b      	ldr	r3, [r7, #4]
 80012a6:	681b      	ldr	r3, [r3, #0]
 80012a8:	f022 0201 	bic.w	r2, r2, #1
 80012ac:	b292      	uxth	r2, r2
 80012ae:	f8a3 2040 	strh.w	r2, [r3, #64]	@ 0x40

    /* wait for reset flag in ISTR */
    while ((hpcd->Instance->ISTR & USB_ISTR_RESET) == 0U)
 80012b2:	bf00      	nop
 80012b4:	687b      	ldr	r3, [r7, #4]
 80012b6:	681b      	ldr	r3, [r3, #0]
 80012b8:	f8b3 3044 	ldrh.w	r3, [r3, #68]	@ 0x44
 80012bc:	b29b      	uxth	r3, r3
 80012be:	f403 6380 	and.w	r3, r3, #1024	@ 0x400
 80012c2:	2b00      	cmp	r3, #0
 80012c4:	d0f6      	beq.n	80012b4 <HAL_PCD_IRQHandler+0x166>
    {
    }

    /* Clear Reset Flag */
    __HAL_PCD_CLEAR_FLAG(hpcd, USB_ISTR_RESET);
 80012c6:	687b      	ldr	r3, [r7, #4]
 80012c8:	681b      	ldr	r3, [r3, #0]
 80012ca:	f8b3 3044 	ldrh.w	r3, [r3, #68]	@ 0x44
 80012ce:	b29a      	uxth	r2, r3
 80012d0:	687b      	ldr	r3, [r7, #4]
 80012d2:	681b      	ldr	r3, [r3, #0]
 80012d4:	f422 6280 	bic.w	r2, r2, #1024	@ 0x400
 80012d8:	b292      	uxth	r2, r2
 80012da:	f8a3 2044 	strh.w	r2, [r3, #68]	@ 0x44

    /* Restore Registre */
    for (i = 0U; i < 8U; i++)
 80012de:	2300      	movs	r3, #0
 80012e0:	77fb      	strb	r3, [r7, #31]
 80012e2:	e00f      	b.n	8001304 <HAL_PCD_IRQHandler+0x1b6>
    {
      PCD_SET_ENDPOINT(hpcd->Instance, i, store_ep[i]);
 80012e4:	7ffb      	ldrb	r3, [r7, #31]
 80012e6:	687a      	ldr	r2, [r7, #4]
 80012e8:	6812      	ldr	r2, [r2, #0]
 80012ea:	4611      	mov	r1, r2
 80012ec:	7ffa      	ldrb	r2, [r7, #31]
 80012ee:	0092      	lsls	r2, r2, #2
 80012f0:	440a      	add	r2, r1
 80012f2:	005b      	lsls	r3, r3, #1
 80012f4:	3320      	adds	r3, #32
 80012f6:	443b      	add	r3, r7
 80012f8:	f833 3c18 	ldrh.w	r3, [r3, #-24]
 80012fc:	8013      	strh	r3, [r2, #0]
    for (i = 0U; i < 8U; i++)
 80012fe:	7ffb      	ldrb	r3, [r7, #31]
 8001300:	3301      	adds	r3, #1
 8001302:	77fb      	strb	r3, [r7, #31]
 8001304:	7ffb      	ldrb	r3, [r7, #31]
 8001306:	2b07      	cmp	r3, #7
 8001308:	d9ec      	bls.n	80012e4 <HAL_PCD_IRQHandler+0x196>
    }

    /* Force low-power mode in the macrocell */
    hpcd->Instance->CNTR |= (uint16_t)USB_CNTR_FSUSP;
 800130a:	687b      	ldr	r3, [r7, #4]
 800130c:	681b      	ldr	r3, [r3, #0]
 800130e:	f8b3 3040 	ldrh.w	r3, [r3, #64]	@ 0x40
 8001312:	b29a      	uxth	r2, r3
 8001314:	687b      	ldr	r3, [r7, #4]
 8001316:	681b      	ldr	r3, [r3, #0]
 8001318:	f042 0208 	orr.w	r2, r2, #8
 800131c:	b292      	uxth	r2, r2
 800131e:	f8a3 2040 	strh.w	r2, [r3, #64]	@ 0x40

    /* clear of the ISTR bit must be done after setting of CNTR_FSUSP */
    __HAL_PCD_CLEAR_FLAG(hpcd, USB_ISTR_SUSP);
 8001322:	687b      	ldr	r3, [r7, #4]
 8001324:	681b      	ldr	r3, [r3, #0]
 8001326:	f8b3 3044 	ldrh.w	r3, [r3, #68]	@ 0x44
 800132a:	b29a      	uxth	r2, r3
 800132c:	687b      	ldr	r3, [r7, #4]
 800132e:	681b      	ldr	r3, [r3, #0]
 8001330:	f422 6200 	bic.w	r2, r2, #2048	@ 0x800
 8001334:	b292      	uxth	r2, r2
 8001336:	f8a3 2044 	strh.w	r2, [r3, #68]	@ 0x44

    hpcd->Instance->CNTR |= (uint16_t)USB_CNTR_LP_MODE;
 800133a:	687b      	ldr	r3, [r7, #4]
 800133c:	681b      	ldr	r3, [r3, #0]
 800133e:	f8b3 3040 	ldrh.w	r3, [r3, #64]	@ 0x40
 8001342:	b29a      	uxth	r2, r3
 8001344:	687b      	ldr	r3, [r7, #4]
 8001346:	681b      	ldr	r3, [r3, #0]
 8001348:	f042 0204 	orr.w	r2, r2, #4
 800134c:	b292      	uxth	r2, r2
 800134e:	f8a3 2040 	strh.w	r2, [r3, #64]	@ 0x40

#if (USE_HAL_PCD_REGISTER_CALLBACKS == 1U)
    hpcd->SuspendCallback(hpcd);
#else
    HAL_PCD_SuspendCallback(hpcd);
 8001352:	6878      	ldr	r0, [r7, #4]
 8001354:	f006 fa56 	bl	8007804 <HAL_PCD_SuspendCallback>
#endif /* USE_HAL_PCD_REGISTER_CALLBACKS */

    return;
 8001358:	e026      	b.n	80013a8 <HAL_PCD_IRQHandler+0x25a>
  }

  if ((wIstr & USB_ISTR_SOF) == USB_ISTR_SOF)
 800135a:	69bb      	ldr	r3, [r7, #24]
 800135c:	f403 7300 	and.w	r3, r3, #512	@ 0x200
 8001360:	2b00      	cmp	r3, #0
 8001362:	d00f      	beq.n	8001384 <HAL_PCD_IRQHandler+0x236>
  {
    __HAL_PCD_CLEAR_FLAG(hpcd, USB_ISTR_SOF);
 8001364:	687b      	ldr	r3, [r7, #4]
 8001366:	681b      	ldr	r3, [r3, #0]
 8001368:	f8b3 3044 	ldrh.w	r3, [r3, #68]	@ 0x44
 800136c:	b29a      	uxth	r2, r3
 800136e:	687b      	ldr	r3, [r7, #4]
 8001370:	681b      	ldr	r3, [r3, #0]
 8001372:	f422 7200 	bic.w	r2, r2, #512	@ 0x200
 8001376:	b292      	uxth	r2, r2
 8001378:	f8a3 2044 	strh.w	r2, [r3, #68]	@ 0x44

#if (USE_HAL_PCD_REGISTER_CALLBACKS == 1U)
    hpcd->SOFCallback(hpcd);
#else
    HAL_PCD_SOFCallback(hpcd);
 800137c:	6878      	ldr	r0, [r7, #4]
 800137e:	f006 fa14 	bl	80077aa <HAL_PCD_SOFCallback>
#endif /* USE_HAL_PCD_REGISTER_CALLBACKS */

    return;
 8001382:	e011      	b.n	80013a8 <HAL_PCD_IRQHandler+0x25a>
  }

  if ((wIstr & USB_ISTR_ESOF) == USB_ISTR_ESOF)
 8001384:	69bb      	ldr	r3, [r7, #24]
 8001386:	f403 7380 	and.w	r3, r3, #256	@ 0x100
 800138a:	2b00      	cmp	r3, #0
 800138c:	d00c      	beq.n	80013a8 <HAL_PCD_IRQHandler+0x25a>
  {
    /* clear ESOF flag in ISTR */
    __HAL_PCD_CLEAR_FLAG(hpcd, USB_ISTR_ESOF);
 800138e:	687b      	ldr	r3, [r7, #4]
 8001390:	681b      	ldr	r3, [r3, #0]
 8001392:	f8b3 3044 	ldrh.w	r3, [r3, #68]	@ 0x44
 8001396:	b29a      	uxth	r2, r3
 8001398:	687b      	ldr	r3, [r7, #4]
 800139a:	681b      	ldr	r3, [r3, #0]
 800139c:	f422 7280 	bic.w	r2, r2, #256	@ 0x100
 80013a0:	b292      	uxth	r2, r2
 80013a2:	f8a3 2044 	strh.w	r2, [r3, #68]	@ 0x44

    return;
 80013a6:	bf00      	nop
  }
}
 80013a8:	3720      	adds	r7, #32
 80013aa:	46bd      	mov	sp, r7
 80013ac:	bd80      	pop	{r7, pc}

080013ae <HAL_PCD_SetAddress>:
  * @param  hpcd PCD handle
  * @param  address new device address
  * @retval HAL status
  */
HAL_StatusTypeDef HAL_PCD_SetAddress(PCD_HandleTypeDef *hpcd, uint8_t address)
{
 80013ae:	b580      	push	{r7, lr}
 80013b0:	b082      	sub	sp, #8
 80013b2:	af00      	add	r7, sp, #0
 80013b4:	6078      	str	r0, [r7, #4]
 80013b6:	460b      	mov	r3, r1
 80013b8:	70fb      	strb	r3, [r7, #3]
  __HAL_LOCK(hpcd);
 80013ba:	687b      	ldr	r3, [r7, #4]
 80013bc:	f893 3290 	ldrb.w	r3, [r3, #656]	@ 0x290
 80013c0:	2b01      	cmp	r3, #1
 80013c2:	d101      	bne.n	80013c8 <HAL_PCD_SetAddress+0x1a>
 80013c4:	2302      	movs	r3, #2
 80013c6:	e012      	b.n	80013ee <HAL_PCD_SetAddress+0x40>
 80013c8:	687b      	ldr	r3, [r7, #4]
 80013ca:	2201      	movs	r2, #1
 80013cc:	f883 2290 	strb.w	r2, [r3, #656]	@ 0x290
  hpcd->USB_Address = address;
 80013d0:	687b      	ldr	r3, [r7, #4]
 80013d2:	78fa      	ldrb	r2, [r7, #3]
 80013d4:	735a      	strb	r2, [r3, #13]
  (void)USB_SetDevAddress(hpcd->Instance, address);
 80013d6:	687b      	ldr	r3, [r7, #4]
 80013d8:	681b      	ldr	r3, [r3, #0]
 80013da:	78fa      	ldrb	r2, [r7, #3]
 80013dc:	4611      	mov	r1, r2
 80013de:	4618      	mov	r0, r3
 80013e0:	f004 fd5c 	bl	8005e9c <USB_SetDevAddress>
  __HAL_UNLOCK(hpcd);
 80013e4:	687b      	ldr	r3, [r7, #4]
 80013e6:	2200      	movs	r2, #0
 80013e8:	f883 2290 	strb.w	r2, [r3, #656]	@ 0x290

  return HAL_OK;
 80013ec:	2300      	movs	r3, #0
}
 80013ee:	4618      	mov	r0, r3
 80013f0:	3708      	adds	r7, #8
 80013f2:	46bd      	mov	sp, r7
 80013f4:	bd80      	pop	{r7, pc}

080013f6 <HAL_PCD_EP_Open>:
  * @param  ep_type endpoint type
  * @retval HAL status
  */
HAL_StatusTypeDef HAL_PCD_EP_Open(PCD_HandleTypeDef *hpcd, uint8_t ep_addr,
                                  uint16_t ep_mps, uint8_t ep_type)
{
 80013f6:	b580      	push	{r7, lr}
 80013f8:	b084      	sub	sp, #16
 80013fa:	af00      	add	r7, sp, #0
 80013fc:	6078      	str	r0, [r7, #4]
 80013fe:	4608      	mov	r0, r1
 8001400:	4611      	mov	r1, r2
 8001402:	461a      	mov	r2, r3
 8001404:	4603      	mov	r3, r0
 8001406:	70fb      	strb	r3, [r7, #3]
 8001408:	460b      	mov	r3, r1
 800140a:	803b      	strh	r3, [r7, #0]
 800140c:	4613      	mov	r3, r2
 800140e:	70bb      	strb	r3, [r7, #2]
  HAL_StatusTypeDef  ret = HAL_OK;
 8001410:	2300      	movs	r3, #0
 8001412:	72fb      	strb	r3, [r7, #11]
  PCD_EPTypeDef *ep;

  if ((ep_addr & 0x80U) == 0x80U)
 8001414:	f997 3003 	ldrsb.w	r3, [r7, #3]
 8001418:	2b00      	cmp	r3, #0
 800141a:	da0e      	bge.n	800143a <HAL_PCD_EP_Open+0x44>
  {
    ep = &hpcd->IN_ep[ep_addr & EP_ADDR_MSK];
 800141c:	78fb      	ldrb	r3, [r7, #3]
 800141e:	f003 0207 	and.w	r2, r3, #7
 8001422:	4613      	mov	r3, r2
 8001424:	009b      	lsls	r3, r3, #2
 8001426:	4413      	add	r3, r2
 8001428:	00db      	lsls	r3, r3, #3
 800142a:	3310      	adds	r3, #16
 800142c:	687a      	ldr	r2, [r7, #4]
 800142e:	4413      	add	r3, r2
 8001430:	60fb      	str	r3, [r7, #12]
    ep->is_in = 1U;
 8001432:	68fb      	ldr	r3, [r7, #12]
 8001434:	2201      	movs	r2, #1
 8001436:	705a      	strb	r2, [r3, #1]
 8001438:	e00e      	b.n	8001458 <HAL_PCD_EP_Open+0x62>
  }
  else
  {
    ep = &hpcd->OUT_ep[ep_addr & EP_ADDR_MSK];
 800143a:	78fb      	ldrb	r3, [r7, #3]
 800143c:	f003 0207 	and.w	r2, r3, #7
 8001440:	4613      	mov	r3, r2
 8001442:	009b      	lsls	r3, r3, #2
 8001444:	4413      	add	r3, r2
 8001446:	00db      	lsls	r3, r3, #3
 8001448:	f503 73a8 	add.w	r3, r3, #336	@ 0x150
 800144c:	687a      	ldr	r2, [r7, #4]
 800144e:	4413      	add	r3, r2
 8001450:	60fb      	str	r3, [r7, #12]
    ep->is_in = 0U;
 8001452:	68fb      	ldr	r3, [r7, #12]
 8001454:	2200      	movs	r2, #0
 8001456:	705a      	strb	r2, [r3, #1]
  }

  ep->num = ep_addr & EP_ADDR_MSK;
 8001458:	78fb      	ldrb	r3, [r7, #3]
 800145a:	f003 0307 	and.w	r3, r3, #7
 800145e:	b2da      	uxtb	r2, r3
 8001460:	68fb      	ldr	r3, [r7, #12]
 8001462:	701a      	strb	r2, [r3, #0]
  ep->maxpacket = ep_mps;
 8001464:	883a      	ldrh	r2, [r7, #0]
 8001466:	68fb      	ldr	r3, [r7, #12]
 8001468:	611a      	str	r2, [r3, #16]
  ep->type = ep_type;
 800146a:	68fb      	ldr	r3, [r7, #12]
 800146c:	78ba      	ldrb	r2, [r7, #2]
 800146e:	70da      	strb	r2, [r3, #3]
    ep->tx_fifo_num = ep->num;
  }
#endif /* defined (USB_OTG_FS) */

  /* Set initial data PID. */
  if (ep_type == EP_TYPE_BULK)
 8001470:	78bb      	ldrb	r3, [r7, #2]
 8001472:	2b02      	cmp	r3, #2
 8001474:	d102      	bne.n	800147c <HAL_PCD_EP_Open+0x86>
  {
    ep->data_pid_start = 0U;
 8001476:	68fb      	ldr	r3, [r7, #12]
 8001478:	2200      	movs	r2, #0
 800147a:	711a      	strb	r2, [r3, #4]
  }

  __HAL_LOCK(hpcd);
 800147c:	687b      	ldr	r3, [r7, #4]
 800147e:	f893 3290 	ldrb.w	r3, [r3, #656]	@ 0x290
 8001482:	2b01      	cmp	r3, #1
 8001484:	d101      	bne.n	800148a <HAL_PCD_EP_Open+0x94>
 8001486:	2302      	movs	r3, #2
 8001488:	e00e      	b.n	80014a8 <HAL_PCD_EP_Open+0xb2>
 800148a:	687b      	ldr	r3, [r7, #4]
 800148c:	2201      	movs	r2, #1
 800148e:	f883 2290 	strb.w	r2, [r3, #656]	@ 0x290
  (void)USB_ActivateEndpoint(hpcd->Instance, ep);
 8001492:	687b      	ldr	r3, [r7, #4]
 8001494:	681b      	ldr	r3, [r3, #0]
 8001496:	68f9      	ldr	r1, [r7, #12]
 8001498:	4618      	mov	r0, r3
 800149a:	f002 faa5 	bl	80039e8 <USB_ActivateEndpoint>
  __HAL_UNLOCK(hpcd);
 800149e:	687b      	ldr	r3, [r7, #4]
 80014a0:	2200      	movs	r2, #0
 80014a2:	f883 2290 	strb.w	r2, [r3, #656]	@ 0x290

  return ret;
 80014a6:	7afb      	ldrb	r3, [r7, #11]
}
 80014a8:	4618      	mov	r0, r3
 80014aa:	3710      	adds	r7, #16
 80014ac:	46bd      	mov	sp, r7
 80014ae:	bd80      	pop	{r7, pc}

080014b0 <HAL_PCD_EP_Close>:
  * @param  hpcd PCD handle
  * @param  ep_addr endpoint address
  * @retval HAL status
  */
HAL_StatusTypeDef HAL_PCD_EP_Close(PCD_HandleTypeDef *hpcd, uint8_t ep_addr)
{
 80014b0:	b580      	push	{r7, lr}
 80014b2:	b084      	sub	sp, #16
 80014b4:	af00      	add	r7, sp, #0
 80014b6:	6078      	str	r0, [r7, #4]
 80014b8:	460b      	mov	r3, r1
 80014ba:	70fb      	strb	r3, [r7, #3]
  PCD_EPTypeDef *ep;

  if ((ep_addr & 0x80U) == 0x80U)
 80014bc:	f997 3003 	ldrsb.w	r3, [r7, #3]
 80014c0:	2b00      	cmp	r3, #0
 80014c2:	da0e      	bge.n	80014e2 <HAL_PCD_EP_Close+0x32>
  {
    ep = &hpcd->IN_ep[ep_addr & EP_ADDR_MSK];
 80014c4:	78fb      	ldrb	r3, [r7, #3]
 80014c6:	f003 0207 	and.w	r2, r3, #7
 80014ca:	4613      	mov	r3, r2
 80014cc:	009b      	lsls	r3, r3, #2
 80014ce:	4413      	add	r3, r2
 80014d0:	00db      	lsls	r3, r3, #3
 80014d2:	3310      	adds	r3, #16
 80014d4:	687a      	ldr	r2, [r7, #4]
 80014d6:	4413      	add	r3, r2
 80014d8:	60fb      	str	r3, [r7, #12]
    ep->is_in = 1U;
 80014da:	68fb      	ldr	r3, [r7, #12]
 80014dc:	2201      	movs	r2, #1
 80014de:	705a      	strb	r2, [r3, #1]
 80014e0:	e00e      	b.n	8001500 <HAL_PCD_EP_Close+0x50>
  }
  else
  {
    ep = &hpcd->OUT_ep[ep_addr & EP_ADDR_MSK];
 80014e2:	78fb      	ldrb	r3, [r7, #3]
 80014e4:	f003 0207 	and.w	r2, r3, #7
 80014e8:	4613      	mov	r3, r2
 80014ea:	009b      	lsls	r3, r3, #2
 80014ec:	4413      	add	r3, r2
 80014ee:	00db      	lsls	r3, r3, #3
 80014f0:	f503 73a8 	add.w	r3, r3, #336	@ 0x150
 80014f4:	687a      	ldr	r2, [r7, #4]
 80014f6:	4413      	add	r3, r2
 80014f8:	60fb      	str	r3, [r7, #12]
    ep->is_in = 0U;
 80014fa:	68fb      	ldr	r3, [r7, #12]
 80014fc:	2200      	movs	r2, #0
 80014fe:	705a      	strb	r2, [r3, #1]
  }
  ep->num = ep_addr & EP_ADDR_MSK;
 8001500:	78fb      	ldrb	r3, [r7, #3]
 8001502:	f003 0307 	and.w	r3, r3, #7
 8001506:	b2da      	uxtb	r2, r3
 8001508:	68fb      	ldr	r3, [r7, #12]
 800150a:	701a      	strb	r2, [r3, #0]

  __HAL_LOCK(hpcd);
 800150c:	687b      	ldr	r3, [r7, #4]
 800150e:	f893 3290 	ldrb.w	r3, [r3, #656]	@ 0x290
 8001512:	2b01      	cmp	r3, #1
 8001514:	d101      	bne.n	800151a <HAL_PCD_EP_Close+0x6a>
 8001516:	2302      	movs	r3, #2
 8001518:	e00e      	b.n	8001538 <HAL_PCD_EP_Close+0x88>
 800151a:	687b      	ldr	r3, [r7, #4]
 800151c:	2201      	movs	r2, #1
 800151e:	f883 2290 	strb.w	r2, [r3, #656]	@ 0x290
  (void)USB_DeactivateEndpoint(hpcd->Instance, ep);
 8001522:	687b      	ldr	r3, [r7, #4]
 8001524:	681b      	ldr	r3, [r3, #0]
 8001526:	68f9      	ldr	r1, [r7, #12]
 8001528:	4618      	mov	r0, r3
 800152a:	f002 fe1d 	bl	8004168 <USB_DeactivateEndpoint>
  __HAL_UNLOCK(hpcd);
 800152e:	687b      	ldr	r3, [r7, #4]
 8001530:	2200      	movs	r2, #0
 8001532:	f883 2290 	strb.w	r2, [r3, #656]	@ 0x290
  return HAL_OK;
 8001536:	2300      	movs	r3, #0
}
 8001538:	4618      	mov	r0, r3
 800153a:	3710      	adds	r7, #16
 800153c:	46bd      	mov	sp, r7
 800153e:	bd80      	pop	{r7, pc}

08001540 <HAL_PCD_EP_Receive>:
  * @param  pBuf pointer to the reception buffer
  * @param  len amount of data to be received
  * @retval HAL status
  */
HAL_StatusTypeDef HAL_PCD_EP_Receive(PCD_HandleTypeDef *hpcd, uint8_t ep_addr, uint8_t *pBuf, uint32_t len)
{
 8001540:	b580      	push	{r7, lr}
 8001542:	b086      	sub	sp, #24
 8001544:	af00      	add	r7, sp, #0
 8001546:	60f8      	str	r0, [r7, #12]
 8001548:	607a      	str	r2, [r7, #4]
 800154a:	603b      	str	r3, [r7, #0]
 800154c:	460b      	mov	r3, r1
 800154e:	72fb      	strb	r3, [r7, #11]
  PCD_EPTypeDef *ep;

  ep = &hpcd->OUT_ep[ep_addr & EP_ADDR_MSK];
 8001550:	7afb      	ldrb	r3, [r7, #11]
 8001552:	f003 0207 	and.w	r2, r3, #7
 8001556:	4613      	mov	r3, r2
 8001558:	009b      	lsls	r3, r3, #2
 800155a:	4413      	add	r3, r2
 800155c:	00db      	lsls	r3, r3, #3
 800155e:	f503 73a8 	add.w	r3, r3, #336	@ 0x150
 8001562:	68fa      	ldr	r2, [r7, #12]
 8001564:	4413      	add	r3, r2
 8001566:	617b      	str	r3, [r7, #20]

  /*setup and start the Xfer */
  ep->xfer_buff = pBuf;
 8001568:	697b      	ldr	r3, [r7, #20]
 800156a:	687a      	ldr	r2, [r7, #4]
 800156c:	615a      	str	r2, [r3, #20]
  ep->xfer_len = len;
 800156e:	697b      	ldr	r3, [r7, #20]
 8001570:	683a      	ldr	r2, [r7, #0]
 8001572:	619a      	str	r2, [r3, #24]
  ep->xfer_count = 0U;
 8001574:	697b      	ldr	r3, [r7, #20]
 8001576:	2200      	movs	r2, #0
 8001578:	61da      	str	r2, [r3, #28]
  ep->is_in = 0U;
 800157a:	697b      	ldr	r3, [r7, #20]
 800157c:	2200      	movs	r2, #0
 800157e:	705a      	strb	r2, [r3, #1]
  ep->num = ep_addr & EP_ADDR_MSK;
 8001580:	7afb      	ldrb	r3, [r7, #11]
 8001582:	f003 0307 	and.w	r3, r3, #7
 8001586:	b2da      	uxtb	r2, r3
 8001588:	697b      	ldr	r3, [r7, #20]
 800158a:	701a      	strb	r2, [r3, #0]

  (void)USB_EPStartXfer(hpcd->Instance, ep);
 800158c:	68fb      	ldr	r3, [r7, #12]
 800158e:	681b      	ldr	r3, [r3, #0]
 8001590:	6979      	ldr	r1, [r7, #20]
 8001592:	4618      	mov	r0, r3
 8001594:	f002 ffd4 	bl	8004540 <USB_EPStartXfer>

  return HAL_OK;
 8001598:	2300      	movs	r3, #0
}
 800159a:	4618      	mov	r0, r3
 800159c:	3718      	adds	r7, #24
 800159e:	46bd      	mov	sp, r7
 80015a0:	bd80      	pop	{r7, pc}

080015a2 <HAL_PCD_EP_Transmit>:
  * @param  pBuf pointer to the transmission buffer
  * @param  len amount of data to be sent
  * @retval HAL status
  */
HAL_StatusTypeDef HAL_PCD_EP_Transmit(PCD_HandleTypeDef *hpcd, uint8_t ep_addr, uint8_t *pBuf, uint32_t len)
{
 80015a2:	b580      	push	{r7, lr}
 80015a4:	b086      	sub	sp, #24
 80015a6:	af00      	add	r7, sp, #0
 80015a8:	60f8      	str	r0, [r7, #12]
 80015aa:	607a      	str	r2, [r7, #4]
 80015ac:	603b      	str	r3, [r7, #0]
 80015ae:	460b      	mov	r3, r1
 80015b0:	72fb      	strb	r3, [r7, #11]
  PCD_EPTypeDef *ep;

  ep = &hpcd->IN_ep[ep_addr & EP_ADDR_MSK];
 80015b2:	7afb      	ldrb	r3, [r7, #11]
 80015b4:	f003 0207 	and.w	r2, r3, #7
 80015b8:	4613      	mov	r3, r2
 80015ba:	009b      	lsls	r3, r3, #2
 80015bc:	4413      	add	r3, r2
 80015be:	00db      	lsls	r3, r3, #3
 80015c0:	3310      	adds	r3, #16
 80015c2:	68fa      	ldr	r2, [r7, #12]
 80015c4:	4413      	add	r3, r2
 80015c6:	617b      	str	r3, [r7, #20]

  /*setup and start the Xfer */
  ep->xfer_buff = pBuf;
 80015c8:	697b      	ldr	r3, [r7, #20]
 80015ca:	687a      	ldr	r2, [r7, #4]
 80015cc:	615a      	str	r2, [r3, #20]
  ep->xfer_len = len;
 80015ce:	697b      	ldr	r3, [r7, #20]
 80015d0:	683a      	ldr	r2, [r7, #0]
 80015d2:	619a      	str	r2, [r3, #24]
#if defined (USB)
  ep->xfer_fill_db = 1U;
 80015d4:	697b      	ldr	r3, [r7, #20]
 80015d6:	2201      	movs	r2, #1
 80015d8:	f883 2024 	strb.w	r2, [r3, #36]	@ 0x24
  ep->xfer_len_db = len;
 80015dc:	697b      	ldr	r3, [r7, #20]
 80015de:	683a      	ldr	r2, [r7, #0]
 80015e0:	621a      	str	r2, [r3, #32]
#endif /* defined (USB) */
  ep->xfer_count = 0U;
 80015e2:	697b      	ldr	r3, [r7, #20]
 80015e4:	2200      	movs	r2, #0
 80015e6:	61da      	str	r2, [r3, #28]
  ep->is_in = 1U;
 80015e8:	697b      	ldr	r3, [r7, #20]
 80015ea:	2201      	movs	r2, #1
 80015ec:	705a      	strb	r2, [r3, #1]
  ep->num = ep_addr & EP_ADDR_MSK;
 80015ee:	7afb      	ldrb	r3, [r7, #11]
 80015f0:	f003 0307 	and.w	r3, r3, #7
 80015f4:	b2da      	uxtb	r2, r3
 80015f6:	697b      	ldr	r3, [r7, #20]
 80015f8:	701a      	strb	r2, [r3, #0]

  (void)USB_EPStartXfer(hpcd->Instance, ep);
 80015fa:	68fb      	ldr	r3, [r7, #12]
 80015fc:	681b      	ldr	r3, [r3, #0]
 80015fe:	6979      	ldr	r1, [r7, #20]
 8001600:	4618      	mov	r0, r3
 8001602:	f002 ff9d 	bl	8004540 <USB_EPStartXfer>

  return HAL_OK;
 8001606:	2300      	movs	r3, #0
}
 8001608:	4618      	mov	r0, r3
 800160a:	3718      	adds	r7, #24
 800160c:	46bd      	mov	sp, r7
 800160e:	bd80      	pop	{r7, pc}

08001610 <HAL_PCD_EP_SetStall>:
  * @param  hpcd PCD handle
  * @param  ep_addr endpoint address
  * @retval HAL status
  */
HAL_StatusTypeDef HAL_PCD_EP_SetStall(PCD_HandleTypeDef *hpcd, uint8_t ep_addr)
{
 8001610:	b580      	push	{r7, lr}
 8001612:	b084      	sub	sp, #16
 8001614:	af00      	add	r7, sp, #0
 8001616:	6078      	str	r0, [r7, #4]
 8001618:	460b      	mov	r3, r1
 800161a:	70fb      	strb	r3, [r7, #3]
  PCD_EPTypeDef *ep;

  if (((uint32_t)ep_addr & EP_ADDR_MSK) > hpcd->Init.dev_endpoints)
 800161c:	78fb      	ldrb	r3, [r7, #3]
 800161e:	f003 0307 	and.w	r3, r3, #7
 8001622:	687a      	ldr	r2, [r7, #4]
 8001624:	7912      	ldrb	r2, [r2, #4]
 8001626:	4293      	cmp	r3, r2
 8001628:	d901      	bls.n	800162e <HAL_PCD_EP_SetStall+0x1e>
  {
    return HAL_ERROR;
 800162a:	2301      	movs	r3, #1
 800162c:	e04c      	b.n	80016c8 <HAL_PCD_EP_SetStall+0xb8>
  }

  if ((0x80U & ep_addr) == 0x80U)
 800162e:	f997 3003 	ldrsb.w	r3, [r7, #3]
 8001632:	2b00      	cmp	r3, #0
 8001634:	da0e      	bge.n	8001654 <HAL_PCD_EP_SetStall+0x44>
  {
    ep = &hpcd->IN_ep[ep_addr & EP_ADDR_MSK];
 8001636:	78fb      	ldrb	r3, [r7, #3]
 8001638:	f003 0207 	and.w	r2, r3, #7
 800163c:	4613      	mov	r3, r2
 800163e:	009b      	lsls	r3, r3, #2
 8001640:	4413      	add	r3, r2
 8001642:	00db      	lsls	r3, r3, #3
 8001644:	3310      	adds	r3, #16
 8001646:	687a      	ldr	r2, [r7, #4]
 8001648:	4413      	add	r3, r2
 800164a:	60fb      	str	r3, [r7, #12]
    ep->is_in = 1U;
 800164c:	68fb      	ldr	r3, [r7, #12]
 800164e:	2201      	movs	r2, #1
 8001650:	705a      	strb	r2, [r3, #1]
 8001652:	e00c      	b.n	800166e <HAL_PCD_EP_SetStall+0x5e>
  }
  else
  {
    ep = &hpcd->OUT_ep[ep_addr];
 8001654:	78fa      	ldrb	r2, [r7, #3]
 8001656:	4613      	mov	r3, r2
 8001658:	009b      	lsls	r3, r3, #2
 800165a:	4413      	add	r3, r2
 800165c:	00db      	lsls	r3, r3, #3
 800165e:	f503 73a8 	add.w	r3, r3, #336	@ 0x150
 8001662:	687a      	ldr	r2, [r7, #4]
 8001664:	4413      	add	r3, r2
 8001666:	60fb      	str	r3, [r7, #12]
    ep->is_in = 0U;
 8001668:	68fb      	ldr	r3, [r7, #12]
 800166a:	2200      	movs	r2, #0
 800166c:	705a      	strb	r2, [r3, #1]
  }

  ep->is_stall = 1U;
 800166e:	68fb      	ldr	r3, [r7, #12]
 8001670:	2201      	movs	r2, #1
 8001672:	709a      	strb	r2, [r3, #2]
  ep->num = ep_addr & EP_ADDR_MSK;
 8001674:	78fb      	ldrb	r3, [r7, #3]
 8001676:	f003 0307 	and.w	r3, r3, #7
 800167a:	b2da      	uxtb	r2, r3
 800167c:	68fb      	ldr	r3, [r7, #12]
 800167e:	701a      	strb	r2, [r3, #0]

  __HAL_LOCK(hpcd);
 8001680:	687b      	ldr	r3, [r7, #4]
 8001682:	f893 3290 	ldrb.w	r3, [r3, #656]	@ 0x290
 8001686:	2b01      	cmp	r3, #1
 8001688:	d101      	bne.n	800168e <HAL_PCD_EP_SetStall+0x7e>
 800168a:	2302      	movs	r3, #2
 800168c:	e01c      	b.n	80016c8 <HAL_PCD_EP_SetStall+0xb8>
 800168e:	687b      	ldr	r3, [r7, #4]
 8001690:	2201      	movs	r2, #1
 8001692:	f883 2290 	strb.w	r2, [r3, #656]	@ 0x290

  (void)USB_EPSetStall(hpcd->Instance, ep);
 8001696:	687b      	ldr	r3, [r7, #4]
 8001698:	681b      	ldr	r3, [r3, #0]
 800169a:	68f9      	ldr	r1, [r7, #12]
 800169c:	4618      	mov	r0, r3
 800169e:	f004 fb00 	bl	8005ca2 <USB_EPSetStall>

  if ((ep_addr & EP_ADDR_MSK) == 0U)
 80016a2:	78fb      	ldrb	r3, [r7, #3]
 80016a4:	f003 0307 	and.w	r3, r3, #7
 80016a8:	2b00      	cmp	r3, #0
 80016aa:	d108      	bne.n	80016be <HAL_PCD_EP_SetStall+0xae>
  {
    (void)USB_EP0_OutStart(hpcd->Instance, (uint8_t *)hpcd->Setup);
 80016ac:	687b      	ldr	r3, [r7, #4]
 80016ae:	681a      	ldr	r2, [r3, #0]
 80016b0:	687b      	ldr	r3, [r7, #4]
 80016b2:	f503 7326 	add.w	r3, r3, #664	@ 0x298
 80016b6:	4619      	mov	r1, r3
 80016b8:	4610      	mov	r0, r2
 80016ba:	f004 fc25 	bl	8005f08 <USB_EP0_OutStart>
  }

  __HAL_UNLOCK(hpcd);
 80016be:	687b      	ldr	r3, [r7, #4]
 80016c0:	2200      	movs	r2, #0
 80016c2:	f883 2290 	strb.w	r2, [r3, #656]	@ 0x290

  return HAL_OK;
 80016c6:	2300      	movs	r3, #0
}
 80016c8:	4618      	mov	r0, r3
 80016ca:	3710      	adds	r7, #16
 80016cc:	46bd      	mov	sp, r7
 80016ce:	bd80      	pop	{r7, pc}

080016d0 <HAL_PCD_EP_ClrStall>:
  * @param  hpcd PCD handle
  * @param  ep_addr endpoint address
  * @retval HAL status
  */
HAL_StatusTypeDef HAL_PCD_EP_ClrStall(PCD_HandleTypeDef *hpcd, uint8_t ep_addr)
{
 80016d0:	b580      	push	{r7, lr}
 80016d2:	b084      	sub	sp, #16
 80016d4:	af00      	add	r7, sp, #0
 80016d6:	6078      	str	r0, [r7, #4]
 80016d8:	460b      	mov	r3, r1
 80016da:	70fb      	strb	r3, [r7, #3]
  PCD_EPTypeDef *ep;

  if (((uint32_t)ep_addr & 0x0FU) > hpcd->Init.dev_endpoints)
 80016dc:	78fb      	ldrb	r3, [r7, #3]
 80016de:	f003 030f 	and.w	r3, r3, #15
 80016e2:	687a      	ldr	r2, [r7, #4]
 80016e4:	7912      	ldrb	r2, [r2, #4]
 80016e6:	4293      	cmp	r3, r2
 80016e8:	d901      	bls.n	80016ee <HAL_PCD_EP_ClrStall+0x1e>
  {
    return HAL_ERROR;
 80016ea:	2301      	movs	r3, #1
 80016ec:	e040      	b.n	8001770 <HAL_PCD_EP_ClrStall+0xa0>
  }

  if ((0x80U & ep_addr) == 0x80U)
 80016ee:	f997 3003 	ldrsb.w	r3, [r7, #3]
 80016f2:	2b00      	cmp	r3, #0
 80016f4:	da0e      	bge.n	8001714 <HAL_PCD_EP_ClrStall+0x44>
  {
    ep = &hpcd->IN_ep[ep_addr & EP_ADDR_MSK];
 80016f6:	78fb      	ldrb	r3, [r7, #3]
 80016f8:	f003 0207 	and.w	r2, r3, #7
 80016fc:	4613      	mov	r3, r2
 80016fe:	009b      	lsls	r3, r3, #2
 8001700:	4413      	add	r3, r2
 8001702:	00db      	lsls	r3, r3, #3
 8001704:	3310      	adds	r3, #16
 8001706:	687a      	ldr	r2, [r7, #4]
 8001708:	4413      	add	r3, r2
 800170a:	60fb      	str	r3, [r7, #12]
    ep->is_in = 1U;
 800170c:	68fb      	ldr	r3, [r7, #12]
 800170e:	2201      	movs	r2, #1
 8001710:	705a      	strb	r2, [r3, #1]
 8001712:	e00e      	b.n	8001732 <HAL_PCD_EP_ClrStall+0x62>
  }
  else
  {
    ep = &hpcd->OUT_ep[ep_addr & EP_ADDR_MSK];
 8001714:	78fb      	ldrb	r3, [r7, #3]
 8001716:	f003 0207 	and.w	r2, r3, #7
 800171a:	4613      	mov	r3, r2
 800171c:	009b      	lsls	r3, r3, #2
 800171e:	4413      	add	r3, r2
 8001720:	00db      	lsls	r3, r3, #3
 8001722:	f503 73a8 	add.w	r3, r3, #336	@ 0x150
 8001726:	687a      	ldr	r2, [r7, #4]
 8001728:	4413      	add	r3, r2
 800172a:	60fb      	str	r3, [r7, #12]
    ep->is_in = 0U;
 800172c:	68fb      	ldr	r3, [r7, #12]
 800172e:	2200      	movs	r2, #0
 8001730:	705a      	strb	r2, [r3, #1]
  }

  ep->is_stall = 0U;
 8001732:	68fb      	ldr	r3, [r7, #12]
 8001734:	2200      	movs	r2, #0
 8001736:	709a      	strb	r2, [r3, #2]
  ep->num = ep_addr & EP_ADDR_MSK;
 8001738:	78fb      	ldrb	r3, [r7, #3]
 800173a:	f003 0307 	and.w	r3, r3, #7
 800173e:	b2da      	uxtb	r2, r3
 8001740:	68fb      	ldr	r3, [r7, #12]
 8001742:	701a      	strb	r2, [r3, #0]

  __HAL_LOCK(hpcd);
 8001744:	687b      	ldr	r3, [r7, #4]
 8001746:	f893 3290 	ldrb.w	r3, [r3, #656]	@ 0x290
 800174a:	2b01      	cmp	r3, #1
 800174c:	d101      	bne.n	8001752 <HAL_PCD_EP_ClrStall+0x82>
 800174e:	2302      	movs	r3, #2
 8001750:	e00e      	b.n	8001770 <HAL_PCD_EP_ClrStall+0xa0>
 8001752:	687b      	ldr	r3, [r7, #4]
 8001754:	2201      	movs	r2, #1
 8001756:	f883 2290 	strb.w	r2, [r3, #656]	@ 0x290
  (void)USB_EPClearStall(hpcd->Instance, ep);
 800175a:	687b      	ldr	r3, [r7, #4]
 800175c:	681b      	ldr	r3, [r3, #0]
 800175e:	68f9      	ldr	r1, [r7, #12]
 8001760:	4618      	mov	r0, r3
 8001762:	f004 faee 	bl	8005d42 <USB_EPClearStall>
  __HAL_UNLOCK(hpcd);
 8001766:	687b      	ldr	r3, [r7, #4]
 8001768:	2200      	movs	r2, #0
 800176a:	f883 2290 	strb.w	r2, [r3, #656]	@ 0x290

  return HAL_OK;
 800176e:	2300      	movs	r3, #0
}
 8001770:	4618      	mov	r0, r3
 8001772:	3710      	adds	r7, #16
 8001774:	46bd      	mov	sp, r7
 8001776:	bd80      	pop	{r7, pc}

08001778 <PCD_EP_ISR_Handler>:
  * @brief  This function handles PCD Endpoint interrupt request.
  * @param  hpcd PCD handle
  * @retval HAL status
  */
static HAL_StatusTypeDef PCD_EP_ISR_Handler(PCD_HandleTypeDef *hpcd)
{
 8001778:	b580      	push	{r7, lr}
 800177a:	b096      	sub	sp, #88	@ 0x58
 800177c:	af00      	add	r7, sp, #0
 800177e:	6078      	str	r0, [r7, #4]
#if (USE_USB_DOUBLE_BUFFER != 1U)
  count = 0U;
#endif /* USE_USB_DOUBLE_BUFFER */

  /* stay in loop while pending interrupts */
  while ((hpcd->Instance->ISTR & USB_ISTR_CTR) != 0U)
 8001780:	e3bb      	b.n	8001efa <PCD_EP_ISR_Handler+0x782>
  {
    wIstr = hpcd->Instance->ISTR;
 8001782:	687b      	ldr	r3, [r7, #4]
 8001784:	681b      	ldr	r3, [r3, #0]
 8001786:	f8b3 3044 	ldrh.w	r3, [r3, #68]	@ 0x44
 800178a:	f8a7 304e 	strh.w	r3, [r7, #78]	@ 0x4e

    /* extract highest priority endpoint number */
    epindex = (uint8_t)(wIstr & USB_ISTR_EP_ID);
 800178e:	f8b7 304e 	ldrh.w	r3, [r7, #78]	@ 0x4e
 8001792:	b2db      	uxtb	r3, r3
 8001794:	f003 030f 	and.w	r3, r3, #15
 8001798:	f887 304d 	strb.w	r3, [r7, #77]	@ 0x4d

    if (epindex == 0U)
 800179c:	f897 304d 	ldrb.w	r3, [r7, #77]	@ 0x4d
 80017a0:	2b00      	cmp	r3, #0
 80017a2:	f040 8175 	bne.w	8001a90 <PCD_EP_ISR_Handler+0x318>
    {
      /* Decode and service control endpoint interrupt */

      /* DIR bit = origin of the interrupt */
      if ((wIstr & USB_ISTR_DIR) == 0U)
 80017a6:	f8b7 304e 	ldrh.w	r3, [r7, #78]	@ 0x4e
 80017aa:	f003 0310 	and.w	r3, r3, #16
 80017ae:	2b00      	cmp	r3, #0
 80017b0:	d14e      	bne.n	8001850 <PCD_EP_ISR_Handler+0xd8>
      {
        /* DIR = 0 */

        /* DIR = 0 => IN  int */
        /* DIR = 0 implies that (EP_CTR_TX = 1) always */
        PCD_CLEAR_TX_EP_CTR(hpcd->Instance, PCD_ENDP0);
 80017b2:	687b      	ldr	r3, [r7, #4]
 80017b4:	681b      	ldr	r3, [r3, #0]
 80017b6:	881b      	ldrh	r3, [r3, #0]
 80017b8:	b29b      	uxth	r3, r3
 80017ba:	f423 43e1 	bic.w	r3, r3, #28800	@ 0x7080
 80017be:	f023 0370 	bic.w	r3, r3, #112	@ 0x70
 80017c2:	81fb      	strh	r3, [r7, #14]
 80017c4:	687b      	ldr	r3, [r7, #4]
 80017c6:	681a      	ldr	r2, [r3, #0]
 80017c8:	89fb      	ldrh	r3, [r7, #14]
 80017ca:	ea6f 4343 	mvn.w	r3, r3, lsl #17
 80017ce:	ea6f 4353 	mvn.w	r3, r3, lsr #17
 80017d2:	b29b      	uxth	r3, r3
 80017d4:	8013      	strh	r3, [r2, #0]
        ep = &hpcd->IN_ep[0];
 80017d6:	687b      	ldr	r3, [r7, #4]
 80017d8:	3310      	adds	r3, #16
 80017da:	657b      	str	r3, [r7, #84]	@ 0x54

        ep->xfer_count = PCD_GET_EP_TX_CNT(hpcd->Instance, ep->num);
 80017dc:	687b      	ldr	r3, [r7, #4]
 80017de:	681b      	ldr	r3, [r3, #0]
 80017e0:	f8b3 3050 	ldrh.w	r3, [r3, #80]	@ 0x50
 80017e4:	b29b      	uxth	r3, r3
 80017e6:	461a      	mov	r2, r3
 80017e8:	6d7b      	ldr	r3, [r7, #84]	@ 0x54
 80017ea:	781b      	ldrb	r3, [r3, #0]
 80017ec:	00db      	lsls	r3, r3, #3
 80017ee:	4413      	add	r3, r2
 80017f0:	3302      	adds	r3, #2
 80017f2:	005b      	lsls	r3, r3, #1
 80017f4:	687a      	ldr	r2, [r7, #4]
 80017f6:	6812      	ldr	r2, [r2, #0]
 80017f8:	4413      	add	r3, r2
 80017fa:	f503 6380 	add.w	r3, r3, #1024	@ 0x400
 80017fe:	881b      	ldrh	r3, [r3, #0]
 8001800:	f3c3 0209 	ubfx	r2, r3, #0, #10
 8001804:	6d7b      	ldr	r3, [r7, #84]	@ 0x54
 8001806:	61da      	str	r2, [r3, #28]
        ep->xfer_buff += ep->xfer_count;
 8001808:	6d7b      	ldr	r3, [r7, #84]	@ 0x54
 800180a:	695a      	ldr	r2, [r3, #20]
 800180c:	6d7b      	ldr	r3, [r7, #84]	@ 0x54
 800180e:	69db      	ldr	r3, [r3, #28]
 8001810:	441a      	add	r2, r3
 8001812:	6d7b      	ldr	r3, [r7, #84]	@ 0x54
 8001814:	615a      	str	r2, [r3, #20]

        /* TX COMPLETE */
#if (USE_HAL_PCD_REGISTER_CALLBACKS == 1U)
        hpcd->DataInStageCallback(hpcd, 0U);
#else
        HAL_PCD_DataInStageCallback(hpcd, 0U);
 8001816:	2100      	movs	r1, #0
 8001818:	6878      	ldr	r0, [r7, #4]
 800181a:	f005 ffac 	bl	8007776 <HAL_PCD_DataInStageCallback>
#endif /* USE_HAL_PCD_REGISTER_CALLBACKS */

        if ((hpcd->USB_Address > 0U) && (ep->xfer_len == 0U))
 800181e:	687b      	ldr	r3, [r7, #4]
 8001820:	7b5b      	ldrb	r3, [r3, #13]
 8001822:	b2db      	uxtb	r3, r3
 8001824:	2b00      	cmp	r3, #0
 8001826:	f000 8368 	beq.w	8001efa <PCD_EP_ISR_Handler+0x782>
 800182a:	6d7b      	ldr	r3, [r7, #84]	@ 0x54
 800182c:	699b      	ldr	r3, [r3, #24]
 800182e:	2b00      	cmp	r3, #0
 8001830:	f040 8363 	bne.w	8001efa <PCD_EP_ISR_Handler+0x782>
        {
          hpcd->Instance->DADDR = ((uint16_t)hpcd->USB_Address | USB_DADDR_EF);
 8001834:	687b      	ldr	r3, [r7, #4]
 8001836:	7b5b      	ldrb	r3, [r3, #13]
 8001838:	b2db      	uxtb	r3, r3
 800183a:	f063 037f 	orn	r3, r3, #127	@ 0x7f
 800183e:	b2da      	uxtb	r2, r3
 8001840:	687b      	ldr	r3, [r7, #4]
 8001842:	681b      	ldr	r3, [r3, #0]
 8001844:	f8a3 204c 	strh.w	r2, [r3, #76]	@ 0x4c
          hpcd->USB_Address = 0U;
 8001848:	687b      	ldr	r3, [r7, #4]
 800184a:	2200      	movs	r2, #0
 800184c:	735a      	strb	r2, [r3, #13]
 800184e:	e354      	b.n	8001efa <PCD_EP_ISR_Handler+0x782>
      {
        /* DIR = 1 */

        /* DIR = 1 & CTR_RX => SETUP or OUT int */
        /* DIR = 1 & (CTR_TX | CTR_RX) => 2 int pending */
        ep = &hpcd->OUT_ep[0];
 8001850:	687b      	ldr	r3, [r7, #4]
 8001852:	f503 73a8 	add.w	r3, r3, #336	@ 0x150
 8001856:	657b      	str	r3, [r7, #84]	@ 0x54
        wEPVal = PCD_GET_ENDPOINT(hpcd->Instance, PCD_ENDP0);
 8001858:	687b      	ldr	r3, [r7, #4]
 800185a:	681b      	ldr	r3, [r3, #0]
 800185c:	881b      	ldrh	r3, [r3, #0]
 800185e:	f8a7 304a 	strh.w	r3, [r7, #74]	@ 0x4a

        if ((wEPVal & USB_EP_SETUP) != 0U)
 8001862:	f8b7 304a 	ldrh.w	r3, [r7, #74]	@ 0x4a
 8001866:	f403 6300 	and.w	r3, r3, #2048	@ 0x800
 800186a:	2b00      	cmp	r3, #0
 800186c:	d034      	beq.n	80018d8 <PCD_EP_ISR_Handler+0x160>
        {
          /* Get SETUP Packet */
          ep->xfer_count = PCD_GET_EP_RX_CNT(hpcd->Instance, ep->num);
 800186e:	687b      	ldr	r3, [r7, #4]
 8001870:	681b      	ldr	r3, [r3, #0]
 8001872:	f8b3 3050 	ldrh.w	r3, [r3, #80]	@ 0x50
 8001876:	b29b      	uxth	r3, r3
 8001878:	461a      	mov	r2, r3
 800187a:	6d7b      	ldr	r3, [r7, #84]	@ 0x54
 800187c:	781b      	ldrb	r3, [r3, #0]
 800187e:	00db      	lsls	r3, r3, #3
 8001880:	4413      	add	r3, r2
 8001882:	3306      	adds	r3, #6
 8001884:	005b      	lsls	r3, r3, #1
 8001886:	687a      	ldr	r2, [r7, #4]
 8001888:	6812      	ldr	r2, [r2, #0]
 800188a:	4413      	add	r3, r2
 800188c:	f503 6380 	add.w	r3, r3, #1024	@ 0x400
 8001890:	881b      	ldrh	r3, [r3, #0]
 8001892:	f3c3 0209 	ubfx	r2, r3, #0, #10
 8001896:	6d7b      	ldr	r3, [r7, #84]	@ 0x54
 8001898:	61da      	str	r2, [r3, #28]

          USB_ReadPMA(hpcd->Instance, (uint8_t *)hpcd->Setup,
 800189a:	687b      	ldr	r3, [r7, #4]
 800189c:	6818      	ldr	r0, [r3, #0]
 800189e:	687b      	ldr	r3, [r7, #4]
 80018a0:	f503 7126 	add.w	r1, r3, #664	@ 0x298
 80018a4:	6d7b      	ldr	r3, [r7, #84]	@ 0x54
 80018a6:	88da      	ldrh	r2, [r3, #6]
                      ep->pmaadress, (uint16_t)ep->xfer_count);
 80018a8:	6d7b      	ldr	r3, [r7, #84]	@ 0x54
 80018aa:	69db      	ldr	r3, [r3, #28]
          USB_ReadPMA(hpcd->Instance, (uint8_t *)hpcd->Setup,
 80018ac:	b29b      	uxth	r3, r3
 80018ae:	f004 fb7b 	bl	8005fa8 <USB_ReadPMA>

          /* SETUP bit kept frozen while CTR_RX = 1 */
          PCD_CLEAR_RX_EP_CTR(hpcd->Instance, PCD_ENDP0);
 80018b2:	687b      	ldr	r3, [r7, #4]
 80018b4:	681b      	ldr	r3, [r3, #0]
 80018b6:	881b      	ldrh	r3, [r3, #0]
 80018b8:	b29a      	uxth	r2, r3
 80018ba:	f640 738f 	movw	r3, #3983	@ 0xf8f
 80018be:	4013      	ands	r3, r2
 80018c0:	823b      	strh	r3, [r7, #16]
 80018c2:	687b      	ldr	r3, [r7, #4]
 80018c4:	681b      	ldr	r3, [r3, #0]
 80018c6:	8a3a      	ldrh	r2, [r7, #16]
 80018c8:	f042 0280 	orr.w	r2, r2, #128	@ 0x80
 80018cc:	b292      	uxth	r2, r2
 80018ce:	801a      	strh	r2, [r3, #0]

          /* Process SETUP Packet*/
#if (USE_HAL_PCD_REGISTER_CALLBACKS == 1U)
          hpcd->SetupStageCallback(hpcd);
#else
          HAL_PCD_SetupStageCallback(hpcd);
 80018d0:	6878      	ldr	r0, [r7, #4]
 80018d2:	f005 ff23 	bl	800771c <HAL_PCD_SetupStageCallback>
 80018d6:	e310      	b.n	8001efa <PCD_EP_ISR_Handler+0x782>
#endif /* USE_HAL_PCD_REGISTER_CALLBACKS */
        }
        else if ((wEPVal & USB_EP_CTR_RX) != 0U)
 80018d8:	f9b7 304a 	ldrsh.w	r3, [r7, #74]	@ 0x4a
 80018dc:	2b00      	cmp	r3, #0
 80018de:	f280 830c 	bge.w	8001efa <PCD_EP_ISR_Handler+0x782>
        {
          PCD_CLEAR_RX_EP_CTR(hpcd->Instance, PCD_ENDP0);
 80018e2:	687b      	ldr	r3, [r7, #4]
 80018e4:	681b      	ldr	r3, [r3, #0]
 80018e6:	881b      	ldrh	r3, [r3, #0]
 80018e8:	b29a      	uxth	r2, r3
 80018ea:	f640 738f 	movw	r3, #3983	@ 0xf8f
 80018ee:	4013      	ands	r3, r2
 80018f0:	83fb      	strh	r3, [r7, #30]
 80018f2:	687b      	ldr	r3, [r7, #4]
 80018f4:	681b      	ldr	r3, [r3, #0]
 80018f6:	8bfa      	ldrh	r2, [r7, #30]
 80018f8:	f042 0280 	orr.w	r2, r2, #128	@ 0x80
 80018fc:	b292      	uxth	r2, r2
 80018fe:	801a      	strh	r2, [r3, #0]

          /* Get Control Data OUT Packet */
          ep->xfer_count = PCD_GET_EP_RX_CNT(hpcd->Instance, ep->num);
 8001900:	687b      	ldr	r3, [r7, #4]
 8001902:	681b      	ldr	r3, [r3, #0]
 8001904:	f8b3 3050 	ldrh.w	r3, [r3, #80]	@ 0x50
 8001908:	b29b      	uxth	r3, r3
 800190a:	461a      	mov	r2, r3
 800190c:	6d7b      	ldr	r3, [r7, #84]	@ 0x54
 800190e:	781b      	ldrb	r3, [r3, #0]
 8001910:	00db      	lsls	r3, r3, #3
 8001912:	4413      	add	r3, r2
 8001914:	3306      	adds	r3, #6
 8001916:	005b      	lsls	r3, r3, #1
 8001918:	687a      	ldr	r2, [r7, #4]
 800191a:	6812      	ldr	r2, [r2, #0]
 800191c:	4413      	add	r3, r2
 800191e:	f503 6380 	add.w	r3, r3, #1024	@ 0x400
 8001922:	881b      	ldrh	r3, [r3, #0]
 8001924:	f3c3 0209 	ubfx	r2, r3, #0, #10
 8001928:	6d7b      	ldr	r3, [r7, #84]	@ 0x54
 800192a:	61da      	str	r2, [r3, #28]

          if ((ep->xfer_count != 0U) && (ep->xfer_buff != 0U))
 800192c:	6d7b      	ldr	r3, [r7, #84]	@ 0x54
 800192e:	69db      	ldr	r3, [r3, #28]
 8001930:	2b00      	cmp	r3, #0
 8001932:	d019      	beq.n	8001968 <PCD_EP_ISR_Handler+0x1f0>
 8001934:	6d7b      	ldr	r3, [r7, #84]	@ 0x54
 8001936:	695b      	ldr	r3, [r3, #20]
 8001938:	2b00      	cmp	r3, #0
 800193a:	d015      	beq.n	8001968 <PCD_EP_ISR_Handler+0x1f0>
          {
            USB_ReadPMA(hpcd->Instance, ep->xfer_buff,
 800193c:	687b      	ldr	r3, [r7, #4]
 800193e:	6818      	ldr	r0, [r3, #0]
 8001940:	6d7b      	ldr	r3, [r7, #84]	@ 0x54
 8001942:	6959      	ldr	r1, [r3, #20]
 8001944:	6d7b      	ldr	r3, [r7, #84]	@ 0x54
 8001946:	88da      	ldrh	r2, [r3, #6]
                        ep->pmaadress, (uint16_t)ep->xfer_count);
 8001948:	6d7b      	ldr	r3, [r7, #84]	@ 0x54
 800194a:	69db      	ldr	r3, [r3, #28]
            USB_ReadPMA(hpcd->Instance, ep->xfer_buff,
 800194c:	b29b      	uxth	r3, r3
 800194e:	f004 fb2b 	bl	8005fa8 <USB_ReadPMA>

            ep->xfer_buff += ep->xfer_count;
 8001952:	6d7b      	ldr	r3, [r7, #84]	@ 0x54
 8001954:	695a      	ldr	r2, [r3, #20]
 8001956:	6d7b      	ldr	r3, [r7, #84]	@ 0x54
 8001958:	69db      	ldr	r3, [r3, #28]
 800195a:	441a      	add	r2, r3
 800195c:	6d7b      	ldr	r3, [r7, #84]	@ 0x54
 800195e:	615a      	str	r2, [r3, #20]

            /* Process Control Data OUT Packet */
#if (USE_HAL_PCD_REGISTER_CALLBACKS == 1U)
            hpcd->DataOutStageCallback(hpcd, 0U);
#else
            HAL_PCD_DataOutStageCallback(hpcd, 0U);
 8001960:	2100      	movs	r1, #0
 8001962:	6878      	ldr	r0, [r7, #4]
 8001964:	f005 feec 	bl	8007740 <HAL_PCD_DataOutStageCallback>
#endif /* USE_HAL_PCD_REGISTER_CALLBACKS */
          }

          wEPVal = (uint16_t)PCD_GET_ENDPOINT(hpcd->Instance, PCD_ENDP0);
 8001968:	687b      	ldr	r3, [r7, #4]
 800196a:	681b      	ldr	r3, [r3, #0]
 800196c:	881b      	ldrh	r3, [r3, #0]
 800196e:	f8a7 304a 	strh.w	r3, [r7, #74]	@ 0x4a

          if (((wEPVal & USB_EP_SETUP) == 0U) && ((wEPVal & USB_EP_RX_STRX) != USB_EP_RX_VALID))
 8001972:	f8b7 304a 	ldrh.w	r3, [r7, #74]	@ 0x4a
 8001976:	f403 6300 	and.w	r3, r3, #2048	@ 0x800
 800197a:	2b00      	cmp	r3, #0
 800197c:	f040 82bd 	bne.w	8001efa <PCD_EP_ISR_Handler+0x782>
 8001980:	f8b7 304a 	ldrh.w	r3, [r7, #74]	@ 0x4a
 8001984:	f403 5340 	and.w	r3, r3, #12288	@ 0x3000
 8001988:	f5b3 5f40 	cmp.w	r3, #12288	@ 0x3000
 800198c:	f000 82b5 	beq.w	8001efa <PCD_EP_ISR_Handler+0x782>
          {
            PCD_SET_EP_RX_CNT(hpcd->Instance, PCD_ENDP0, ep->maxpacket);
 8001990:	687b      	ldr	r3, [r7, #4]
 8001992:	681b      	ldr	r3, [r3, #0]
 8001994:	61bb      	str	r3, [r7, #24]
 8001996:	687b      	ldr	r3, [r7, #4]
 8001998:	681b      	ldr	r3, [r3, #0]
 800199a:	f8b3 3050 	ldrh.w	r3, [r3, #80]	@ 0x50
 800199e:	b29b      	uxth	r3, r3
 80019a0:	461a      	mov	r2, r3
 80019a2:	69bb      	ldr	r3, [r7, #24]
 80019a4:	4413      	add	r3, r2
 80019a6:	61bb      	str	r3, [r7, #24]
 80019a8:	69bb      	ldr	r3, [r7, #24]
 80019aa:	f203 430c 	addw	r3, r3, #1036	@ 0x40c
 80019ae:	617b      	str	r3, [r7, #20]
 80019b0:	697b      	ldr	r3, [r7, #20]
 80019b2:	881b      	ldrh	r3, [r3, #0]
 80019b4:	b29b      	uxth	r3, r3
 80019b6:	f3c3 0309 	ubfx	r3, r3, #0, #10
 80019ba:	b29a      	uxth	r2, r3
 80019bc:	697b      	ldr	r3, [r7, #20]
 80019be:	801a      	strh	r2, [r3, #0]
 80019c0:	6d7b      	ldr	r3, [r7, #84]	@ 0x54
 80019c2:	691b      	ldr	r3, [r3, #16]
 80019c4:	2b3e      	cmp	r3, #62	@ 0x3e
 80019c6:	d91d      	bls.n	8001a04 <PCD_EP_ISR_Handler+0x28c>
 80019c8:	6d7b      	ldr	r3, [r7, #84]	@ 0x54
 80019ca:	691b      	ldr	r3, [r3, #16]
 80019cc:	095b      	lsrs	r3, r3, #5
 80019ce:	647b      	str	r3, [r7, #68]	@ 0x44
 80019d0:	6d7b      	ldr	r3, [r7, #84]	@ 0x54
 80019d2:	691b      	ldr	r3, [r3, #16]
 80019d4:	f003 031f 	and.w	r3, r3, #31
 80019d8:	2b00      	cmp	r3, #0
 80019da:	d102      	bne.n	80019e2 <PCD_EP_ISR_Handler+0x26a>
 80019dc:	6c7b      	ldr	r3, [r7, #68]	@ 0x44
 80019de:	3b01      	subs	r3, #1
 80019e0:	647b      	str	r3, [r7, #68]	@ 0x44
 80019e2:	697b      	ldr	r3, [r7, #20]
 80019e4:	881b      	ldrh	r3, [r3, #0]
 80019e6:	b29a      	uxth	r2, r3
 80019e8:	6c7b      	ldr	r3, [r7, #68]	@ 0x44
 80019ea:	b29b      	uxth	r3, r3
 80019ec:	029b      	lsls	r3, r3, #10
 80019ee:	b29b      	uxth	r3, r3
 80019f0:	4313      	orrs	r3, r2
 80019f2:	b29b      	uxth	r3, r3
 80019f4:	ea6f 4343 	mvn.w	r3, r3, lsl #17
 80019f8:	ea6f 4353 	mvn.w	r3, r3, lsr #17
 80019fc:	b29a      	uxth	r2, r3
 80019fe:	697b      	ldr	r3, [r7, #20]
 8001a00:	801a      	strh	r2, [r3, #0]
 8001a02:	e026      	b.n	8001a52 <PCD_EP_ISR_Handler+0x2da>
 8001a04:	6d7b      	ldr	r3, [r7, #84]	@ 0x54
 8001a06:	691b      	ldr	r3, [r3, #16]
 8001a08:	2b00      	cmp	r3, #0
 8001a0a:	d10a      	bne.n	8001a22 <PCD_EP_ISR_Handler+0x2aa>
 8001a0c:	697b      	ldr	r3, [r7, #20]
 8001a0e:	881b      	ldrh	r3, [r3, #0]
 8001a10:	b29b      	uxth	r3, r3
 8001a12:	ea6f 4343 	mvn.w	r3, r3, lsl #17
 8001a16:	ea6f 4353 	mvn.w	r3, r3, lsr #17
 8001a1a:	b29a      	uxth	r2, r3
 8001a1c:	697b      	ldr	r3, [r7, #20]
 8001a1e:	801a      	strh	r2, [r3, #0]
 8001a20:	e017      	b.n	8001a52 <PCD_EP_ISR_Handler+0x2da>
 8001a22:	6d7b      	ldr	r3, [r7, #84]	@ 0x54
 8001a24:	691b      	ldr	r3, [r3, #16]
 8001a26:	085b      	lsrs	r3, r3, #1
 8001a28:	647b      	str	r3, [r7, #68]	@ 0x44
 8001a2a:	6d7b      	ldr	r3, [r7, #84]	@ 0x54
 8001a2c:	691b      	ldr	r3, [r3, #16]
 8001a2e:	f003 0301 	and.w	r3, r3, #1
 8001a32:	2b00      	cmp	r3, #0
 8001a34:	d002      	beq.n	8001a3c <PCD_EP_ISR_Handler+0x2c4>
 8001a36:	6c7b      	ldr	r3, [r7, #68]	@ 0x44
 8001a38:	3301      	adds	r3, #1
 8001a3a:	647b      	str	r3, [r7, #68]	@ 0x44
 8001a3c:	697b      	ldr	r3, [r7, #20]
 8001a3e:	881b      	ldrh	r3, [r3, #0]
 8001a40:	b29a      	uxth	r2, r3
 8001a42:	6c7b      	ldr	r3, [r7, #68]	@ 0x44
 8001a44:	b29b      	uxth	r3, r3
 8001a46:	029b      	lsls	r3, r3, #10
 8001a48:	b29b      	uxth	r3, r3
 8001a4a:	4313      	orrs	r3, r2
 8001a4c:	b29a      	uxth	r2, r3
 8001a4e:	697b      	ldr	r3, [r7, #20]
 8001a50:	801a      	strh	r2, [r3, #0]
            PCD_SET_EP_RX_STATUS(hpcd->Instance, PCD_ENDP0, USB_EP_RX_VALID);
 8001a52:	687b      	ldr	r3, [r7, #4]
 8001a54:	681b      	ldr	r3, [r3, #0]
 8001a56:	881b      	ldrh	r3, [r3, #0]
 8001a58:	b29b      	uxth	r3, r3
 8001a5a:	f423 4380 	bic.w	r3, r3, #16384	@ 0x4000
 8001a5e:	f023 0370 	bic.w	r3, r3, #112	@ 0x70
 8001a62:	827b      	strh	r3, [r7, #18]
 8001a64:	8a7b      	ldrh	r3, [r7, #18]
 8001a66:	f483 5380 	eor.w	r3, r3, #4096	@ 0x1000
 8001a6a:	827b      	strh	r3, [r7, #18]
 8001a6c:	8a7b      	ldrh	r3, [r7, #18]
 8001a6e:	f483 5300 	eor.w	r3, r3, #8192	@ 0x2000
 8001a72:	827b      	strh	r3, [r7, #18]
 8001a74:	687b      	ldr	r3, [r7, #4]
 8001a76:	681a      	ldr	r2, [r3, #0]
 8001a78:	8a7b      	ldrh	r3, [r7, #18]
 8001a7a:	f043 437f 	orr.w	r3, r3, #4278190080	@ 0xff000000
 8001a7e:	f443 037f 	orr.w	r3, r3, #16711680	@ 0xff0000
 8001a82:	f443 4300 	orr.w	r3, r3, #32768	@ 0x8000
 8001a86:	f043 0380 	orr.w	r3, r3, #128	@ 0x80
 8001a8a:	b29b      	uxth	r3, r3
 8001a8c:	8013      	strh	r3, [r2, #0]
 8001a8e:	e234      	b.n	8001efa <PCD_EP_ISR_Handler+0x782>
    }
    else
    {
      /* Decode and service non control endpoints interrupt */
      /* process related endpoint register */
      wEPVal = PCD_GET_ENDPOINT(hpcd->Instance, epindex);
 8001a90:	687b      	ldr	r3, [r7, #4]
 8001a92:	681b      	ldr	r3, [r3, #0]
 8001a94:	461a      	mov	r2, r3
 8001a96:	f897 304d 	ldrb.w	r3, [r7, #77]	@ 0x4d
 8001a9a:	009b      	lsls	r3, r3, #2
 8001a9c:	4413      	add	r3, r2
 8001a9e:	881b      	ldrh	r3, [r3, #0]
 8001aa0:	f8a7 304a 	strh.w	r3, [r7, #74]	@ 0x4a

      if ((wEPVal & USB_EP_CTR_RX) != 0U)
 8001aa4:	f9b7 304a 	ldrsh.w	r3, [r7, #74]	@ 0x4a
 8001aa8:	2b00      	cmp	r3, #0
 8001aaa:	f280 80fc 	bge.w	8001ca6 <PCD_EP_ISR_Handler+0x52e>
      {
        /* clear int flag */
        PCD_CLEAR_RX_EP_CTR(hpcd->Instance, epindex);
 8001aae:	687b      	ldr	r3, [r7, #4]
 8001ab0:	681b      	ldr	r3, [r3, #0]
 8001ab2:	461a      	mov	r2, r3
 8001ab4:	f897 304d 	ldrb.w	r3, [r7, #77]	@ 0x4d
 8001ab8:	009b      	lsls	r3, r3, #2
 8001aba:	4413      	add	r3, r2
 8001abc:	881b      	ldrh	r3, [r3, #0]
 8001abe:	b29a      	uxth	r2, r3
 8001ac0:	f640 738f 	movw	r3, #3983	@ 0xf8f
 8001ac4:	4013      	ands	r3, r2
 8001ac6:	f8a7 3048 	strh.w	r3, [r7, #72]	@ 0x48
 8001aca:	687b      	ldr	r3, [r7, #4]
 8001acc:	681b      	ldr	r3, [r3, #0]
 8001ace:	461a      	mov	r2, r3
 8001ad0:	f897 304d 	ldrb.w	r3, [r7, #77]	@ 0x4d
 8001ad4:	009b      	lsls	r3, r3, #2
 8001ad6:	4413      	add	r3, r2
 8001ad8:	f8b7 2048 	ldrh.w	r2, [r7, #72]	@ 0x48
 8001adc:	f042 0280 	orr.w	r2, r2, #128	@ 0x80
 8001ae0:	b292      	uxth	r2, r2
 8001ae2:	801a      	strh	r2, [r3, #0]
        ep = &hpcd->OUT_ep[epindex];
 8001ae4:	f897 204d 	ldrb.w	r2, [r7, #77]	@ 0x4d
 8001ae8:	4613      	mov	r3, r2
 8001aea:	009b      	lsls	r3, r3, #2
 8001aec:	4413      	add	r3, r2
 8001aee:	00db      	lsls	r3, r3, #3
 8001af0:	f503 73a8 	add.w	r3, r3, #336	@ 0x150
 8001af4:	687a      	ldr	r2, [r7, #4]
 8001af6:	4413      	add	r3, r2
 8001af8:	657b      	str	r3, [r7, #84]	@ 0x54

        /* OUT Single Buffering */
        if (ep->doublebuffer == 0U)
 8001afa:	6d7b      	ldr	r3, [r7, #84]	@ 0x54
 8001afc:	7b1b      	ldrb	r3, [r3, #12]
 8001afe:	2b00      	cmp	r3, #0
 8001b00:	d125      	bne.n	8001b4e <PCD_EP_ISR_Handler+0x3d6>
        {
          count = (uint16_t)PCD_GET_EP_RX_CNT(hpcd->Instance, ep->num);
 8001b02:	687b      	ldr	r3, [r7, #4]
 8001b04:	681b      	ldr	r3, [r3, #0]
 8001b06:	f8b3 3050 	ldrh.w	r3, [r3, #80]	@ 0x50
 8001b0a:	b29b      	uxth	r3, r3
 8001b0c:	461a      	mov	r2, r3
 8001b0e:	6d7b      	ldr	r3, [r7, #84]	@ 0x54
 8001b10:	781b      	ldrb	r3, [r3, #0]
 8001b12:	00db      	lsls	r3, r3, #3
 8001b14:	4413      	add	r3, r2
 8001b16:	3306      	adds	r3, #6
 8001b18:	005b      	lsls	r3, r3, #1
 8001b1a:	687a      	ldr	r2, [r7, #4]
 8001b1c:	6812      	ldr	r2, [r2, #0]
 8001b1e:	4413      	add	r3, r2
 8001b20:	f503 6380 	add.w	r3, r3, #1024	@ 0x400
 8001b24:	881b      	ldrh	r3, [r3, #0]
 8001b26:	f3c3 0309 	ubfx	r3, r3, #0, #10
 8001b2a:	f8a7 3050 	strh.w	r3, [r7, #80]	@ 0x50

          if (count != 0U)
 8001b2e:	f8b7 3050 	ldrh.w	r3, [r7, #80]	@ 0x50
 8001b32:	2b00      	cmp	r3, #0
 8001b34:	f000 8092 	beq.w	8001c5c <PCD_EP_ISR_Handler+0x4e4>
          {
            USB_ReadPMA(hpcd->Instance, ep->xfer_buff, ep->pmaadress, count);
 8001b38:	687b      	ldr	r3, [r7, #4]
 8001b3a:	6818      	ldr	r0, [r3, #0]
 8001b3c:	6d7b      	ldr	r3, [r7, #84]	@ 0x54
 8001b3e:	6959      	ldr	r1, [r3, #20]
 8001b40:	6d7b      	ldr	r3, [r7, #84]	@ 0x54
 8001b42:	88da      	ldrh	r2, [r3, #6]
 8001b44:	f8b7 3050 	ldrh.w	r3, [r7, #80]	@ 0x50
 8001b48:	f004 fa2e 	bl	8005fa8 <USB_ReadPMA>
 8001b4c:	e086      	b.n	8001c5c <PCD_EP_ISR_Handler+0x4e4>
        }
#if (USE_USB_DOUBLE_BUFFER == 1U)
        else
        {
          /* manage double buffer bulk out */
          if (ep->type == EP_TYPE_BULK)
 8001b4e:	6d7b      	ldr	r3, [r7, #84]	@ 0x54
 8001b50:	78db      	ldrb	r3, [r3, #3]
 8001b52:	2b02      	cmp	r3, #2
 8001b54:	d10a      	bne.n	8001b6c <PCD_EP_ISR_Handler+0x3f4>
          {
            count = HAL_PCD_EP_DB_Receive(hpcd, ep, wEPVal);
 8001b56:	f8b7 304a 	ldrh.w	r3, [r7, #74]	@ 0x4a
 8001b5a:	461a      	mov	r2, r3
 8001b5c:	6d79      	ldr	r1, [r7, #84]	@ 0x54
 8001b5e:	6878      	ldr	r0, [r7, #4]
 8001b60:	f000 f9d9 	bl	8001f16 <HAL_PCD_EP_DB_Receive>
 8001b64:	4603      	mov	r3, r0
 8001b66:	f8a7 3050 	strh.w	r3, [r7, #80]	@ 0x50
 8001b6a:	e077      	b.n	8001c5c <PCD_EP_ISR_Handler+0x4e4>
          }
          else /* manage double buffer iso out */
          {
            /* free EP OUT Buffer */
            PCD_FREE_USER_BUFFER(hpcd->Instance, ep->num, 0U);
 8001b6c:	687b      	ldr	r3, [r7, #4]
 8001b6e:	681b      	ldr	r3, [r3, #0]
 8001b70:	461a      	mov	r2, r3
 8001b72:	6d7b      	ldr	r3, [r7, #84]	@ 0x54
 8001b74:	781b      	ldrb	r3, [r3, #0]
 8001b76:	009b      	lsls	r3, r3, #2
 8001b78:	4413      	add	r3, r2
 8001b7a:	881b      	ldrh	r3, [r3, #0]
 8001b7c:	b29b      	uxth	r3, r3
 8001b7e:	f423 43e0 	bic.w	r3, r3, #28672	@ 0x7000
 8001b82:	f023 0370 	bic.w	r3, r3, #112	@ 0x70
 8001b86:	f8a7 3052 	strh.w	r3, [r7, #82]	@ 0x52
 8001b8a:	687b      	ldr	r3, [r7, #4]
 8001b8c:	681b      	ldr	r3, [r3, #0]
 8001b8e:	461a      	mov	r2, r3
 8001b90:	6d7b      	ldr	r3, [r7, #84]	@ 0x54
 8001b92:	781b      	ldrb	r3, [r3, #0]
 8001b94:	009b      	lsls	r3, r3, #2
 8001b96:	441a      	add	r2, r3
 8001b98:	f8b7 3052 	ldrh.w	r3, [r7, #82]	@ 0x52
 8001b9c:	f043 437f 	orr.w	r3, r3, #4278190080	@ 0xff000000
 8001ba0:	f443 037f 	orr.w	r3, r3, #16711680	@ 0xff0000
 8001ba4:	f443 4300 	orr.w	r3, r3, #32768	@ 0x8000
 8001ba8:	f043 03c0 	orr.w	r3, r3, #192	@ 0xc0
 8001bac:	b29b      	uxth	r3, r3
 8001bae:	8013      	strh	r3, [r2, #0]

            if ((PCD_GET_ENDPOINT(hpcd->Instance, ep->num) & USB_EP_DTOG_RX) != 0U)
 8001bb0:	687b      	ldr	r3, [r7, #4]
 8001bb2:	681b      	ldr	r3, [r3, #0]
 8001bb4:	461a      	mov	r2, r3
 8001bb6:	6d7b      	ldr	r3, [r7, #84]	@ 0x54
 8001bb8:	781b      	ldrb	r3, [r3, #0]
 8001bba:	009b      	lsls	r3, r3, #2
 8001bbc:	4413      	add	r3, r2
 8001bbe:	881b      	ldrh	r3, [r3, #0]
 8001bc0:	b29b      	uxth	r3, r3
 8001bc2:	f403 4380 	and.w	r3, r3, #16384	@ 0x4000
 8001bc6:	2b00      	cmp	r3, #0
 8001bc8:	d024      	beq.n	8001c14 <PCD_EP_ISR_Handler+0x49c>
            {
              /* read from endpoint BUF0Addr buffer */
              count = (uint16_t)PCD_GET_EP_DBUF0_CNT(hpcd->Instance, ep->num);
 8001bca:	687b      	ldr	r3, [r7, #4]
 8001bcc:	681b      	ldr	r3, [r3, #0]
 8001bce:	f8b3 3050 	ldrh.w	r3, [r3, #80]	@ 0x50
 8001bd2:	b29b      	uxth	r3, r3
 8001bd4:	461a      	mov	r2, r3
 8001bd6:	6d7b      	ldr	r3, [r7, #84]	@ 0x54
 8001bd8:	781b      	ldrb	r3, [r3, #0]
 8001bda:	00db      	lsls	r3, r3, #3
 8001bdc:	4413      	add	r3, r2
 8001bde:	3302      	adds	r3, #2
 8001be0:	005b      	lsls	r3, r3, #1
 8001be2:	687a      	ldr	r2, [r7, #4]
 8001be4:	6812      	ldr	r2, [r2, #0]
 8001be6:	4413      	add	r3, r2
 8001be8:	f503 6380 	add.w	r3, r3, #1024	@ 0x400
 8001bec:	881b      	ldrh	r3, [r3, #0]
 8001bee:	f3c3 0309 	ubfx	r3, r3, #0, #10
 8001bf2:	f8a7 3050 	strh.w	r3, [r7, #80]	@ 0x50

              if (count != 0U)
 8001bf6:	f8b7 3050 	ldrh.w	r3, [r7, #80]	@ 0x50
 8001bfa:	2b00      	cmp	r3, #0
 8001bfc:	d02e      	beq.n	8001c5c <PCD_EP_ISR_Handler+0x4e4>
              {
                USB_ReadPMA(hpcd->Instance, ep->xfer_buff, ep->pmaaddr0, count);
 8001bfe:	687b      	ldr	r3, [r7, #4]
 8001c00:	6818      	ldr	r0, [r3, #0]
 8001c02:	6d7b      	ldr	r3, [r7, #84]	@ 0x54
 8001c04:	6959      	ldr	r1, [r3, #20]
 8001c06:	6d7b      	ldr	r3, [r7, #84]	@ 0x54
 8001c08:	891a      	ldrh	r2, [r3, #8]
 8001c0a:	f8b7 3050 	ldrh.w	r3, [r7, #80]	@ 0x50
 8001c0e:	f004 f9cb 	bl	8005fa8 <USB_ReadPMA>
 8001c12:	e023      	b.n	8001c5c <PCD_EP_ISR_Handler+0x4e4>
              }
            }
            else
            {
              /* read from endpoint BUF1Addr buffer */
              count = (uint16_t)PCD_GET_EP_DBUF1_CNT(hpcd->Instance, ep->num);
 8001c14:	687b      	ldr	r3, [r7, #4]
 8001c16:	681b      	ldr	r3, [r3, #0]
 8001c18:	f8b3 3050 	ldrh.w	r3, [r3, #80]	@ 0x50
 8001c1c:	b29b      	uxth	r3, r3
 8001c1e:	461a      	mov	r2, r3
 8001c20:	6d7b      	ldr	r3, [r7, #84]	@ 0x54
 8001c22:	781b      	ldrb	r3, [r3, #0]
 8001c24:	00db      	lsls	r3, r3, #3
 8001c26:	4413      	add	r3, r2
 8001c28:	3306      	adds	r3, #6
 8001c2a:	005b      	lsls	r3, r3, #1
 8001c2c:	687a      	ldr	r2, [r7, #4]
 8001c2e:	6812      	ldr	r2, [r2, #0]
 8001c30:	4413      	add	r3, r2
 8001c32:	f503 6380 	add.w	r3, r3, #1024	@ 0x400
 8001c36:	881b      	ldrh	r3, [r3, #0]
 8001c38:	f3c3 0309 	ubfx	r3, r3, #0, #10
 8001c3c:	f8a7 3050 	strh.w	r3, [r7, #80]	@ 0x50

              if (count != 0U)
 8001c40:	f8b7 3050 	ldrh.w	r3, [r7, #80]	@ 0x50
 8001c44:	2b00      	cmp	r3, #0
 8001c46:	d009      	beq.n	8001c5c <PCD_EP_ISR_Handler+0x4e4>
              {
                USB_ReadPMA(hpcd->Instance, ep->xfer_buff, ep->pmaaddr1, count);
 8001c48:	687b      	ldr	r3, [r7, #4]
 8001c4a:	6818      	ldr	r0, [r3, #0]
 8001c4c:	6d7b      	ldr	r3, [r7, #84]	@ 0x54
 8001c4e:	6959      	ldr	r1, [r3, #20]
 8001c50:	6d7b      	ldr	r3, [r7, #84]	@ 0x54
 8001c52:	895a      	ldrh	r2, [r3, #10]
 8001c54:	f8b7 3050 	ldrh.w	r3, [r7, #80]	@ 0x50
 8001c58:	f004 f9a6 	bl	8005fa8 <USB_ReadPMA>
          }
        }
#endif /* (USE_USB_DOUBLE_BUFFER == 1U) */

        /* multi-packet on the NON control OUT endpoint */
        ep->xfer_count += count;
 8001c5c:	6d7b      	ldr	r3, [r7, #84]	@ 0x54
 8001c5e:	69da      	ldr	r2, [r3, #28]
 8001c60:	f8b7 3050 	ldrh.w	r3, [r7, #80]	@ 0x50
 8001c64:	441a      	add	r2, r3
 8001c66:	6d7b      	ldr	r3, [r7, #84]	@ 0x54
 8001c68:	61da      	str	r2, [r3, #28]
        ep->xfer_buff += count;
 8001c6a:	6d7b      	ldr	r3, [r7, #84]	@ 0x54
 8001c6c:	695a      	ldr	r2, [r3, #20]
 8001c6e:	f8b7 3050 	ldrh.w	r3, [r7, #80]	@ 0x50
 8001c72:	441a      	add	r2, r3
 8001c74:	6d7b      	ldr	r3, [r7, #84]	@ 0x54
 8001c76:	615a      	str	r2, [r3, #20]

        if ((ep->xfer_len == 0U) || (count < ep->maxpacket))
 8001c78:	6d7b      	ldr	r3, [r7, #84]	@ 0x54
 8001c7a:	699b      	ldr	r3, [r3, #24]
 8001c7c:	2b00      	cmp	r3, #0
 8001c7e:	d005      	beq.n	8001c8c <PCD_EP_ISR_Handler+0x514>
 8001c80:	f8b7 2050 	ldrh.w	r2, [r7, #80]	@ 0x50
 8001c84:	6d7b      	ldr	r3, [r7, #84]	@ 0x54
 8001c86:	691b      	ldr	r3, [r3, #16]
 8001c88:	429a      	cmp	r2, r3
 8001c8a:	d206      	bcs.n	8001c9a <PCD_EP_ISR_Handler+0x522>
        {
          /* RX COMPLETE */
#if (USE_HAL_PCD_REGISTER_CALLBACKS == 1U)
          hpcd->DataOutStageCallback(hpcd, ep->num);
#else
          HAL_PCD_DataOutStageCallback(hpcd, ep->num);
 8001c8c:	6d7b      	ldr	r3, [r7, #84]	@ 0x54
 8001c8e:	781b      	ldrb	r3, [r3, #0]
 8001c90:	4619      	mov	r1, r3
 8001c92:	6878      	ldr	r0, [r7, #4]
 8001c94:	f005 fd54 	bl	8007740 <HAL_PCD_DataOutStageCallback>
 8001c98:	e005      	b.n	8001ca6 <PCD_EP_ISR_Handler+0x52e>
#endif /* USE_HAL_PCD_REGISTER_CALLBACKS */
        }
        else
        {
          (void)USB_EPStartXfer(hpcd->Instance, ep);
 8001c9a:	687b      	ldr	r3, [r7, #4]
 8001c9c:	681b      	ldr	r3, [r3, #0]
 8001c9e:	6d79      	ldr	r1, [r7, #84]	@ 0x54
 8001ca0:	4618      	mov	r0, r3
 8001ca2:	f002 fc4d 	bl	8004540 <USB_EPStartXfer>
        }
      }

      if ((wEPVal & USB_EP_CTR_TX) != 0U)
 8001ca6:	f8b7 304a 	ldrh.w	r3, [r7, #74]	@ 0x4a
 8001caa:	f003 0380 	and.w	r3, r3, #128	@ 0x80
 8001cae:	2b00      	cmp	r3, #0
 8001cb0:	f000 8123 	beq.w	8001efa <PCD_EP_ISR_Handler+0x782>
      {
        ep = &hpcd->IN_ep[epindex];
 8001cb4:	f897 204d 	ldrb.w	r2, [r7, #77]	@ 0x4d
 8001cb8:	4613      	mov	r3, r2
 8001cba:	009b      	lsls	r3, r3, #2
 8001cbc:	4413      	add	r3, r2
 8001cbe:	00db      	lsls	r3, r3, #3
 8001cc0:	3310      	adds	r3, #16
 8001cc2:	687a      	ldr	r2, [r7, #4]
 8001cc4:	4413      	add	r3, r2
 8001cc6:	657b      	str	r3, [r7, #84]	@ 0x54

        /* clear int flag */
        PCD_CLEAR_TX_EP_CTR(hpcd->Instance, epindex);
 8001cc8:	687b      	ldr	r3, [r7, #4]
 8001cca:	681b      	ldr	r3, [r3, #0]
 8001ccc:	461a      	mov	r2, r3
 8001cce:	f897 304d 	ldrb.w	r3, [r7, #77]	@ 0x4d
 8001cd2:	009b      	lsls	r3, r3, #2
 8001cd4:	4413      	add	r3, r2
 8001cd6:	881b      	ldrh	r3, [r3, #0]
 8001cd8:	b29b      	uxth	r3, r3
 8001cda:	f423 43e1 	bic.w	r3, r3, #28800	@ 0x7080
 8001cde:	f023 0370 	bic.w	r3, r3, #112	@ 0x70
 8001ce2:	f8a7 3042 	strh.w	r3, [r7, #66]	@ 0x42
 8001ce6:	687b      	ldr	r3, [r7, #4]
 8001ce8:	681b      	ldr	r3, [r3, #0]
 8001cea:	461a      	mov	r2, r3
 8001cec:	f897 304d 	ldrb.w	r3, [r7, #77]	@ 0x4d
 8001cf0:	009b      	lsls	r3, r3, #2
 8001cf2:	441a      	add	r2, r3
 8001cf4:	f8b7 3042 	ldrh.w	r3, [r7, #66]	@ 0x42
 8001cf8:	ea6f 4343 	mvn.w	r3, r3, lsl #17
 8001cfc:	ea6f 4353 	mvn.w	r3, r3, lsr #17
 8001d00:	b29b      	uxth	r3, r3
 8001d02:	8013      	strh	r3, [r2, #0]

        if (ep->type == EP_TYPE_ISOC)
 8001d04:	6d7b      	ldr	r3, [r7, #84]	@ 0x54
 8001d06:	78db      	ldrb	r3, [r3, #3]
 8001d08:	2b01      	cmp	r3, #1
 8001d0a:	f040 80a2 	bne.w	8001e52 <PCD_EP_ISR_Handler+0x6da>
        {
          ep->xfer_len = 0U;
 8001d0e:	6d7b      	ldr	r3, [r7, #84]	@ 0x54
 8001d10:	2200      	movs	r2, #0
 8001d12:	619a      	str	r2, [r3, #24]

#if (USE_USB_DOUBLE_BUFFER == 1U)
          if (ep->doublebuffer != 0U)
 8001d14:	6d7b      	ldr	r3, [r7, #84]	@ 0x54
 8001d16:	7b1b      	ldrb	r3, [r3, #12]
 8001d18:	2b00      	cmp	r3, #0
 8001d1a:	f000 8093 	beq.w	8001e44 <PCD_EP_ISR_Handler+0x6cc>
          {
            if ((wEPVal & USB_EP_DTOG_TX) != 0U)
 8001d1e:	f8b7 304a 	ldrh.w	r3, [r7, #74]	@ 0x4a
 8001d22:	f003 0340 	and.w	r3, r3, #64	@ 0x40
 8001d26:	2b00      	cmp	r3, #0
 8001d28:	d046      	beq.n	8001db8 <PCD_EP_ISR_Handler+0x640>
            {
              PCD_SET_EP_DBUF0_CNT(hpcd->Instance, ep->num, ep->is_in, 0U);
 8001d2a:	6d7b      	ldr	r3, [r7, #84]	@ 0x54
 8001d2c:	785b      	ldrb	r3, [r3, #1]
 8001d2e:	2b00      	cmp	r3, #0
 8001d30:	d126      	bne.n	8001d80 <PCD_EP_ISR_Handler+0x608>
 8001d32:	687b      	ldr	r3, [r7, #4]
 8001d34:	681b      	ldr	r3, [r3, #0]
 8001d36:	627b      	str	r3, [r7, #36]	@ 0x24
 8001d38:	687b      	ldr	r3, [r7, #4]
 8001d3a:	681b      	ldr	r3, [r3, #0]
 8001d3c:	f8b3 3050 	ldrh.w	r3, [r3, #80]	@ 0x50
 8001d40:	b29b      	uxth	r3, r3
 8001d42:	461a      	mov	r2, r3
 8001d44:	6a7b      	ldr	r3, [r7, #36]	@ 0x24
 8001d46:	4413      	add	r3, r2
 8001d48:	627b      	str	r3, [r7, #36]	@ 0x24
 8001d4a:	6d7b      	ldr	r3, [r7, #84]	@ 0x54
 8001d4c:	781b      	ldrb	r3, [r3, #0]
 8001d4e:	011a      	lsls	r2, r3, #4
 8001d50:	6a7b      	ldr	r3, [r7, #36]	@ 0x24
 8001d52:	4413      	add	r3, r2
 8001d54:	f203 4304 	addw	r3, r3, #1028	@ 0x404
 8001d58:	623b      	str	r3, [r7, #32]
 8001d5a:	6a3b      	ldr	r3, [r7, #32]
 8001d5c:	881b      	ldrh	r3, [r3, #0]
 8001d5e:	b29b      	uxth	r3, r3
 8001d60:	f3c3 0309 	ubfx	r3, r3, #0, #10
 8001d64:	b29a      	uxth	r2, r3
 8001d66:	6a3b      	ldr	r3, [r7, #32]
 8001d68:	801a      	strh	r2, [r3, #0]
 8001d6a:	6a3b      	ldr	r3, [r7, #32]
 8001d6c:	881b      	ldrh	r3, [r3, #0]
 8001d6e:	b29b      	uxth	r3, r3
 8001d70:	ea6f 4343 	mvn.w	r3, r3, lsl #17
 8001d74:	ea6f 4353 	mvn.w	r3, r3, lsr #17
 8001d78:	b29a      	uxth	r2, r3
 8001d7a:	6a3b      	ldr	r3, [r7, #32]
 8001d7c:	801a      	strh	r2, [r3, #0]
 8001d7e:	e061      	b.n	8001e44 <PCD_EP_ISR_Handler+0x6cc>
 8001d80:	6d7b      	ldr	r3, [r7, #84]	@ 0x54
 8001d82:	785b      	ldrb	r3, [r3, #1]
 8001d84:	2b01      	cmp	r3, #1
 8001d86:	d15d      	bne.n	8001e44 <PCD_EP_ISR_Handler+0x6cc>
 8001d88:	687b      	ldr	r3, [r7, #4]
 8001d8a:	681b      	ldr	r3, [r3, #0]
 8001d8c:	62fb      	str	r3, [r7, #44]	@ 0x2c
 8001d8e:	687b      	ldr	r3, [r7, #4]
 8001d90:	681b      	ldr	r3, [r3, #0]
 8001d92:	f8b3 3050 	ldrh.w	r3, [r3, #80]	@ 0x50
 8001d96:	b29b      	uxth	r3, r3
 8001d98:	461a      	mov	r2, r3
 8001d9a:	6afb      	ldr	r3, [r7, #44]	@ 0x2c
 8001d9c:	4413      	add	r3, r2
 8001d9e:	62fb      	str	r3, [r7, #44]	@ 0x2c
 8001da0:	6d7b      	ldr	r3, [r7, #84]	@ 0x54
 8001da2:	781b      	ldrb	r3, [r3, #0]
 8001da4:	011a      	lsls	r2, r3, #4
 8001da6:	6afb      	ldr	r3, [r7, #44]	@ 0x2c
 8001da8:	4413      	add	r3, r2
 8001daa:	f203 4304 	addw	r3, r3, #1028	@ 0x404
 8001dae:	62bb      	str	r3, [r7, #40]	@ 0x28
 8001db0:	6abb      	ldr	r3, [r7, #40]	@ 0x28
 8001db2:	2200      	movs	r2, #0
 8001db4:	801a      	strh	r2, [r3, #0]
 8001db6:	e045      	b.n	8001e44 <PCD_EP_ISR_Handler+0x6cc>
            }
            else
            {
              PCD_SET_EP_DBUF1_CNT(hpcd->Instance, ep->num, ep->is_in, 0U);
 8001db8:	687b      	ldr	r3, [r7, #4]
 8001dba:	681b      	ldr	r3, [r3, #0]
 8001dbc:	63fb      	str	r3, [r7, #60]	@ 0x3c
 8001dbe:	6d7b      	ldr	r3, [r7, #84]	@ 0x54
 8001dc0:	785b      	ldrb	r3, [r3, #1]
 8001dc2:	2b00      	cmp	r3, #0
 8001dc4:	d126      	bne.n	8001e14 <PCD_EP_ISR_Handler+0x69c>
 8001dc6:	687b      	ldr	r3, [r7, #4]
 8001dc8:	681b      	ldr	r3, [r3, #0]
 8001dca:	637b      	str	r3, [r7, #52]	@ 0x34
 8001dcc:	687b      	ldr	r3, [r7, #4]
 8001dce:	681b      	ldr	r3, [r3, #0]
 8001dd0:	f8b3 3050 	ldrh.w	r3, [r3, #80]	@ 0x50
 8001dd4:	b29b      	uxth	r3, r3
 8001dd6:	461a      	mov	r2, r3
 8001dd8:	6b7b      	ldr	r3, [r7, #52]	@ 0x34
 8001dda:	4413      	add	r3, r2
 8001ddc:	637b      	str	r3, [r7, #52]	@ 0x34
 8001dde:	6d7b      	ldr	r3, [r7, #84]	@ 0x54
 8001de0:	781b      	ldrb	r3, [r3, #0]
 8001de2:	011a      	lsls	r2, r3, #4
 8001de4:	6b7b      	ldr	r3, [r7, #52]	@ 0x34
 8001de6:	4413      	add	r3, r2
 8001de8:	f203 430c 	addw	r3, r3, #1036	@ 0x40c
 8001dec:	633b      	str	r3, [r7, #48]	@ 0x30
 8001dee:	6b3b      	ldr	r3, [r7, #48]	@ 0x30
 8001df0:	881b      	ldrh	r3, [r3, #0]
 8001df2:	b29b      	uxth	r3, r3
 8001df4:	f3c3 0309 	ubfx	r3, r3, #0, #10
 8001df8:	b29a      	uxth	r2, r3
 8001dfa:	6b3b      	ldr	r3, [r7, #48]	@ 0x30
 8001dfc:	801a      	strh	r2, [r3, #0]
 8001dfe:	6b3b      	ldr	r3, [r7, #48]	@ 0x30
 8001e00:	881b      	ldrh	r3, [r3, #0]
 8001e02:	b29b      	uxth	r3, r3
 8001e04:	ea6f 4343 	mvn.w	r3, r3, lsl #17
 8001e08:	ea6f 4353 	mvn.w	r3, r3, lsr #17
 8001e0c:	b29a      	uxth	r2, r3
 8001e0e:	6b3b      	ldr	r3, [r7, #48]	@ 0x30
 8001e10:	801a      	strh	r2, [r3, #0]
 8001e12:	e017      	b.n	8001e44 <PCD_EP_ISR_Handler+0x6cc>
 8001e14:	6d7b      	ldr	r3, [r7, #84]	@ 0x54
 8001e16:	785b      	ldrb	r3, [r3, #1]
 8001e18:	2b01      	cmp	r3, #1
 8001e1a:	d113      	bne.n	8001e44 <PCD_EP_ISR_Handler+0x6cc>
 8001e1c:	687b      	ldr	r3, [r7, #4]
 8001e1e:	681b      	ldr	r3, [r3, #0]
 8001e20:	f8b3 3050 	ldrh.w	r3, [r3, #80]	@ 0x50
 8001e24:	b29b      	uxth	r3, r3
 8001e26:	461a      	mov	r2, r3
 8001e28:	6bfb      	ldr	r3, [r7, #60]	@ 0x3c
 8001e2a:	4413      	add	r3, r2
 8001e2c:	63fb      	str	r3, [r7, #60]	@ 0x3c
 8001e2e:	6d7b      	ldr	r3, [r7, #84]	@ 0x54
 8001e30:	781b      	ldrb	r3, [r3, #0]
 8001e32:	011a      	lsls	r2, r3, #4
 8001e34:	6bfb      	ldr	r3, [r7, #60]	@ 0x3c
 8001e36:	4413      	add	r3, r2
 8001e38:	f203 430c 	addw	r3, r3, #1036	@ 0x40c
 8001e3c:	63bb      	str	r3, [r7, #56]	@ 0x38
 8001e3e:	6bbb      	ldr	r3, [r7, #56]	@ 0x38
 8001e40:	2200      	movs	r2, #0
 8001e42:	801a      	strh	r2, [r3, #0]

          /* TX COMPLETE */
#if (USE_HAL_PCD_REGISTER_CALLBACKS == 1U)
          hpcd->DataInStageCallback(hpcd, ep->num);
#else
          HAL_PCD_DataInStageCallback(hpcd, ep->num);
 8001e44:	6d7b      	ldr	r3, [r7, #84]	@ 0x54
 8001e46:	781b      	ldrb	r3, [r3, #0]
 8001e48:	4619      	mov	r1, r3
 8001e4a:	6878      	ldr	r0, [r7, #4]
 8001e4c:	f005 fc93 	bl	8007776 <HAL_PCD_DataInStageCallback>
 8001e50:	e053      	b.n	8001efa <PCD_EP_ISR_Handler+0x782>
#endif /* USE_HAL_PCD_REGISTER_CALLBACKS */
        }
        else
        {
          /* Manage Single Buffer Transaction */
          if ((wEPVal & USB_EP_KIND) == 0U)
 8001e52:	f8b7 304a 	ldrh.w	r3, [r7, #74]	@ 0x4a
 8001e56:	f403 7380 	and.w	r3, r3, #256	@ 0x100
 8001e5a:	2b00      	cmp	r3, #0
 8001e5c:	d146      	bne.n	8001eec <PCD_EP_ISR_Handler+0x774>
          {
            /* multi-packet on the NON control IN endpoint */
            TxPctSize = (uint16_t)PCD_GET_EP_TX_CNT(hpcd->Instance, ep->num);
 8001e5e:	687b      	ldr	r3, [r7, #4]
 8001e60:	681b      	ldr	r3, [r3, #0]
 8001e62:	f8b3 3050 	ldrh.w	r3, [r3, #80]	@ 0x50
 8001e66:	b29b      	uxth	r3, r3
 8001e68:	461a      	mov	r2, r3
 8001e6a:	6d7b      	ldr	r3, [r7, #84]	@ 0x54
 8001e6c:	781b      	ldrb	r3, [r3, #0]
 8001e6e:	00db      	lsls	r3, r3, #3
 8001e70:	4413      	add	r3, r2
 8001e72:	3302      	adds	r3, #2
 8001e74:	005b      	lsls	r3, r3, #1
 8001e76:	687a      	ldr	r2, [r7, #4]
 8001e78:	6812      	ldr	r2, [r2, #0]
 8001e7a:	4413      	add	r3, r2
 8001e7c:	f503 6380 	add.w	r3, r3, #1024	@ 0x400
 8001e80:	881b      	ldrh	r3, [r3, #0]
 8001e82:	f3c3 0309 	ubfx	r3, r3, #0, #10
 8001e86:	f8a7 3040 	strh.w	r3, [r7, #64]	@ 0x40

            if (ep->xfer_len > TxPctSize)
 8001e8a:	6d7b      	ldr	r3, [r7, #84]	@ 0x54
 8001e8c:	699a      	ldr	r2, [r3, #24]
 8001e8e:	f8b7 3040 	ldrh.w	r3, [r7, #64]	@ 0x40
 8001e92:	429a      	cmp	r2, r3
 8001e94:	d907      	bls.n	8001ea6 <PCD_EP_ISR_Handler+0x72e>
            {
              ep->xfer_len -= TxPctSize;
 8001e96:	6d7b      	ldr	r3, [r7, #84]	@ 0x54
 8001e98:	699a      	ldr	r2, [r3, #24]
 8001e9a:	f8b7 3040 	ldrh.w	r3, [r7, #64]	@ 0x40
 8001e9e:	1ad2      	subs	r2, r2, r3
 8001ea0:	6d7b      	ldr	r3, [r7, #84]	@ 0x54
 8001ea2:	619a      	str	r2, [r3, #24]
 8001ea4:	e002      	b.n	8001eac <PCD_EP_ISR_Handler+0x734>
            }
            else
            {
              ep->xfer_len = 0U;
 8001ea6:	6d7b      	ldr	r3, [r7, #84]	@ 0x54
 8001ea8:	2200      	movs	r2, #0
 8001eaa:	619a      	str	r2, [r3, #24]
            }

            /* Zero Length Packet? */
            if (ep->xfer_len == 0U)
 8001eac:	6d7b      	ldr	r3, [r7, #84]	@ 0x54
 8001eae:	699b      	ldr	r3, [r3, #24]
 8001eb0:	2b00      	cmp	r3, #0
 8001eb2:	d106      	bne.n	8001ec2 <PCD_EP_ISR_Handler+0x74a>
            {
              /* TX COMPLETE */
#if (USE_HAL_PCD_REGISTER_CALLBACKS == 1U)
              hpcd->DataInStageCallback(hpcd, ep->num);
#else
              HAL_PCD_DataInStageCallback(hpcd, ep->num);
 8001eb4:	6d7b      	ldr	r3, [r7, #84]	@ 0x54
 8001eb6:	781b      	ldrb	r3, [r3, #0]
 8001eb8:	4619      	mov	r1, r3
 8001eba:	6878      	ldr	r0, [r7, #4]
 8001ebc:	f005 fc5b 	bl	8007776 <HAL_PCD_DataInStageCallback>
 8001ec0:	e01b      	b.n	8001efa <PCD_EP_ISR_Handler+0x782>
#endif /* USE_HAL_PCD_REGISTER_CALLBACKS */
            }
            else
            {
              /* Transfer is not yet Done */
              ep->xfer_buff += TxPctSize;
 8001ec2:	6d7b      	ldr	r3, [r7, #84]	@ 0x54
 8001ec4:	695a      	ldr	r2, [r3, #20]
 8001ec6:	f8b7 3040 	ldrh.w	r3, [r7, #64]	@ 0x40
 8001eca:	441a      	add	r2, r3
 8001ecc:	6d7b      	ldr	r3, [r7, #84]	@ 0x54
 8001ece:	615a      	str	r2, [r3, #20]
              ep->xfer_count += TxPctSize;
 8001ed0:	6d7b      	ldr	r3, [r7, #84]	@ 0x54
 8001ed2:	69da      	ldr	r2, [r3, #28]
 8001ed4:	f8b7 3040 	ldrh.w	r3, [r7, #64]	@ 0x40
 8001ed8:	441a      	add	r2, r3
 8001eda:	6d7b      	ldr	r3, [r7, #84]	@ 0x54
 8001edc:	61da      	str	r2, [r3, #28]
              (void)USB_EPStartXfer(hpcd->Instance, ep);
 8001ede:	687b      	ldr	r3, [r7, #4]
 8001ee0:	681b      	ldr	r3, [r3, #0]
 8001ee2:	6d79      	ldr	r1, [r7, #84]	@ 0x54
 8001ee4:	4618      	mov	r0, r3
 8001ee6:	f002 fb2b 	bl	8004540 <USB_EPStartXfer>
 8001eea:	e006      	b.n	8001efa <PCD_EP_ISR_Handler+0x782>
          }
#if (USE_USB_DOUBLE_BUFFER == 1U)
          /* Double Buffer bulk IN (bulk transfer Len > Ep_Mps) */
          else
          {
            (void)HAL_PCD_EP_DB_Transmit(hpcd, ep, wEPVal);
 8001eec:	f8b7 304a 	ldrh.w	r3, [r7, #74]	@ 0x4a
 8001ef0:	461a      	mov	r2, r3
 8001ef2:	6d79      	ldr	r1, [r7, #84]	@ 0x54
 8001ef4:	6878      	ldr	r0, [r7, #4]
 8001ef6:	f000 f91b 	bl	8002130 <HAL_PCD_EP_DB_Transmit>
  while ((hpcd->Instance->ISTR & USB_ISTR_CTR) != 0U)
 8001efa:	687b      	ldr	r3, [r7, #4]
 8001efc:	681b      	ldr	r3, [r3, #0]
 8001efe:	f8b3 3044 	ldrh.w	r3, [r3, #68]	@ 0x44
 8001f02:	b29b      	uxth	r3, r3
 8001f04:	b21b      	sxth	r3, r3
 8001f06:	2b00      	cmp	r3, #0
 8001f08:	f6ff ac3b 	blt.w	8001782 <PCD_EP_ISR_Handler+0xa>
        }
      }
    }
  }

  return HAL_OK;
 8001f0c:	2300      	movs	r3, #0
}
 8001f0e:	4618      	mov	r0, r3
 8001f10:	3758      	adds	r7, #88	@ 0x58
 8001f12:	46bd      	mov	sp, r7
 8001f14:	bd80      	pop	{r7, pc}

08001f16 <HAL_PCD_EP_DB_Receive>:
  * @param  wEPVal Last snapshot of EPRx register value taken in ISR
  * @retval HAL status
  */
static uint16_t HAL_PCD_EP_DB_Receive(PCD_HandleTypeDef *hpcd,
                                      PCD_EPTypeDef *ep, uint16_t wEPVal)
{
 8001f16:	b580      	push	{r7, lr}
 8001f18:	b088      	sub	sp, #32
 8001f1a:	af00      	add	r7, sp, #0
 8001f1c:	60f8      	str	r0, [r7, #12]
 8001f1e:	60b9      	str	r1, [r7, #8]
 8001f20:	4613      	mov	r3, r2
 8001f22:	80fb      	strh	r3, [r7, #6]
  uint16_t count;

  /* Manage Buffer0 OUT */
  if ((wEPVal & USB_EP_DTOG_RX) != 0U)
 8001f24:	88fb      	ldrh	r3, [r7, #6]
 8001f26:	f403 4380 	and.w	r3, r3, #16384	@ 0x4000
 8001f2a:	2b00      	cmp	r3, #0
 8001f2c:	d07e      	beq.n	800202c <HAL_PCD_EP_DB_Receive+0x116>
  {
    /* Get count of received Data on buffer0 */
    count = (uint16_t)PCD_GET_EP_DBUF0_CNT(hpcd->Instance, ep->num);
 8001f2e:	68fb      	ldr	r3, [r7, #12]
 8001f30:	681b      	ldr	r3, [r3, #0]
 8001f32:	f8b3 3050 	ldrh.w	r3, [r3, #80]	@ 0x50
 8001f36:	b29b      	uxth	r3, r3
 8001f38:	461a      	mov	r2, r3
 8001f3a:	68bb      	ldr	r3, [r7, #8]
 8001f3c:	781b      	ldrb	r3, [r3, #0]
 8001f3e:	00db      	lsls	r3, r3, #3
 8001f40:	4413      	add	r3, r2
 8001f42:	3302      	adds	r3, #2
 8001f44:	005b      	lsls	r3, r3, #1
 8001f46:	68fa      	ldr	r2, [r7, #12]
 8001f48:	6812      	ldr	r2, [r2, #0]
 8001f4a:	4413      	add	r3, r2
 8001f4c:	f503 6380 	add.w	r3, r3, #1024	@ 0x400
 8001f50:	881b      	ldrh	r3, [r3, #0]
 8001f52:	f3c3 0309 	ubfx	r3, r3, #0, #10
 8001f56:	837b      	strh	r3, [r7, #26]

    if (ep->xfer_len >= count)
 8001f58:	68bb      	ldr	r3, [r7, #8]
 8001f5a:	699a      	ldr	r2, [r3, #24]
 8001f5c:	8b7b      	ldrh	r3, [r7, #26]
 8001f5e:	429a      	cmp	r2, r3
 8001f60:	d306      	bcc.n	8001f70 <HAL_PCD_EP_DB_Receive+0x5a>
    {
      ep->xfer_len -= count;
 8001f62:	68bb      	ldr	r3, [r7, #8]
 8001f64:	699a      	ldr	r2, [r3, #24]
 8001f66:	8b7b      	ldrh	r3, [r7, #26]
 8001f68:	1ad2      	subs	r2, r2, r3
 8001f6a:	68bb      	ldr	r3, [r7, #8]
 8001f6c:	619a      	str	r2, [r3, #24]
 8001f6e:	e002      	b.n	8001f76 <HAL_PCD_EP_DB_Receive+0x60>
    }
    else
    {
      ep->xfer_len = 0U;
 8001f70:	68bb      	ldr	r3, [r7, #8]
 8001f72:	2200      	movs	r2, #0
 8001f74:	619a      	str	r2, [r3, #24]
    }

    if (ep->xfer_len == 0U)
 8001f76:	68bb      	ldr	r3, [r7, #8]
 8001f78:	699b      	ldr	r3, [r3, #24]
 8001f7a:	2b00      	cmp	r3, #0
 8001f7c:	d123      	bne.n	8001fc6 <HAL_PCD_EP_DB_Receive+0xb0>
    {
      /* set NAK to OUT endpoint since double buffer is enabled */
      PCD_SET_EP_RX_STATUS(hpcd->Instance, ep->num, USB_EP_RX_NAK);
 8001f7e:	68fb      	ldr	r3, [r7, #12]
 8001f80:	681b      	ldr	r3, [r3, #0]
 8001f82:	461a      	mov	r2, r3
 8001f84:	68bb      	ldr	r3, [r7, #8]
 8001f86:	781b      	ldrb	r3, [r3, #0]
 8001f88:	009b      	lsls	r3, r3, #2
 8001f8a:	4413      	add	r3, r2
 8001f8c:	881b      	ldrh	r3, [r3, #0]
 8001f8e:	b29b      	uxth	r3, r3
 8001f90:	f423 4380 	bic.w	r3, r3, #16384	@ 0x4000
 8001f94:	f023 0370 	bic.w	r3, r3, #112	@ 0x70
 8001f98:	833b      	strh	r3, [r7, #24]
 8001f9a:	8b3b      	ldrh	r3, [r7, #24]
 8001f9c:	f483 5300 	eor.w	r3, r3, #8192	@ 0x2000
 8001fa0:	833b      	strh	r3, [r7, #24]
 8001fa2:	68fb      	ldr	r3, [r7, #12]
 8001fa4:	681b      	ldr	r3, [r3, #0]
 8001fa6:	461a      	mov	r2, r3
 8001fa8:	68bb      	ldr	r3, [r7, #8]
 8001faa:	781b      	ldrb	r3, [r3, #0]
 8001fac:	009b      	lsls	r3, r3, #2
 8001fae:	441a      	add	r2, r3
 8001fb0:	8b3b      	ldrh	r3, [r7, #24]
 8001fb2:	f043 437f 	orr.w	r3, r3, #4278190080	@ 0xff000000
 8001fb6:	f443 037f 	orr.w	r3, r3, #16711680	@ 0xff0000
 8001fba:	f443 4300 	orr.w	r3, r3, #32768	@ 0x8000
 8001fbe:	f043 0380 	orr.w	r3, r3, #128	@ 0x80
 8001fc2:	b29b      	uxth	r3, r3
 8001fc4:	8013      	strh	r3, [r2, #0]
    }

    /* Check if Buffer1 is in blocked state which requires to toggle */
    if ((wEPVal & USB_EP_DTOG_TX) != 0U)
 8001fc6:	88fb      	ldrh	r3, [r7, #6]
 8001fc8:	f003 0340 	and.w	r3, r3, #64	@ 0x40
 8001fcc:	2b00      	cmp	r3, #0
 8001fce:	d01f      	beq.n	8002010 <HAL_PCD_EP_DB_Receive+0xfa>
    {
      PCD_FREE_USER_BUFFER(hpcd->Instance, ep->num, 0U);
 8001fd0:	68fb      	ldr	r3, [r7, #12]
 8001fd2:	681b      	ldr	r3, [r3, #0]
 8001fd4:	461a      	mov	r2, r3
 8001fd6:	68bb      	ldr	r3, [r7, #8]
 8001fd8:	781b      	ldrb	r3, [r3, #0]
 8001fda:	009b      	lsls	r3, r3, #2
 8001fdc:	4413      	add	r3, r2
 8001fde:	881b      	ldrh	r3, [r3, #0]
 8001fe0:	b29b      	uxth	r3, r3
 8001fe2:	f423 43e0 	bic.w	r3, r3, #28672	@ 0x7000
 8001fe6:	f023 0370 	bic.w	r3, r3, #112	@ 0x70
 8001fea:	82fb      	strh	r3, [r7, #22]
 8001fec:	68fb      	ldr	r3, [r7, #12]
 8001fee:	681b      	ldr	r3, [r3, #0]
 8001ff0:	461a      	mov	r2, r3
 8001ff2:	68bb      	ldr	r3, [r7, #8]
 8001ff4:	781b      	ldrb	r3, [r3, #0]
 8001ff6:	009b      	lsls	r3, r3, #2
 8001ff8:	441a      	add	r2, r3
 8001ffa:	8afb      	ldrh	r3, [r7, #22]
 8001ffc:	f043 437f 	orr.w	r3, r3, #4278190080	@ 0xff000000
 8002000:	f443 037f 	orr.w	r3, r3, #16711680	@ 0xff0000
 8002004:	f443 4300 	orr.w	r3, r3, #32768	@ 0x8000
 8002008:	f043 03c0 	orr.w	r3, r3, #192	@ 0xc0
 800200c:	b29b      	uxth	r3, r3
 800200e:	8013      	strh	r3, [r2, #0]
    }

    if (count != 0U)
 8002010:	8b7b      	ldrh	r3, [r7, #26]
 8002012:	2b00      	cmp	r3, #0
 8002014:	f000 8087 	beq.w	8002126 <HAL_PCD_EP_DB_Receive+0x210>
    {
      USB_ReadPMA(hpcd->Instance, ep->xfer_buff, ep->pmaaddr0, count);
 8002018:	68fb      	ldr	r3, [r7, #12]
 800201a:	6818      	ldr	r0, [r3, #0]
 800201c:	68bb      	ldr	r3, [r7, #8]
 800201e:	6959      	ldr	r1, [r3, #20]
 8002020:	68bb      	ldr	r3, [r7, #8]
 8002022:	891a      	ldrh	r2, [r3, #8]
 8002024:	8b7b      	ldrh	r3, [r7, #26]
 8002026:	f003 ffbf 	bl	8005fa8 <USB_ReadPMA>
 800202a:	e07c      	b.n	8002126 <HAL_PCD_EP_DB_Receive+0x210>
  }
  /* Manage Buffer 1 DTOG_RX=0 */
  else
  {
    /* Get count of received data */
    count = (uint16_t)PCD_GET_EP_DBUF1_CNT(hpcd->Instance, ep->num);
 800202c:	68fb      	ldr	r3, [r7, #12]
 800202e:	681b      	ldr	r3, [r3, #0]
 8002030:	f8b3 3050 	ldrh.w	r3, [r3, #80]	@ 0x50
 8002034:	b29b      	uxth	r3, r3
 8002036:	461a      	mov	r2, r3
 8002038:	68bb      	ldr	r3, [r7, #8]
 800203a:	781b      	ldrb	r3, [r3, #0]
 800203c:	00db      	lsls	r3, r3, #3
 800203e:	4413      	add	r3, r2
 8002040:	3306      	adds	r3, #6
 8002042:	005b      	lsls	r3, r3, #1
 8002044:	68fa      	ldr	r2, [r7, #12]
 8002046:	6812      	ldr	r2, [r2, #0]
 8002048:	4413      	add	r3, r2
 800204a:	f503 6380 	add.w	r3, r3, #1024	@ 0x400
 800204e:	881b      	ldrh	r3, [r3, #0]
 8002050:	f3c3 0309 	ubfx	r3, r3, #0, #10
 8002054:	837b      	strh	r3, [r7, #26]

    if (ep->xfer_len >= count)
 8002056:	68bb      	ldr	r3, [r7, #8]
 8002058:	699a      	ldr	r2, [r3, #24]
 800205a:	8b7b      	ldrh	r3, [r7, #26]
 800205c:	429a      	cmp	r2, r3
 800205e:	d306      	bcc.n	800206e <HAL_PCD_EP_DB_Receive+0x158>
    {
      ep->xfer_len -= count;
 8002060:	68bb      	ldr	r3, [r7, #8]
 8002062:	699a      	ldr	r2, [r3, #24]
 8002064:	8b7b      	ldrh	r3, [r7, #26]
 8002066:	1ad2      	subs	r2, r2, r3
 8002068:	68bb      	ldr	r3, [r7, #8]
 800206a:	619a      	str	r2, [r3, #24]
 800206c:	e002      	b.n	8002074 <HAL_PCD_EP_DB_Receive+0x15e>
    }
    else
    {
      ep->xfer_len = 0U;
 800206e:	68bb      	ldr	r3, [r7, #8]
 8002070:	2200      	movs	r2, #0
 8002072:	619a      	str	r2, [r3, #24]
    }

    if (ep->xfer_len == 0U)
 8002074:	68bb      	ldr	r3, [r7, #8]
 8002076:	699b      	ldr	r3, [r3, #24]
 8002078:	2b00      	cmp	r3, #0
 800207a:	d123      	bne.n	80020c4 <HAL_PCD_EP_DB_Receive+0x1ae>
    {
      /* set NAK on the current endpoint */
      PCD_SET_EP_RX_STATUS(hpcd->Instance, ep->num, USB_EP_RX_NAK);
 800207c:	68fb      	ldr	r3, [r7, #12]
 800207e:	681b      	ldr	r3, [r3, #0]
 8002080:	461a      	mov	r2, r3
 8002082:	68bb      	ldr	r3, [r7, #8]
 8002084:	781b      	ldrb	r3, [r3, #0]
 8002086:	009b      	lsls	r3, r3, #2
 8002088:	4413      	add	r3, r2
 800208a:	881b      	ldrh	r3, [r3, #0]
 800208c:	b29b      	uxth	r3, r3
 800208e:	f423 4380 	bic.w	r3, r3, #16384	@ 0x4000
 8002092:	f023 0370 	bic.w	r3, r3, #112	@ 0x70
 8002096:	83fb      	strh	r3, [r7, #30]
 8002098:	8bfb      	ldrh	r3, [r7, #30]
 800209a:	f483 5300 	eor.w	r3, r3, #8192	@ 0x2000
 800209e:	83fb      	strh	r3, [r7, #30]
 80020a0:	68fb      	ldr	r3, [r7, #12]
 80020a2:	681b      	ldr	r3, [r3, #0]
 80020a4:	461a      	mov	r2, r3
 80020a6:	68bb      	ldr	r3, [r7, #8]
 80020a8:	781b      	ldrb	r3, [r3, #0]
 80020aa:	009b      	lsls	r3, r3, #2
 80020ac:	441a      	add	r2, r3
 80020ae:	8bfb      	ldrh	r3, [r7, #30]
 80020b0:	f043 437f 	orr.w	r3, r3, #4278190080	@ 0xff000000
 80020b4:	f443 037f 	orr.w	r3, r3, #16711680	@ 0xff0000
 80020b8:	f443 4300 	orr.w	r3, r3, #32768	@ 0x8000
 80020bc:	f043 0380 	orr.w	r3, r3, #128	@ 0x80
 80020c0:	b29b      	uxth	r3, r3
 80020c2:	8013      	strh	r3, [r2, #0]
    }

    /*Need to FreeUser Buffer*/
    if ((wEPVal & USB_EP_DTOG_TX) == 0U)
 80020c4:	88fb      	ldrh	r3, [r7, #6]
 80020c6:	f003 0340 	and.w	r3, r3, #64	@ 0x40
 80020ca:	2b00      	cmp	r3, #0
 80020cc:	d11f      	bne.n	800210e <HAL_PCD_EP_DB_Receive+0x1f8>
    {
      PCD_FREE_USER_BUFFER(hpcd->Instance, ep->num, 0U);
 80020ce:	68fb      	ldr	r3, [r7, #12]
 80020d0:	681b      	ldr	r3, [r3, #0]
 80020d2:	461a      	mov	r2, r3
 80020d4:	68bb      	ldr	r3, [r7, #8]
 80020d6:	781b      	ldrb	r3, [r3, #0]
 80020d8:	009b      	lsls	r3, r3, #2
 80020da:	4413      	add	r3, r2
 80020dc:	881b      	ldrh	r3, [r3, #0]
 80020de:	b29b      	uxth	r3, r3
 80020e0:	f423 43e0 	bic.w	r3, r3, #28672	@ 0x7000
 80020e4:	f023 0370 	bic.w	r3, r3, #112	@ 0x70
 80020e8:	83bb      	strh	r3, [r7, #28]
 80020ea:	68fb      	ldr	r3, [r7, #12]
 80020ec:	681b      	ldr	r3, [r3, #0]
 80020ee:	461a      	mov	r2, r3
 80020f0:	68bb      	ldr	r3, [r7, #8]
 80020f2:	781b      	ldrb	r3, [r3, #0]
 80020f4:	009b      	lsls	r3, r3, #2
 80020f6:	441a      	add	r2, r3
 80020f8:	8bbb      	ldrh	r3, [r7, #28]
 80020fa:	f043 437f 	orr.w	r3, r3, #4278190080	@ 0xff000000
 80020fe:	f443 037f 	orr.w	r3, r3, #16711680	@ 0xff0000
 8002102:	f443 4300 	orr.w	r3, r3, #32768	@ 0x8000
 8002106:	f043 03c0 	orr.w	r3, r3, #192	@ 0xc0
 800210a:	b29b      	uxth	r3, r3
 800210c:	8013      	strh	r3, [r2, #0]
    }

    if (count != 0U)
 800210e:	8b7b      	ldrh	r3, [r7, #26]
 8002110:	2b00      	cmp	r3, #0
 8002112:	d008      	beq.n	8002126 <HAL_PCD_EP_DB_Receive+0x210>
    {
      USB_ReadPMA(hpcd->Instance, ep->xfer_buff, ep->pmaaddr1, count);
 8002114:	68fb      	ldr	r3, [r7, #12]
 8002116:	6818      	ldr	r0, [r3, #0]
 8002118:	68bb      	ldr	r3, [r7, #8]
 800211a:	6959      	ldr	r1, [r3, #20]
 800211c:	68bb      	ldr	r3, [r7, #8]
 800211e:	895a      	ldrh	r2, [r3, #10]
 8002120:	8b7b      	ldrh	r3, [r7, #26]
 8002122:	f003 ff41 	bl	8005fa8 <USB_ReadPMA>
    }
  }

  return count;
 8002126:	8b7b      	ldrh	r3, [r7, #26]
}
 8002128:	4618      	mov	r0, r3
 800212a:	3720      	adds	r7, #32
 800212c:	46bd      	mov	sp, r7
 800212e:	bd80      	pop	{r7, pc}

08002130 <HAL_PCD_EP_DB_Transmit>:
  * @param  wEPVal Last snapshot of EPRx register value taken in ISR
  * @retval HAL status
  */
static HAL_StatusTypeDef HAL_PCD_EP_DB_Transmit(PCD_HandleTypeDef *hpcd,
                                                PCD_EPTypeDef *ep, uint16_t wEPVal)
{
 8002130:	b580      	push	{r7, lr}
 8002132:	b0a4      	sub	sp, #144	@ 0x90
 8002134:	af00      	add	r7, sp, #0
 8002136:	60f8      	str	r0, [r7, #12]
 8002138:	60b9      	str	r1, [r7, #8]
 800213a:	4613      	mov	r3, r2
 800213c:	80fb      	strh	r3, [r7, #6]
  uint32_t len;
  uint16_t TxPctSize;

  /* Data Buffer0 ACK received */
  if ((wEPVal & USB_EP_DTOG_TX) != 0U)
 800213e:	88fb      	ldrh	r3, [r7, #6]
 8002140:	f003 0340 	and.w	r3, r3, #64	@ 0x40
 8002144:	2b00      	cmp	r3, #0
 8002146:	f000 81dd 	beq.w	8002504 <HAL_PCD_EP_DB_Transmit+0x3d4>
  {
    /* multi-packet on the NON control IN endpoint */
    TxPctSize = (uint16_t)PCD_GET_EP_DBUF0_CNT(hpcd->Instance, ep->num);
 800214a:	68fb      	ldr	r3, [r7, #12]
 800214c:	681b      	ldr	r3, [r3, #0]
 800214e:	f8b3 3050 	ldrh.w	r3, [r3, #80]	@ 0x50
 8002152:	b29b      	uxth	r3, r3
 8002154:	461a      	mov	r2, r3
 8002156:	68bb      	ldr	r3, [r7, #8]
 8002158:	781b      	ldrb	r3, [r3, #0]
 800215a:	00db      	lsls	r3, r3, #3
 800215c:	4413      	add	r3, r2
 800215e:	3302      	adds	r3, #2
 8002160:	005b      	lsls	r3, r3, #1
 8002162:	68fa      	ldr	r2, [r7, #12]
 8002164:	6812      	ldr	r2, [r2, #0]
 8002166:	4413      	add	r3, r2
 8002168:	f503 6380 	add.w	r3, r3, #1024	@ 0x400
 800216c:	881b      	ldrh	r3, [r3, #0]
 800216e:	f3c3 0309 	ubfx	r3, r3, #0, #10
 8002172:	f8a7 3086 	strh.w	r3, [r7, #134]	@ 0x86

    if (ep->xfer_len > TxPctSize)
 8002176:	68bb      	ldr	r3, [r7, #8]
 8002178:	699a      	ldr	r2, [r3, #24]
 800217a:	f8b7 3086 	ldrh.w	r3, [r7, #134]	@ 0x86
 800217e:	429a      	cmp	r2, r3
 8002180:	d907      	bls.n	8002192 <HAL_PCD_EP_DB_Transmit+0x62>
    {
      ep->xfer_len -= TxPctSize;
 8002182:	68bb      	ldr	r3, [r7, #8]
 8002184:	699a      	ldr	r2, [r3, #24]
 8002186:	f8b7 3086 	ldrh.w	r3, [r7, #134]	@ 0x86
 800218a:	1ad2      	subs	r2, r2, r3
 800218c:	68bb      	ldr	r3, [r7, #8]
 800218e:	619a      	str	r2, [r3, #24]
 8002190:	e002      	b.n	8002198 <HAL_PCD_EP_DB_Transmit+0x68>
    }
    else
    {
      ep->xfer_len = 0U;
 8002192:	68bb      	ldr	r3, [r7, #8]
 8002194:	2200      	movs	r2, #0
 8002196:	619a      	str	r2, [r3, #24]
    }

    /* Transfer is completed */
    if (ep->xfer_len == 0U)
 8002198:	68bb      	ldr	r3, [r7, #8]
 800219a:	699b      	ldr	r3, [r3, #24]
 800219c:	2b00      	cmp	r3, #0
 800219e:	f040 80b9 	bne.w	8002314 <HAL_PCD_EP_DB_Transmit+0x1e4>
    {
      PCD_SET_EP_DBUF0_CNT(hpcd->Instance, ep->num, ep->is_in, 0U);
 80021a2:	68bb      	ldr	r3, [r7, #8]
 80021a4:	785b      	ldrb	r3, [r3, #1]
 80021a6:	2b00      	cmp	r3, #0
 80021a8:	d126      	bne.n	80021f8 <HAL_PCD_EP_DB_Transmit+0xc8>
 80021aa:	68fb      	ldr	r3, [r7, #12]
 80021ac:	681b      	ldr	r3, [r3, #0]
 80021ae:	62fb      	str	r3, [r7, #44]	@ 0x2c
 80021b0:	68fb      	ldr	r3, [r7, #12]
 80021b2:	681b      	ldr	r3, [r3, #0]
 80021b4:	f8b3 3050 	ldrh.w	r3, [r3, #80]	@ 0x50
 80021b8:	b29b      	uxth	r3, r3
 80021ba:	461a      	mov	r2, r3
 80021bc:	6afb      	ldr	r3, [r7, #44]	@ 0x2c
 80021be:	4413      	add	r3, r2
 80021c0:	62fb      	str	r3, [r7, #44]	@ 0x2c
 80021c2:	68bb      	ldr	r3, [r7, #8]
 80021c4:	781b      	ldrb	r3, [r3, #0]
 80021c6:	011a      	lsls	r2, r3, #4
 80021c8:	6afb      	ldr	r3, [r7, #44]	@ 0x2c
 80021ca:	4413      	add	r3, r2
 80021cc:	f203 4304 	addw	r3, r3, #1028	@ 0x404
 80021d0:	62bb      	str	r3, [r7, #40]	@ 0x28
 80021d2:	6abb      	ldr	r3, [r7, #40]	@ 0x28
 80021d4:	881b      	ldrh	r3, [r3, #0]
 80021d6:	b29b      	uxth	r3, r3
 80021d8:	f3c3 0309 	ubfx	r3, r3, #0, #10
 80021dc:	b29a      	uxth	r2, r3
 80021de:	6abb      	ldr	r3, [r7, #40]	@ 0x28
 80021e0:	801a      	strh	r2, [r3, #0]
 80021e2:	6abb      	ldr	r3, [r7, #40]	@ 0x28
 80021e4:	881b      	ldrh	r3, [r3, #0]
 80021e6:	b29b      	uxth	r3, r3
 80021e8:	ea6f 4343 	mvn.w	r3, r3, lsl #17
 80021ec:	ea6f 4353 	mvn.w	r3, r3, lsr #17
 80021f0:	b29a      	uxth	r2, r3
 80021f2:	6abb      	ldr	r3, [r7, #40]	@ 0x28
 80021f4:	801a      	strh	r2, [r3, #0]
 80021f6:	e01a      	b.n	800222e <HAL_PCD_EP_DB_Transmit+0xfe>
 80021f8:	68bb      	ldr	r3, [r7, #8]
 80021fa:	785b      	ldrb	r3, [r3, #1]
 80021fc:	2b01      	cmp	r3, #1
 80021fe:	d116      	bne.n	800222e <HAL_PCD_EP_DB_Transmit+0xfe>
 8002200:	68fb      	ldr	r3, [r7, #12]
 8002202:	681b      	ldr	r3, [r3, #0]
 8002204:	637b      	str	r3, [r7, #52]	@ 0x34
 8002206:	68fb      	ldr	r3, [r7, #12]
 8002208:	681b      	ldr	r3, [r3, #0]
 800220a:	f8b3 3050 	ldrh.w	r3, [r3, #80]	@ 0x50
 800220e:	b29b      	uxth	r3, r3
 8002210:	461a      	mov	r2, r3
 8002212:	6b7b      	ldr	r3, [r7, #52]	@ 0x34
 8002214:	4413      	add	r3, r2
 8002216:	637b      	str	r3, [r7, #52]	@ 0x34
 8002218:	68bb      	ldr	r3, [r7, #8]
 800221a:	781b      	ldrb	r3, [r3, #0]
 800221c:	011a      	lsls	r2, r3, #4
 800221e:	6b7b      	ldr	r3, [r7, #52]	@ 0x34
 8002220:	4413      	add	r3, r2
 8002222:	f203 4304 	addw	r3, r3, #1028	@ 0x404
 8002226:	633b      	str	r3, [r7, #48]	@ 0x30
 8002228:	6b3b      	ldr	r3, [r7, #48]	@ 0x30
 800222a:	2200      	movs	r2, #0
 800222c:	801a      	strh	r2, [r3, #0]
      PCD_SET_EP_DBUF1_CNT(hpcd->Instance, ep->num, ep->is_in, 0U);
 800222e:	68fb      	ldr	r3, [r7, #12]
 8002230:	681b      	ldr	r3, [r3, #0]
 8002232:	627b      	str	r3, [r7, #36]	@ 0x24
 8002234:	68bb      	ldr	r3, [r7, #8]
 8002236:	785b      	ldrb	r3, [r3, #1]
 8002238:	2b00      	cmp	r3, #0
 800223a:	d126      	bne.n	800228a <HAL_PCD_EP_DB_Transmit+0x15a>
 800223c:	68fb      	ldr	r3, [r7, #12]
 800223e:	681b      	ldr	r3, [r3, #0]
 8002240:	61fb      	str	r3, [r7, #28]
 8002242:	68fb      	ldr	r3, [r7, #12]
 8002244:	681b      	ldr	r3, [r3, #0]
 8002246:	f8b3 3050 	ldrh.w	r3, [r3, #80]	@ 0x50
 800224a:	b29b      	uxth	r3, r3
 800224c:	461a      	mov	r2, r3
 800224e:	69fb      	ldr	r3, [r7, #28]
 8002250:	4413      	add	r3, r2
 8002252:	61fb      	str	r3, [r7, #28]
 8002254:	68bb      	ldr	r3, [r7, #8]
 8002256:	781b      	ldrb	r3, [r3, #0]
 8002258:	011a      	lsls	r2, r3, #4
 800225a:	69fb      	ldr	r3, [r7, #28]
 800225c:	4413      	add	r3, r2
 800225e:	f203 430c 	addw	r3, r3, #1036	@ 0x40c
 8002262:	61bb      	str	r3, [r7, #24]
 8002264:	69bb      	ldr	r3, [r7, #24]
 8002266:	881b      	ldrh	r3, [r3, #0]
 8002268:	b29b      	uxth	r3, r3
 800226a:	f3c3 0309 	ubfx	r3, r3, #0, #10
 800226e:	b29a      	uxth	r2, r3
 8002270:	69bb      	ldr	r3, [r7, #24]
 8002272:	801a      	strh	r2, [r3, #0]
 8002274:	69bb      	ldr	r3, [r7, #24]
 8002276:	881b      	ldrh	r3, [r3, #0]
 8002278:	b29b      	uxth	r3, r3
 800227a:	ea6f 4343 	mvn.w	r3, r3, lsl #17
 800227e:	ea6f 4353 	mvn.w	r3, r3, lsr #17
 8002282:	b29a      	uxth	r2, r3
 8002284:	69bb      	ldr	r3, [r7, #24]
 8002286:	801a      	strh	r2, [r3, #0]
 8002288:	e017      	b.n	80022ba <HAL_PCD_EP_DB_Transmit+0x18a>
 800228a:	68bb      	ldr	r3, [r7, #8]
 800228c:	785b      	ldrb	r3, [r3, #1]
 800228e:	2b01      	cmp	r3, #1
 8002290:	d113      	bne.n	80022ba <HAL_PCD_EP_DB_Transmit+0x18a>
 8002292:	68fb      	ldr	r3, [r7, #12]
 8002294:	681b      	ldr	r3, [r3, #0]
 8002296:	f8b3 3050 	ldrh.w	r3, [r3, #80]	@ 0x50
 800229a:	b29b      	uxth	r3, r3
 800229c:	461a      	mov	r2, r3
 800229e:	6a7b      	ldr	r3, [r7, #36]	@ 0x24
 80022a0:	4413      	add	r3, r2
 80022a2:	627b      	str	r3, [r7, #36]	@ 0x24
 80022a4:	68bb      	ldr	r3, [r7, #8]
 80022a6:	781b      	ldrb	r3, [r3, #0]
 80022a8:	011a      	lsls	r2, r3, #4
 80022aa:	6a7b      	ldr	r3, [r7, #36]	@ 0x24
 80022ac:	4413      	add	r3, r2
 80022ae:	f203 430c 	addw	r3, r3, #1036	@ 0x40c
 80022b2:	623b      	str	r3, [r7, #32]
 80022b4:	6a3b      	ldr	r3, [r7, #32]
 80022b6:	2200      	movs	r2, #0
 80022b8:	801a      	strh	r2, [r3, #0]

      /* TX COMPLETE */
#if (USE_HAL_PCD_REGISTER_CALLBACKS == 1U)
      hpcd->DataInStageCallback(hpcd, ep->num);
#else
      HAL_PCD_DataInStageCallback(hpcd, ep->num);
 80022ba:	68bb      	ldr	r3, [r7, #8]
 80022bc:	781b      	ldrb	r3, [r3, #0]
 80022be:	4619      	mov	r1, r3
 80022c0:	68f8      	ldr	r0, [r7, #12]
 80022c2:	f005 fa58 	bl	8007776 <HAL_PCD_DataInStageCallback>
#endif /* USE_HAL_PCD_REGISTER_CALLBACKS */

      if ((wEPVal & USB_EP_DTOG_RX) != 0U)
 80022c6:	88fb      	ldrh	r3, [r7, #6]
 80022c8:	f403 4380 	and.w	r3, r3, #16384	@ 0x4000
 80022cc:	2b00      	cmp	r3, #0
 80022ce:	f000 82fc 	beq.w	80028ca <HAL_PCD_EP_DB_Transmit+0x79a>
      {
        PCD_FREE_USER_BUFFER(hpcd->Instance, ep->num, 1U);
 80022d2:	68fb      	ldr	r3, [r7, #12]
 80022d4:	681b      	ldr	r3, [r3, #0]
 80022d6:	461a      	mov	r2, r3
 80022d8:	68bb      	ldr	r3, [r7, #8]
 80022da:	781b      	ldrb	r3, [r3, #0]
 80022dc:	009b      	lsls	r3, r3, #2
 80022de:	4413      	add	r3, r2
 80022e0:	881b      	ldrh	r3, [r3, #0]
 80022e2:	b29b      	uxth	r3, r3
 80022e4:	f423 43e0 	bic.w	r3, r3, #28672	@ 0x7000
 80022e8:	f023 0370 	bic.w	r3, r3, #112	@ 0x70
 80022ec:	82fb      	strh	r3, [r7, #22]
 80022ee:	68fb      	ldr	r3, [r7, #12]
 80022f0:	681b      	ldr	r3, [r3, #0]
 80022f2:	461a      	mov	r2, r3
 80022f4:	68bb      	ldr	r3, [r7, #8]
 80022f6:	781b      	ldrb	r3, [r3, #0]
 80022f8:	009b      	lsls	r3, r3, #2
 80022fa:	441a      	add	r2, r3
 80022fc:	8afb      	ldrh	r3, [r7, #22]
 80022fe:	f043 437f 	orr.w	r3, r3, #4278190080	@ 0xff000000
 8002302:	f443 037f 	orr.w	r3, r3, #16711680	@ 0xff0000
 8002306:	f443 4340 	orr.w	r3, r3, #49152	@ 0xc000
 800230a:	f043 0380 	orr.w	r3, r3, #128	@ 0x80
 800230e:	b29b      	uxth	r3, r3
 8002310:	8013      	strh	r3, [r2, #0]
 8002312:	e2da      	b.n	80028ca <HAL_PCD_EP_DB_Transmit+0x79a>
      }
    }
    else /* Transfer is not yet Done */
    {
      /* need to Free USB Buff */
      if ((wEPVal & USB_EP_DTOG_RX) != 0U)
 8002314:	88fb      	ldrh	r3, [r7, #6]
 8002316:	f403 4380 	and.w	r3, r3, #16384	@ 0x4000
 800231a:	2b00      	cmp	r3, #0
 800231c:	d021      	beq.n	8002362 <HAL_PCD_EP_DB_Transmit+0x232>
      {
        PCD_FREE_USER_BUFFER(hpcd->Instance, ep->num, 1U);
 800231e:	68fb      	ldr	r3, [r7, #12]
 8002320:	681b      	ldr	r3, [r3, #0]
 8002322:	461a      	mov	r2, r3
 8002324:	68bb      	ldr	r3, [r7, #8]
 8002326:	781b      	ldrb	r3, [r3, #0]
 8002328:	009b      	lsls	r3, r3, #2
 800232a:	4413      	add	r3, r2
 800232c:	881b      	ldrh	r3, [r3, #0]
 800232e:	b29b      	uxth	r3, r3
 8002330:	f423 43e0 	bic.w	r3, r3, #28672	@ 0x7000
 8002334:	f023 0370 	bic.w	r3, r3, #112	@ 0x70
 8002338:	f8a7 308a 	strh.w	r3, [r7, #138]	@ 0x8a
 800233c:	68fb      	ldr	r3, [r7, #12]
 800233e:	681b      	ldr	r3, [r3, #0]
 8002340:	461a      	mov	r2, r3
 8002342:	68bb      	ldr	r3, [r7, #8]
 8002344:	781b      	ldrb	r3, [r3, #0]
 8002346:	009b      	lsls	r3, r3, #2
 8002348:	441a      	add	r2, r3
 800234a:	f8b7 308a 	ldrh.w	r3, [r7, #138]	@ 0x8a
 800234e:	f043 437f 	orr.w	r3, r3, #4278190080	@ 0xff000000
 8002352:	f443 037f 	orr.w	r3, r3, #16711680	@ 0xff0000
 8002356:	f443 4340 	orr.w	r3, r3, #49152	@ 0xc000
 800235a:	f043 0380 	orr.w	r3, r3, #128	@ 0x80
 800235e:	b29b      	uxth	r3, r3
 8002360:	8013      	strh	r3, [r2, #0]
      }

      /* Still there is data to Fill in the next Buffer */
      if (ep->xfer_fill_db == 1U)
 8002362:	68bb      	ldr	r3, [r7, #8]
 8002364:	f893 3024 	ldrb.w	r3, [r3, #36]	@ 0x24
 8002368:	2b01      	cmp	r3, #1
 800236a:	f040 82ae 	bne.w	80028ca <HAL_PCD_EP_DB_Transmit+0x79a>
      {
        ep->xfer_buff += TxPctSize;
 800236e:	68bb      	ldr	r3, [r7, #8]
 8002370:	695a      	ldr	r2, [r3, #20]
 8002372:	f8b7 3086 	ldrh.w	r3, [r7, #134]	@ 0x86
 8002376:	441a      	add	r2, r3
 8002378:	68bb      	ldr	r3, [r7, #8]
 800237a:	615a      	str	r2, [r3, #20]
        ep->xfer_count += TxPctSize;
 800237c:	68bb      	ldr	r3, [r7, #8]
 800237e:	69da      	ldr	r2, [r3, #28]
 8002380:	f8b7 3086 	ldrh.w	r3, [r7, #134]	@ 0x86
 8002384:	441a      	add	r2, r3
 8002386:	68bb      	ldr	r3, [r7, #8]
 8002388:	61da      	str	r2, [r3, #28]

        /* Calculate the len of the new buffer to fill */
        if (ep->xfer_len_db >= ep->maxpacket)
 800238a:	68bb      	ldr	r3, [r7, #8]
 800238c:	6a1a      	ldr	r2, [r3, #32]
 800238e:	68bb      	ldr	r3, [r7, #8]
 8002390:	691b      	ldr	r3, [r3, #16]
 8002392:	429a      	cmp	r2, r3
 8002394:	d30b      	bcc.n	80023ae <HAL_PCD_EP_DB_Transmit+0x27e>
        {
          len = ep->maxpacket;
 8002396:	68bb      	ldr	r3, [r7, #8]
 8002398:	691b      	ldr	r3, [r3, #16]
 800239a:	f8c7 308c 	str.w	r3, [r7, #140]	@ 0x8c
          ep->xfer_len_db -= len;
 800239e:	68bb      	ldr	r3, [r7, #8]
 80023a0:	6a1a      	ldr	r2, [r3, #32]
 80023a2:	f8d7 308c 	ldr.w	r3, [r7, #140]	@ 0x8c
 80023a6:	1ad2      	subs	r2, r2, r3
 80023a8:	68bb      	ldr	r3, [r7, #8]
 80023aa:	621a      	str	r2, [r3, #32]
 80023ac:	e017      	b.n	80023de <HAL_PCD_EP_DB_Transmit+0x2ae>
        }
        else if (ep->xfer_len_db == 0U)
 80023ae:	68bb      	ldr	r3, [r7, #8]
 80023b0:	6a1b      	ldr	r3, [r3, #32]
 80023b2:	2b00      	cmp	r3, #0
 80023b4:	d108      	bne.n	80023c8 <HAL_PCD_EP_DB_Transmit+0x298>
        {
          len = TxPctSize;
 80023b6:	f8b7 3086 	ldrh.w	r3, [r7, #134]	@ 0x86
 80023ba:	f8c7 308c 	str.w	r3, [r7, #140]	@ 0x8c
          ep->xfer_fill_db = 0U;
 80023be:	68bb      	ldr	r3, [r7, #8]
 80023c0:	2200      	movs	r2, #0
 80023c2:	f883 2024 	strb.w	r2, [r3, #36]	@ 0x24
 80023c6:	e00a      	b.n	80023de <HAL_PCD_EP_DB_Transmit+0x2ae>
        }
        else
        {
          ep->xfer_fill_db = 0U;
 80023c8:	68bb      	ldr	r3, [r7, #8]
 80023ca:	2200      	movs	r2, #0
 80023cc:	f883 2024 	strb.w	r2, [r3, #36]	@ 0x24
          len = ep->xfer_len_db;
 80023d0:	68bb      	ldr	r3, [r7, #8]
 80023d2:	6a1b      	ldr	r3, [r3, #32]
 80023d4:	f8c7 308c 	str.w	r3, [r7, #140]	@ 0x8c
          ep->xfer_len_db = 0U;
 80023d8:	68bb      	ldr	r3, [r7, #8]
 80023da:	2200      	movs	r2, #0
 80023dc:	621a      	str	r2, [r3, #32]
        }

        /* Write remaining Data to Buffer */
        /* Set the Double buffer counter for pma buffer1 */
        PCD_SET_EP_DBUF0_CNT(hpcd->Instance, ep->num, ep->is_in, len);
 80023de:	68bb      	ldr	r3, [r7, #8]
 80023e0:	785b      	ldrb	r3, [r3, #1]
 80023e2:	2b00      	cmp	r3, #0
 80023e4:	d165      	bne.n	80024b2 <HAL_PCD_EP_DB_Transmit+0x382>
 80023e6:	68fb      	ldr	r3, [r7, #12]
 80023e8:	681b      	ldr	r3, [r3, #0]
 80023ea:	63fb      	str	r3, [r7, #60]	@ 0x3c
 80023ec:	68fb      	ldr	r3, [r7, #12]
 80023ee:	681b      	ldr	r3, [r3, #0]
 80023f0:	f8b3 3050 	ldrh.w	r3, [r3, #80]	@ 0x50
 80023f4:	b29b      	uxth	r3, r3
 80023f6:	461a      	mov	r2, r3
 80023f8:	6bfb      	ldr	r3, [r7, #60]	@ 0x3c
 80023fa:	4413      	add	r3, r2
 80023fc:	63fb      	str	r3, [r7, #60]	@ 0x3c
 80023fe:	68bb      	ldr	r3, [r7, #8]
 8002400:	781b      	ldrb	r3, [r3, #0]
 8002402:	011a      	lsls	r2, r3, #4
 8002404:	6bfb      	ldr	r3, [r7, #60]	@ 0x3c
 8002406:	4413      	add	r3, r2
 8002408:	f203 4304 	addw	r3, r3, #1028	@ 0x404
 800240c:	63bb      	str	r3, [r7, #56]	@ 0x38
 800240e:	6bbb      	ldr	r3, [r7, #56]	@ 0x38
 8002410:	881b      	ldrh	r3, [r3, #0]
 8002412:	b29b      	uxth	r3, r3
 8002414:	f3c3 0309 	ubfx	r3, r3, #0, #10
 8002418:	b29a      	uxth	r2, r3
 800241a:	6bbb      	ldr	r3, [r7, #56]	@ 0x38
 800241c:	801a      	strh	r2, [r3, #0]
 800241e:	f8d7 308c 	ldr.w	r3, [r7, #140]	@ 0x8c
 8002422:	2b3e      	cmp	r3, #62	@ 0x3e
 8002424:	d91d      	bls.n	8002462 <HAL_PCD_EP_DB_Transmit+0x332>
 8002426:	f8d7 308c 	ldr.w	r3, [r7, #140]	@ 0x8c
 800242a:	095b      	lsrs	r3, r3, #5
 800242c:	64bb      	str	r3, [r7, #72]	@ 0x48
 800242e:	f8d7 308c 	ldr.w	r3, [r7, #140]	@ 0x8c
 8002432:	f003 031f 	and.w	r3, r3, #31
 8002436:	2b00      	cmp	r3, #0
 8002438:	d102      	bne.n	8002440 <HAL_PCD_EP_DB_Transmit+0x310>
 800243a:	6cbb      	ldr	r3, [r7, #72]	@ 0x48
 800243c:	3b01      	subs	r3, #1
 800243e:	64bb      	str	r3, [r7, #72]	@ 0x48
 8002440:	6bbb      	ldr	r3, [r7, #56]	@ 0x38
 8002442:	881b      	ldrh	r3, [r3, #0]
 8002444:	b29a      	uxth	r2, r3
 8002446:	6cbb      	ldr	r3, [r7, #72]	@ 0x48
 8002448:	b29b      	uxth	r3, r3
 800244a:	029b      	lsls	r3, r3, #10
 800244c:	b29b      	uxth	r3, r3
 800244e:	4313      	orrs	r3, r2
 8002450:	b29b      	uxth	r3, r3
 8002452:	ea6f 4343 	mvn.w	r3, r3, lsl #17
 8002456:	ea6f 4353 	mvn.w	r3, r3, lsr #17
 800245a:	b29a      	uxth	r2, r3
 800245c:	6bbb      	ldr	r3, [r7, #56]	@ 0x38
 800245e:	801a      	strh	r2, [r3, #0]
 8002460:	e044      	b.n	80024ec <HAL_PCD_EP_DB_Transmit+0x3bc>
 8002462:	f8d7 308c 	ldr.w	r3, [r7, #140]	@ 0x8c
 8002466:	2b00      	cmp	r3, #0
 8002468:	d10a      	bne.n	8002480 <HAL_PCD_EP_DB_Transmit+0x350>
 800246a:	6bbb      	ldr	r3, [r7, #56]	@ 0x38
 800246c:	881b      	ldrh	r3, [r3, #0]
 800246e:	b29b      	uxth	r3, r3
 8002470:	ea6f 4343 	mvn.w	r3, r3, lsl #17
 8002474:	ea6f 4353 	mvn.w	r3, r3, lsr #17
 8002478:	b29a      	uxth	r2, r3
 800247a:	6bbb      	ldr	r3, [r7, #56]	@ 0x38
 800247c:	801a      	strh	r2, [r3, #0]
 800247e:	e035      	b.n	80024ec <HAL_PCD_EP_DB_Transmit+0x3bc>
 8002480:	f8d7 308c 	ldr.w	r3, [r7, #140]	@ 0x8c
 8002484:	085b      	lsrs	r3, r3, #1
 8002486:	64bb      	str	r3, [r7, #72]	@ 0x48
 8002488:	f8d7 308c 	ldr.w	r3, [r7, #140]	@ 0x8c
 800248c:	f003 0301 	and.w	r3, r3, #1
 8002490:	2b00      	cmp	r3, #0
 8002492:	d002      	beq.n	800249a <HAL_PCD_EP_DB_Transmit+0x36a>
 8002494:	6cbb      	ldr	r3, [r7, #72]	@ 0x48
 8002496:	3301      	adds	r3, #1
 8002498:	64bb      	str	r3, [r7, #72]	@ 0x48
 800249a:	6bbb      	ldr	r3, [r7, #56]	@ 0x38
 800249c:	881b      	ldrh	r3, [r3, #0]
 800249e:	b29a      	uxth	r2, r3
 80024a0:	6cbb      	ldr	r3, [r7, #72]	@ 0x48
 80024a2:	b29b      	uxth	r3, r3
 80024a4:	029b      	lsls	r3, r3, #10
 80024a6:	b29b      	uxth	r3, r3
 80024a8:	4313      	orrs	r3, r2
 80024aa:	b29a      	uxth	r2, r3
 80024ac:	6bbb      	ldr	r3, [r7, #56]	@ 0x38
 80024ae:	801a      	strh	r2, [r3, #0]
 80024b0:	e01c      	b.n	80024ec <HAL_PCD_EP_DB_Transmit+0x3bc>
 80024b2:	68bb      	ldr	r3, [r7, #8]
 80024b4:	785b      	ldrb	r3, [r3, #1]
 80024b6:	2b01      	cmp	r3, #1
 80024b8:	d118      	bne.n	80024ec <HAL_PCD_EP_DB_Transmit+0x3bc>
 80024ba:	68fb      	ldr	r3, [r7, #12]
 80024bc:	681b      	ldr	r3, [r3, #0]
 80024be:	647b      	str	r3, [r7, #68]	@ 0x44
 80024c0:	68fb      	ldr	r3, [r7, #12]
 80024c2:	681b      	ldr	r3, [r3, #0]
 80024c4:	f8b3 3050 	ldrh.w	r3, [r3, #80]	@ 0x50
 80024c8:	b29b      	uxth	r3, r3
 80024ca:	461a      	mov	r2, r3
 80024cc:	6c7b      	ldr	r3, [r7, #68]	@ 0x44
 80024ce:	4413      	add	r3, r2
 80024d0:	647b      	str	r3, [r7, #68]	@ 0x44
 80024d2:	68bb      	ldr	r3, [r7, #8]
 80024d4:	781b      	ldrb	r3, [r3, #0]
 80024d6:	011a      	lsls	r2, r3, #4
 80024d8:	6c7b      	ldr	r3, [r7, #68]	@ 0x44
 80024da:	4413      	add	r3, r2
 80024dc:	f203 4304 	addw	r3, r3, #1028	@ 0x404
 80024e0:	643b      	str	r3, [r7, #64]	@ 0x40
 80024e2:	f8d7 308c 	ldr.w	r3, [r7, #140]	@ 0x8c
 80024e6:	b29a      	uxth	r2, r3
 80024e8:	6c3b      	ldr	r3, [r7, #64]	@ 0x40
 80024ea:	801a      	strh	r2, [r3, #0]

        /* Copy user buffer to USB PMA */
        USB_WritePMA(hpcd->Instance, ep->xfer_buff,  ep->pmaaddr0, (uint16_t)len);
 80024ec:	68fb      	ldr	r3, [r7, #12]
 80024ee:	6818      	ldr	r0, [r3, #0]
 80024f0:	68bb      	ldr	r3, [r7, #8]
 80024f2:	6959      	ldr	r1, [r3, #20]
 80024f4:	68bb      	ldr	r3, [r7, #8]
 80024f6:	891a      	ldrh	r2, [r3, #8]
 80024f8:	f8d7 308c 	ldr.w	r3, [r7, #140]	@ 0x8c
 80024fc:	b29b      	uxth	r3, r3
 80024fe:	f003 fd0e 	bl	8005f1e <USB_WritePMA>
 8002502:	e1e2      	b.n	80028ca <HAL_PCD_EP_DB_Transmit+0x79a>
    }
  }
  else /* Data Buffer1 ACK received */
  {
    /* multi-packet on the NON control IN endpoint */
    TxPctSize = (uint16_t)PCD_GET_EP_DBUF1_CNT(hpcd->Instance, ep->num);
 8002504:	68fb      	ldr	r3, [r7, #12]
 8002506:	681b      	ldr	r3, [r3, #0]
 8002508:	f8b3 3050 	ldrh.w	r3, [r3, #80]	@ 0x50
 800250c:	b29b      	uxth	r3, r3
 800250e:	461a      	mov	r2, r3
 8002510:	68bb      	ldr	r3, [r7, #8]
 8002512:	781b      	ldrb	r3, [r3, #0]
 8002514:	00db      	lsls	r3, r3, #3
 8002516:	4413      	add	r3, r2
 8002518:	3306      	adds	r3, #6
 800251a:	005b      	lsls	r3, r3, #1
 800251c:	68fa      	ldr	r2, [r7, #12]
 800251e:	6812      	ldr	r2, [r2, #0]
 8002520:	4413      	add	r3, r2
 8002522:	f503 6380 	add.w	r3, r3, #1024	@ 0x400
 8002526:	881b      	ldrh	r3, [r3, #0]
 8002528:	f3c3 0309 	ubfx	r3, r3, #0, #10
 800252c:	f8a7 3086 	strh.w	r3, [r7, #134]	@ 0x86

    if (ep->xfer_len >= TxPctSize)
 8002530:	68bb      	ldr	r3, [r7, #8]
 8002532:	699a      	ldr	r2, [r3, #24]
 8002534:	f8b7 3086 	ldrh.w	r3, [r7, #134]	@ 0x86
 8002538:	429a      	cmp	r2, r3
 800253a:	d307      	bcc.n	800254c <HAL_PCD_EP_DB_Transmit+0x41c>
    {
      ep->xfer_len -= TxPctSize;
 800253c:	68bb      	ldr	r3, [r7, #8]
 800253e:	699a      	ldr	r2, [r3, #24]
 8002540:	f8b7 3086 	ldrh.w	r3, [r7, #134]	@ 0x86
 8002544:	1ad2      	subs	r2, r2, r3
 8002546:	68bb      	ldr	r3, [r7, #8]
 8002548:	619a      	str	r2, [r3, #24]
 800254a:	e002      	b.n	8002552 <HAL_PCD_EP_DB_Transmit+0x422>
    }
    else
    {
      ep->xfer_len = 0U;
 800254c:	68bb      	ldr	r3, [r7, #8]
 800254e:	2200      	movs	r2, #0
 8002550:	619a      	str	r2, [r3, #24]
    }

    /* Transfer is completed */
    if (ep->xfer_len == 0U)
 8002552:	68bb      	ldr	r3, [r7, #8]
 8002554:	699b      	ldr	r3, [r3, #24]
 8002556:	2b00      	cmp	r3, #0
 8002558:	f040 80c0 	bne.w	80026dc <HAL_PCD_EP_DB_Transmit+0x5ac>
    {
      PCD_SET_EP_DBUF0_CNT(hpcd->Instance, ep->num, ep->is_in, 0U);
 800255c:	68bb      	ldr	r3, [r7, #8]
 800255e:	785b      	ldrb	r3, [r3, #1]
 8002560:	2b00      	cmp	r3, #0
 8002562:	d126      	bne.n	80025b2 <HAL_PCD_EP_DB_Transmit+0x482>
 8002564:	68fb      	ldr	r3, [r7, #12]
 8002566:	681b      	ldr	r3, [r3, #0]
 8002568:	67fb      	str	r3, [r7, #124]	@ 0x7c
 800256a:	68fb      	ldr	r3, [r7, #12]
 800256c:	681b      	ldr	r3, [r3, #0]
 800256e:	f8b3 3050 	ldrh.w	r3, [r3, #80]	@ 0x50
 8002572:	b29b      	uxth	r3, r3
 8002574:	461a      	mov	r2, r3
 8002576:	6ffb      	ldr	r3, [r7, #124]	@ 0x7c
 8002578:	4413      	add	r3, r2
 800257a:	67fb      	str	r3, [r7, #124]	@ 0x7c
 800257c:	68bb      	ldr	r3, [r7, #8]
 800257e:	781b      	ldrb	r3, [r3, #0]
 8002580:	011a      	lsls	r2, r3, #4
 8002582:	6ffb      	ldr	r3, [r7, #124]	@ 0x7c
 8002584:	4413      	add	r3, r2
 8002586:	f203 4304 	addw	r3, r3, #1028	@ 0x404
 800258a:	67bb      	str	r3, [r7, #120]	@ 0x78
 800258c:	6fbb      	ldr	r3, [r7, #120]	@ 0x78
 800258e:	881b      	ldrh	r3, [r3, #0]
 8002590:	b29b      	uxth	r3, r3
 8002592:	f3c3 0309 	ubfx	r3, r3, #0, #10
 8002596:	b29a      	uxth	r2, r3
 8002598:	6fbb      	ldr	r3, [r7, #120]	@ 0x78
 800259a:	801a      	strh	r2, [r3, #0]
 800259c:	6fbb      	ldr	r3, [r7, #120]	@ 0x78
 800259e:	881b      	ldrh	r3, [r3, #0]
 80025a0:	b29b      	uxth	r3, r3
 80025a2:	ea6f 4343 	mvn.w	r3, r3, lsl #17
 80025a6:	ea6f 4353 	mvn.w	r3, r3, lsr #17
 80025aa:	b29a      	uxth	r2, r3
 80025ac:	6fbb      	ldr	r3, [r7, #120]	@ 0x78
 80025ae:	801a      	strh	r2, [r3, #0]
 80025b0:	e01a      	b.n	80025e8 <HAL_PCD_EP_DB_Transmit+0x4b8>
 80025b2:	68bb      	ldr	r3, [r7, #8]
 80025b4:	785b      	ldrb	r3, [r3, #1]
 80025b6:	2b01      	cmp	r3, #1
 80025b8:	d116      	bne.n	80025e8 <HAL_PCD_EP_DB_Transmit+0x4b8>
 80025ba:	68fb      	ldr	r3, [r7, #12]
 80025bc:	681b      	ldr	r3, [r3, #0]
 80025be:	667b      	str	r3, [r7, #100]	@ 0x64
 80025c0:	68fb      	ldr	r3, [r7, #12]
 80025c2:	681b      	ldr	r3, [r3, #0]
 80025c4:	f8b3 3050 	ldrh.w	r3, [r3, #80]	@ 0x50
 80025c8:	b29b      	uxth	r3, r3
 80025ca:	461a      	mov	r2, r3
 80025cc:	6e7b      	ldr	r3, [r7, #100]	@ 0x64
 80025ce:	4413      	add	r3, r2
 80025d0:	667b      	str	r3, [r7, #100]	@ 0x64
 80025d2:	68bb      	ldr	r3, [r7, #8]
 80025d4:	781b      	ldrb	r3, [r3, #0]
 80025d6:	011a      	lsls	r2, r3, #4
 80025d8:	6e7b      	ldr	r3, [r7, #100]	@ 0x64
 80025da:	4413      	add	r3, r2
 80025dc:	f203 4304 	addw	r3, r3, #1028	@ 0x404
 80025e0:	663b      	str	r3, [r7, #96]	@ 0x60
 80025e2:	6e3b      	ldr	r3, [r7, #96]	@ 0x60
 80025e4:	2200      	movs	r2, #0
 80025e6:	801a      	strh	r2, [r3, #0]
      PCD_SET_EP_DBUF1_CNT(hpcd->Instance, ep->num, ep->is_in, 0U);
 80025e8:	68fb      	ldr	r3, [r7, #12]
 80025ea:	681b      	ldr	r3, [r3, #0]
 80025ec:	677b      	str	r3, [r7, #116]	@ 0x74
 80025ee:	68bb      	ldr	r3, [r7, #8]
 80025f0:	785b      	ldrb	r3, [r3, #1]
 80025f2:	2b00      	cmp	r3, #0
 80025f4:	d12b      	bne.n	800264e <HAL_PCD_EP_DB_Transmit+0x51e>
 80025f6:	68fb      	ldr	r3, [r7, #12]
 80025f8:	681b      	ldr	r3, [r3, #0]
 80025fa:	66fb      	str	r3, [r7, #108]	@ 0x6c
 80025fc:	68fb      	ldr	r3, [r7, #12]
 80025fe:	681b      	ldr	r3, [r3, #0]
 8002600:	f8b3 3050 	ldrh.w	r3, [r3, #80]	@ 0x50
 8002604:	b29b      	uxth	r3, r3
 8002606:	461a      	mov	r2, r3
 8002608:	6efb      	ldr	r3, [r7, #108]	@ 0x6c
 800260a:	4413      	add	r3, r2
 800260c:	66fb      	str	r3, [r7, #108]	@ 0x6c
 800260e:	68bb      	ldr	r3, [r7, #8]
 8002610:	781b      	ldrb	r3, [r3, #0]
 8002612:	011a      	lsls	r2, r3, #4
 8002614:	6efb      	ldr	r3, [r7, #108]	@ 0x6c
 8002616:	4413      	add	r3, r2
 8002618:	f203 430c 	addw	r3, r3, #1036	@ 0x40c
 800261c:	f8c7 3080 	str.w	r3, [r7, #128]	@ 0x80
 8002620:	f8d7 3080 	ldr.w	r3, [r7, #128]	@ 0x80
 8002624:	881b      	ldrh	r3, [r3, #0]
 8002626:	b29b      	uxth	r3, r3
 8002628:	f3c3 0309 	ubfx	r3, r3, #0, #10
 800262c:	b29a      	uxth	r2, r3
 800262e:	f8d7 3080 	ldr.w	r3, [r7, #128]	@ 0x80
 8002632:	801a      	strh	r2, [r3, #0]
 8002634:	f8d7 3080 	ldr.w	r3, [r7, #128]	@ 0x80
 8002638:	881b      	ldrh	r3, [r3, #0]
 800263a:	b29b      	uxth	r3, r3
 800263c:	ea6f 4343 	mvn.w	r3, r3, lsl #17
 8002640:	ea6f 4353 	mvn.w	r3, r3, lsr #17
 8002644:	b29a      	uxth	r2, r3
 8002646:	f8d7 3080 	ldr.w	r3, [r7, #128]	@ 0x80
 800264a:	801a      	strh	r2, [r3, #0]
 800264c:	e017      	b.n	800267e <HAL_PCD_EP_DB_Transmit+0x54e>
 800264e:	68bb      	ldr	r3, [r7, #8]
 8002650:	785b      	ldrb	r3, [r3, #1]
 8002652:	2b01      	cmp	r3, #1
 8002654:	d113      	bne.n	800267e <HAL_PCD_EP_DB_Transmit+0x54e>
 8002656:	68fb      	ldr	r3, [r7, #12]
 8002658:	681b      	ldr	r3, [r3, #0]
 800265a:	f8b3 3050 	ldrh.w	r3, [r3, #80]	@ 0x50
 800265e:	b29b      	uxth	r3, r3
 8002660:	461a      	mov	r2, r3
 8002662:	6f7b      	ldr	r3, [r7, #116]	@ 0x74
 8002664:	4413      	add	r3, r2
 8002666:	677b      	str	r3, [r7, #116]	@ 0x74
 8002668:	68bb      	ldr	r3, [r7, #8]
 800266a:	781b      	ldrb	r3, [r3, #0]
 800266c:	011a      	lsls	r2, r3, #4
 800266e:	6f7b      	ldr	r3, [r7, #116]	@ 0x74
 8002670:	4413      	add	r3, r2
 8002672:	f203 430c 	addw	r3, r3, #1036	@ 0x40c
 8002676:	673b      	str	r3, [r7, #112]	@ 0x70
 8002678:	6f3b      	ldr	r3, [r7, #112]	@ 0x70
 800267a:	2200      	movs	r2, #0
 800267c:	801a      	strh	r2, [r3, #0]

      /* TX COMPLETE */
#if (USE_HAL_PCD_REGISTER_CALLBACKS == 1U)
      hpcd->DataInStageCallback(hpcd, ep->num);
#else
      HAL_PCD_DataInStageCallback(hpcd, ep->num);
 800267e:	68bb      	ldr	r3, [r7, #8]
 8002680:	781b      	ldrb	r3, [r3, #0]
 8002682:	4619      	mov	r1, r3
 8002684:	68f8      	ldr	r0, [r7, #12]
 8002686:	f005 f876 	bl	8007776 <HAL_PCD_DataInStageCallback>
#endif /* USE_HAL_PCD_REGISTER_CALLBACKS */

      /* need to Free USB Buff */
      if ((wEPVal & USB_EP_DTOG_RX) == 0U)
 800268a:	88fb      	ldrh	r3, [r7, #6]
 800268c:	f403 4380 	and.w	r3, r3, #16384	@ 0x4000
 8002690:	2b00      	cmp	r3, #0
 8002692:	f040 811a 	bne.w	80028ca <HAL_PCD_EP_DB_Transmit+0x79a>
      {
        PCD_FREE_USER_BUFFER(hpcd->Instance, ep->num, 1U);
 8002696:	68fb      	ldr	r3, [r7, #12]
 8002698:	681b      	ldr	r3, [r3, #0]
 800269a:	461a      	mov	r2, r3
 800269c:	68bb      	ldr	r3, [r7, #8]
 800269e:	781b      	ldrb	r3, [r3, #0]
 80026a0:	009b      	lsls	r3, r3, #2
 80026a2:	4413      	add	r3, r2
 80026a4:	881b      	ldrh	r3, [r3, #0]
 80026a6:	b29b      	uxth	r3, r3
 80026a8:	f423 43e0 	bic.w	r3, r3, #28672	@ 0x7000
 80026ac:	f023 0370 	bic.w	r3, r3, #112	@ 0x70
 80026b0:	f8a7 3088 	strh.w	r3, [r7, #136]	@ 0x88
 80026b4:	68fb      	ldr	r3, [r7, #12]
 80026b6:	681b      	ldr	r3, [r3, #0]
 80026b8:	461a      	mov	r2, r3
 80026ba:	68bb      	ldr	r3, [r7, #8]
 80026bc:	781b      	ldrb	r3, [r3, #0]
 80026be:	009b      	lsls	r3, r3, #2
 80026c0:	441a      	add	r2, r3
 80026c2:	f8b7 3088 	ldrh.w	r3, [r7, #136]	@ 0x88
 80026c6:	f043 437f 	orr.w	r3, r3, #4278190080	@ 0xff000000
 80026ca:	f443 037f 	orr.w	r3, r3, #16711680	@ 0xff0000
 80026ce:	f443 4340 	orr.w	r3, r3, #49152	@ 0xc000
 80026d2:	f043 0380 	orr.w	r3, r3, #128	@ 0x80
 80026d6:	b29b      	uxth	r3, r3
 80026d8:	8013      	strh	r3, [r2, #0]
 80026da:	e0f6      	b.n	80028ca <HAL_PCD_EP_DB_Transmit+0x79a>
      }
    }
    else /* Transfer is not yet Done */
    {
      /* need to Free USB Buff */
      if ((wEPVal & USB_EP_DTOG_RX) == 0U)
 80026dc:	88fb      	ldrh	r3, [r7, #6]
 80026de:	f403 4380 	and.w	r3, r3, #16384	@ 0x4000
 80026e2:	2b00      	cmp	r3, #0
 80026e4:	d121      	bne.n	800272a <HAL_PCD_EP_DB_Transmit+0x5fa>
      {
        PCD_FREE_USER_BUFFER(hpcd->Instance, ep->num, 1U);
 80026e6:	68fb      	ldr	r3, [r7, #12]
 80026e8:	681b      	ldr	r3, [r3, #0]
 80026ea:	461a      	mov	r2, r3
 80026ec:	68bb      	ldr	r3, [r7, #8]
 80026ee:	781b      	ldrb	r3, [r3, #0]
 80026f0:	009b      	lsls	r3, r3, #2
 80026f2:	4413      	add	r3, r2
 80026f4:	881b      	ldrh	r3, [r3, #0]
 80026f6:	b29b      	uxth	r3, r3
 80026f8:	f423 43e0 	bic.w	r3, r3, #28672	@ 0x7000
 80026fc:	f023 0370 	bic.w	r3, r3, #112	@ 0x70
 8002700:	f8a7 304e 	strh.w	r3, [r7, #78]	@ 0x4e
 8002704:	68fb      	ldr	r3, [r7, #12]
 8002706:	681b      	ldr	r3, [r3, #0]
 8002708:	461a      	mov	r2, r3
 800270a:	68bb      	ldr	r3, [r7, #8]
 800270c:	781b      	ldrb	r3, [r3, #0]
 800270e:	009b      	lsls	r3, r3, #2
 8002710:	441a      	add	r2, r3
 8002712:	f8b7 304e 	ldrh.w	r3, [r7, #78]	@ 0x4e
 8002716:	f043 437f 	orr.w	r3, r3, #4278190080	@ 0xff000000
 800271a:	f443 037f 	orr.w	r3, r3, #16711680	@ 0xff0000
 800271e:	f443 4340 	orr.w	r3, r3, #49152	@ 0xc000
 8002722:	f043 0380 	orr.w	r3, r3, #128	@ 0x80
 8002726:	b29b      	uxth	r3, r3
 8002728:	8013      	strh	r3, [r2, #0]
      }

      /* Still there is data to Fill in the next Buffer */
      if (ep->xfer_fill_db == 1U)
 800272a:	68bb      	ldr	r3, [r7, #8]
 800272c:	f893 3024 	ldrb.w	r3, [r3, #36]	@ 0x24
 8002730:	2b01      	cmp	r3, #1
 8002732:	f040 80ca 	bne.w	80028ca <HAL_PCD_EP_DB_Transmit+0x79a>
      {
        ep->xfer_buff += TxPctSize;
 8002736:	68bb      	ldr	r3, [r7, #8]
 8002738:	695a      	ldr	r2, [r3, #20]
 800273a:	f8b7 3086 	ldrh.w	r3, [r7, #134]	@ 0x86
 800273e:	441a      	add	r2, r3
 8002740:	68bb      	ldr	r3, [r7, #8]
 8002742:	615a      	str	r2, [r3, #20]
        ep->xfer_count += TxPctSize;
 8002744:	68bb      	ldr	r3, [r7, #8]
 8002746:	69da      	ldr	r2, [r3, #28]
 8002748:	f8b7 3086 	ldrh.w	r3, [r7, #134]	@ 0x86
 800274c:	441a      	add	r2, r3
 800274e:	68bb      	ldr	r3, [r7, #8]
 8002750:	61da      	str	r2, [r3, #28]

        /* Calculate the len of the new buffer to fill */
        if (ep->xfer_len_db >= ep->maxpacket)
 8002752:	68bb      	ldr	r3, [r7, #8]
 8002754:	6a1a      	ldr	r2, [r3, #32]
 8002756:	68bb      	ldr	r3, [r7, #8]
 8002758:	691b      	ldr	r3, [r3, #16]
 800275a:	429a      	cmp	r2, r3
 800275c:	d30b      	bcc.n	8002776 <HAL_PCD_EP_DB_Transmit+0x646>
        {
          len = ep->maxpacket;
 800275e:	68bb      	ldr	r3, [r7, #8]
 8002760:	691b      	ldr	r3, [r3, #16]
 8002762:	f8c7 308c 	str.w	r3, [r7, #140]	@ 0x8c
          ep->xfer_len_db -= len;
 8002766:	68bb      	ldr	r3, [r7, #8]
 8002768:	6a1a      	ldr	r2, [r3, #32]
 800276a:	f8d7 308c 	ldr.w	r3, [r7, #140]	@ 0x8c
 800276e:	1ad2      	subs	r2, r2, r3
 8002770:	68bb      	ldr	r3, [r7, #8]
 8002772:	621a      	str	r2, [r3, #32]
 8002774:	e017      	b.n	80027a6 <HAL_PCD_EP_DB_Transmit+0x676>
        }
        else if (ep->xfer_len_db == 0U)
 8002776:	68bb      	ldr	r3, [r7, #8]
 8002778:	6a1b      	ldr	r3, [r3, #32]
 800277a:	2b00      	cmp	r3, #0
 800277c:	d108      	bne.n	8002790 <HAL_PCD_EP_DB_Transmit+0x660>
        {
          len = TxPctSize;
 800277e:	f8b7 3086 	ldrh.w	r3, [r7, #134]	@ 0x86
 8002782:	f8c7 308c 	str.w	r3, [r7, #140]	@ 0x8c
          ep->xfer_fill_db = 0U;
 8002786:	68bb      	ldr	r3, [r7, #8]
 8002788:	2200      	movs	r2, #0
 800278a:	f883 2024 	strb.w	r2, [r3, #36]	@ 0x24
 800278e:	e00a      	b.n	80027a6 <HAL_PCD_EP_DB_Transmit+0x676>
        }
        else
        {
          len = ep->xfer_len_db;
 8002790:	68bb      	ldr	r3, [r7, #8]
 8002792:	6a1b      	ldr	r3, [r3, #32]
 8002794:	f8c7 308c 	str.w	r3, [r7, #140]	@ 0x8c
          ep->xfer_len_db = 0U;
 8002798:	68bb      	ldr	r3, [r7, #8]
 800279a:	2200      	movs	r2, #0
 800279c:	621a      	str	r2, [r3, #32]
          ep->xfer_fill_db = 0;
 800279e:	68bb      	ldr	r3, [r7, #8]
 80027a0:	2200      	movs	r2, #0
 80027a2:	f883 2024 	strb.w	r2, [r3, #36]	@ 0x24
        }

        /* Set the Double buffer counter for pmabuffer1 */
        PCD_SET_EP_DBUF1_CNT(hpcd->Instance, ep->num, ep->is_in, len);
 80027a6:	68fb      	ldr	r3, [r7, #12]
 80027a8:	681b      	ldr	r3, [r3, #0]
 80027aa:	657b      	str	r3, [r7, #84]	@ 0x54
 80027ac:	68bb      	ldr	r3, [r7, #8]
 80027ae:	785b      	ldrb	r3, [r3, #1]
 80027b0:	2b00      	cmp	r3, #0
 80027b2:	d165      	bne.n	8002880 <HAL_PCD_EP_DB_Transmit+0x750>
 80027b4:	68fb      	ldr	r3, [r7, #12]
 80027b6:	681b      	ldr	r3, [r3, #0]
 80027b8:	65fb      	str	r3, [r7, #92]	@ 0x5c
 80027ba:	68fb      	ldr	r3, [r7, #12]
 80027bc:	681b      	ldr	r3, [r3, #0]
 80027be:	f8b3 3050 	ldrh.w	r3, [r3, #80]	@ 0x50
 80027c2:	b29b      	uxth	r3, r3
 80027c4:	461a      	mov	r2, r3
 80027c6:	6dfb      	ldr	r3, [r7, #92]	@ 0x5c
 80027c8:	4413      	add	r3, r2
 80027ca:	65fb      	str	r3, [r7, #92]	@ 0x5c
 80027cc:	68bb      	ldr	r3, [r7, #8]
 80027ce:	781b      	ldrb	r3, [r3, #0]
 80027d0:	011a      	lsls	r2, r3, #4
 80027d2:	6dfb      	ldr	r3, [r7, #92]	@ 0x5c
 80027d4:	4413      	add	r3, r2
 80027d6:	f203 430c 	addw	r3, r3, #1036	@ 0x40c
 80027da:	65bb      	str	r3, [r7, #88]	@ 0x58
 80027dc:	6dbb      	ldr	r3, [r7, #88]	@ 0x58
 80027de:	881b      	ldrh	r3, [r3, #0]
 80027e0:	b29b      	uxth	r3, r3
 80027e2:	f3c3 0309 	ubfx	r3, r3, #0, #10
 80027e6:	b29a      	uxth	r2, r3
 80027e8:	6dbb      	ldr	r3, [r7, #88]	@ 0x58
 80027ea:	801a      	strh	r2, [r3, #0]
 80027ec:	f8d7 308c 	ldr.w	r3, [r7, #140]	@ 0x8c
 80027f0:	2b3e      	cmp	r3, #62	@ 0x3e
 80027f2:	d91d      	bls.n	8002830 <HAL_PCD_EP_DB_Transmit+0x700>
 80027f4:	f8d7 308c 	ldr.w	r3, [r7, #140]	@ 0x8c
 80027f8:	095b      	lsrs	r3, r3, #5
 80027fa:	66bb      	str	r3, [r7, #104]	@ 0x68
 80027fc:	f8d7 308c 	ldr.w	r3, [r7, #140]	@ 0x8c
 8002800:	f003 031f 	and.w	r3, r3, #31
 8002804:	2b00      	cmp	r3, #0
 8002806:	d102      	bne.n	800280e <HAL_PCD_EP_DB_Transmit+0x6de>
 8002808:	6ebb      	ldr	r3, [r7, #104]	@ 0x68
 800280a:	3b01      	subs	r3, #1
 800280c:	66bb      	str	r3, [r7, #104]	@ 0x68
 800280e:	6dbb      	ldr	r3, [r7, #88]	@ 0x58
 8002810:	881b      	ldrh	r3, [r3, #0]
 8002812:	b29a      	uxth	r2, r3
 8002814:	6ebb      	ldr	r3, [r7, #104]	@ 0x68
 8002816:	b29b      	uxth	r3, r3
 8002818:	029b      	lsls	r3, r3, #10
 800281a:	b29b      	uxth	r3, r3
 800281c:	4313      	orrs	r3, r2
 800281e:	b29b      	uxth	r3, r3
 8002820:	ea6f 4343 	mvn.w	r3, r3, lsl #17
 8002824:	ea6f 4353 	mvn.w	r3, r3, lsr #17
 8002828:	b29a      	uxth	r2, r3
 800282a:	6dbb      	ldr	r3, [r7, #88]	@ 0x58
 800282c:	801a      	strh	r2, [r3, #0]
 800282e:	e041      	b.n	80028b4 <HAL_PCD_EP_DB_Transmit+0x784>
 8002830:	f8d7 308c 	ldr.w	r3, [r7, #140]	@ 0x8c
 8002834:	2b00      	cmp	r3, #0
 8002836:	d10a      	bne.n	800284e <HAL_PCD_EP_DB_Transmit+0x71e>
 8002838:	6dbb      	ldr	r3, [r7, #88]	@ 0x58
 800283a:	881b      	ldrh	r3, [r3, #0]
 800283c:	b29b      	uxth	r3, r3
 800283e:	ea6f 4343 	mvn.w	r3, r3, lsl #17
 8002842:	ea6f 4353 	mvn.w	r3, r3, lsr #17
 8002846:	b29a      	uxth	r2, r3
 8002848:	6dbb      	ldr	r3, [r7, #88]	@ 0x58
 800284a:	801a      	strh	r2, [r3, #0]
 800284c:	e032      	b.n	80028b4 <HAL_PCD_EP_DB_Transmit+0x784>
 800284e:	f8d7 308c 	ldr.w	r3, [r7, #140]	@ 0x8c
 8002852:	085b      	lsrs	r3, r3, #1
 8002854:	66bb      	str	r3, [r7, #104]	@ 0x68
 8002856:	f8d7 308c 	ldr.w	r3, [r7, #140]	@ 0x8c
 800285a:	f003 0301 	and.w	r3, r3, #1
 800285e:	2b00      	cmp	r3, #0
 8002860:	d002      	beq.n	8002868 <HAL_PCD_EP_DB_Transmit+0x738>
 8002862:	6ebb      	ldr	r3, [r7, #104]	@ 0x68
 8002864:	3301      	adds	r3, #1
 8002866:	66bb      	str	r3, [r7, #104]	@ 0x68
 8002868:	6dbb      	ldr	r3, [r7, #88]	@ 0x58
 800286a:	881b      	ldrh	r3, [r3, #0]
 800286c:	b29a      	uxth	r2, r3
 800286e:	6ebb      	ldr	r3, [r7, #104]	@ 0x68
 8002870:	b29b      	uxth	r3, r3
 8002872:	029b      	lsls	r3, r3, #10
 8002874:	b29b      	uxth	r3, r3
 8002876:	4313      	orrs	r3, r2
 8002878:	b29a      	uxth	r2, r3
 800287a:	6dbb      	ldr	r3, [r7, #88]	@ 0x58
 800287c:	801a      	strh	r2, [r3, #0]
 800287e:	e019      	b.n	80028b4 <HAL_PCD_EP_DB_Transmit+0x784>
 8002880:	68bb      	ldr	r3, [r7, #8]
 8002882:	785b      	ldrb	r3, [r3, #1]
 8002884:	2b01      	cmp	r3, #1
 8002886:	d115      	bne.n	80028b4 <HAL_PCD_EP_DB_Transmit+0x784>
 8002888:	68fb      	ldr	r3, [r7, #12]
 800288a:	681b      	ldr	r3, [r3, #0]
 800288c:	f8b3 3050 	ldrh.w	r3, [r3, #80]	@ 0x50
 8002890:	b29b      	uxth	r3, r3
 8002892:	461a      	mov	r2, r3
 8002894:	6d7b      	ldr	r3, [r7, #84]	@ 0x54
 8002896:	4413      	add	r3, r2
 8002898:	657b      	str	r3, [r7, #84]	@ 0x54
 800289a:	68bb      	ldr	r3, [r7, #8]
 800289c:	781b      	ldrb	r3, [r3, #0]
 800289e:	011a      	lsls	r2, r3, #4
 80028a0:	6d7b      	ldr	r3, [r7, #84]	@ 0x54
 80028a2:	4413      	add	r3, r2
 80028a4:	f203 430c 	addw	r3, r3, #1036	@ 0x40c
 80028a8:	653b      	str	r3, [r7, #80]	@ 0x50
 80028aa:	f8d7 308c 	ldr.w	r3, [r7, #140]	@ 0x8c
 80028ae:	b29a      	uxth	r2, r3
 80028b0:	6d3b      	ldr	r3, [r7, #80]	@ 0x50
 80028b2:	801a      	strh	r2, [r3, #0]

        /* Copy the user buffer to USB PMA */
        USB_WritePMA(hpcd->Instance, ep->xfer_buff,  ep->pmaaddr1, (uint16_t)len);
 80028b4:	68fb      	ldr	r3, [r7, #12]
 80028b6:	6818      	ldr	r0, [r3, #0]
 80028b8:	68bb      	ldr	r3, [r7, #8]
 80028ba:	6959      	ldr	r1, [r3, #20]
 80028bc:	68bb      	ldr	r3, [r7, #8]
 80028be:	895a      	ldrh	r2, [r3, #10]
 80028c0:	f8d7 308c 	ldr.w	r3, [r7, #140]	@ 0x8c
 80028c4:	b29b      	uxth	r3, r3
 80028c6:	f003 fb2a 	bl	8005f1e <USB_WritePMA>
      }
    }
  }

  /*enable endpoint IN*/
  PCD_SET_EP_TX_STATUS(hpcd->Instance, ep->num, USB_EP_TX_VALID);
 80028ca:	68fb      	ldr	r3, [r7, #12]
 80028cc:	681b      	ldr	r3, [r3, #0]
 80028ce:	461a      	mov	r2, r3
 80028d0:	68bb      	ldr	r3, [r7, #8]
 80028d2:	781b      	ldrb	r3, [r3, #0]
 80028d4:	009b      	lsls	r3, r3, #2
 80028d6:	4413      	add	r3, r2
 80028d8:	881b      	ldrh	r3, [r3, #0]
 80028da:	b29b      	uxth	r3, r3
 80028dc:	f423 43e0 	bic.w	r3, r3, #28672	@ 0x7000
 80028e0:	f023 0340 	bic.w	r3, r3, #64	@ 0x40
 80028e4:	82bb      	strh	r3, [r7, #20]
 80028e6:	8abb      	ldrh	r3, [r7, #20]
 80028e8:	f083 0310 	eor.w	r3, r3, #16
 80028ec:	82bb      	strh	r3, [r7, #20]
 80028ee:	8abb      	ldrh	r3, [r7, #20]
 80028f0:	f083 0320 	eor.w	r3, r3, #32
 80028f4:	82bb      	strh	r3, [r7, #20]
 80028f6:	68fb      	ldr	r3, [r7, #12]
 80028f8:	681b      	ldr	r3, [r3, #0]
 80028fa:	461a      	mov	r2, r3
 80028fc:	68bb      	ldr	r3, [r7, #8]
 80028fe:	781b      	ldrb	r3, [r3, #0]
 8002900:	009b      	lsls	r3, r3, #2
 8002902:	441a      	add	r2, r3
 8002904:	8abb      	ldrh	r3, [r7, #20]
 8002906:	f043 437f 	orr.w	r3, r3, #4278190080	@ 0xff000000
 800290a:	f443 037f 	orr.w	r3, r3, #16711680	@ 0xff0000
 800290e:	f443 4300 	orr.w	r3, r3, #32768	@ 0x8000
 8002912:	f043 0380 	orr.w	r3, r3, #128	@ 0x80
 8002916:	b29b      	uxth	r3, r3
 8002918:	8013      	strh	r3, [r2, #0]

  return HAL_OK;
 800291a:	2300      	movs	r3, #0
}
 800291c:	4618      	mov	r0, r3
 800291e:	3790      	adds	r7, #144	@ 0x90
 8002920:	46bd      	mov	sp, r7
 8002922:	bd80      	pop	{r7, pc}

08002924 <HAL_PCDEx_PMAConfig>:
  * @retval HAL status
  */

HAL_StatusTypeDef  HAL_PCDEx_PMAConfig(PCD_HandleTypeDef *hpcd, uint16_t ep_addr,
                                       uint16_t ep_kind, uint32_t pmaadress)
{
 8002924:	b480      	push	{r7}
 8002926:	b087      	sub	sp, #28
 8002928:	af00      	add	r7, sp, #0
 800292a:	60f8      	str	r0, [r7, #12]
 800292c:	607b      	str	r3, [r7, #4]
 800292e:	460b      	mov	r3, r1
 8002930:	817b      	strh	r3, [r7, #10]
 8002932:	4613      	mov	r3, r2
 8002934:	813b      	strh	r3, [r7, #8]
  PCD_EPTypeDef *ep;

  /* initialize ep structure*/
  if ((0x80U & ep_addr) == 0x80U)
 8002936:	897b      	ldrh	r3, [r7, #10]
 8002938:	f003 0380 	and.w	r3, r3, #128	@ 0x80
 800293c:	b29b      	uxth	r3, r3
 800293e:	2b00      	cmp	r3, #0
 8002940:	d00b      	beq.n	800295a <HAL_PCDEx_PMAConfig+0x36>
  {
    ep = &hpcd->IN_ep[ep_addr & EP_ADDR_MSK];
 8002942:	897b      	ldrh	r3, [r7, #10]
 8002944:	f003 0207 	and.w	r2, r3, #7
 8002948:	4613      	mov	r3, r2
 800294a:	009b      	lsls	r3, r3, #2
 800294c:	4413      	add	r3, r2
 800294e:	00db      	lsls	r3, r3, #3
 8002950:	3310      	adds	r3, #16
 8002952:	68fa      	ldr	r2, [r7, #12]
 8002954:	4413      	add	r3, r2
 8002956:	617b      	str	r3, [r7, #20]
 8002958:	e009      	b.n	800296e <HAL_PCDEx_PMAConfig+0x4a>
  }
  else
  {
    ep = &hpcd->OUT_ep[ep_addr];
 800295a:	897a      	ldrh	r2, [r7, #10]
 800295c:	4613      	mov	r3, r2
 800295e:	009b      	lsls	r3, r3, #2
 8002960:	4413      	add	r3, r2
 8002962:	00db      	lsls	r3, r3, #3
 8002964:	f503 73a8 	add.w	r3, r3, #336	@ 0x150
 8002968:	68fa      	ldr	r2, [r7, #12]
 800296a:	4413      	add	r3, r2
 800296c:	617b      	str	r3, [r7, #20]
  }

  /* Here we check if the endpoint is single or double Buffer*/
  if (ep_kind == PCD_SNG_BUF)
 800296e:	893b      	ldrh	r3, [r7, #8]
 8002970:	2b00      	cmp	r3, #0
 8002972:	d107      	bne.n	8002984 <HAL_PCDEx_PMAConfig+0x60>
  {
    /* Single Buffer */
    ep->doublebuffer = 0U;
 8002974:	697b      	ldr	r3, [r7, #20]
 8002976:	2200      	movs	r2, #0
 8002978:	731a      	strb	r2, [r3, #12]
    /* Configure the PMA */
    ep->pmaadress = (uint16_t)pmaadress;
 800297a:	687b      	ldr	r3, [r7, #4]
 800297c:	b29a      	uxth	r2, r3
 800297e:	697b      	ldr	r3, [r7, #20]
 8002980:	80da      	strh	r2, [r3, #6]
 8002982:	e00b      	b.n	800299c <HAL_PCDEx_PMAConfig+0x78>
  }
#if (USE_USB_DOUBLE_BUFFER == 1U)
  else /* USB_DBL_BUF */
  {
    /* Double Buffer Endpoint */
    ep->doublebuffer = 1U;
 8002984:	697b      	ldr	r3, [r7, #20]
 8002986:	2201      	movs	r2, #1
 8002988:	731a      	strb	r2, [r3, #12]
    /* Configure the PMA */
    ep->pmaaddr0 = (uint16_t)(pmaadress & 0xFFFFU);
 800298a:	687b      	ldr	r3, [r7, #4]
 800298c:	b29a      	uxth	r2, r3
 800298e:	697b      	ldr	r3, [r7, #20]
 8002990:	811a      	strh	r2, [r3, #8]
    ep->pmaaddr1 = (uint16_t)((pmaadress & 0xFFFF0000U) >> 16);
 8002992:	687b      	ldr	r3, [r7, #4]
 8002994:	0c1b      	lsrs	r3, r3, #16
 8002996:	b29a      	uxth	r2, r3
 8002998:	697b      	ldr	r3, [r7, #20]
 800299a:	815a      	strh	r2, [r3, #10]
  }
#endif /* (USE_USB_DOUBLE_BUFFER == 1U) */

  return HAL_OK;
 800299c:	2300      	movs	r3, #0
}
 800299e:	4618      	mov	r0, r3
 80029a0:	371c      	adds	r7, #28
 80029a2:	46bd      	mov	sp, r7
 80029a4:	bc80      	pop	{r7}
 80029a6:	4770      	bx	lr

080029a8 <HAL_RCC_OscConfig>:
  *         supported by this macro. User should request a transition to HSE Off
  *         first and then HSE On or HSE Bypass.
  * @retval HAL status
  */
HAL_StatusTypeDef HAL_RCC_OscConfig(RCC_OscInitTypeDef  *RCC_OscInitStruct)
{
 80029a8:	b580      	push	{r7, lr}
 80029aa:	b086      	sub	sp, #24
 80029ac:	af00      	add	r7, sp, #0
 80029ae:	6078      	str	r0, [r7, #4]
  uint32_t tickstart;
  uint32_t pll_config;

  /* Check Null pointer */
  if (RCC_OscInitStruct == NULL)
 80029b0:	687b      	ldr	r3, [r7, #4]
 80029b2:	2b00      	cmp	r3, #0
 80029b4:	d101      	bne.n	80029ba <HAL_RCC_OscConfig+0x12>
  {
    return HAL_ERROR;
 80029b6:	2301      	movs	r3, #1
 80029b8:	e272      	b.n	8002ea0 <HAL_RCC_OscConfig+0x4f8>

  /* Check the parameters */
  assert_param(IS_RCC_OSCILLATORTYPE(RCC_OscInitStruct->OscillatorType));

  /*------------------------------- HSE Configuration ------------------------*/
  if (((RCC_OscInitStruct->OscillatorType) & RCC_OSCILLATORTYPE_HSE) == RCC_OSCILLATORTYPE_HSE)
 80029ba:	687b      	ldr	r3, [r7, #4]
 80029bc:	681b      	ldr	r3, [r3, #0]
 80029be:	f003 0301 	and.w	r3, r3, #1
 80029c2:	2b00      	cmp	r3, #0
 80029c4:	f000 8087 	beq.w	8002ad6 <HAL_RCC_OscConfig+0x12e>
  {
    /* Check the parameters */
    assert_param(IS_RCC_HSE(RCC_OscInitStruct->HSEState));

    /* When the HSE is used as system clock or clock source for PLL in these cases it is not allowed to be disabled */
    if ((__HAL_RCC_GET_SYSCLK_SOURCE() == RCC_SYSCLKSOURCE_STATUS_HSE)
 80029c8:	4b92      	ldr	r3, [pc, #584]	@ (8002c14 <HAL_RCC_OscConfig+0x26c>)
 80029ca:	685b      	ldr	r3, [r3, #4]
 80029cc:	f003 030c 	and.w	r3, r3, #12
 80029d0:	2b04      	cmp	r3, #4
 80029d2:	d00c      	beq.n	80029ee <HAL_RCC_OscConfig+0x46>
        || ((__HAL_RCC_GET_SYSCLK_SOURCE() == RCC_SYSCLKSOURCE_STATUS_PLLCLK) && (__HAL_RCC_GET_PLL_OSCSOURCE() == RCC_PLLSOURCE_HSE)))
 80029d4:	4b8f      	ldr	r3, [pc, #572]	@ (8002c14 <HAL_RCC_OscConfig+0x26c>)
 80029d6:	685b      	ldr	r3, [r3, #4]
 80029d8:	f003 030c 	and.w	r3, r3, #12
 80029dc:	2b08      	cmp	r3, #8
 80029de:	d112      	bne.n	8002a06 <HAL_RCC_OscConfig+0x5e>
 80029e0:	4b8c      	ldr	r3, [pc, #560]	@ (8002c14 <HAL_RCC_OscConfig+0x26c>)
 80029e2:	685b      	ldr	r3, [r3, #4]
 80029e4:	f403 3380 	and.w	r3, r3, #65536	@ 0x10000
 80029e8:	f5b3 3f80 	cmp.w	r3, #65536	@ 0x10000
 80029ec:	d10b      	bne.n	8002a06 <HAL_RCC_OscConfig+0x5e>
    {
      if ((__HAL_RCC_GET_FLAG(RCC_FLAG_HSERDY) != RESET) && (RCC_OscInitStruct->HSEState == RCC_HSE_OFF))
 80029ee:	4b89      	ldr	r3, [pc, #548]	@ (8002c14 <HAL_RCC_OscConfig+0x26c>)
 80029f0:	681b      	ldr	r3, [r3, #0]
 80029f2:	f403 3300 	and.w	r3, r3, #131072	@ 0x20000
 80029f6:	2b00      	cmp	r3, #0
 80029f8:	d06c      	beq.n	8002ad4 <HAL_RCC_OscConfig+0x12c>
 80029fa:	687b      	ldr	r3, [r7, #4]
 80029fc:	685b      	ldr	r3, [r3, #4]
 80029fe:	2b00      	cmp	r3, #0
 8002a00:	d168      	bne.n	8002ad4 <HAL_RCC_OscConfig+0x12c>
      {
        return HAL_ERROR;
 8002a02:	2301      	movs	r3, #1
 8002a04:	e24c      	b.n	8002ea0 <HAL_RCC_OscConfig+0x4f8>
      }
    }
    else
    {
      /* Set the new HSE configuration ---------------------------------------*/
      __HAL_RCC_HSE_CONFIG(RCC_OscInitStruct->HSEState);
 8002a06:	687b      	ldr	r3, [r7, #4]
 8002a08:	685b      	ldr	r3, [r3, #4]
 8002a0a:	f5b3 3f80 	cmp.w	r3, #65536	@ 0x10000
 8002a0e:	d106      	bne.n	8002a1e <HAL_RCC_OscConfig+0x76>
 8002a10:	4b80      	ldr	r3, [pc, #512]	@ (8002c14 <HAL_RCC_OscConfig+0x26c>)
 8002a12:	681b      	ldr	r3, [r3, #0]
 8002a14:	4a7f      	ldr	r2, [pc, #508]	@ (8002c14 <HAL_RCC_OscConfig+0x26c>)
 8002a16:	f443 3380 	orr.w	r3, r3, #65536	@ 0x10000
 8002a1a:	6013      	str	r3, [r2, #0]
 8002a1c:	e02e      	b.n	8002a7c <HAL_RCC_OscConfig+0xd4>
 8002a1e:	687b      	ldr	r3, [r7, #4]
 8002a20:	685b      	ldr	r3, [r3, #4]
 8002a22:	2b00      	cmp	r3, #0
 8002a24:	d10c      	bne.n	8002a40 <HAL_RCC_OscConfig+0x98>
 8002a26:	4b7b      	ldr	r3, [pc, #492]	@ (8002c14 <HAL_RCC_OscConfig+0x26c>)
 8002a28:	681b      	ldr	r3, [r3, #0]
 8002a2a:	4a7a      	ldr	r2, [pc, #488]	@ (8002c14 <HAL_RCC_OscConfig+0x26c>)
 8002a2c:	f423 3380 	bic.w	r3, r3, #65536	@ 0x10000
 8002a30:	6013      	str	r3, [r2, #0]
 8002a32:	4b78      	ldr	r3, [pc, #480]	@ (8002c14 <HAL_RCC_OscConfig+0x26c>)
 8002a34:	681b      	ldr	r3, [r3, #0]
 8002a36:	4a77      	ldr	r2, [pc, #476]	@ (8002c14 <HAL_RCC_OscConfig+0x26c>)
 8002a38:	f423 2380 	bic.w	r3, r3, #262144	@ 0x40000
 8002a3c:	6013      	str	r3, [r2, #0]
 8002a3e:	e01d      	b.n	8002a7c <HAL_RCC_OscConfig+0xd4>
 8002a40:	687b      	ldr	r3, [r7, #4]
 8002a42:	685b      	ldr	r3, [r3, #4]
 8002a44:	f5b3 2fa0 	cmp.w	r3, #327680	@ 0x50000
 8002a48:	d10c      	bne.n	8002a64 <HAL_RCC_OscConfig+0xbc>
 8002a4a:	4b72      	ldr	r3, [pc, #456]	@ (8002c14 <HAL_RCC_OscConfig+0x26c>)
 8002a4c:	681b      	ldr	r3, [r3, #0]
 8002a4e:	4a71      	ldr	r2, [pc, #452]	@ (8002c14 <HAL_RCC_OscConfig+0x26c>)
 8002a50:	f443 2380 	orr.w	r3, r3, #262144	@ 0x40000
 8002a54:	6013      	str	r3, [r2, #0]
 8002a56:	4b6f      	ldr	r3, [pc, #444]	@ (8002c14 <HAL_RCC_OscConfig+0x26c>)
 8002a58:	681b      	ldr	r3, [r3, #0]
 8002a5a:	4a6e      	ldr	r2, [pc, #440]	@ (8002c14 <HAL_RCC_OscConfig+0x26c>)
 8002a5c:	f443 3380 	orr.w	r3, r3, #65536	@ 0x10000
 8002a60:	6013      	str	r3, [r2, #0]
 8002a62:	e00b      	b.n	8002a7c <HAL_RCC_OscConfig+0xd4>
 8002a64:	4b6b      	ldr	r3, [pc, #428]	@ (8002c14 <HAL_RCC_OscConfig+0x26c>)
 8002a66:	681b      	ldr	r3, [r3, #0]
 8002a68:	4a6a      	ldr	r2, [pc, #424]	@ (8002c14 <HAL_RCC_OscConfig+0x26c>)
 8002a6a:	f423 3380 	bic.w	r3, r3, #65536	@ 0x10000
 8002a6e:	6013      	str	r3, [r2, #0]
 8002a70:	4b68      	ldr	r3, [pc, #416]	@ (8002c14 <HAL_RCC_OscConfig+0x26c>)
 8002a72:	681b      	ldr	r3, [r3, #0]
 8002a74:	4a67      	ldr	r2, [pc, #412]	@ (8002c14 <HAL_RCC_OscConfig+0x26c>)
 8002a76:	f423 2380 	bic.w	r3, r3, #262144	@ 0x40000
 8002a7a:	6013      	str	r3, [r2, #0]


      /* Check the HSE State */
      if (RCC_OscInitStruct->HSEState != RCC_HSE_OFF)
 8002a7c:	687b      	ldr	r3, [r7, #4]
 8002a7e:	685b      	ldr	r3, [r3, #4]
 8002a80:	2b00      	cmp	r3, #0
 8002a82:	d013      	beq.n	8002aac <HAL_RCC_OscConfig+0x104>
      {
        /* Get Start Tick */
        tickstart = HAL_GetTick();
 8002a84:	f7fd ff56 	bl	8000934 <HAL_GetTick>
 8002a88:	6138      	str	r0, [r7, #16]

        /* Wait till HSE is ready */
        while (__HAL_RCC_GET_FLAG(RCC_FLAG_HSERDY) == RESET)
 8002a8a:	e008      	b.n	8002a9e <HAL_RCC_OscConfig+0xf6>
        {
          if ((HAL_GetTick() - tickstart) > HSE_TIMEOUT_VALUE)
 8002a8c:	f7fd ff52 	bl	8000934 <HAL_GetTick>
 8002a90:	4602      	mov	r2, r0
 8002a92:	693b      	ldr	r3, [r7, #16]
 8002a94:	1ad3      	subs	r3, r2, r3
 8002a96:	2b64      	cmp	r3, #100	@ 0x64
 8002a98:	d901      	bls.n	8002a9e <HAL_RCC_OscConfig+0xf6>
          {
            return HAL_TIMEOUT;
 8002a9a:	2303      	movs	r3, #3
 8002a9c:	e200      	b.n	8002ea0 <HAL_RCC_OscConfig+0x4f8>
        while (__HAL_RCC_GET_FLAG(RCC_FLAG_HSERDY) == RESET)
 8002a9e:	4b5d      	ldr	r3, [pc, #372]	@ (8002c14 <HAL_RCC_OscConfig+0x26c>)
 8002aa0:	681b      	ldr	r3, [r3, #0]
 8002aa2:	f403 3300 	and.w	r3, r3, #131072	@ 0x20000
 8002aa6:	2b00      	cmp	r3, #0
 8002aa8:	d0f0      	beq.n	8002a8c <HAL_RCC_OscConfig+0xe4>
 8002aaa:	e014      	b.n	8002ad6 <HAL_RCC_OscConfig+0x12e>
        }
      }
      else
      {
        /* Get Start Tick */
        tickstart = HAL_GetTick();
 8002aac:	f7fd ff42 	bl	8000934 <HAL_GetTick>
 8002ab0:	6138      	str	r0, [r7, #16]

        /* Wait till HSE is disabled */
        while (__HAL_RCC_GET_FLAG(RCC_FLAG_HSERDY) != RESET)
 8002ab2:	e008      	b.n	8002ac6 <HAL_RCC_OscConfig+0x11e>
        {
          if ((HAL_GetTick() - tickstart) > HSE_TIMEOUT_VALUE)
 8002ab4:	f7fd ff3e 	bl	8000934 <HAL_GetTick>
 8002ab8:	4602      	mov	r2, r0
 8002aba:	693b      	ldr	r3, [r7, #16]
 8002abc:	1ad3      	subs	r3, r2, r3
 8002abe:	2b64      	cmp	r3, #100	@ 0x64
 8002ac0:	d901      	bls.n	8002ac6 <HAL_RCC_OscConfig+0x11e>
          {
            return HAL_TIMEOUT;
 8002ac2:	2303      	movs	r3, #3
 8002ac4:	e1ec      	b.n	8002ea0 <HAL_RCC_OscConfig+0x4f8>
        while (__HAL_RCC_GET_FLAG(RCC_FLAG_HSERDY) != RESET)
 8002ac6:	4b53      	ldr	r3, [pc, #332]	@ (8002c14 <HAL_RCC_OscConfig+0x26c>)
 8002ac8:	681b      	ldr	r3, [r3, #0]
 8002aca:	f403 3300 	and.w	r3, r3, #131072	@ 0x20000
 8002ace:	2b00      	cmp	r3, #0
 8002ad0:	d1f0      	bne.n	8002ab4 <HAL_RCC_OscConfig+0x10c>
 8002ad2:	e000      	b.n	8002ad6 <HAL_RCC_OscConfig+0x12e>
      if ((__HAL_RCC_GET_FLAG(RCC_FLAG_HSERDY) != RESET) && (RCC_OscInitStruct->HSEState == RCC_HSE_OFF))
 8002ad4:	bf00      	nop
        }
      }
    }
  }
  /*----------------------------- HSI Configuration --------------------------*/
  if (((RCC_OscInitStruct->OscillatorType) & RCC_OSCILLATORTYPE_HSI) == RCC_OSCILLATORTYPE_HSI)
 8002ad6:	687b      	ldr	r3, [r7, #4]
 8002ad8:	681b      	ldr	r3, [r3, #0]
 8002ada:	f003 0302 	and.w	r3, r3, #2
 8002ade:	2b00      	cmp	r3, #0
 8002ae0:	d063      	beq.n	8002baa <HAL_RCC_OscConfig+0x202>
    /* Check the parameters */
    assert_param(IS_RCC_HSI(RCC_OscInitStruct->HSIState));
    assert_param(IS_RCC_CALIBRATION_VALUE(RCC_OscInitStruct->HSICalibrationValue));

    /* Check if HSI is used as system clock or as PLL source when PLL is selected as system clock */
    if ((__HAL_RCC_GET_SYSCLK_SOURCE() == RCC_SYSCLKSOURCE_STATUS_HSI)
 8002ae2:	4b4c      	ldr	r3, [pc, #304]	@ (8002c14 <HAL_RCC_OscConfig+0x26c>)
 8002ae4:	685b      	ldr	r3, [r3, #4]
 8002ae6:	f003 030c 	and.w	r3, r3, #12
 8002aea:	2b00      	cmp	r3, #0
 8002aec:	d00b      	beq.n	8002b06 <HAL_RCC_OscConfig+0x15e>
        || ((__HAL_RCC_GET_SYSCLK_SOURCE() == RCC_SYSCLKSOURCE_STATUS_PLLCLK) && (__HAL_RCC_GET_PLL_OSCSOURCE() == RCC_PLLSOURCE_HSI_DIV2)))
 8002aee:	4b49      	ldr	r3, [pc, #292]	@ (8002c14 <HAL_RCC_OscConfig+0x26c>)
 8002af0:	685b      	ldr	r3, [r3, #4]
 8002af2:	f003 030c 	and.w	r3, r3, #12
 8002af6:	2b08      	cmp	r3, #8
 8002af8:	d11c      	bne.n	8002b34 <HAL_RCC_OscConfig+0x18c>
 8002afa:	4b46      	ldr	r3, [pc, #280]	@ (8002c14 <HAL_RCC_OscConfig+0x26c>)
 8002afc:	685b      	ldr	r3, [r3, #4]
 8002afe:	f403 3380 	and.w	r3, r3, #65536	@ 0x10000
 8002b02:	2b00      	cmp	r3, #0
 8002b04:	d116      	bne.n	8002b34 <HAL_RCC_OscConfig+0x18c>
    {
      /* When HSI is used as system clock it will not disabled */
      if ((__HAL_RCC_GET_FLAG(RCC_FLAG_HSIRDY) != RESET) && (RCC_OscInitStruct->HSIState != RCC_HSI_ON))
 8002b06:	4b43      	ldr	r3, [pc, #268]	@ (8002c14 <HAL_RCC_OscConfig+0x26c>)
 8002b08:	681b      	ldr	r3, [r3, #0]
 8002b0a:	f003 0302 	and.w	r3, r3, #2
 8002b0e:	2b00      	cmp	r3, #0
 8002b10:	d005      	beq.n	8002b1e <HAL_RCC_OscConfig+0x176>
 8002b12:	687b      	ldr	r3, [r7, #4]
 8002b14:	691b      	ldr	r3, [r3, #16]
 8002b16:	2b01      	cmp	r3, #1
 8002b18:	d001      	beq.n	8002b1e <HAL_RCC_OscConfig+0x176>
      {
        return HAL_ERROR;
 8002b1a:	2301      	movs	r3, #1
 8002b1c:	e1c0      	b.n	8002ea0 <HAL_RCC_OscConfig+0x4f8>
      }
      /* Otherwise, just the calibration is allowed */
      else
      {
        /* Adjusts the Internal High Speed oscillator (HSI) calibration value.*/
        __HAL_RCC_HSI_CALIBRATIONVALUE_ADJUST(RCC_OscInitStruct->HSICalibrationValue);
 8002b1e:	4b3d      	ldr	r3, [pc, #244]	@ (8002c14 <HAL_RCC_OscConfig+0x26c>)
 8002b20:	681b      	ldr	r3, [r3, #0]
 8002b22:	f023 02f8 	bic.w	r2, r3, #248	@ 0xf8
 8002b26:	687b      	ldr	r3, [r7, #4]
 8002b28:	695b      	ldr	r3, [r3, #20]
 8002b2a:	00db      	lsls	r3, r3, #3
 8002b2c:	4939      	ldr	r1, [pc, #228]	@ (8002c14 <HAL_RCC_OscConfig+0x26c>)
 8002b2e:	4313      	orrs	r3, r2
 8002b30:	600b      	str	r3, [r1, #0]
      if ((__HAL_RCC_GET_FLAG(RCC_FLAG_HSIRDY) != RESET) && (RCC_OscInitStruct->HSIState != RCC_HSI_ON))
 8002b32:	e03a      	b.n	8002baa <HAL_RCC_OscConfig+0x202>
      }
    }
    else
    {
      /* Check the HSI State */
      if (RCC_OscInitStruct->HSIState != RCC_HSI_OFF)
 8002b34:	687b      	ldr	r3, [r7, #4]
 8002b36:	691b      	ldr	r3, [r3, #16]
 8002b38:	2b00      	cmp	r3, #0
 8002b3a:	d020      	beq.n	8002b7e <HAL_RCC_OscConfig+0x1d6>
      {
        /* Enable the Internal High Speed oscillator (HSI). */
        __HAL_RCC_HSI_ENABLE();
 8002b3c:	4b36      	ldr	r3, [pc, #216]	@ (8002c18 <HAL_RCC_OscConfig+0x270>)
 8002b3e:	2201      	movs	r2, #1
 8002b40:	601a      	str	r2, [r3, #0]

        /* Get Start Tick */
        tickstart = HAL_GetTick();
 8002b42:	f7fd fef7 	bl	8000934 <HAL_GetTick>
 8002b46:	6138      	str	r0, [r7, #16]

        /* Wait till HSI is ready */
        while (__HAL_RCC_GET_FLAG(RCC_FLAG_HSIRDY) == RESET)
 8002b48:	e008      	b.n	8002b5c <HAL_RCC_OscConfig+0x1b4>
        {
          if ((HAL_GetTick() - tickstart) > HSI_TIMEOUT_VALUE)
 8002b4a:	f7fd fef3 	bl	8000934 <HAL_GetTick>
 8002b4e:	4602      	mov	r2, r0
 8002b50:	693b      	ldr	r3, [r7, #16]
 8002b52:	1ad3      	subs	r3, r2, r3
 8002b54:	2b02      	cmp	r3, #2
 8002b56:	d901      	bls.n	8002b5c <HAL_RCC_OscConfig+0x1b4>
          {
            return HAL_TIMEOUT;
 8002b58:	2303      	movs	r3, #3
 8002b5a:	e1a1      	b.n	8002ea0 <HAL_RCC_OscConfig+0x4f8>
        while (__HAL_RCC_GET_FLAG(RCC_FLAG_HSIRDY) == RESET)
 8002b5c:	4b2d      	ldr	r3, [pc, #180]	@ (8002c14 <HAL_RCC_OscConfig+0x26c>)
 8002b5e:	681b      	ldr	r3, [r3, #0]
 8002b60:	f003 0302 	and.w	r3, r3, #2
 8002b64:	2b00      	cmp	r3, #0
 8002b66:	d0f0      	beq.n	8002b4a <HAL_RCC_OscConfig+0x1a2>
          }
        }

        /* Adjusts the Internal High Speed oscillator (HSI) calibration value.*/
        __HAL_RCC_HSI_CALIBRATIONVALUE_ADJUST(RCC_OscInitStruct->HSICalibrationValue);
 8002b68:	4b2a      	ldr	r3, [pc, #168]	@ (8002c14 <HAL_RCC_OscConfig+0x26c>)
 8002b6a:	681b      	ldr	r3, [r3, #0]
 8002b6c:	f023 02f8 	bic.w	r2, r3, #248	@ 0xf8
 8002b70:	687b      	ldr	r3, [r7, #4]
 8002b72:	695b      	ldr	r3, [r3, #20]
 8002b74:	00db      	lsls	r3, r3, #3
 8002b76:	4927      	ldr	r1, [pc, #156]	@ (8002c14 <HAL_RCC_OscConfig+0x26c>)
 8002b78:	4313      	orrs	r3, r2
 8002b7a:	600b      	str	r3, [r1, #0]
 8002b7c:	e015      	b.n	8002baa <HAL_RCC_OscConfig+0x202>
      }
      else
      {
        /* Disable the Internal High Speed oscillator (HSI). */
        __HAL_RCC_HSI_DISABLE();
 8002b7e:	4b26      	ldr	r3, [pc, #152]	@ (8002c18 <HAL_RCC_OscConfig+0x270>)
 8002b80:	2200      	movs	r2, #0
 8002b82:	601a      	str	r2, [r3, #0]

        /* Get Start Tick */
        tickstart = HAL_GetTick();
 8002b84:	f7fd fed6 	bl	8000934 <HAL_GetTick>
 8002b88:	6138      	str	r0, [r7, #16]

        /* Wait till HSI is disabled */
        while (__HAL_RCC_GET_FLAG(RCC_FLAG_HSIRDY) != RESET)
 8002b8a:	e008      	b.n	8002b9e <HAL_RCC_OscConfig+0x1f6>
        {
          if ((HAL_GetTick() - tickstart) > HSI_TIMEOUT_VALUE)
 8002b8c:	f7fd fed2 	bl	8000934 <HAL_GetTick>
 8002b90:	4602      	mov	r2, r0
 8002b92:	693b      	ldr	r3, [r7, #16]
 8002b94:	1ad3      	subs	r3, r2, r3
 8002b96:	2b02      	cmp	r3, #2
 8002b98:	d901      	bls.n	8002b9e <HAL_RCC_OscConfig+0x1f6>
          {
            return HAL_TIMEOUT;
 8002b9a:	2303      	movs	r3, #3
 8002b9c:	e180      	b.n	8002ea0 <HAL_RCC_OscConfig+0x4f8>
        while (__HAL_RCC_GET_FLAG(RCC_FLAG_HSIRDY) != RESET)
 8002b9e:	4b1d      	ldr	r3, [pc, #116]	@ (8002c14 <HAL_RCC_OscConfig+0x26c>)
 8002ba0:	681b      	ldr	r3, [r3, #0]
 8002ba2:	f003 0302 	and.w	r3, r3, #2
 8002ba6:	2b00      	cmp	r3, #0
 8002ba8:	d1f0      	bne.n	8002b8c <HAL_RCC_OscConfig+0x1e4>
        }
      }
    }
  }
  /*------------------------------ LSI Configuration -------------------------*/
  if (((RCC_OscInitStruct->OscillatorType) & RCC_OSCILLATORTYPE_LSI) == RCC_OSCILLATORTYPE_LSI)
 8002baa:	687b      	ldr	r3, [r7, #4]
 8002bac:	681b      	ldr	r3, [r3, #0]
 8002bae:	f003 0308 	and.w	r3, r3, #8
 8002bb2:	2b00      	cmp	r3, #0
 8002bb4:	d03a      	beq.n	8002c2c <HAL_RCC_OscConfig+0x284>
  {
    /* Check the parameters */
    assert_param(IS_RCC_LSI(RCC_OscInitStruct->LSIState));

    /* Check the LSI State */
    if (RCC_OscInitStruct->LSIState != RCC_LSI_OFF)
 8002bb6:	687b      	ldr	r3, [r7, #4]
 8002bb8:	699b      	ldr	r3, [r3, #24]
 8002bba:	2b00      	cmp	r3, #0
 8002bbc:	d019      	beq.n	8002bf2 <HAL_RCC_OscConfig+0x24a>
    {
      /* Enable the Internal Low Speed oscillator (LSI). */
      __HAL_RCC_LSI_ENABLE();
 8002bbe:	4b17      	ldr	r3, [pc, #92]	@ (8002c1c <HAL_RCC_OscConfig+0x274>)
 8002bc0:	2201      	movs	r2, #1
 8002bc2:	601a      	str	r2, [r3, #0]

      /* Get Start Tick */
      tickstart = HAL_GetTick();
 8002bc4:	f7fd feb6 	bl	8000934 <HAL_GetTick>
 8002bc8:	6138      	str	r0, [r7, #16]

      /* Wait till LSI is ready */
      while (__HAL_RCC_GET_FLAG(RCC_FLAG_LSIRDY) == RESET)
 8002bca:	e008      	b.n	8002bde <HAL_RCC_OscConfig+0x236>
      {
        if ((HAL_GetTick() - tickstart) > LSI_TIMEOUT_VALUE)
 8002bcc:	f7fd feb2 	bl	8000934 <HAL_GetTick>
 8002bd0:	4602      	mov	r2, r0
 8002bd2:	693b      	ldr	r3, [r7, #16]
 8002bd4:	1ad3      	subs	r3, r2, r3
 8002bd6:	2b02      	cmp	r3, #2
 8002bd8:	d901      	bls.n	8002bde <HAL_RCC_OscConfig+0x236>
        {
          return HAL_TIMEOUT;
 8002bda:	2303      	movs	r3, #3
 8002bdc:	e160      	b.n	8002ea0 <HAL_RCC_OscConfig+0x4f8>
      while (__HAL_RCC_GET_FLAG(RCC_FLAG_LSIRDY) == RESET)
 8002bde:	4b0d      	ldr	r3, [pc, #52]	@ (8002c14 <HAL_RCC_OscConfig+0x26c>)
 8002be0:	6a5b      	ldr	r3, [r3, #36]	@ 0x24
 8002be2:	f003 0302 	and.w	r3, r3, #2
 8002be6:	2b00      	cmp	r3, #0
 8002be8:	d0f0      	beq.n	8002bcc <HAL_RCC_OscConfig+0x224>
        }
      }
      /*  To have a fully stabilized clock in the specified range, a software delay of 1ms
          should be added.*/
      RCC_Delay(1);
 8002bea:	2001      	movs	r0, #1
 8002bec:	f000 fa9c 	bl	8003128 <RCC_Delay>
 8002bf0:	e01c      	b.n	8002c2c <HAL_RCC_OscConfig+0x284>
    }
    else
    {
      /* Disable the Internal Low Speed oscillator (LSI). */
      __HAL_RCC_LSI_DISABLE();
 8002bf2:	4b0a      	ldr	r3, [pc, #40]	@ (8002c1c <HAL_RCC_OscConfig+0x274>)
 8002bf4:	2200      	movs	r2, #0
 8002bf6:	601a      	str	r2, [r3, #0]

      /* Get Start Tick */
      tickstart = HAL_GetTick();
 8002bf8:	f7fd fe9c 	bl	8000934 <HAL_GetTick>
 8002bfc:	6138      	str	r0, [r7, #16]

      /* Wait till LSI is disabled */
      while (__HAL_RCC_GET_FLAG(RCC_FLAG_LSIRDY) != RESET)
 8002bfe:	e00f      	b.n	8002c20 <HAL_RCC_OscConfig+0x278>
      {
        if ((HAL_GetTick() - tickstart) > LSI_TIMEOUT_VALUE)
 8002c00:	f7fd fe98 	bl	8000934 <HAL_GetTick>
 8002c04:	4602      	mov	r2, r0
 8002c06:	693b      	ldr	r3, [r7, #16]
 8002c08:	1ad3      	subs	r3, r2, r3
 8002c0a:	2b02      	cmp	r3, #2
 8002c0c:	d908      	bls.n	8002c20 <HAL_RCC_OscConfig+0x278>
        {
          return HAL_TIMEOUT;
 8002c0e:	2303      	movs	r3, #3
 8002c10:	e146      	b.n	8002ea0 <HAL_RCC_OscConfig+0x4f8>
 8002c12:	bf00      	nop
 8002c14:	40021000 	.word	0x40021000
 8002c18:	42420000 	.word	0x42420000
 8002c1c:	42420480 	.word	0x42420480
      while (__HAL_RCC_GET_FLAG(RCC_FLAG_LSIRDY) != RESET)
 8002c20:	4b92      	ldr	r3, [pc, #584]	@ (8002e6c <HAL_RCC_OscConfig+0x4c4>)
 8002c22:	6a5b      	ldr	r3, [r3, #36]	@ 0x24
 8002c24:	f003 0302 	and.w	r3, r3, #2
 8002c28:	2b00      	cmp	r3, #0
 8002c2a:	d1e9      	bne.n	8002c00 <HAL_RCC_OscConfig+0x258>
        }
      }
    }
  }
  /*------------------------------ LSE Configuration -------------------------*/
  if (((RCC_OscInitStruct->OscillatorType) & RCC_OSCILLATORTYPE_LSE) == RCC_OSCILLATORTYPE_LSE)
 8002c2c:	687b      	ldr	r3, [r7, #4]
 8002c2e:	681b      	ldr	r3, [r3, #0]
 8002c30:	f003 0304 	and.w	r3, r3, #4
 8002c34:	2b00      	cmp	r3, #0
 8002c36:	f000 80a6 	beq.w	8002d86 <HAL_RCC_OscConfig+0x3de>
  {
    FlagStatus       pwrclkchanged = RESET;
 8002c3a:	2300      	movs	r3, #0
 8002c3c:	75fb      	strb	r3, [r7, #23]
    /* Check the parameters */
    assert_param(IS_RCC_LSE(RCC_OscInitStruct->LSEState));

    /* Update LSE configuration in Backup Domain control register    */
    /* Requires to enable write access to Backup Domain of necessary */
    if (__HAL_RCC_PWR_IS_CLK_DISABLED())
 8002c3e:	4b8b      	ldr	r3, [pc, #556]	@ (8002e6c <HAL_RCC_OscConfig+0x4c4>)
 8002c40:	69db      	ldr	r3, [r3, #28]
 8002c42:	f003 5380 	and.w	r3, r3, #268435456	@ 0x10000000
 8002c46:	2b00      	cmp	r3, #0
 8002c48:	d10d      	bne.n	8002c66 <HAL_RCC_OscConfig+0x2be>
    {
      __HAL_RCC_PWR_CLK_ENABLE();
 8002c4a:	4b88      	ldr	r3, [pc, #544]	@ (8002e6c <HAL_RCC_OscConfig+0x4c4>)
 8002c4c:	69db      	ldr	r3, [r3, #28]
 8002c4e:	4a87      	ldr	r2, [pc, #540]	@ (8002e6c <HAL_RCC_OscConfig+0x4c4>)
 8002c50:	f043 5380 	orr.w	r3, r3, #268435456	@ 0x10000000
 8002c54:	61d3      	str	r3, [r2, #28]
 8002c56:	4b85      	ldr	r3, [pc, #532]	@ (8002e6c <HAL_RCC_OscConfig+0x4c4>)
 8002c58:	69db      	ldr	r3, [r3, #28]
 8002c5a:	f003 5380 	and.w	r3, r3, #268435456	@ 0x10000000
 8002c5e:	60bb      	str	r3, [r7, #8]
 8002c60:	68bb      	ldr	r3, [r7, #8]
      pwrclkchanged = SET;
 8002c62:	2301      	movs	r3, #1
 8002c64:	75fb      	strb	r3, [r7, #23]
    }

    if (HAL_IS_BIT_CLR(PWR->CR, PWR_CR_DBP))
 8002c66:	4b82      	ldr	r3, [pc, #520]	@ (8002e70 <HAL_RCC_OscConfig+0x4c8>)
 8002c68:	681b      	ldr	r3, [r3, #0]
 8002c6a:	f403 7380 	and.w	r3, r3, #256	@ 0x100
 8002c6e:	2b00      	cmp	r3, #0
 8002c70:	d118      	bne.n	8002ca4 <HAL_RCC_OscConfig+0x2fc>
    {
      /* Enable write access to Backup domain */
      SET_BIT(PWR->CR, PWR_CR_DBP);
 8002c72:	4b7f      	ldr	r3, [pc, #508]	@ (8002e70 <HAL_RCC_OscConfig+0x4c8>)
 8002c74:	681b      	ldr	r3, [r3, #0]
 8002c76:	4a7e      	ldr	r2, [pc, #504]	@ (8002e70 <HAL_RCC_OscConfig+0x4c8>)
 8002c78:	f443 7380 	orr.w	r3, r3, #256	@ 0x100
 8002c7c:	6013      	str	r3, [r2, #0]

      /* Wait for Backup domain Write protection disable */
      tickstart = HAL_GetTick();
 8002c7e:	f7fd fe59 	bl	8000934 <HAL_GetTick>
 8002c82:	6138      	str	r0, [r7, #16]

      while (HAL_IS_BIT_CLR(PWR->CR, PWR_CR_DBP))
 8002c84:	e008      	b.n	8002c98 <HAL_RCC_OscConfig+0x2f0>
      {
        if ((HAL_GetTick() - tickstart) > RCC_DBP_TIMEOUT_VALUE)
 8002c86:	f7fd fe55 	bl	8000934 <HAL_GetTick>
 8002c8a:	4602      	mov	r2, r0
 8002c8c:	693b      	ldr	r3, [r7, #16]
 8002c8e:	1ad3      	subs	r3, r2, r3
 8002c90:	2b64      	cmp	r3, #100	@ 0x64
 8002c92:	d901      	bls.n	8002c98 <HAL_RCC_OscConfig+0x2f0>
        {
          return HAL_TIMEOUT;
 8002c94:	2303      	movs	r3, #3
 8002c96:	e103      	b.n	8002ea0 <HAL_RCC_OscConfig+0x4f8>
      while (HAL_IS_BIT_CLR(PWR->CR, PWR_CR_DBP))
 8002c98:	4b75      	ldr	r3, [pc, #468]	@ (8002e70 <HAL_RCC_OscConfig+0x4c8>)
 8002c9a:	681b      	ldr	r3, [r3, #0]
 8002c9c:	f403 7380 	and.w	r3, r3, #256	@ 0x100
 8002ca0:	2b00      	cmp	r3, #0
 8002ca2:	d0f0      	beq.n	8002c86 <HAL_RCC_OscConfig+0x2de>
        }
      }
    }

    /* Set the new LSE configuration -----------------------------------------*/
    __HAL_RCC_LSE_CONFIG(RCC_OscInitStruct->LSEState);
 8002ca4:	687b      	ldr	r3, [r7, #4]
 8002ca6:	68db      	ldr	r3, [r3, #12]
 8002ca8:	2b01      	cmp	r3, #1
 8002caa:	d106      	bne.n	8002cba <HAL_RCC_OscConfig+0x312>
 8002cac:	4b6f      	ldr	r3, [pc, #444]	@ (8002e6c <HAL_RCC_OscConfig+0x4c4>)
 8002cae:	6a1b      	ldr	r3, [r3, #32]
 8002cb0:	4a6e      	ldr	r2, [pc, #440]	@ (8002e6c <HAL_RCC_OscConfig+0x4c4>)
 8002cb2:	f043 0301 	orr.w	r3, r3, #1
 8002cb6:	6213      	str	r3, [r2, #32]
 8002cb8:	e02d      	b.n	8002d16 <HAL_RCC_OscConfig+0x36e>
 8002cba:	687b      	ldr	r3, [r7, #4]
 8002cbc:	68db      	ldr	r3, [r3, #12]
 8002cbe:	2b00      	cmp	r3, #0
 8002cc0:	d10c      	bne.n	8002cdc <HAL_RCC_OscConfig+0x334>
 8002cc2:	4b6a      	ldr	r3, [pc, #424]	@ (8002e6c <HAL_RCC_OscConfig+0x4c4>)
 8002cc4:	6a1b      	ldr	r3, [r3, #32]
 8002cc6:	4a69      	ldr	r2, [pc, #420]	@ (8002e6c <HAL_RCC_OscConfig+0x4c4>)
 8002cc8:	f023 0301 	bic.w	r3, r3, #1
 8002ccc:	6213      	str	r3, [r2, #32]
 8002cce:	4b67      	ldr	r3, [pc, #412]	@ (8002e6c <HAL_RCC_OscConfig+0x4c4>)
 8002cd0:	6a1b      	ldr	r3, [r3, #32]
 8002cd2:	4a66      	ldr	r2, [pc, #408]	@ (8002e6c <HAL_RCC_OscConfig+0x4c4>)
 8002cd4:	f023 0304 	bic.w	r3, r3, #4
 8002cd8:	6213      	str	r3, [r2, #32]
 8002cda:	e01c      	b.n	8002d16 <HAL_RCC_OscConfig+0x36e>
 8002cdc:	687b      	ldr	r3, [r7, #4]
 8002cde:	68db      	ldr	r3, [r3, #12]
 8002ce0:	2b05      	cmp	r3, #5
 8002ce2:	d10c      	bne.n	8002cfe <HAL_RCC_OscConfig+0x356>
 8002ce4:	4b61      	ldr	r3, [pc, #388]	@ (8002e6c <HAL_RCC_OscConfig+0x4c4>)
 8002ce6:	6a1b      	ldr	r3, [r3, #32]
 8002ce8:	4a60      	ldr	r2, [pc, #384]	@ (8002e6c <HAL_RCC_OscConfig+0x4c4>)
 8002cea:	f043 0304 	orr.w	r3, r3, #4
 8002cee:	6213      	str	r3, [r2, #32]
 8002cf0:	4b5e      	ldr	r3, [pc, #376]	@ (8002e6c <HAL_RCC_OscConfig+0x4c4>)
 8002cf2:	6a1b      	ldr	r3, [r3, #32]
 8002cf4:	4a5d      	ldr	r2, [pc, #372]	@ (8002e6c <HAL_RCC_OscConfig+0x4c4>)
 8002cf6:	f043 0301 	orr.w	r3, r3, #1
 8002cfa:	6213      	str	r3, [r2, #32]
 8002cfc:	e00b      	b.n	8002d16 <HAL_RCC_OscConfig+0x36e>
 8002cfe:	4b5b      	ldr	r3, [pc, #364]	@ (8002e6c <HAL_RCC_OscConfig+0x4c4>)
 8002d00:	6a1b      	ldr	r3, [r3, #32]
 8002d02:	4a5a      	ldr	r2, [pc, #360]	@ (8002e6c <HAL_RCC_OscConfig+0x4c4>)
 8002d04:	f023 0301 	bic.w	r3, r3, #1
 8002d08:	6213      	str	r3, [r2, #32]
 8002d0a:	4b58      	ldr	r3, [pc, #352]	@ (8002e6c <HAL_RCC_OscConfig+0x4c4>)
 8002d0c:	6a1b      	ldr	r3, [r3, #32]
 8002d0e:	4a57      	ldr	r2, [pc, #348]	@ (8002e6c <HAL_RCC_OscConfig+0x4c4>)
 8002d10:	f023 0304 	bic.w	r3, r3, #4
 8002d14:	6213      	str	r3, [r2, #32]
    /* Check the LSE State */
    if (RCC_OscInitStruct->LSEState != RCC_LSE_OFF)
 8002d16:	687b      	ldr	r3, [r7, #4]
 8002d18:	68db      	ldr	r3, [r3, #12]
 8002d1a:	2b00      	cmp	r3, #0
 8002d1c:	d015      	beq.n	8002d4a <HAL_RCC_OscConfig+0x3a2>
    {
      /* Get Start Tick */
      tickstart = HAL_GetTick();
 8002d1e:	f7fd fe09 	bl	8000934 <HAL_GetTick>
 8002d22:	6138      	str	r0, [r7, #16]

      /* Wait till LSE is ready */
      while (__HAL_RCC_GET_FLAG(RCC_FLAG_LSERDY) == RESET)
 8002d24:	e00a      	b.n	8002d3c <HAL_RCC_OscConfig+0x394>
      {
        if ((HAL_GetTick() - tickstart) > RCC_LSE_TIMEOUT_VALUE)
 8002d26:	f7fd fe05 	bl	8000934 <HAL_GetTick>
 8002d2a:	4602      	mov	r2, r0
 8002d2c:	693b      	ldr	r3, [r7, #16]
 8002d2e:	1ad3      	subs	r3, r2, r3
 8002d30:	f241 3288 	movw	r2, #5000	@ 0x1388
 8002d34:	4293      	cmp	r3, r2
 8002d36:	d901      	bls.n	8002d3c <HAL_RCC_OscConfig+0x394>
        {
          return HAL_TIMEOUT;
 8002d38:	2303      	movs	r3, #3
 8002d3a:	e0b1      	b.n	8002ea0 <HAL_RCC_OscConfig+0x4f8>
      while (__HAL_RCC_GET_FLAG(RCC_FLAG_LSERDY) == RESET)
 8002d3c:	4b4b      	ldr	r3, [pc, #300]	@ (8002e6c <HAL_RCC_OscConfig+0x4c4>)
 8002d3e:	6a1b      	ldr	r3, [r3, #32]
 8002d40:	f003 0302 	and.w	r3, r3, #2
 8002d44:	2b00      	cmp	r3, #0
 8002d46:	d0ee      	beq.n	8002d26 <HAL_RCC_OscConfig+0x37e>
 8002d48:	e014      	b.n	8002d74 <HAL_RCC_OscConfig+0x3cc>
      }
    }
    else
    {
      /* Get Start Tick */
      tickstart = HAL_GetTick();
 8002d4a:	f7fd fdf3 	bl	8000934 <HAL_GetTick>
 8002d4e:	6138      	str	r0, [r7, #16]

      /* Wait till LSE is disabled */
      while (__HAL_RCC_GET_FLAG(RCC_FLAG_LSERDY) != RESET)
 8002d50:	e00a      	b.n	8002d68 <HAL_RCC_OscConfig+0x3c0>
      {
        if ((HAL_GetTick() - tickstart) > RCC_LSE_TIMEOUT_VALUE)
 8002d52:	f7fd fdef 	bl	8000934 <HAL_GetTick>
 8002d56:	4602      	mov	r2, r0
 8002d58:	693b      	ldr	r3, [r7, #16]
 8002d5a:	1ad3      	subs	r3, r2, r3
 8002d5c:	f241 3288 	movw	r2, #5000	@ 0x1388
 8002d60:	4293      	cmp	r3, r2
 8002d62:	d901      	bls.n	8002d68 <HAL_RCC_OscConfig+0x3c0>
        {
          return HAL_TIMEOUT;
 8002d64:	2303      	movs	r3, #3
 8002d66:	e09b      	b.n	8002ea0 <HAL_RCC_OscConfig+0x4f8>
      while (__HAL_RCC_GET_FLAG(RCC_FLAG_LSERDY) != RESET)
 8002d68:	4b40      	ldr	r3, [pc, #256]	@ (8002e6c <HAL_RCC_OscConfig+0x4c4>)
 8002d6a:	6a1b      	ldr	r3, [r3, #32]
 8002d6c:	f003 0302 	and.w	r3, r3, #2
 8002d70:	2b00      	cmp	r3, #0
 8002d72:	d1ee      	bne.n	8002d52 <HAL_RCC_OscConfig+0x3aa>
        }
      }
    }

    /* Require to disable power clock if necessary */
    if (pwrclkchanged == SET)
 8002d74:	7dfb      	ldrb	r3, [r7, #23]
 8002d76:	2b01      	cmp	r3, #1
 8002d78:	d105      	bne.n	8002d86 <HAL_RCC_OscConfig+0x3de>
    {
      __HAL_RCC_PWR_CLK_DISABLE();
 8002d7a:	4b3c      	ldr	r3, [pc, #240]	@ (8002e6c <HAL_RCC_OscConfig+0x4c4>)
 8002d7c:	69db      	ldr	r3, [r3, #28]
 8002d7e:	4a3b      	ldr	r2, [pc, #236]	@ (8002e6c <HAL_RCC_OscConfig+0x4c4>)
 8002d80:	f023 5380 	bic.w	r3, r3, #268435456	@ 0x10000000
 8002d84:	61d3      	str	r3, [r2, #28]

#endif /* RCC_CR_PLL2ON */
  /*-------------------------------- PLL Configuration -----------------------*/
  /* Check the parameters */
  assert_param(IS_RCC_PLL(RCC_OscInitStruct->PLL.PLLState));
  if ((RCC_OscInitStruct->PLL.PLLState) != RCC_PLL_NONE)
 8002d86:	687b      	ldr	r3, [r7, #4]
 8002d88:	69db      	ldr	r3, [r3, #28]
 8002d8a:	2b00      	cmp	r3, #0
 8002d8c:	f000 8087 	beq.w	8002e9e <HAL_RCC_OscConfig+0x4f6>
  {
    /* Check if the PLL is used as system clock or not */
    if (__HAL_RCC_GET_SYSCLK_SOURCE() != RCC_SYSCLKSOURCE_STATUS_PLLCLK)
 8002d90:	4b36      	ldr	r3, [pc, #216]	@ (8002e6c <HAL_RCC_OscConfig+0x4c4>)
 8002d92:	685b      	ldr	r3, [r3, #4]
 8002d94:	f003 030c 	and.w	r3, r3, #12
 8002d98:	2b08      	cmp	r3, #8
 8002d9a:	d061      	beq.n	8002e60 <HAL_RCC_OscConfig+0x4b8>
    {
      if ((RCC_OscInitStruct->PLL.PLLState) == RCC_PLL_ON)
 8002d9c:	687b      	ldr	r3, [r7, #4]
 8002d9e:	69db      	ldr	r3, [r3, #28]
 8002da0:	2b02      	cmp	r3, #2
 8002da2:	d146      	bne.n	8002e32 <HAL_RCC_OscConfig+0x48a>
        /* Check the parameters */
        assert_param(IS_RCC_PLLSOURCE(RCC_OscInitStruct->PLL.PLLSource));
        assert_param(IS_RCC_PLL_MUL(RCC_OscInitStruct->PLL.PLLMUL));

        /* Disable the main PLL. */
        __HAL_RCC_PLL_DISABLE();
 8002da4:	4b33      	ldr	r3, [pc, #204]	@ (8002e74 <HAL_RCC_OscConfig+0x4cc>)
 8002da6:	2200      	movs	r2, #0
 8002da8:	601a      	str	r2, [r3, #0]

        /* Get Start Tick */
        tickstart = HAL_GetTick();
 8002daa:	f7fd fdc3 	bl	8000934 <HAL_GetTick>
 8002dae:	6138      	str	r0, [r7, #16]

        /* Wait till PLL is disabled */
        while (__HAL_RCC_GET_FLAG(RCC_FLAG_PLLRDY)  != RESET)
 8002db0:	e008      	b.n	8002dc4 <HAL_RCC_OscConfig+0x41c>
        {
          if ((HAL_GetTick() - tickstart) > PLL_TIMEOUT_VALUE)
 8002db2:	f7fd fdbf 	bl	8000934 <HAL_GetTick>
 8002db6:	4602      	mov	r2, r0
 8002db8:	693b      	ldr	r3, [r7, #16]
 8002dba:	1ad3      	subs	r3, r2, r3
 8002dbc:	2b02      	cmp	r3, #2
 8002dbe:	d901      	bls.n	8002dc4 <HAL_RCC_OscConfig+0x41c>
          {
            return HAL_TIMEOUT;
 8002dc0:	2303      	movs	r3, #3
 8002dc2:	e06d      	b.n	8002ea0 <HAL_RCC_OscConfig+0x4f8>
        while (__HAL_RCC_GET_FLAG(RCC_FLAG_PLLRDY)  != RESET)
 8002dc4:	4b29      	ldr	r3, [pc, #164]	@ (8002e6c <HAL_RCC_OscConfig+0x4c4>)
 8002dc6:	681b      	ldr	r3, [r3, #0]
 8002dc8:	f003 7300 	and.w	r3, r3, #33554432	@ 0x2000000
 8002dcc:	2b00      	cmp	r3, #0
 8002dce:	d1f0      	bne.n	8002db2 <HAL_RCC_OscConfig+0x40a>
          }
        }

        /* Configure the HSE prediv factor --------------------------------*/
        /* It can be written only when the PLL is disabled. Not used in PLL source is different than HSE */
        if (RCC_OscInitStruct->PLL.PLLSource == RCC_PLLSOURCE_HSE)
 8002dd0:	687b      	ldr	r3, [r7, #4]
 8002dd2:	6a1b      	ldr	r3, [r3, #32]
 8002dd4:	f5b3 3f80 	cmp.w	r3, #65536	@ 0x10000
 8002dd8:	d108      	bne.n	8002dec <HAL_RCC_OscConfig+0x444>
          /* Set PREDIV1 source */
          SET_BIT(RCC->CFGR2, RCC_OscInitStruct->Prediv1Source);
#endif /* RCC_CFGR2_PREDIV1SRC */

          /* Set PREDIV1 Value */
          __HAL_RCC_HSE_PREDIV_CONFIG(RCC_OscInitStruct->HSEPredivValue);
 8002dda:	4b24      	ldr	r3, [pc, #144]	@ (8002e6c <HAL_RCC_OscConfig+0x4c4>)
 8002ddc:	685b      	ldr	r3, [r3, #4]
 8002dde:	f423 3200 	bic.w	r2, r3, #131072	@ 0x20000
 8002de2:	687b      	ldr	r3, [r7, #4]
 8002de4:	689b      	ldr	r3, [r3, #8]
 8002de6:	4921      	ldr	r1, [pc, #132]	@ (8002e6c <HAL_RCC_OscConfig+0x4c4>)
 8002de8:	4313      	orrs	r3, r2
 8002dea:	604b      	str	r3, [r1, #4]
        }

        /* Configure the main PLL clock source and multiplication factors. */
        __HAL_RCC_PLL_CONFIG(RCC_OscInitStruct->PLL.PLLSource,
 8002dec:	4b1f      	ldr	r3, [pc, #124]	@ (8002e6c <HAL_RCC_OscConfig+0x4c4>)
 8002dee:	685b      	ldr	r3, [r3, #4]
 8002df0:	f423 1274 	bic.w	r2, r3, #3997696	@ 0x3d0000
 8002df4:	687b      	ldr	r3, [r7, #4]
 8002df6:	6a19      	ldr	r1, [r3, #32]
 8002df8:	687b      	ldr	r3, [r7, #4]
 8002dfa:	6a5b      	ldr	r3, [r3, #36]	@ 0x24
 8002dfc:	430b      	orrs	r3, r1
 8002dfe:	491b      	ldr	r1, [pc, #108]	@ (8002e6c <HAL_RCC_OscConfig+0x4c4>)
 8002e00:	4313      	orrs	r3, r2
 8002e02:	604b      	str	r3, [r1, #4]
                             RCC_OscInitStruct->PLL.PLLMUL);
        /* Enable the main PLL. */
        __HAL_RCC_PLL_ENABLE();
 8002e04:	4b1b      	ldr	r3, [pc, #108]	@ (8002e74 <HAL_RCC_OscConfig+0x4cc>)
 8002e06:	2201      	movs	r2, #1
 8002e08:	601a      	str	r2, [r3, #0]

        /* Get Start Tick */
        tickstart = HAL_GetTick();
 8002e0a:	f7fd fd93 	bl	8000934 <HAL_GetTick>
 8002e0e:	6138      	str	r0, [r7, #16]

        /* Wait till PLL is ready */
        while (__HAL_RCC_GET_FLAG(RCC_FLAG_PLLRDY)  == RESET)
 8002e10:	e008      	b.n	8002e24 <HAL_RCC_OscConfig+0x47c>
        {
          if ((HAL_GetTick() - tickstart) > PLL_TIMEOUT_VALUE)
 8002e12:	f7fd fd8f 	bl	8000934 <HAL_GetTick>
 8002e16:	4602      	mov	r2, r0
 8002e18:	693b      	ldr	r3, [r7, #16]
 8002e1a:	1ad3      	subs	r3, r2, r3
 8002e1c:	2b02      	cmp	r3, #2
 8002e1e:	d901      	bls.n	8002e24 <HAL_RCC_OscConfig+0x47c>
          {
            return HAL_TIMEOUT;
 8002e20:	2303      	movs	r3, #3
 8002e22:	e03d      	b.n	8002ea0 <HAL_RCC_OscConfig+0x4f8>
        while (__HAL_RCC_GET_FLAG(RCC_FLAG_PLLRDY)  == RESET)
 8002e24:	4b11      	ldr	r3, [pc, #68]	@ (8002e6c <HAL_RCC_OscConfig+0x4c4>)
 8002e26:	681b      	ldr	r3, [r3, #0]
 8002e28:	f003 7300 	and.w	r3, r3, #33554432	@ 0x2000000
 8002e2c:	2b00      	cmp	r3, #0
 8002e2e:	d0f0      	beq.n	8002e12 <HAL_RCC_OscConfig+0x46a>
 8002e30:	e035      	b.n	8002e9e <HAL_RCC_OscConfig+0x4f6>
        }
      }
      else
      {
        /* Disable the main PLL. */
        __HAL_RCC_PLL_DISABLE();
 8002e32:	4b10      	ldr	r3, [pc, #64]	@ (8002e74 <HAL_RCC_OscConfig+0x4cc>)
 8002e34:	2200      	movs	r2, #0
 8002e36:	601a      	str	r2, [r3, #0]

        /* Get Start Tick */
        tickstart = HAL_GetTick();
 8002e38:	f7fd fd7c 	bl	8000934 <HAL_GetTick>
 8002e3c:	6138      	str	r0, [r7, #16]

        /* Wait till PLL is disabled */
        while (__HAL_RCC_GET_FLAG(RCC_FLAG_PLLRDY)  != RESET)
 8002e3e:	e008      	b.n	8002e52 <HAL_RCC_OscConfig+0x4aa>
        {
          if ((HAL_GetTick() - tickstart) > PLL_TIMEOUT_VALUE)
 8002e40:	f7fd fd78 	bl	8000934 <HAL_GetTick>
 8002e44:	4602      	mov	r2, r0
 8002e46:	693b      	ldr	r3, [r7, #16]
 8002e48:	1ad3      	subs	r3, r2, r3
 8002e4a:	2b02      	cmp	r3, #2
 8002e4c:	d901      	bls.n	8002e52 <HAL_RCC_OscConfig+0x4aa>
          {
            return HAL_TIMEOUT;
 8002e4e:	2303      	movs	r3, #3
 8002e50:	e026      	b.n	8002ea0 <HAL_RCC_OscConfig+0x4f8>
        while (__HAL_RCC_GET_FLAG(RCC_FLAG_PLLRDY)  != RESET)
 8002e52:	4b06      	ldr	r3, [pc, #24]	@ (8002e6c <HAL_RCC_OscConfig+0x4c4>)
 8002e54:	681b      	ldr	r3, [r3, #0]
 8002e56:	f003 7300 	and.w	r3, r3, #33554432	@ 0x2000000
 8002e5a:	2b00      	cmp	r3, #0
 8002e5c:	d1f0      	bne.n	8002e40 <HAL_RCC_OscConfig+0x498>
 8002e5e:	e01e      	b.n	8002e9e <HAL_RCC_OscConfig+0x4f6>
      }
    }
    else
    {
      /* Check if there is a request to disable the PLL used as System clock source */
      if ((RCC_OscInitStruct->PLL.PLLState) == RCC_PLL_OFF)
 8002e60:	687b      	ldr	r3, [r7, #4]
 8002e62:	69db      	ldr	r3, [r3, #28]
 8002e64:	2b01      	cmp	r3, #1
 8002e66:	d107      	bne.n	8002e78 <HAL_RCC_OscConfig+0x4d0>
      {
        return HAL_ERROR;
 8002e68:	2301      	movs	r3, #1
 8002e6a:	e019      	b.n	8002ea0 <HAL_RCC_OscConfig+0x4f8>
 8002e6c:	40021000 	.word	0x40021000
 8002e70:	40007000 	.word	0x40007000
 8002e74:	42420060 	.word	0x42420060
      }
      else
      {
        /* Do not return HAL_ERROR if request repeats the current configuration */
        pll_config = RCC->CFGR;
 8002e78:	4b0b      	ldr	r3, [pc, #44]	@ (8002ea8 <HAL_RCC_OscConfig+0x500>)
 8002e7a:	685b      	ldr	r3, [r3, #4]
 8002e7c:	60fb      	str	r3, [r7, #12]
        if ((READ_BIT(pll_config, RCC_CFGR_PLLSRC) != RCC_OscInitStruct->PLL.PLLSource) ||
 8002e7e:	68fb      	ldr	r3, [r7, #12]
 8002e80:	f403 3280 	and.w	r2, r3, #65536	@ 0x10000
 8002e84:	687b      	ldr	r3, [r7, #4]
 8002e86:	6a1b      	ldr	r3, [r3, #32]
 8002e88:	429a      	cmp	r2, r3
 8002e8a:	d106      	bne.n	8002e9a <HAL_RCC_OscConfig+0x4f2>
            (READ_BIT(pll_config, RCC_CFGR_PLLMULL) != RCC_OscInitStruct->PLL.PLLMUL))
 8002e8c:	68fb      	ldr	r3, [r7, #12]
 8002e8e:	f403 1270 	and.w	r2, r3, #3932160	@ 0x3c0000
 8002e92:	687b      	ldr	r3, [r7, #4]
 8002e94:	6a5b      	ldr	r3, [r3, #36]	@ 0x24
        if ((READ_BIT(pll_config, RCC_CFGR_PLLSRC) != RCC_OscInitStruct->PLL.PLLSource) ||
 8002e96:	429a      	cmp	r2, r3
 8002e98:	d001      	beq.n	8002e9e <HAL_RCC_OscConfig+0x4f6>
        {
          return HAL_ERROR;
 8002e9a:	2301      	movs	r3, #1
 8002e9c:	e000      	b.n	8002ea0 <HAL_RCC_OscConfig+0x4f8>
        }
      }
    }
  }

  return HAL_OK;
 8002e9e:	2300      	movs	r3, #0
}
 8002ea0:	4618      	mov	r0, r3
 8002ea2:	3718      	adds	r7, #24
 8002ea4:	46bd      	mov	sp, r7
 8002ea6:	bd80      	pop	{r7, pc}
 8002ea8:	40021000 	.word	0x40021000

08002eac <HAL_RCC_ClockConfig>:
  *         You can use @ref HAL_RCC_GetClockConfig() function to know which clock is
  *         currently used as system clock source.
  * @retval HAL status
  */
HAL_StatusTypeDef HAL_RCC_ClockConfig(RCC_ClkInitTypeDef  *RCC_ClkInitStruct, uint32_t FLatency)
{
 8002eac:	b580      	push	{r7, lr}
 8002eae:	b084      	sub	sp, #16
 8002eb0:	af00      	add	r7, sp, #0
 8002eb2:	6078      	str	r0, [r7, #4]
 8002eb4:	6039      	str	r1, [r7, #0]
  uint32_t tickstart;

  /* Check Null pointer */
  if (RCC_ClkInitStruct == NULL)
 8002eb6:	687b      	ldr	r3, [r7, #4]
 8002eb8:	2b00      	cmp	r3, #0
 8002eba:	d101      	bne.n	8002ec0 <HAL_RCC_ClockConfig+0x14>
  {
    return HAL_ERROR;
 8002ebc:	2301      	movs	r3, #1
 8002ebe:	e0d0      	b.n	8003062 <HAL_RCC_ClockConfig+0x1b6>
  must be correctly programmed according to the frequency of the CPU clock
    (HCLK) of the device. */

#if defined(FLASH_ACR_LATENCY)
  /* Increasing the number of wait states because of higher CPU frequency */
  if (FLatency > __HAL_FLASH_GET_LATENCY())
 8002ec0:	4b6a      	ldr	r3, [pc, #424]	@ (800306c <HAL_RCC_ClockConfig+0x1c0>)
 8002ec2:	681b      	ldr	r3, [r3, #0]
 8002ec4:	f003 0307 	and.w	r3, r3, #7
 8002ec8:	683a      	ldr	r2, [r7, #0]
 8002eca:	429a      	cmp	r2, r3
 8002ecc:	d910      	bls.n	8002ef0 <HAL_RCC_ClockConfig+0x44>
  {
    /* Program the new number of wait states to the LATENCY bits in the FLASH_ACR register */
    __HAL_FLASH_SET_LATENCY(FLatency);
 8002ece:	4b67      	ldr	r3, [pc, #412]	@ (800306c <HAL_RCC_ClockConfig+0x1c0>)
 8002ed0:	681b      	ldr	r3, [r3, #0]
 8002ed2:	f023 0207 	bic.w	r2, r3, #7
 8002ed6:	4965      	ldr	r1, [pc, #404]	@ (800306c <HAL_RCC_ClockConfig+0x1c0>)
 8002ed8:	683b      	ldr	r3, [r7, #0]
 8002eda:	4313      	orrs	r3, r2
 8002edc:	600b      	str	r3, [r1, #0]

    /* Check that the new number of wait states is taken into account to access the Flash
    memory by reading the FLASH_ACR register */
    if (__HAL_FLASH_GET_LATENCY() != FLatency)
 8002ede:	4b63      	ldr	r3, [pc, #396]	@ (800306c <HAL_RCC_ClockConfig+0x1c0>)
 8002ee0:	681b      	ldr	r3, [r3, #0]
 8002ee2:	f003 0307 	and.w	r3, r3, #7
 8002ee6:	683a      	ldr	r2, [r7, #0]
 8002ee8:	429a      	cmp	r2, r3
 8002eea:	d001      	beq.n	8002ef0 <HAL_RCC_ClockConfig+0x44>
  {
    return HAL_ERROR;
 8002eec:	2301      	movs	r3, #1
 8002eee:	e0b8      	b.n	8003062 <HAL_RCC_ClockConfig+0x1b6>
  }
}

#endif /* FLASH_ACR_LATENCY */
/*-------------------------- HCLK Configuration --------------------------*/
if (((RCC_ClkInitStruct->ClockType) & RCC_CLOCKTYPE_HCLK) == RCC_CLOCKTYPE_HCLK)
 8002ef0:	687b      	ldr	r3, [r7, #4]
 8002ef2:	681b      	ldr	r3, [r3, #0]
 8002ef4:	f003 0302 	and.w	r3, r3, #2
 8002ef8:	2b00      	cmp	r3, #0
 8002efa:	d020      	beq.n	8002f3e <HAL_RCC_ClockConfig+0x92>
  {
    /* Set the highest APBx dividers in order to ensure that we do not go through
    a non-spec phase whatever we decrease or increase HCLK. */
    if (((RCC_ClkInitStruct->ClockType) & RCC_CLOCKTYPE_PCLK1) == RCC_CLOCKTYPE_PCLK1)
 8002efc:	687b      	ldr	r3, [r7, #4]
 8002efe:	681b      	ldr	r3, [r3, #0]
 8002f00:	f003 0304 	and.w	r3, r3, #4
 8002f04:	2b00      	cmp	r3, #0
 8002f06:	d005      	beq.n	8002f14 <HAL_RCC_ClockConfig+0x68>
    {
      MODIFY_REG(RCC->CFGR, RCC_CFGR_PPRE1, RCC_HCLK_DIV16);
 8002f08:	4b59      	ldr	r3, [pc, #356]	@ (8003070 <HAL_RCC_ClockConfig+0x1c4>)
 8002f0a:	685b      	ldr	r3, [r3, #4]
 8002f0c:	4a58      	ldr	r2, [pc, #352]	@ (8003070 <HAL_RCC_ClockConfig+0x1c4>)
 8002f0e:	f443 63e0 	orr.w	r3, r3, #1792	@ 0x700
 8002f12:	6053      	str	r3, [r2, #4]
    }

    if (((RCC_ClkInitStruct->ClockType) & RCC_CLOCKTYPE_PCLK2) == RCC_CLOCKTYPE_PCLK2)
 8002f14:	687b      	ldr	r3, [r7, #4]
 8002f16:	681b      	ldr	r3, [r3, #0]
 8002f18:	f003 0308 	and.w	r3, r3, #8
 8002f1c:	2b00      	cmp	r3, #0
 8002f1e:	d005      	beq.n	8002f2c <HAL_RCC_ClockConfig+0x80>
    {
      MODIFY_REG(RCC->CFGR, RCC_CFGR_PPRE2, (RCC_HCLK_DIV16 << 3));
 8002f20:	4b53      	ldr	r3, [pc, #332]	@ (8003070 <HAL_RCC_ClockConfig+0x1c4>)
 8002f22:	685b      	ldr	r3, [r3, #4]
 8002f24:	4a52      	ldr	r2, [pc, #328]	@ (8003070 <HAL_RCC_ClockConfig+0x1c4>)
 8002f26:	f443 5360 	orr.w	r3, r3, #14336	@ 0x3800
 8002f2a:	6053      	str	r3, [r2, #4]
    }

    /* Set the new HCLK clock divider */
    assert_param(IS_RCC_HCLK(RCC_ClkInitStruct->AHBCLKDivider));
    MODIFY_REG(RCC->CFGR, RCC_CFGR_HPRE, RCC_ClkInitStruct->AHBCLKDivider);
 8002f2c:	4b50      	ldr	r3, [pc, #320]	@ (8003070 <HAL_RCC_ClockConfig+0x1c4>)
 8002f2e:	685b      	ldr	r3, [r3, #4]
 8002f30:	f023 02f0 	bic.w	r2, r3, #240	@ 0xf0
 8002f34:	687b      	ldr	r3, [r7, #4]
 8002f36:	689b      	ldr	r3, [r3, #8]
 8002f38:	494d      	ldr	r1, [pc, #308]	@ (8003070 <HAL_RCC_ClockConfig+0x1c4>)
 8002f3a:	4313      	orrs	r3, r2
 8002f3c:	604b      	str	r3, [r1, #4]
  }

  /*------------------------- SYSCLK Configuration ---------------------------*/
  if (((RCC_ClkInitStruct->ClockType) & RCC_CLOCKTYPE_SYSCLK) == RCC_CLOCKTYPE_SYSCLK)
 8002f3e:	687b      	ldr	r3, [r7, #4]
 8002f40:	681b      	ldr	r3, [r3, #0]
 8002f42:	f003 0301 	and.w	r3, r3, #1
 8002f46:	2b00      	cmp	r3, #0
 8002f48:	d040      	beq.n	8002fcc <HAL_RCC_ClockConfig+0x120>
  {
    assert_param(IS_RCC_SYSCLKSOURCE(RCC_ClkInitStruct->SYSCLKSource));

    /* HSE is selected as System Clock Source */
    if (RCC_ClkInitStruct->SYSCLKSource == RCC_SYSCLKSOURCE_HSE)
 8002f4a:	687b      	ldr	r3, [r7, #4]
 8002f4c:	685b      	ldr	r3, [r3, #4]
 8002f4e:	2b01      	cmp	r3, #1
 8002f50:	d107      	bne.n	8002f62 <HAL_RCC_ClockConfig+0xb6>
    {
      /* Check the HSE ready flag */
      if (__HAL_RCC_GET_FLAG(RCC_FLAG_HSERDY) == RESET)
 8002f52:	4b47      	ldr	r3, [pc, #284]	@ (8003070 <HAL_RCC_ClockConfig+0x1c4>)
 8002f54:	681b      	ldr	r3, [r3, #0]
 8002f56:	f403 3300 	and.w	r3, r3, #131072	@ 0x20000
 8002f5a:	2b00      	cmp	r3, #0
 8002f5c:	d115      	bne.n	8002f8a <HAL_RCC_ClockConfig+0xde>
      {
        return HAL_ERROR;
 8002f5e:	2301      	movs	r3, #1
 8002f60:	e07f      	b.n	8003062 <HAL_RCC_ClockConfig+0x1b6>
      }
    }
    /* PLL is selected as System Clock Source */
    else if (RCC_ClkInitStruct->SYSCLKSource == RCC_SYSCLKSOURCE_PLLCLK)
 8002f62:	687b      	ldr	r3, [r7, #4]
 8002f64:	685b      	ldr	r3, [r3, #4]
 8002f66:	2b02      	cmp	r3, #2
 8002f68:	d107      	bne.n	8002f7a <HAL_RCC_ClockConfig+0xce>
    {
      /* Check the PLL ready flag */
      if (__HAL_RCC_GET_FLAG(RCC_FLAG_PLLRDY) == RESET)
 8002f6a:	4b41      	ldr	r3, [pc, #260]	@ (8003070 <HAL_RCC_ClockConfig+0x1c4>)
 8002f6c:	681b      	ldr	r3, [r3, #0]
 8002f6e:	f003 7300 	and.w	r3, r3, #33554432	@ 0x2000000
 8002f72:	2b00      	cmp	r3, #0
 8002f74:	d109      	bne.n	8002f8a <HAL_RCC_ClockConfig+0xde>
      {
        return HAL_ERROR;
 8002f76:	2301      	movs	r3, #1
 8002f78:	e073      	b.n	8003062 <HAL_RCC_ClockConfig+0x1b6>
    }
    /* HSI is selected as System Clock Source */
    else
    {
      /* Check the HSI ready flag */
      if (__HAL_RCC_GET_FLAG(RCC_FLAG_HSIRDY) == RESET)
 8002f7a:	4b3d      	ldr	r3, [pc, #244]	@ (8003070 <HAL_RCC_ClockConfig+0x1c4>)
 8002f7c:	681b      	ldr	r3, [r3, #0]
 8002f7e:	f003 0302 	and.w	r3, r3, #2
 8002f82:	2b00      	cmp	r3, #0
 8002f84:	d101      	bne.n	8002f8a <HAL_RCC_ClockConfig+0xde>
      {
        return HAL_ERROR;
 8002f86:	2301      	movs	r3, #1
 8002f88:	e06b      	b.n	8003062 <HAL_RCC_ClockConfig+0x1b6>
      }
    }
    __HAL_RCC_SYSCLK_CONFIG(RCC_ClkInitStruct->SYSCLKSource);
 8002f8a:	4b39      	ldr	r3, [pc, #228]	@ (8003070 <HAL_RCC_ClockConfig+0x1c4>)
 8002f8c:	685b      	ldr	r3, [r3, #4]
 8002f8e:	f023 0203 	bic.w	r2, r3, #3
 8002f92:	687b      	ldr	r3, [r7, #4]
 8002f94:	685b      	ldr	r3, [r3, #4]
 8002f96:	4936      	ldr	r1, [pc, #216]	@ (8003070 <HAL_RCC_ClockConfig+0x1c4>)
 8002f98:	4313      	orrs	r3, r2
 8002f9a:	604b      	str	r3, [r1, #4]

    /* Get Start Tick */
    tickstart = HAL_GetTick();
 8002f9c:	f7fd fcca 	bl	8000934 <HAL_GetTick>
 8002fa0:	60f8      	str	r0, [r7, #12]

    while (__HAL_RCC_GET_SYSCLK_SOURCE() != (RCC_ClkInitStruct->SYSCLKSource << RCC_CFGR_SWS_Pos))
 8002fa2:	e00a      	b.n	8002fba <HAL_RCC_ClockConfig+0x10e>
    {
      if ((HAL_GetTick() - tickstart) > CLOCKSWITCH_TIMEOUT_VALUE)
 8002fa4:	f7fd fcc6 	bl	8000934 <HAL_GetTick>
 8002fa8:	4602      	mov	r2, r0
 8002faa:	68fb      	ldr	r3, [r7, #12]
 8002fac:	1ad3      	subs	r3, r2, r3
 8002fae:	f241 3288 	movw	r2, #5000	@ 0x1388
 8002fb2:	4293      	cmp	r3, r2
 8002fb4:	d901      	bls.n	8002fba <HAL_RCC_ClockConfig+0x10e>
      {
        return HAL_TIMEOUT;
 8002fb6:	2303      	movs	r3, #3
 8002fb8:	e053      	b.n	8003062 <HAL_RCC_ClockConfig+0x1b6>
    while (__HAL_RCC_GET_SYSCLK_SOURCE() != (RCC_ClkInitStruct->SYSCLKSource << RCC_CFGR_SWS_Pos))
 8002fba:	4b2d      	ldr	r3, [pc, #180]	@ (8003070 <HAL_RCC_ClockConfig+0x1c4>)
 8002fbc:	685b      	ldr	r3, [r3, #4]
 8002fbe:	f003 020c 	and.w	r2, r3, #12
 8002fc2:	687b      	ldr	r3, [r7, #4]
 8002fc4:	685b      	ldr	r3, [r3, #4]
 8002fc6:	009b      	lsls	r3, r3, #2
 8002fc8:	429a      	cmp	r2, r3
 8002fca:	d1eb      	bne.n	8002fa4 <HAL_RCC_ClockConfig+0xf8>
    }
  }

#if defined(FLASH_ACR_LATENCY)
  /* Decreasing the number of wait states because of lower CPU frequency */
  if (FLatency < __HAL_FLASH_GET_LATENCY())
 8002fcc:	4b27      	ldr	r3, [pc, #156]	@ (800306c <HAL_RCC_ClockConfig+0x1c0>)
 8002fce:	681b      	ldr	r3, [r3, #0]
 8002fd0:	f003 0307 	and.w	r3, r3, #7
 8002fd4:	683a      	ldr	r2, [r7, #0]
 8002fd6:	429a      	cmp	r2, r3
 8002fd8:	d210      	bcs.n	8002ffc <HAL_RCC_ClockConfig+0x150>
  {
    /* Program the new number of wait states to the LATENCY bits in the FLASH_ACR register */
    __HAL_FLASH_SET_LATENCY(FLatency);
 8002fda:	4b24      	ldr	r3, [pc, #144]	@ (800306c <HAL_RCC_ClockConfig+0x1c0>)
 8002fdc:	681b      	ldr	r3, [r3, #0]
 8002fde:	f023 0207 	bic.w	r2, r3, #7
 8002fe2:	4922      	ldr	r1, [pc, #136]	@ (800306c <HAL_RCC_ClockConfig+0x1c0>)
 8002fe4:	683b      	ldr	r3, [r7, #0]
 8002fe6:	4313      	orrs	r3, r2
 8002fe8:	600b      	str	r3, [r1, #0]

    /* Check that the new number of wait states is taken into account to access the Flash
    memory by reading the FLASH_ACR register */
    if (__HAL_FLASH_GET_LATENCY() != FLatency)
 8002fea:	4b20      	ldr	r3, [pc, #128]	@ (800306c <HAL_RCC_ClockConfig+0x1c0>)
 8002fec:	681b      	ldr	r3, [r3, #0]
 8002fee:	f003 0307 	and.w	r3, r3, #7
 8002ff2:	683a      	ldr	r2, [r7, #0]
 8002ff4:	429a      	cmp	r2, r3
 8002ff6:	d001      	beq.n	8002ffc <HAL_RCC_ClockConfig+0x150>
  {
    return HAL_ERROR;
 8002ff8:	2301      	movs	r3, #1
 8002ffa:	e032      	b.n	8003062 <HAL_RCC_ClockConfig+0x1b6>
  }
}
#endif /* FLASH_ACR_LATENCY */

/*-------------------------- PCLK1 Configuration ---------------------------*/
if (((RCC_ClkInitStruct->ClockType) & RCC_CLOCKTYPE_PCLK1) == RCC_CLOCKTYPE_PCLK1)
 8002ffc:	687b      	ldr	r3, [r7, #4]
 8002ffe:	681b      	ldr	r3, [r3, #0]
 8003000:	f003 0304 	and.w	r3, r3, #4
 8003004:	2b00      	cmp	r3, #0
 8003006:	d008      	beq.n	800301a <HAL_RCC_ClockConfig+0x16e>
  {
    assert_param(IS_RCC_PCLK(RCC_ClkInitStruct->APB1CLKDivider));
    MODIFY_REG(RCC->CFGR, RCC_CFGR_PPRE1, RCC_ClkInitStruct->APB1CLKDivider);
 8003008:	4b19      	ldr	r3, [pc, #100]	@ (8003070 <HAL_RCC_ClockConfig+0x1c4>)
 800300a:	685b      	ldr	r3, [r3, #4]
 800300c:	f423 62e0 	bic.w	r2, r3, #1792	@ 0x700
 8003010:	687b      	ldr	r3, [r7, #4]
 8003012:	68db      	ldr	r3, [r3, #12]
 8003014:	4916      	ldr	r1, [pc, #88]	@ (8003070 <HAL_RCC_ClockConfig+0x1c4>)
 8003016:	4313      	orrs	r3, r2
 8003018:	604b      	str	r3, [r1, #4]
  }

  /*-------------------------- PCLK2 Configuration ---------------------------*/
  if (((RCC_ClkInitStruct->ClockType) & RCC_CLOCKTYPE_PCLK2) == RCC_CLOCKTYPE_PCLK2)
 800301a:	687b      	ldr	r3, [r7, #4]
 800301c:	681b      	ldr	r3, [r3, #0]
 800301e:	f003 0308 	and.w	r3, r3, #8
 8003022:	2b00      	cmp	r3, #0
 8003024:	d009      	beq.n	800303a <HAL_RCC_ClockConfig+0x18e>
  {
    assert_param(IS_RCC_PCLK(RCC_ClkInitStruct->APB2CLKDivider));
    MODIFY_REG(RCC->CFGR, RCC_CFGR_PPRE2, ((RCC_ClkInitStruct->APB2CLKDivider) << 3));
 8003026:	4b12      	ldr	r3, [pc, #72]	@ (8003070 <HAL_RCC_ClockConfig+0x1c4>)
 8003028:	685b      	ldr	r3, [r3, #4]
 800302a:	f423 5260 	bic.w	r2, r3, #14336	@ 0x3800
 800302e:	687b      	ldr	r3, [r7, #4]
 8003030:	691b      	ldr	r3, [r3, #16]
 8003032:	00db      	lsls	r3, r3, #3
 8003034:	490e      	ldr	r1, [pc, #56]	@ (8003070 <HAL_RCC_ClockConfig+0x1c4>)
 8003036:	4313      	orrs	r3, r2
 8003038:	604b      	str	r3, [r1, #4]
  }

  /* Update the SystemCoreClock global variable */
  SystemCoreClock = HAL_RCC_GetSysClockFreq() >> AHBPrescTable[(RCC->CFGR & RCC_CFGR_HPRE) >> RCC_CFGR_HPRE_Pos];
 800303a:	f000 f821 	bl	8003080 <HAL_RCC_GetSysClockFreq>
 800303e:	4602      	mov	r2, r0
 8003040:	4b0b      	ldr	r3, [pc, #44]	@ (8003070 <HAL_RCC_ClockConfig+0x1c4>)
 8003042:	685b      	ldr	r3, [r3, #4]
 8003044:	091b      	lsrs	r3, r3, #4
 8003046:	f003 030f 	and.w	r3, r3, #15
 800304a:	490a      	ldr	r1, [pc, #40]	@ (8003074 <HAL_RCC_ClockConfig+0x1c8>)
 800304c:	5ccb      	ldrb	r3, [r1, r3]
 800304e:	fa22 f303 	lsr.w	r3, r2, r3
 8003052:	4a09      	ldr	r2, [pc, #36]	@ (8003078 <HAL_RCC_ClockConfig+0x1cc>)
 8003054:	6013      	str	r3, [r2, #0]

  /* Configure the source of time base considering new system clocks settings*/
  HAL_InitTick(uwTickPrio);
 8003056:	4b09      	ldr	r3, [pc, #36]	@ (800307c <HAL_RCC_ClockConfig+0x1d0>)
 8003058:	681b      	ldr	r3, [r3, #0]
 800305a:	4618      	mov	r0, r3
 800305c:	f7fd fc28 	bl	80008b0 <HAL_InitTick>

  return HAL_OK;
 8003060:	2300      	movs	r3, #0
}
 8003062:	4618      	mov	r0, r3
 8003064:	3710      	adds	r7, #16
 8003066:	46bd      	mov	sp, r7
 8003068:	bd80      	pop	{r7, pc}
 800306a:	bf00      	nop
 800306c:	40022000 	.word	0x40022000
 8003070:	40021000 	.word	0x40021000
 8003074:	08007c80 	.word	0x08007c80
 8003078:	20000000 	.word	0x20000000
 800307c:	20000004 	.word	0x20000004

08003080 <HAL_RCC_GetSysClockFreq>:
  *         right SYSCLK value. Otherwise, any configuration based on this function will be incorrect.
  *
  * @retval SYSCLK frequency
  */
uint32_t HAL_RCC_GetSysClockFreq(void)
{
 8003080:	b480      	push	{r7}
 8003082:	b087      	sub	sp, #28
 8003084:	af00      	add	r7, sp, #0
#else
  static const uint8_t aPredivFactorTable[2U] = {1, 2};
#endif /*RCC_CFGR2_PREDIV1*/

#endif
  uint32_t tmpreg = 0U, prediv = 0U, pllclk = 0U, pllmul = 0U;
 8003086:	2300      	movs	r3, #0
 8003088:	60fb      	str	r3, [r7, #12]
 800308a:	2300      	movs	r3, #0
 800308c:	60bb      	str	r3, [r7, #8]
 800308e:	2300      	movs	r3, #0
 8003090:	617b      	str	r3, [r7, #20]
 8003092:	2300      	movs	r3, #0
 8003094:	607b      	str	r3, [r7, #4]
  uint32_t sysclockfreq = 0U;
 8003096:	2300      	movs	r3, #0
 8003098:	613b      	str	r3, [r7, #16]
#if defined(RCC_CFGR2_PREDIV1SRC)
  uint32_t prediv2 = 0U, pll2mul = 0U;
#endif /*RCC_CFGR2_PREDIV1SRC*/

  tmpreg = RCC->CFGR;
 800309a:	4b1e      	ldr	r3, [pc, #120]	@ (8003114 <HAL_RCC_GetSysClockFreq+0x94>)
 800309c:	685b      	ldr	r3, [r3, #4]
 800309e:	60fb      	str	r3, [r7, #12]

  /* Get SYSCLK source -------------------------------------------------------*/
  switch (tmpreg & RCC_CFGR_SWS)
 80030a0:	68fb      	ldr	r3, [r7, #12]
 80030a2:	f003 030c 	and.w	r3, r3, #12
 80030a6:	2b04      	cmp	r3, #4
 80030a8:	d002      	beq.n	80030b0 <HAL_RCC_GetSysClockFreq+0x30>
 80030aa:	2b08      	cmp	r3, #8
 80030ac:	d003      	beq.n	80030b6 <HAL_RCC_GetSysClockFreq+0x36>
 80030ae:	e027      	b.n	8003100 <HAL_RCC_GetSysClockFreq+0x80>
  {
    case RCC_SYSCLKSOURCE_STATUS_HSE:  /* HSE used as system clock */
    {
      sysclockfreq = HSE_VALUE;
 80030b0:	4b19      	ldr	r3, [pc, #100]	@ (8003118 <HAL_RCC_GetSysClockFreq+0x98>)
 80030b2:	613b      	str	r3, [r7, #16]
      break;
 80030b4:	e027      	b.n	8003106 <HAL_RCC_GetSysClockFreq+0x86>
    }
    case RCC_SYSCLKSOURCE_STATUS_PLLCLK:  /* PLL used as system clock */
    {
      pllmul = aPLLMULFactorTable[(uint32_t)(tmpreg & RCC_CFGR_PLLMULL) >> RCC_CFGR_PLLMULL_Pos];
 80030b6:	68fb      	ldr	r3, [r7, #12]
 80030b8:	0c9b      	lsrs	r3, r3, #18
 80030ba:	f003 030f 	and.w	r3, r3, #15
 80030be:	4a17      	ldr	r2, [pc, #92]	@ (800311c <HAL_RCC_GetSysClockFreq+0x9c>)
 80030c0:	5cd3      	ldrb	r3, [r2, r3]
 80030c2:	607b      	str	r3, [r7, #4]
      if ((tmpreg & RCC_CFGR_PLLSRC) != RCC_PLLSOURCE_HSI_DIV2)
 80030c4:	68fb      	ldr	r3, [r7, #12]
 80030c6:	f403 3380 	and.w	r3, r3, #65536	@ 0x10000
 80030ca:	2b00      	cmp	r3, #0
 80030cc:	d010      	beq.n	80030f0 <HAL_RCC_GetSysClockFreq+0x70>
      {
#if defined(RCC_CFGR2_PREDIV1)
        prediv = aPredivFactorTable[(uint32_t)(RCC->CFGR2 & RCC_CFGR2_PREDIV1) >> RCC_CFGR2_PREDIV1_Pos];
#else
        prediv = aPredivFactorTable[(uint32_t)(RCC->CFGR & RCC_CFGR_PLLXTPRE) >> RCC_CFGR_PLLXTPRE_Pos];
 80030ce:	4b11      	ldr	r3, [pc, #68]	@ (8003114 <HAL_RCC_GetSysClockFreq+0x94>)
 80030d0:	685b      	ldr	r3, [r3, #4]
 80030d2:	0c5b      	lsrs	r3, r3, #17
 80030d4:	f003 0301 	and.w	r3, r3, #1
 80030d8:	4a11      	ldr	r2, [pc, #68]	@ (8003120 <HAL_RCC_GetSysClockFreq+0xa0>)
 80030da:	5cd3      	ldrb	r3, [r2, r3]
 80030dc:	60bb      	str	r3, [r7, #8]
        {
          pllclk = pllclk / 2;
        }
#else
        /* HSE used as PLL clock source : PLLCLK = HSE/PREDIV1 * PLLMUL */
        pllclk = (uint32_t)((HSE_VALUE  * pllmul) / prediv);
 80030de:	687b      	ldr	r3, [r7, #4]
 80030e0:	4a0d      	ldr	r2, [pc, #52]	@ (8003118 <HAL_RCC_GetSysClockFreq+0x98>)
 80030e2:	fb03 f202 	mul.w	r2, r3, r2
 80030e6:	68bb      	ldr	r3, [r7, #8]
 80030e8:	fbb2 f3f3 	udiv	r3, r2, r3
 80030ec:	617b      	str	r3, [r7, #20]
 80030ee:	e004      	b.n	80030fa <HAL_RCC_GetSysClockFreq+0x7a>
#endif /*RCC_CFGR2_PREDIV1SRC*/
      }
      else
      {
        /* HSI used as PLL clock source : PLLCLK = HSI/2 * PLLMUL */
        pllclk = (uint32_t)((HSI_VALUE >> 1) * pllmul);
 80030f0:	687b      	ldr	r3, [r7, #4]
 80030f2:	4a0c      	ldr	r2, [pc, #48]	@ (8003124 <HAL_RCC_GetSysClockFreq+0xa4>)
 80030f4:	fb02 f303 	mul.w	r3, r2, r3
 80030f8:	617b      	str	r3, [r7, #20]
      }
      sysclockfreq = pllclk;
 80030fa:	697b      	ldr	r3, [r7, #20]
 80030fc:	613b      	str	r3, [r7, #16]
      break;
 80030fe:	e002      	b.n	8003106 <HAL_RCC_GetSysClockFreq+0x86>
    }
    case RCC_SYSCLKSOURCE_STATUS_HSI:  /* HSI used as system clock source */
    default: /* HSI used as system clock */
    {
      sysclockfreq = HSI_VALUE;
 8003100:	4b05      	ldr	r3, [pc, #20]	@ (8003118 <HAL_RCC_GetSysClockFreq+0x98>)
 8003102:	613b      	str	r3, [r7, #16]
      break;
 8003104:	bf00      	nop
    }
  }
  return sysclockfreq;
 8003106:	693b      	ldr	r3, [r7, #16]
}
 8003108:	4618      	mov	r0, r3
 800310a:	371c      	adds	r7, #28
 800310c:	46bd      	mov	sp, r7
 800310e:	bc80      	pop	{r7}
 8003110:	4770      	bx	lr
 8003112:	bf00      	nop
 8003114:	40021000 	.word	0x40021000
 8003118:	007a1200 	.word	0x007a1200
 800311c:	08007c98 	.word	0x08007c98
 8003120:	08007ca8 	.word	0x08007ca8
 8003124:	003d0900 	.word	0x003d0900

08003128 <RCC_Delay>:
  * @brief  This function provides delay (in milliseconds) based on CPU cycles method.
  * @param  mdelay: specifies the delay time length, in milliseconds.
  * @retval None
  */
static void RCC_Delay(uint32_t mdelay)
{
 8003128:	b480      	push	{r7}
 800312a:	b085      	sub	sp, #20
 800312c:	af00      	add	r7, sp, #0
 800312e:	6078      	str	r0, [r7, #4]
  __IO uint32_t Delay = mdelay * (SystemCoreClock / 8U / 1000U);
 8003130:	4b0a      	ldr	r3, [pc, #40]	@ (800315c <RCC_Delay+0x34>)
 8003132:	681b      	ldr	r3, [r3, #0]
 8003134:	4a0a      	ldr	r2, [pc, #40]	@ (8003160 <RCC_Delay+0x38>)
 8003136:	fba2 2303 	umull	r2, r3, r2, r3
 800313a:	0a5b      	lsrs	r3, r3, #9
 800313c:	687a      	ldr	r2, [r7, #4]
 800313e:	fb02 f303 	mul.w	r3, r2, r3
 8003142:	60fb      	str	r3, [r7, #12]
  do
  {
    __NOP();
 8003144:	bf00      	nop
  }
  while (Delay --);
 8003146:	68fb      	ldr	r3, [r7, #12]
 8003148:	1e5a      	subs	r2, r3, #1
 800314a:	60fa      	str	r2, [r7, #12]
 800314c:	2b00      	cmp	r3, #0
 800314e:	d1f9      	bne.n	8003144 <RCC_Delay+0x1c>
}
 8003150:	bf00      	nop
 8003152:	bf00      	nop
 8003154:	3714      	adds	r7, #20
 8003156:	46bd      	mov	sp, r7
 8003158:	bc80      	pop	{r7}
 800315a:	4770      	bx	lr
 800315c:	20000000 	.word	0x20000000
 8003160:	10624dd3 	.word	0x10624dd3

08003164 <HAL_RCCEx_PeriphCLKConfig>:
  *         manually disable it.
  *
  * @retval HAL status
  */
HAL_StatusTypeDef HAL_RCCEx_PeriphCLKConfig(RCC_PeriphCLKInitTypeDef  *PeriphClkInit)
{
 8003164:	b580      	push	{r7, lr}
 8003166:	b086      	sub	sp, #24
 8003168:	af00      	add	r7, sp, #0
 800316a:	6078      	str	r0, [r7, #4]
  uint32_t tickstart = 0U, temp_reg = 0U;
 800316c:	2300      	movs	r3, #0
 800316e:	613b      	str	r3, [r7, #16]
 8003170:	2300      	movs	r3, #0
 8003172:	60fb      	str	r3, [r7, #12]

  /* Check the parameters */
  assert_param(IS_RCC_PERIPHCLOCK(PeriphClkInit->PeriphClockSelection));

  /*------------------------------- RTC/LCD Configuration ------------------------*/
  if ((((PeriphClkInit->PeriphClockSelection) & RCC_PERIPHCLK_RTC) == RCC_PERIPHCLK_RTC))
 8003174:	687b      	ldr	r3, [r7, #4]
 8003176:	681b      	ldr	r3, [r3, #0]
 8003178:	f003 0301 	and.w	r3, r3, #1
 800317c:	2b00      	cmp	r3, #0
 800317e:	d07d      	beq.n	800327c <HAL_RCCEx_PeriphCLKConfig+0x118>
  {
    FlagStatus pwrclkchanged = RESET;
 8003180:	2300      	movs	r3, #0
 8003182:	75fb      	strb	r3, [r7, #23]
    assert_param(IS_RCC_RTCCLKSOURCE(PeriphClkInit->RTCClockSelection));

    /* As soon as function is called to change RTC clock source, activation of the
       power domain is done. */
    /* Requires to enable write access to Backup Domain of necessary */
    if (__HAL_RCC_PWR_IS_CLK_DISABLED())
 8003184:	4b4f      	ldr	r3, [pc, #316]	@ (80032c4 <HAL_RCCEx_PeriphCLKConfig+0x160>)
 8003186:	69db      	ldr	r3, [r3, #28]
 8003188:	f003 5380 	and.w	r3, r3, #268435456	@ 0x10000000
 800318c:	2b00      	cmp	r3, #0
 800318e:	d10d      	bne.n	80031ac <HAL_RCCEx_PeriphCLKConfig+0x48>
    {
      __HAL_RCC_PWR_CLK_ENABLE();
 8003190:	4b4c      	ldr	r3, [pc, #304]	@ (80032c4 <HAL_RCCEx_PeriphCLKConfig+0x160>)
 8003192:	69db      	ldr	r3, [r3, #28]
 8003194:	4a4b      	ldr	r2, [pc, #300]	@ (80032c4 <HAL_RCCEx_PeriphCLKConfig+0x160>)
 8003196:	f043 5380 	orr.w	r3, r3, #268435456	@ 0x10000000
 800319a:	61d3      	str	r3, [r2, #28]
 800319c:	4b49      	ldr	r3, [pc, #292]	@ (80032c4 <HAL_RCCEx_PeriphCLKConfig+0x160>)
 800319e:	69db      	ldr	r3, [r3, #28]
 80031a0:	f003 5380 	and.w	r3, r3, #268435456	@ 0x10000000
 80031a4:	60bb      	str	r3, [r7, #8]
 80031a6:	68bb      	ldr	r3, [r7, #8]
      pwrclkchanged = SET;
 80031a8:	2301      	movs	r3, #1
 80031aa:	75fb      	strb	r3, [r7, #23]
    }

    if (HAL_IS_BIT_CLR(PWR->CR, PWR_CR_DBP))
 80031ac:	4b46      	ldr	r3, [pc, #280]	@ (80032c8 <HAL_RCCEx_PeriphCLKConfig+0x164>)
 80031ae:	681b      	ldr	r3, [r3, #0]
 80031b0:	f403 7380 	and.w	r3, r3, #256	@ 0x100
 80031b4:	2b00      	cmp	r3, #0
 80031b6:	d118      	bne.n	80031ea <HAL_RCCEx_PeriphCLKConfig+0x86>
    {
      /* Enable write access to Backup domain */
      SET_BIT(PWR->CR, PWR_CR_DBP);
 80031b8:	4b43      	ldr	r3, [pc, #268]	@ (80032c8 <HAL_RCCEx_PeriphCLKConfig+0x164>)
 80031ba:	681b      	ldr	r3, [r3, #0]
 80031bc:	4a42      	ldr	r2, [pc, #264]	@ (80032c8 <HAL_RCCEx_PeriphCLKConfig+0x164>)
 80031be:	f443 7380 	orr.w	r3, r3, #256	@ 0x100
 80031c2:	6013      	str	r3, [r2, #0]

      /* Wait for Backup domain Write protection disable */
      tickstart = HAL_GetTick();
 80031c4:	f7fd fbb6 	bl	8000934 <HAL_GetTick>
 80031c8:	6138      	str	r0, [r7, #16]

      while (HAL_IS_BIT_CLR(PWR->CR, PWR_CR_DBP))
 80031ca:	e008      	b.n	80031de <HAL_RCCEx_PeriphCLKConfig+0x7a>
      {
        if ((HAL_GetTick() - tickstart) > RCC_DBP_TIMEOUT_VALUE)
 80031cc:	f7fd fbb2 	bl	8000934 <HAL_GetTick>
 80031d0:	4602      	mov	r2, r0
 80031d2:	693b      	ldr	r3, [r7, #16]
 80031d4:	1ad3      	subs	r3, r2, r3
 80031d6:	2b64      	cmp	r3, #100	@ 0x64
 80031d8:	d901      	bls.n	80031de <HAL_RCCEx_PeriphCLKConfig+0x7a>
        {
          return HAL_TIMEOUT;
 80031da:	2303      	movs	r3, #3
 80031dc:	e06d      	b.n	80032ba <HAL_RCCEx_PeriphCLKConfig+0x156>
      while (HAL_IS_BIT_CLR(PWR->CR, PWR_CR_DBP))
 80031de:	4b3a      	ldr	r3, [pc, #232]	@ (80032c8 <HAL_RCCEx_PeriphCLKConfig+0x164>)
 80031e0:	681b      	ldr	r3, [r3, #0]
 80031e2:	f403 7380 	and.w	r3, r3, #256	@ 0x100
 80031e6:	2b00      	cmp	r3, #0
 80031e8:	d0f0      	beq.n	80031cc <HAL_RCCEx_PeriphCLKConfig+0x68>
        }
      }
    }

    /* Reset the Backup domain only if the RTC Clock source selection is modified from reset value */
    temp_reg = (RCC->BDCR & RCC_BDCR_RTCSEL);
 80031ea:	4b36      	ldr	r3, [pc, #216]	@ (80032c4 <HAL_RCCEx_PeriphCLKConfig+0x160>)
 80031ec:	6a1b      	ldr	r3, [r3, #32]
 80031ee:	f403 7340 	and.w	r3, r3, #768	@ 0x300
 80031f2:	60fb      	str	r3, [r7, #12]
    if ((temp_reg != 0x00000000U) && (temp_reg != (PeriphClkInit->RTCClockSelection & RCC_BDCR_RTCSEL)))
 80031f4:	68fb      	ldr	r3, [r7, #12]
 80031f6:	2b00      	cmp	r3, #0
 80031f8:	d02e      	beq.n	8003258 <HAL_RCCEx_PeriphCLKConfig+0xf4>
 80031fa:	687b      	ldr	r3, [r7, #4]
 80031fc:	685b      	ldr	r3, [r3, #4]
 80031fe:	f403 7340 	and.w	r3, r3, #768	@ 0x300
 8003202:	68fa      	ldr	r2, [r7, #12]
 8003204:	429a      	cmp	r2, r3
 8003206:	d027      	beq.n	8003258 <HAL_RCCEx_PeriphCLKConfig+0xf4>
    {
      /* Store the content of BDCR register before the reset of Backup Domain */
      temp_reg = (RCC->BDCR & ~(RCC_BDCR_RTCSEL));
 8003208:	4b2e      	ldr	r3, [pc, #184]	@ (80032c4 <HAL_RCCEx_PeriphCLKConfig+0x160>)
 800320a:	6a1b      	ldr	r3, [r3, #32]
 800320c:	f423 7340 	bic.w	r3, r3, #768	@ 0x300
 8003210:	60fb      	str	r3, [r7, #12]
      /* RTC Clock selection can be changed only if the Backup Domain is reset */
      __HAL_RCC_BACKUPRESET_FORCE();
 8003212:	4b2e      	ldr	r3, [pc, #184]	@ (80032cc <HAL_RCCEx_PeriphCLKConfig+0x168>)
 8003214:	2201      	movs	r2, #1
 8003216:	601a      	str	r2, [r3, #0]
      __HAL_RCC_BACKUPRESET_RELEASE();
 8003218:	4b2c      	ldr	r3, [pc, #176]	@ (80032cc <HAL_RCCEx_PeriphCLKConfig+0x168>)
 800321a:	2200      	movs	r2, #0
 800321c:	601a      	str	r2, [r3, #0]
      /* Restore the Content of BDCR register */
      RCC->BDCR = temp_reg;
 800321e:	4a29      	ldr	r2, [pc, #164]	@ (80032c4 <HAL_RCCEx_PeriphCLKConfig+0x160>)
 8003220:	68fb      	ldr	r3, [r7, #12]
 8003222:	6213      	str	r3, [r2, #32]

      /* Wait for LSERDY if LSE was enabled */
      if (HAL_IS_BIT_SET(temp_reg, RCC_BDCR_LSEON))
 8003224:	68fb      	ldr	r3, [r7, #12]
 8003226:	f003 0301 	and.w	r3, r3, #1
 800322a:	2b00      	cmp	r3, #0
 800322c:	d014      	beq.n	8003258 <HAL_RCCEx_PeriphCLKConfig+0xf4>
      {
        /* Get Start Tick */
        tickstart = HAL_GetTick();
 800322e:	f7fd fb81 	bl	8000934 <HAL_GetTick>
 8003232:	6138      	str	r0, [r7, #16]

        /* Wait till LSE is ready */
        while (__HAL_RCC_GET_FLAG(RCC_FLAG_LSERDY) == RESET)
 8003234:	e00a      	b.n	800324c <HAL_RCCEx_PeriphCLKConfig+0xe8>
        {
          if ((HAL_GetTick() - tickstart) > RCC_LSE_TIMEOUT_VALUE)
 8003236:	f7fd fb7d 	bl	8000934 <HAL_GetTick>
 800323a:	4602      	mov	r2, r0
 800323c:	693b      	ldr	r3, [r7, #16]
 800323e:	1ad3      	subs	r3, r2, r3
 8003240:	f241 3288 	movw	r2, #5000	@ 0x1388
 8003244:	4293      	cmp	r3, r2
 8003246:	d901      	bls.n	800324c <HAL_RCCEx_PeriphCLKConfig+0xe8>
          {
            return HAL_TIMEOUT;
 8003248:	2303      	movs	r3, #3
 800324a:	e036      	b.n	80032ba <HAL_RCCEx_PeriphCLKConfig+0x156>
        while (__HAL_RCC_GET_FLAG(RCC_FLAG_LSERDY) == RESET)
 800324c:	4b1d      	ldr	r3, [pc, #116]	@ (80032c4 <HAL_RCCEx_PeriphCLKConfig+0x160>)
 800324e:	6a1b      	ldr	r3, [r3, #32]
 8003250:	f003 0302 	and.w	r3, r3, #2
 8003254:	2b00      	cmp	r3, #0
 8003256:	d0ee      	beq.n	8003236 <HAL_RCCEx_PeriphCLKConfig+0xd2>
          }
        }
      }
    }
    __HAL_RCC_RTC_CONFIG(PeriphClkInit->RTCClockSelection);
 8003258:	4b1a      	ldr	r3, [pc, #104]	@ (80032c4 <HAL_RCCEx_PeriphCLKConfig+0x160>)
 800325a:	6a1b      	ldr	r3, [r3, #32]
 800325c:	f423 7240 	bic.w	r2, r3, #768	@ 0x300
 8003260:	687b      	ldr	r3, [r7, #4]
 8003262:	685b      	ldr	r3, [r3, #4]
 8003264:	4917      	ldr	r1, [pc, #92]	@ (80032c4 <HAL_RCCEx_PeriphCLKConfig+0x160>)
 8003266:	4313      	orrs	r3, r2
 8003268:	620b      	str	r3, [r1, #32]

    /* Require to disable power clock if necessary */
    if (pwrclkchanged == SET)
 800326a:	7dfb      	ldrb	r3, [r7, #23]
 800326c:	2b01      	cmp	r3, #1
 800326e:	d105      	bne.n	800327c <HAL_RCCEx_PeriphCLKConfig+0x118>
    {
      __HAL_RCC_PWR_CLK_DISABLE();
 8003270:	4b14      	ldr	r3, [pc, #80]	@ (80032c4 <HAL_RCCEx_PeriphCLKConfig+0x160>)
 8003272:	69db      	ldr	r3, [r3, #28]
 8003274:	4a13      	ldr	r2, [pc, #76]	@ (80032c4 <HAL_RCCEx_PeriphCLKConfig+0x160>)
 8003276:	f023 5380 	bic.w	r3, r3, #268435456	@ 0x10000000
 800327a:	61d3      	str	r3, [r2, #28]
    }
  }

  /*------------------------------ ADC clock Configuration ------------------*/
  if (((PeriphClkInit->PeriphClockSelection) & RCC_PERIPHCLK_ADC) == RCC_PERIPHCLK_ADC)
 800327c:	687b      	ldr	r3, [r7, #4]
 800327e:	681b      	ldr	r3, [r3, #0]
 8003280:	f003 0302 	and.w	r3, r3, #2
 8003284:	2b00      	cmp	r3, #0
 8003286:	d008      	beq.n	800329a <HAL_RCCEx_PeriphCLKConfig+0x136>
  {
    /* Check the parameters */
    assert_param(IS_RCC_ADCPLLCLK_DIV(PeriphClkInit->AdcClockSelection));

    /* Configure the ADC clock source */
    __HAL_RCC_ADC_CONFIG(PeriphClkInit->AdcClockSelection);
 8003288:	4b0e      	ldr	r3, [pc, #56]	@ (80032c4 <HAL_RCCEx_PeriphCLKConfig+0x160>)
 800328a:	685b      	ldr	r3, [r3, #4]
 800328c:	f423 4240 	bic.w	r2, r3, #49152	@ 0xc000
 8003290:	687b      	ldr	r3, [r7, #4]
 8003292:	689b      	ldr	r3, [r3, #8]
 8003294:	490b      	ldr	r1, [pc, #44]	@ (80032c4 <HAL_RCCEx_PeriphCLKConfig+0x160>)
 8003296:	4313      	orrs	r3, r2
 8003298:	604b      	str	r3, [r1, #4]

#if defined(STM32F102x6) || defined(STM32F102xB) || defined(STM32F103x6)\
 || defined(STM32F103xB) || defined(STM32F103xE) || defined(STM32F103xG)\
 || defined(STM32F105xC) || defined(STM32F107xC)
  /*------------------------------ USB clock Configuration ------------------*/
  if (((PeriphClkInit->PeriphClockSelection) & RCC_PERIPHCLK_USB) == RCC_PERIPHCLK_USB)
 800329a:	687b      	ldr	r3, [r7, #4]
 800329c:	681b      	ldr	r3, [r3, #0]
 800329e:	f003 0310 	and.w	r3, r3, #16
 80032a2:	2b00      	cmp	r3, #0
 80032a4:	d008      	beq.n	80032b8 <HAL_RCCEx_PeriphCLKConfig+0x154>
  {
    /* Check the parameters */
    assert_param(IS_RCC_USBPLLCLK_DIV(PeriphClkInit->UsbClockSelection));

    /* Configure the USB clock source */
    __HAL_RCC_USB_CONFIG(PeriphClkInit->UsbClockSelection);
 80032a6:	4b07      	ldr	r3, [pc, #28]	@ (80032c4 <HAL_RCCEx_PeriphCLKConfig+0x160>)
 80032a8:	685b      	ldr	r3, [r3, #4]
 80032aa:	f423 0280 	bic.w	r2, r3, #4194304	@ 0x400000
 80032ae:	687b      	ldr	r3, [r7, #4]
 80032b0:	68db      	ldr	r3, [r3, #12]
 80032b2:	4904      	ldr	r1, [pc, #16]	@ (80032c4 <HAL_RCCEx_PeriphCLKConfig+0x160>)
 80032b4:	4313      	orrs	r3, r2
 80032b6:	604b      	str	r3, [r1, #4]
  }
#endif /* STM32F102x6 || STM32F102xB || STM32F103x6 || STM32F103xB || STM32F103xE || STM32F103xG || STM32F105xC || STM32F107xC */

  return HAL_OK;
 80032b8:	2300      	movs	r3, #0
}
 80032ba:	4618      	mov	r0, r3
 80032bc:	3718      	adds	r7, #24
 80032be:	46bd      	mov	sp, r7
 80032c0:	bd80      	pop	{r7, pc}
 80032c2:	bf00      	nop
 80032c4:	40021000 	.word	0x40021000
 80032c8:	40007000 	.word	0x40007000
 80032cc:	42420440 	.word	0x42420440

080032d0 <LL_GPIO_SetPinMode>:
  *         @arg @ref LL_GPIO_MODE_OUTPUT
  *         @arg @ref LL_GPIO_MODE_ALTERNATE
  * @retval None
  */
__STATIC_INLINE void LL_GPIO_SetPinMode(GPIO_TypeDef *GPIOx, uint32_t Pin, uint32_t Mode)
{
 80032d0:	b490      	push	{r4, r7}
 80032d2:	b088      	sub	sp, #32
 80032d4:	af00      	add	r7, sp, #0
 80032d6:	60f8      	str	r0, [r7, #12]
 80032d8:	60b9      	str	r1, [r7, #8]
 80032da:	607a      	str	r2, [r7, #4]
  register uint32_t *pReg = (uint32_t *)((uint32_t)((uint32_t)(&GPIOx->CRL) + (Pin >> 24)));
 80032dc:	68fb      	ldr	r3, [r7, #12]
 80032de:	461a      	mov	r2, r3
 80032e0:	68bb      	ldr	r3, [r7, #8]
 80032e2:	0e1b      	lsrs	r3, r3, #24
 80032e4:	4413      	add	r3, r2
 80032e6:	461c      	mov	r4, r3
  MODIFY_REG(*pReg, ((GPIO_CRL_CNF0 | GPIO_CRL_MODE0) << (POSITION_VAL(Pin) * 4U)), (Mode << (POSITION_VAL(Pin) * 4U)));
 80032e8:	6822      	ldr	r2, [r4, #0]
 80032ea:	68bb      	ldr	r3, [r7, #8]
 80032ec:	617b      	str	r3, [r7, #20]
  uint32_t result;

#if ((defined (__ARM_ARCH_7M__      ) && (__ARM_ARCH_7M__      == 1)) || \
     (defined (__ARM_ARCH_7EM__     ) && (__ARM_ARCH_7EM__     == 1)) || \
     (defined (__ARM_ARCH_8M_MAIN__ ) && (__ARM_ARCH_8M_MAIN__ == 1))    )
   __ASM volatile ("rbit %0, %1" : "=r" (result) : "r" (value) );
 80032ee:	697b      	ldr	r3, [r7, #20]
 80032f0:	fa93 f3a3 	rbit	r3, r3
 80032f4:	613b      	str	r3, [r7, #16]
    result |= value & 1U;
    s--;
  }
  result <<= s;                        /* shift when v's highest bits are zero */
#endif
  return result;
 80032f6:	693b      	ldr	r3, [r7, #16]
 80032f8:	fab3 f383 	clz	r3, r3
 80032fc:	b2db      	uxtb	r3, r3
 80032fe:	009b      	lsls	r3, r3, #2
 8003300:	210f      	movs	r1, #15
 8003302:	fa01 f303 	lsl.w	r3, r1, r3
 8003306:	43db      	mvns	r3, r3
 8003308:	401a      	ands	r2, r3
 800330a:	68bb      	ldr	r3, [r7, #8]
 800330c:	61fb      	str	r3, [r7, #28]
   __ASM volatile ("rbit %0, %1" : "=r" (result) : "r" (value) );
 800330e:	69fb      	ldr	r3, [r7, #28]
 8003310:	fa93 f3a3 	rbit	r3, r3
 8003314:	61bb      	str	r3, [r7, #24]
  return result;
 8003316:	69bb      	ldr	r3, [r7, #24]
 8003318:	fab3 f383 	clz	r3, r3
 800331c:	b2db      	uxtb	r3, r3
 800331e:	009b      	lsls	r3, r3, #2
 8003320:	6879      	ldr	r1, [r7, #4]
 8003322:	fa01 f303 	lsl.w	r3, r1, r3
 8003326:	4313      	orrs	r3, r2
 8003328:	6023      	str	r3, [r4, #0]
}
 800332a:	bf00      	nop
 800332c:	3720      	adds	r7, #32
 800332e:	46bd      	mov	sp, r7
 8003330:	bc90      	pop	{r4, r7}
 8003332:	4770      	bx	lr

08003334 <LL_GPIO_SetPinSpeed>:
  *         @arg @ref LL_GPIO_SPEED_FREQ_MEDIUM
  *         @arg @ref LL_GPIO_SPEED_FREQ_HIGH
  * @retval None
  */
__STATIC_INLINE void LL_GPIO_SetPinSpeed(GPIO_TypeDef *GPIOx, uint32_t Pin, uint32_t  Speed)
{
 8003334:	b490      	push	{r4, r7}
 8003336:	b088      	sub	sp, #32
 8003338:	af00      	add	r7, sp, #0
 800333a:	60f8      	str	r0, [r7, #12]
 800333c:	60b9      	str	r1, [r7, #8]
 800333e:	607a      	str	r2, [r7, #4]
  register uint32_t *pReg = (uint32_t *)((uint32_t)((uint32_t)(&GPIOx->CRL) + (Pin >> 24)));
 8003340:	68fb      	ldr	r3, [r7, #12]
 8003342:	461a      	mov	r2, r3
 8003344:	68bb      	ldr	r3, [r7, #8]
 8003346:	0e1b      	lsrs	r3, r3, #24
 8003348:	4413      	add	r3, r2
 800334a:	461c      	mov	r4, r3
  MODIFY_REG(*pReg, (GPIO_CRL_MODE0 << (POSITION_VAL(Pin) * 4U)),
 800334c:	6822      	ldr	r2, [r4, #0]
 800334e:	68bb      	ldr	r3, [r7, #8]
 8003350:	617b      	str	r3, [r7, #20]
   __ASM volatile ("rbit %0, %1" : "=r" (result) : "r" (value) );
 8003352:	697b      	ldr	r3, [r7, #20]
 8003354:	fa93 f3a3 	rbit	r3, r3
 8003358:	613b      	str	r3, [r7, #16]
  return result;
 800335a:	693b      	ldr	r3, [r7, #16]
 800335c:	fab3 f383 	clz	r3, r3
 8003360:	b2db      	uxtb	r3, r3
 8003362:	009b      	lsls	r3, r3, #2
 8003364:	2103      	movs	r1, #3
 8003366:	fa01 f303 	lsl.w	r3, r1, r3
 800336a:	43db      	mvns	r3, r3
 800336c:	401a      	ands	r2, r3
 800336e:	68bb      	ldr	r3, [r7, #8]
 8003370:	61fb      	str	r3, [r7, #28]
   __ASM volatile ("rbit %0, %1" : "=r" (result) : "r" (value) );
 8003372:	69fb      	ldr	r3, [r7, #28]
 8003374:	fa93 f3a3 	rbit	r3, r3
 8003378:	61bb      	str	r3, [r7, #24]
  return result;
 800337a:	69bb      	ldr	r3, [r7, #24]
 800337c:	fab3 f383 	clz	r3, r3
 8003380:	b2db      	uxtb	r3, r3
 8003382:	009b      	lsls	r3, r3, #2
 8003384:	6879      	ldr	r1, [r7, #4]
 8003386:	fa01 f303 	lsl.w	r3, r1, r3
 800338a:	4313      	orrs	r3, r2
 800338c:	6023      	str	r3, [r4, #0]
             (Speed << (POSITION_VAL(Pin) * 4U)));
}
 800338e:	bf00      	nop
 8003390:	3720      	adds	r7, #32
 8003392:	46bd      	mov	sp, r7
 8003394:	bc90      	pop	{r4, r7}
 8003396:	4770      	bx	lr

08003398 <LL_GPIO_SetPinOutputType>:
  *         @arg @ref LL_GPIO_OUTPUT_PUSHPULL
  *         @arg @ref LL_GPIO_OUTPUT_OPENDRAIN
  * @retval None
  */
__STATIC_INLINE void LL_GPIO_SetPinOutputType(GPIO_TypeDef *GPIOx, uint32_t Pin, uint32_t OutputType)
{
 8003398:	b490      	push	{r4, r7}
 800339a:	b088      	sub	sp, #32
 800339c:	af00      	add	r7, sp, #0
 800339e:	60f8      	str	r0, [r7, #12]
 80033a0:	60b9      	str	r1, [r7, #8]
 80033a2:	607a      	str	r2, [r7, #4]
  register uint32_t *pReg = (uint32_t *)((uint32_t)((uint32_t)(&GPIOx->CRL) + (Pin >> 24)));
 80033a4:	68fb      	ldr	r3, [r7, #12]
 80033a6:	461a      	mov	r2, r3
 80033a8:	68bb      	ldr	r3, [r7, #8]
 80033aa:	0e1b      	lsrs	r3, r3, #24
 80033ac:	4413      	add	r3, r2
 80033ae:	461c      	mov	r4, r3
  MODIFY_REG(*pReg, (GPIO_CRL_CNF0_0 << (POSITION_VAL(Pin) * 4U)),
 80033b0:	6822      	ldr	r2, [r4, #0]
 80033b2:	68bb      	ldr	r3, [r7, #8]
 80033b4:	617b      	str	r3, [r7, #20]
   __ASM volatile ("rbit %0, %1" : "=r" (result) : "r" (value) );
 80033b6:	697b      	ldr	r3, [r7, #20]
 80033b8:	fa93 f3a3 	rbit	r3, r3
 80033bc:	613b      	str	r3, [r7, #16]
  return result;
 80033be:	693b      	ldr	r3, [r7, #16]
 80033c0:	fab3 f383 	clz	r3, r3
 80033c4:	b2db      	uxtb	r3, r3
 80033c6:	009b      	lsls	r3, r3, #2
 80033c8:	2104      	movs	r1, #4
 80033ca:	fa01 f303 	lsl.w	r3, r1, r3
 80033ce:	43db      	mvns	r3, r3
 80033d0:	401a      	ands	r2, r3
 80033d2:	68bb      	ldr	r3, [r7, #8]
 80033d4:	61fb      	str	r3, [r7, #28]
   __ASM volatile ("rbit %0, %1" : "=r" (result) : "r" (value) );
 80033d6:	69fb      	ldr	r3, [r7, #28]
 80033d8:	fa93 f3a3 	rbit	r3, r3
 80033dc:	61bb      	str	r3, [r7, #24]
  return result;
 80033de:	69bb      	ldr	r3, [r7, #24]
 80033e0:	fab3 f383 	clz	r3, r3
 80033e4:	b2db      	uxtb	r3, r3
 80033e6:	009b      	lsls	r3, r3, #2
 80033e8:	6879      	ldr	r1, [r7, #4]
 80033ea:	fa01 f303 	lsl.w	r3, r1, r3
 80033ee:	4313      	orrs	r3, r2
 80033f0:	6023      	str	r3, [r4, #0]
             (OutputType << (POSITION_VAL(Pin) * 4U)));
}
 80033f2:	bf00      	nop
 80033f4:	3720      	adds	r7, #32
 80033f6:	46bd      	mov	sp, r7
 80033f8:	bc90      	pop	{r4, r7}
 80033fa:	4770      	bx	lr

080033fc <LL_GPIO_SetPinPull>:
  *         @arg @ref LL_GPIO_PULL_DOWN
  *         @arg @ref LL_GPIO_PULL_UP
  * @retval None
  */
__STATIC_INLINE void LL_GPIO_SetPinPull(GPIO_TypeDef *GPIOx, uint32_t Pin, uint32_t Pull)
{
 80033fc:	b480      	push	{r7}
 80033fe:	b087      	sub	sp, #28
 8003400:	af00      	add	r7, sp, #0
 8003402:	60f8      	str	r0, [r7, #12]
 8003404:	60b9      	str	r1, [r7, #8]
 8003406:	607a      	str	r2, [r7, #4]
  MODIFY_REG(GPIOx->ODR, (Pin >> GPIO_PIN_MASK_POS), Pull << (POSITION_VAL(Pin >> GPIO_PIN_MASK_POS)));
 8003408:	68fb      	ldr	r3, [r7, #12]
 800340a:	68da      	ldr	r2, [r3, #12]
 800340c:	68bb      	ldr	r3, [r7, #8]
 800340e:	0a1b      	lsrs	r3, r3, #8
 8003410:	43db      	mvns	r3, r3
 8003412:	401a      	ands	r2, r3
 8003414:	68bb      	ldr	r3, [r7, #8]
 8003416:	0a1b      	lsrs	r3, r3, #8
 8003418:	617b      	str	r3, [r7, #20]
   __ASM volatile ("rbit %0, %1" : "=r" (result) : "r" (value) );
 800341a:	697b      	ldr	r3, [r7, #20]
 800341c:	fa93 f3a3 	rbit	r3, r3
 8003420:	613b      	str	r3, [r7, #16]
  return result;
 8003422:	693b      	ldr	r3, [r7, #16]
 8003424:	fab3 f383 	clz	r3, r3
 8003428:	b2db      	uxtb	r3, r3
 800342a:	4619      	mov	r1, r3
 800342c:	687b      	ldr	r3, [r7, #4]
 800342e:	408b      	lsls	r3, r1
 8003430:	431a      	orrs	r2, r3
 8003432:	68fb      	ldr	r3, [r7, #12]
 8003434:	60da      	str	r2, [r3, #12]
}
 8003436:	bf00      	nop
 8003438:	371c      	adds	r7, #28
 800343a:	46bd      	mov	sp, r7
 800343c:	bc80      	pop	{r7}
 800343e:	4770      	bx	lr

08003440 <LL_GPIO_Init>:
  * @retval An ErrorStatus enumeration value:
  *          - SUCCESS: GPIO registers are initialized according to GPIO_InitStruct content
  *          - ERROR:   Not applicable
  */
ErrorStatus LL_GPIO_Init(GPIO_TypeDef *GPIOx, LL_GPIO_InitTypeDef *GPIO_InitStruct)
{
 8003440:	b580      	push	{r7, lr}
 8003442:	b088      	sub	sp, #32
 8003444:	af00      	add	r7, sp, #0
 8003446:	6078      	str	r0, [r7, #4]
 8003448:	6039      	str	r1, [r7, #0]
  assert_param(IS_LL_GPIO_PIN(GPIO_InitStruct->Pin));

  /* ------------------------- Configure the port pins ---------------- */
  /* Initialize  pinpos on first pin set */

  pinmask = ((GPIO_InitStruct->Pin) << GPIO_PIN_MASK_POS) >> GPIO_PIN_NB;
 800344a:	683b      	ldr	r3, [r7, #0]
 800344c:	681b      	ldr	r3, [r3, #0]
 800344e:	021b      	lsls	r3, r3, #8
 8003450:	0c1b      	lsrs	r3, r3, #16
 8003452:	617b      	str	r3, [r7, #20]
 8003454:	697b      	ldr	r3, [r7, #20]
 8003456:	613b      	str	r3, [r7, #16]
   __ASM volatile ("rbit %0, %1" : "=r" (result) : "r" (value) );
 8003458:	693b      	ldr	r3, [r7, #16]
 800345a:	fa93 f3a3 	rbit	r3, r3
 800345e:	60fb      	str	r3, [r7, #12]
  return result;
 8003460:	68fb      	ldr	r3, [r7, #12]
  pinpos = POSITION_VAL(pinmask);
 8003462:	fab3 f383 	clz	r3, r3
 8003466:	b2db      	uxtb	r3, r3
 8003468:	61fb      	str	r3, [r7, #28]

  /* Configure the port pins */
  while ((pinmask  >> pinpos) != 0u)
 800346a:	e044      	b.n	80034f6 <LL_GPIO_Init+0xb6>
  {
    /* skip if bit is not set */
    if ((pinmask & (1u << pinpos)) != 0u)
 800346c:	2201      	movs	r2, #1
 800346e:	69fb      	ldr	r3, [r7, #28]
 8003470:	409a      	lsls	r2, r3
 8003472:	697b      	ldr	r3, [r7, #20]
 8003474:	4013      	ands	r3, r2
 8003476:	2b00      	cmp	r3, #0
 8003478:	d03a      	beq.n	80034f0 <LL_GPIO_Init+0xb0>
    {
      /* Get current io position */
      if (pinpos < GPIO_PIN_MASK_POS)
 800347a:	69fb      	ldr	r3, [r7, #28]
 800347c:	2b07      	cmp	r3, #7
 800347e:	d806      	bhi.n	800348e <LL_GPIO_Init+0x4e>
      {
        currentpin = (0x00000101uL << pinpos);
 8003480:	f240 1201 	movw	r2, #257	@ 0x101
 8003484:	69fb      	ldr	r3, [r7, #28]
 8003486:	fa02 f303 	lsl.w	r3, r2, r3
 800348a:	61bb      	str	r3, [r7, #24]
 800348c:	e008      	b.n	80034a0 <LL_GPIO_Init+0x60>
      }
      else
      {
        currentpin = ((0x00010001u << (pinpos - GPIO_PIN_MASK_POS)) | 0x04000000u);
 800348e:	69fb      	ldr	r3, [r7, #28]
 8003490:	3b08      	subs	r3, #8
 8003492:	f04f 1201 	mov.w	r2, #65537	@ 0x10001
 8003496:	fa02 f303 	lsl.w	r3, r2, r3
 800349a:	f043 6380 	orr.w	r3, r3, #67108864	@ 0x4000000
 800349e:	61bb      	str	r3, [r7, #24]
      }

      if (GPIO_InitStruct->Mode == LL_GPIO_MODE_INPUT)
 80034a0:	683b      	ldr	r3, [r7, #0]
 80034a2:	685b      	ldr	r3, [r3, #4]
 80034a4:	2b08      	cmp	r3, #8
 80034a6:	d106      	bne.n	80034b6 <LL_GPIO_Init+0x76>
      {
        /* Check The Pull parameter */
        assert_param(IS_LL_GPIO_PULL(GPIO_InitStruct->Pull));

        /* Pull-up Pull-down resistor configuration*/
        LL_GPIO_SetPinPull(GPIOx, currentpin, GPIO_InitStruct->Pull);
 80034a8:	683b      	ldr	r3, [r7, #0]
 80034aa:	691b      	ldr	r3, [r3, #16]
 80034ac:	461a      	mov	r2, r3
 80034ae:	69b9      	ldr	r1, [r7, #24]
 80034b0:	6878      	ldr	r0, [r7, #4]
 80034b2:	f7ff ffa3 	bl	80033fc <LL_GPIO_SetPinPull>
      
      /* Check Pin Mode parameters */
      assert_param(IS_LL_GPIO_MODE(GPIO_InitStruct->Mode));
      
      /* Pin Mode configuration */
      LL_GPIO_SetPinMode(GPIOx, currentpin, GPIO_InitStruct->Mode);
 80034b6:	683b      	ldr	r3, [r7, #0]
 80034b8:	685b      	ldr	r3, [r3, #4]
 80034ba:	461a      	mov	r2, r3
 80034bc:	69b9      	ldr	r1, [r7, #24]
 80034be:	6878      	ldr	r0, [r7, #4]
 80034c0:	f7ff ff06 	bl	80032d0 <LL_GPIO_SetPinMode>

      if ((GPIO_InitStruct->Mode == LL_GPIO_MODE_OUTPUT) || (GPIO_InitStruct->Mode == LL_GPIO_MODE_ALTERNATE))
 80034c4:	683b      	ldr	r3, [r7, #0]
 80034c6:	685b      	ldr	r3, [r3, #4]
 80034c8:	2b01      	cmp	r3, #1
 80034ca:	d003      	beq.n	80034d4 <LL_GPIO_Init+0x94>
 80034cc:	683b      	ldr	r3, [r7, #0]
 80034ce:	685b      	ldr	r3, [r3, #4]
 80034d0:	2b09      	cmp	r3, #9
 80034d2:	d10d      	bne.n	80034f0 <LL_GPIO_Init+0xb0>
        /* Check speed and Output mode parameters */
        assert_param(IS_LL_GPIO_SPEED(GPIO_InitStruct->Speed));
        assert_param(IS_LL_GPIO_OUTPUT_TYPE(GPIO_InitStruct->OutputType));

        /* Speed mode configuration */
        LL_GPIO_SetPinSpeed(GPIOx, currentpin, GPIO_InitStruct->Speed);
 80034d4:	683b      	ldr	r3, [r7, #0]
 80034d6:	689b      	ldr	r3, [r3, #8]
 80034d8:	461a      	mov	r2, r3
 80034da:	69b9      	ldr	r1, [r7, #24]
 80034dc:	6878      	ldr	r0, [r7, #4]
 80034de:	f7ff ff29 	bl	8003334 <LL_GPIO_SetPinSpeed>

        /* Output mode configuration*/
        LL_GPIO_SetPinOutputType(GPIOx, currentpin, GPIO_InitStruct->OutputType);
 80034e2:	683b      	ldr	r3, [r7, #0]
 80034e4:	68db      	ldr	r3, [r3, #12]
 80034e6:	461a      	mov	r2, r3
 80034e8:	69b9      	ldr	r1, [r7, #24]
 80034ea:	6878      	ldr	r0, [r7, #4]
 80034ec:	f7ff ff54 	bl	8003398 <LL_GPIO_SetPinOutputType>
      }
    }
    pinpos++;
 80034f0:	69fb      	ldr	r3, [r7, #28]
 80034f2:	3301      	adds	r3, #1
 80034f4:	61fb      	str	r3, [r7, #28]
  while ((pinmask  >> pinpos) != 0u)
 80034f6:	697a      	ldr	r2, [r7, #20]
 80034f8:	69fb      	ldr	r3, [r7, #28]
 80034fa:	fa22 f303 	lsr.w	r3, r2, r3
 80034fe:	2b00      	cmp	r3, #0
 8003500:	d1b4      	bne.n	800346c <LL_GPIO_Init+0x2c>
  }
  return (SUCCESS);
 8003502:	2300      	movs	r3, #0
}
 8003504:	4618      	mov	r0, r3
 8003506:	3720      	adds	r7, #32
 8003508:	46bd      	mov	sp, r7
 800350a:	bd80      	pop	{r7, pc}

0800350c <LL_RCC_GetSysClkSource>:
  *         @arg @ref LL_RCC_SYS_CLKSOURCE_STATUS_HSI
  *         @arg @ref LL_RCC_SYS_CLKSOURCE_STATUS_HSE
  *         @arg @ref LL_RCC_SYS_CLKSOURCE_STATUS_PLL
  */
__STATIC_INLINE uint32_t LL_RCC_GetSysClkSource(void)
{
 800350c:	b480      	push	{r7}
 800350e:	af00      	add	r7, sp, #0
  return (uint32_t)(READ_BIT(RCC->CFGR, RCC_CFGR_SWS));
 8003510:	4b03      	ldr	r3, [pc, #12]	@ (8003520 <LL_RCC_GetSysClkSource+0x14>)
 8003512:	685b      	ldr	r3, [r3, #4]
 8003514:	f003 030c 	and.w	r3, r3, #12
}
 8003518:	4618      	mov	r0, r3
 800351a:	46bd      	mov	sp, r7
 800351c:	bc80      	pop	{r7}
 800351e:	4770      	bx	lr
 8003520:	40021000 	.word	0x40021000

08003524 <LL_RCC_GetAHBPrescaler>:
  *         @arg @ref LL_RCC_SYSCLK_DIV_128
  *         @arg @ref LL_RCC_SYSCLK_DIV_256
  *         @arg @ref LL_RCC_SYSCLK_DIV_512
  */
__STATIC_INLINE uint32_t LL_RCC_GetAHBPrescaler(void)
{
 8003524:	b480      	push	{r7}
 8003526:	af00      	add	r7, sp, #0
  return (uint32_t)(READ_BIT(RCC->CFGR, RCC_CFGR_HPRE));
 8003528:	4b03      	ldr	r3, [pc, #12]	@ (8003538 <LL_RCC_GetAHBPrescaler+0x14>)
 800352a:	685b      	ldr	r3, [r3, #4]
 800352c:	f003 03f0 	and.w	r3, r3, #240	@ 0xf0
}
 8003530:	4618      	mov	r0, r3
 8003532:	46bd      	mov	sp, r7
 8003534:	bc80      	pop	{r7}
 8003536:	4770      	bx	lr
 8003538:	40021000 	.word	0x40021000

0800353c <LL_RCC_GetAPB1Prescaler>:
  *         @arg @ref LL_RCC_APB1_DIV_4
  *         @arg @ref LL_RCC_APB1_DIV_8
  *         @arg @ref LL_RCC_APB1_DIV_16
  */
__STATIC_INLINE uint32_t LL_RCC_GetAPB1Prescaler(void)
{
 800353c:	b480      	push	{r7}
 800353e:	af00      	add	r7, sp, #0
  return (uint32_t)(READ_BIT(RCC->CFGR, RCC_CFGR_PPRE1));
 8003540:	4b03      	ldr	r3, [pc, #12]	@ (8003550 <LL_RCC_GetAPB1Prescaler+0x14>)
 8003542:	685b      	ldr	r3, [r3, #4]
 8003544:	f403 63e0 	and.w	r3, r3, #1792	@ 0x700
}
 8003548:	4618      	mov	r0, r3
 800354a:	46bd      	mov	sp, r7
 800354c:	bc80      	pop	{r7}
 800354e:	4770      	bx	lr
 8003550:	40021000 	.word	0x40021000

08003554 <LL_RCC_GetAPB2Prescaler>:
  *         @arg @ref LL_RCC_APB2_DIV_4
  *         @arg @ref LL_RCC_APB2_DIV_8
  *         @arg @ref LL_RCC_APB2_DIV_16
  */
__STATIC_INLINE uint32_t LL_RCC_GetAPB2Prescaler(void)
{
 8003554:	b480      	push	{r7}
 8003556:	af00      	add	r7, sp, #0
  return (uint32_t)(READ_BIT(RCC->CFGR, RCC_CFGR_PPRE2));
 8003558:	4b03      	ldr	r3, [pc, #12]	@ (8003568 <LL_RCC_GetAPB2Prescaler+0x14>)
 800355a:	685b      	ldr	r3, [r3, #4]
 800355c:	f403 5360 	and.w	r3, r3, #14336	@ 0x3800
}
 8003560:	4618      	mov	r0, r3
 8003562:	46bd      	mov	sp, r7
 8003564:	bc80      	pop	{r7}
 8003566:	4770      	bx	lr
 8003568:	40021000 	.word	0x40021000

0800356c <LL_RCC_PLL_GetMainSource>:
  *         @arg @ref LL_RCC_PLLSOURCE_PLL2 (*)
  *
  *         (*) value not defined in all devices
  */
__STATIC_INLINE uint32_t LL_RCC_PLL_GetMainSource(void)
{
 800356c:	b480      	push	{r7}
 800356e:	af00      	add	r7, sp, #0
#if defined(RCC_CFGR2_PREDIV1SRC)
  uint32_t pllsrc = READ_BIT(RCC->CFGR, RCC_CFGR_PLLSRC);
  uint32_t predivsrc = (uint32_t)(READ_BIT(RCC->CFGR2, RCC_CFGR2_PREDIV1SRC) << 4U);
  return (uint32_t)(pllsrc | predivsrc);
#else
  return (uint32_t)(READ_BIT(RCC->CFGR, RCC_CFGR_PLLSRC));
 8003570:	4b03      	ldr	r3, [pc, #12]	@ (8003580 <LL_RCC_PLL_GetMainSource+0x14>)
 8003572:	685b      	ldr	r3, [r3, #4]
 8003574:	f403 3380 	and.w	r3, r3, #65536	@ 0x10000
#endif /*RCC_CFGR2_PREDIV1SRC*/
}
 8003578:	4618      	mov	r0, r3
 800357a:	46bd      	mov	sp, r7
 800357c:	bc80      	pop	{r7}
 800357e:	4770      	bx	lr
 8003580:	40021000 	.word	0x40021000

08003584 <LL_RCC_PLL_GetMultiplicator>:
  *         @arg @ref LL_RCC_PLL_MUL_16 (*)
  *
  *         (*) value not defined in all devices
  */
__STATIC_INLINE uint32_t LL_RCC_PLL_GetMultiplicator(void)
{
 8003584:	b480      	push	{r7}
 8003586:	af00      	add	r7, sp, #0
  return (uint32_t)(READ_BIT(RCC->CFGR, RCC_CFGR_PLLMULL));
 8003588:	4b03      	ldr	r3, [pc, #12]	@ (8003598 <LL_RCC_PLL_GetMultiplicator+0x14>)
 800358a:	685b      	ldr	r3, [r3, #4]
 800358c:	f403 1370 	and.w	r3, r3, #3932160	@ 0x3c0000
}
 8003590:	4618      	mov	r0, r3
 8003592:	46bd      	mov	sp, r7
 8003594:	bc80      	pop	{r7}
 8003596:	4770      	bx	lr
 8003598:	40021000 	.word	0x40021000

0800359c <LL_RCC_PLL_GetPrediv>:
  *         @arg @ref LL_RCC_PREDIV_DIV_16 (*)
  *
  *         (*) value not defined in all devices
  */
__STATIC_INLINE uint32_t LL_RCC_PLL_GetPrediv(void)
{
 800359c:	b480      	push	{r7}
 800359e:	af00      	add	r7, sp, #0
#if defined(RCC_CFGR2_PREDIV1)
  return (uint32_t)(READ_BIT(RCC->CFGR2, RCC_CFGR2_PREDIV1));
#else
  return (uint32_t)(READ_BIT(RCC->CFGR, RCC_CFGR_PLLXTPRE) >> RCC_CFGR_PLLXTPRE_Pos);
 80035a0:	4b04      	ldr	r3, [pc, #16]	@ (80035b4 <LL_RCC_PLL_GetPrediv+0x18>)
 80035a2:	685b      	ldr	r3, [r3, #4]
 80035a4:	0c5b      	lsrs	r3, r3, #17
 80035a6:	f003 0301 	and.w	r3, r3, #1
#endif /*RCC_CFGR2_PREDIV1*/
}
 80035aa:	4618      	mov	r0, r3
 80035ac:	46bd      	mov	sp, r7
 80035ae:	bc80      	pop	{r7}
 80035b0:	4770      	bx	lr
 80035b2:	bf00      	nop
 80035b4:	40021000 	.word	0x40021000

080035b8 <LL_RCC_GetSystemClocksFreq>:
  *         configuration based on this function will be incorrect.
  * @param  RCC_Clocks pointer to a @ref LL_RCC_ClocksTypeDef structure which will hold the clocks frequencies
  * @retval None
  */
void LL_RCC_GetSystemClocksFreq(LL_RCC_ClocksTypeDef *RCC_Clocks)
{
 80035b8:	b580      	push	{r7, lr}
 80035ba:	b082      	sub	sp, #8
 80035bc:	af00      	add	r7, sp, #0
 80035be:	6078      	str	r0, [r7, #4]
  /* Get SYSCLK frequency */
  RCC_Clocks->SYSCLK_Frequency = RCC_GetSystemClockFreq();
 80035c0:	f000 f820 	bl	8003604 <RCC_GetSystemClockFreq>
 80035c4:	4602      	mov	r2, r0
 80035c6:	687b      	ldr	r3, [r7, #4]
 80035c8:	601a      	str	r2, [r3, #0]

  /* HCLK clock frequency */
  RCC_Clocks->HCLK_Frequency   = RCC_GetHCLKClockFreq(RCC_Clocks->SYSCLK_Frequency);
 80035ca:	687b      	ldr	r3, [r7, #4]
 80035cc:	681b      	ldr	r3, [r3, #0]
 80035ce:	4618      	mov	r0, r3
 80035d0:	f000 f83e 	bl	8003650 <RCC_GetHCLKClockFreq>
 80035d4:	4602      	mov	r2, r0
 80035d6:	687b      	ldr	r3, [r7, #4]
 80035d8:	605a      	str	r2, [r3, #4]

  /* PCLK1 clock frequency */
  RCC_Clocks->PCLK1_Frequency  = RCC_GetPCLK1ClockFreq(RCC_Clocks->HCLK_Frequency);
 80035da:	687b      	ldr	r3, [r7, #4]
 80035dc:	685b      	ldr	r3, [r3, #4]
 80035de:	4618      	mov	r0, r3
 80035e0:	f000 f84c 	bl	800367c <RCC_GetPCLK1ClockFreq>
 80035e4:	4602      	mov	r2, r0
 80035e6:	687b      	ldr	r3, [r7, #4]
 80035e8:	609a      	str	r2, [r3, #8]

  /* PCLK2 clock frequency */
  RCC_Clocks->PCLK2_Frequency  = RCC_GetPCLK2ClockFreq(RCC_Clocks->HCLK_Frequency);
 80035ea:	687b      	ldr	r3, [r7, #4]
 80035ec:	685b      	ldr	r3, [r3, #4]
 80035ee:	4618      	mov	r0, r3
 80035f0:	f000 f858 	bl	80036a4 <RCC_GetPCLK2ClockFreq>
 80035f4:	4602      	mov	r2, r0
 80035f6:	687b      	ldr	r3, [r7, #4]
 80035f8:	60da      	str	r2, [r3, #12]
}
 80035fa:	bf00      	nop
 80035fc:	3708      	adds	r7, #8
 80035fe:	46bd      	mov	sp, r7
 8003600:	bd80      	pop	{r7, pc}
	...

08003604 <RCC_GetSystemClockFreq>:
/**
  * @brief  Return SYSTEM clock frequency
  * @retval SYSTEM clock frequency (in Hz)
  */
uint32_t RCC_GetSystemClockFreq(void)
{
 8003604:	b580      	push	{r7, lr}
 8003606:	b082      	sub	sp, #8
 8003608:	af00      	add	r7, sp, #0
  uint32_t frequency = 0U;
 800360a:	2300      	movs	r3, #0
 800360c:	607b      	str	r3, [r7, #4]

  /* Get SYSCLK source -------------------------------------------------------*/
  switch (LL_RCC_GetSysClkSource())
 800360e:	f7ff ff7d 	bl	800350c <LL_RCC_GetSysClkSource>
 8003612:	4603      	mov	r3, r0
 8003614:	2b08      	cmp	r3, #8
 8003616:	d00c      	beq.n	8003632 <RCC_GetSystemClockFreq+0x2e>
 8003618:	2b08      	cmp	r3, #8
 800361a:	d80e      	bhi.n	800363a <RCC_GetSystemClockFreq+0x36>
 800361c:	2b00      	cmp	r3, #0
 800361e:	d002      	beq.n	8003626 <RCC_GetSystemClockFreq+0x22>
 8003620:	2b04      	cmp	r3, #4
 8003622:	d003      	beq.n	800362c <RCC_GetSystemClockFreq+0x28>
 8003624:	e009      	b.n	800363a <RCC_GetSystemClockFreq+0x36>
  {
    case LL_RCC_SYS_CLKSOURCE_STATUS_HSI:  /* HSI used as system clock  source */
      frequency = HSI_VALUE;
 8003626:	4b09      	ldr	r3, [pc, #36]	@ (800364c <RCC_GetSystemClockFreq+0x48>)
 8003628:	607b      	str	r3, [r7, #4]
      break;
 800362a:	e009      	b.n	8003640 <RCC_GetSystemClockFreq+0x3c>

    case LL_RCC_SYS_CLKSOURCE_STATUS_HSE:  /* HSE used as system clock  source */
      frequency = HSE_VALUE;
 800362c:	4b07      	ldr	r3, [pc, #28]	@ (800364c <RCC_GetSystemClockFreq+0x48>)
 800362e:	607b      	str	r3, [r7, #4]
      break;
 8003630:	e006      	b.n	8003640 <RCC_GetSystemClockFreq+0x3c>

    case LL_RCC_SYS_CLKSOURCE_STATUS_PLL:  /* PLL used as system clock  source */
      frequency = RCC_PLL_GetFreqDomain_SYS();
 8003632:	f000 f84b 	bl	80036cc <RCC_PLL_GetFreqDomain_SYS>
 8003636:	6078      	str	r0, [r7, #4]
      break;
 8003638:	e002      	b.n	8003640 <RCC_GetSystemClockFreq+0x3c>

    default:
      frequency = HSI_VALUE;
 800363a:	4b04      	ldr	r3, [pc, #16]	@ (800364c <RCC_GetSystemClockFreq+0x48>)
 800363c:	607b      	str	r3, [r7, #4]
      break;
 800363e:	bf00      	nop
  }

  return frequency;
 8003640:	687b      	ldr	r3, [r7, #4]
}
 8003642:	4618      	mov	r0, r3
 8003644:	3708      	adds	r7, #8
 8003646:	46bd      	mov	sp, r7
 8003648:	bd80      	pop	{r7, pc}
 800364a:	bf00      	nop
 800364c:	007a1200 	.word	0x007a1200

08003650 <RCC_GetHCLKClockFreq>:
  * @brief  Return HCLK clock frequency
  * @param  SYSCLK_Frequency SYSCLK clock frequency
  * @retval HCLK clock frequency (in Hz)
  */
uint32_t RCC_GetHCLKClockFreq(uint32_t SYSCLK_Frequency)
{
 8003650:	b580      	push	{r7, lr}
 8003652:	b082      	sub	sp, #8
 8003654:	af00      	add	r7, sp, #0
 8003656:	6078      	str	r0, [r7, #4]
  /* HCLK clock frequency */
  return __LL_RCC_CALC_HCLK_FREQ(SYSCLK_Frequency, LL_RCC_GetAHBPrescaler());
 8003658:	f7ff ff64 	bl	8003524 <LL_RCC_GetAHBPrescaler>
 800365c:	4603      	mov	r3, r0
 800365e:	091b      	lsrs	r3, r3, #4
 8003660:	f003 030f 	and.w	r3, r3, #15
 8003664:	4a04      	ldr	r2, [pc, #16]	@ (8003678 <RCC_GetHCLKClockFreq+0x28>)
 8003666:	5cd3      	ldrb	r3, [r2, r3]
 8003668:	461a      	mov	r2, r3
 800366a:	687b      	ldr	r3, [r7, #4]
 800366c:	40d3      	lsrs	r3, r2
}
 800366e:	4618      	mov	r0, r3
 8003670:	3708      	adds	r7, #8
 8003672:	46bd      	mov	sp, r7
 8003674:	bd80      	pop	{r7, pc}
 8003676:	bf00      	nop
 8003678:	08007c80 	.word	0x08007c80

0800367c <RCC_GetPCLK1ClockFreq>:
  * @brief  Return PCLK1 clock frequency
  * @param  HCLK_Frequency HCLK clock frequency
  * @retval PCLK1 clock frequency (in Hz)
  */
uint32_t RCC_GetPCLK1ClockFreq(uint32_t HCLK_Frequency)
{
 800367c:	b580      	push	{r7, lr}
 800367e:	b082      	sub	sp, #8
 8003680:	af00      	add	r7, sp, #0
 8003682:	6078      	str	r0, [r7, #4]
  /* PCLK1 clock frequency */
  return __LL_RCC_CALC_PCLK1_FREQ(HCLK_Frequency, LL_RCC_GetAPB1Prescaler());
 8003684:	f7ff ff5a 	bl	800353c <LL_RCC_GetAPB1Prescaler>
 8003688:	4603      	mov	r3, r0
 800368a:	0a1b      	lsrs	r3, r3, #8
 800368c:	4a04      	ldr	r2, [pc, #16]	@ (80036a0 <RCC_GetPCLK1ClockFreq+0x24>)
 800368e:	5cd3      	ldrb	r3, [r2, r3]
 8003690:	461a      	mov	r2, r3
 8003692:	687b      	ldr	r3, [r7, #4]
 8003694:	40d3      	lsrs	r3, r2
}
 8003696:	4618      	mov	r0, r3
 8003698:	3708      	adds	r7, #8
 800369a:	46bd      	mov	sp, r7
 800369c:	bd80      	pop	{r7, pc}
 800369e:	bf00      	nop
 80036a0:	08007c90 	.word	0x08007c90

080036a4 <RCC_GetPCLK2ClockFreq>:
  * @brief  Return PCLK2 clock frequency
  * @param  HCLK_Frequency HCLK clock frequency
  * @retval PCLK2 clock frequency (in Hz)
  */
uint32_t RCC_GetPCLK2ClockFreq(uint32_t HCLK_Frequency)
{
 80036a4:	b580      	push	{r7, lr}
 80036a6:	b082      	sub	sp, #8
 80036a8:	af00      	add	r7, sp, #0
 80036aa:	6078      	str	r0, [r7, #4]
  /* PCLK2 clock frequency */
  return __LL_RCC_CALC_PCLK2_FREQ(HCLK_Frequency, LL_RCC_GetAPB2Prescaler());
 80036ac:	f7ff ff52 	bl	8003554 <LL_RCC_GetAPB2Prescaler>
 80036b0:	4603      	mov	r3, r0
 80036b2:	0adb      	lsrs	r3, r3, #11
 80036b4:	4a04      	ldr	r2, [pc, #16]	@ (80036c8 <RCC_GetPCLK2ClockFreq+0x24>)
 80036b6:	5cd3      	ldrb	r3, [r2, r3]
 80036b8:	461a      	mov	r2, r3
 80036ba:	687b      	ldr	r3, [r7, #4]
 80036bc:	40d3      	lsrs	r3, r2
}
 80036be:	4618      	mov	r0, r3
 80036c0:	3708      	adds	r7, #8
 80036c2:	46bd      	mov	sp, r7
 80036c4:	bd80      	pop	{r7, pc}
 80036c6:	bf00      	nop
 80036c8:	08007c90 	.word	0x08007c90

080036cc <RCC_PLL_GetFreqDomain_SYS>:
/**
  * @brief  Return PLL clock frequency used for system domain
  * @retval PLL clock frequency (in Hz)
  */
uint32_t RCC_PLL_GetFreqDomain_SYS(void)
{
 80036cc:	b580      	push	{r7, lr}
 80036ce:	b082      	sub	sp, #8
 80036d0:	af00      	add	r7, sp, #0
  uint32_t pllinputfreq = 0U, pllsource = 0U;
 80036d2:	2300      	movs	r3, #0
 80036d4:	607b      	str	r3, [r7, #4]
 80036d6:	2300      	movs	r3, #0
 80036d8:	603b      	str	r3, [r7, #0]

  /* PLL_VCO = (HSE_VALUE, HSI_VALUE or PLL2 / PLL Predivider) * PLL Multiplicator */

  /* Get PLL source */
  pllsource = LL_RCC_PLL_GetMainSource();
 80036da:	f7ff ff47 	bl	800356c <LL_RCC_PLL_GetMainSource>
 80036de:	6038      	str	r0, [r7, #0]

  switch (pllsource)
 80036e0:	683b      	ldr	r3, [r7, #0]
 80036e2:	2b00      	cmp	r3, #0
 80036e4:	d004      	beq.n	80036f0 <RCC_PLL_GetFreqDomain_SYS+0x24>
 80036e6:	683b      	ldr	r3, [r7, #0]
 80036e8:	f5b3 3f80 	cmp.w	r3, #65536	@ 0x10000
 80036ec:	d003      	beq.n	80036f6 <RCC_PLL_GetFreqDomain_SYS+0x2a>
 80036ee:	e00b      	b.n	8003708 <RCC_PLL_GetFreqDomain_SYS+0x3c>
  {
    case LL_RCC_PLLSOURCE_HSI_DIV_2: /* HSI used as PLL clock source */
      pllinputfreq = HSI_VALUE / 2U;
 80036f0:	4b0d      	ldr	r3, [pc, #52]	@ (8003728 <RCC_PLL_GetFreqDomain_SYS+0x5c>)
 80036f2:	607b      	str	r3, [r7, #4]
      break;
 80036f4:	e00b      	b.n	800370e <RCC_PLL_GetFreqDomain_SYS+0x42>

    case LL_RCC_PLLSOURCE_HSE:       /* HSE used as PLL clock source */
      pllinputfreq = HSE_VALUE / (LL_RCC_PLL_GetPrediv() + 1U);
 80036f6:	f7ff ff51 	bl	800359c <LL_RCC_PLL_GetPrediv>
 80036fa:	4603      	mov	r3, r0
 80036fc:	3301      	adds	r3, #1
 80036fe:	4a0b      	ldr	r2, [pc, #44]	@ (800372c <RCC_PLL_GetFreqDomain_SYS+0x60>)
 8003700:	fbb2 f3f3 	udiv	r3, r2, r3
 8003704:	607b      	str	r3, [r7, #4]
      break;
 8003706:	e002      	b.n	800370e <RCC_PLL_GetFreqDomain_SYS+0x42>
      pllinputfreq = RCC_PLL2_GetFreqClockFreq() / (LL_RCC_PLL_GetPrediv() + 1U);
      break;
#endif /* RCC_PLL2_SUPPORT */

    default:
      pllinputfreq = HSI_VALUE / 2U;
 8003708:	4b07      	ldr	r3, [pc, #28]	@ (8003728 <RCC_PLL_GetFreqDomain_SYS+0x5c>)
 800370a:	607b      	str	r3, [r7, #4]
      break;
 800370c:	bf00      	nop
  }
  return __LL_RCC_CALC_PLLCLK_FREQ(pllinputfreq, LL_RCC_PLL_GetMultiplicator());
 800370e:	f7ff ff39 	bl	8003584 <LL_RCC_PLL_GetMultiplicator>
 8003712:	4603      	mov	r3, r0
 8003714:	0c9b      	lsrs	r3, r3, #18
 8003716:	3302      	adds	r3, #2
 8003718:	687a      	ldr	r2, [r7, #4]
 800371a:	fb02 f303 	mul.w	r3, r2, r3
}
 800371e:	4618      	mov	r0, r3
 8003720:	3708      	adds	r7, #8
 8003722:	46bd      	mov	sp, r7
 8003724:	bd80      	pop	{r7, pc}
 8003726:	bf00      	nop
 8003728:	003d0900 	.word	0x003d0900
 800372c:	007a1200 	.word	0x007a1200

08003730 <LL_USART_IsEnabled>:
{
 8003730:	b480      	push	{r7}
 8003732:	b083      	sub	sp, #12
 8003734:	af00      	add	r7, sp, #0
 8003736:	6078      	str	r0, [r7, #4]
  return (READ_BIT(USARTx->CR1, USART_CR1_UE) == (USART_CR1_UE));
 8003738:	687b      	ldr	r3, [r7, #4]
 800373a:	68db      	ldr	r3, [r3, #12]
 800373c:	f403 5300 	and.w	r3, r3, #8192	@ 0x2000
 8003740:	f5b3 5f00 	cmp.w	r3, #8192	@ 0x2000
 8003744:	bf0c      	ite	eq
 8003746:	2301      	moveq	r3, #1
 8003748:	2300      	movne	r3, #0
 800374a:	b2db      	uxtb	r3, r3
}
 800374c:	4618      	mov	r0, r3
 800374e:	370c      	adds	r7, #12
 8003750:	46bd      	mov	sp, r7
 8003752:	bc80      	pop	{r7}
 8003754:	4770      	bx	lr

08003756 <LL_USART_SetStopBitsLength>:
{
 8003756:	b480      	push	{r7}
 8003758:	b083      	sub	sp, #12
 800375a:	af00      	add	r7, sp, #0
 800375c:	6078      	str	r0, [r7, #4]
 800375e:	6039      	str	r1, [r7, #0]
  MODIFY_REG(USARTx->CR2, USART_CR2_STOP, StopBits);
 8003760:	687b      	ldr	r3, [r7, #4]
 8003762:	691b      	ldr	r3, [r3, #16]
 8003764:	f423 5240 	bic.w	r2, r3, #12288	@ 0x3000
 8003768:	683b      	ldr	r3, [r7, #0]
 800376a:	431a      	orrs	r2, r3
 800376c:	687b      	ldr	r3, [r7, #4]
 800376e:	611a      	str	r2, [r3, #16]
}
 8003770:	bf00      	nop
 8003772:	370c      	adds	r7, #12
 8003774:	46bd      	mov	sp, r7
 8003776:	bc80      	pop	{r7}
 8003778:	4770      	bx	lr

0800377a <LL_USART_SetHWFlowCtrl>:
{
 800377a:	b480      	push	{r7}
 800377c:	b083      	sub	sp, #12
 800377e:	af00      	add	r7, sp, #0
 8003780:	6078      	str	r0, [r7, #4]
 8003782:	6039      	str	r1, [r7, #0]
  MODIFY_REG(USARTx->CR3, USART_CR3_RTSE | USART_CR3_CTSE, HardwareFlowControl);
 8003784:	687b      	ldr	r3, [r7, #4]
 8003786:	695b      	ldr	r3, [r3, #20]
 8003788:	f423 7240 	bic.w	r2, r3, #768	@ 0x300
 800378c:	683b      	ldr	r3, [r7, #0]
 800378e:	431a      	orrs	r2, r3
 8003790:	687b      	ldr	r3, [r7, #4]
 8003792:	615a      	str	r2, [r3, #20]
}
 8003794:	bf00      	nop
 8003796:	370c      	adds	r7, #12
 8003798:	46bd      	mov	sp, r7
 800379a:	bc80      	pop	{r7}
 800379c:	4770      	bx	lr
	...

080037a0 <LL_USART_SetBaudRate>:
{
 80037a0:	b480      	push	{r7}
 80037a2:	b085      	sub	sp, #20
 80037a4:	af00      	add	r7, sp, #0
 80037a6:	60f8      	str	r0, [r7, #12]
 80037a8:	60b9      	str	r1, [r7, #8]
 80037aa:	607a      	str	r2, [r7, #4]
  USARTx->BRR = (uint16_t)(__LL_USART_DIV_SAMPLING16(PeriphClk, BaudRate));
 80037ac:	68ba      	ldr	r2, [r7, #8]
 80037ae:	4613      	mov	r3, r2
 80037b0:	009b      	lsls	r3, r3, #2
 80037b2:	4413      	add	r3, r2
 80037b4:	009a      	lsls	r2, r3, #2
 80037b6:	441a      	add	r2, r3
 80037b8:	687b      	ldr	r3, [r7, #4]
 80037ba:	009b      	lsls	r3, r3, #2
 80037bc:	fbb2 f3f3 	udiv	r3, r2, r3
 80037c0:	4a25      	ldr	r2, [pc, #148]	@ (8003858 <LL_USART_SetBaudRate+0xb8>)
 80037c2:	fba2 2303 	umull	r2, r3, r2, r3
 80037c6:	095b      	lsrs	r3, r3, #5
 80037c8:	b29b      	uxth	r3, r3
 80037ca:	011b      	lsls	r3, r3, #4
 80037cc:	b299      	uxth	r1, r3
 80037ce:	68ba      	ldr	r2, [r7, #8]
 80037d0:	4613      	mov	r3, r2
 80037d2:	009b      	lsls	r3, r3, #2
 80037d4:	4413      	add	r3, r2
 80037d6:	009a      	lsls	r2, r3, #2
 80037d8:	441a      	add	r2, r3
 80037da:	687b      	ldr	r3, [r7, #4]
 80037dc:	009b      	lsls	r3, r3, #2
 80037de:	fbb2 f2f3 	udiv	r2, r2, r3
 80037e2:	4b1d      	ldr	r3, [pc, #116]	@ (8003858 <LL_USART_SetBaudRate+0xb8>)
 80037e4:	fba3 0302 	umull	r0, r3, r3, r2
 80037e8:	095b      	lsrs	r3, r3, #5
 80037ea:	2064      	movs	r0, #100	@ 0x64
 80037ec:	fb00 f303 	mul.w	r3, r0, r3
 80037f0:	1ad3      	subs	r3, r2, r3
 80037f2:	011b      	lsls	r3, r3, #4
 80037f4:	3332      	adds	r3, #50	@ 0x32
 80037f6:	4a18      	ldr	r2, [pc, #96]	@ (8003858 <LL_USART_SetBaudRate+0xb8>)
 80037f8:	fba2 2303 	umull	r2, r3, r2, r3
 80037fc:	095b      	lsrs	r3, r3, #5
 80037fe:	b29b      	uxth	r3, r3
 8003800:	f003 03f0 	and.w	r3, r3, #240	@ 0xf0
 8003804:	b29b      	uxth	r3, r3
 8003806:	440b      	add	r3, r1
 8003808:	b299      	uxth	r1, r3
 800380a:	68ba      	ldr	r2, [r7, #8]
 800380c:	4613      	mov	r3, r2
 800380e:	009b      	lsls	r3, r3, #2
 8003810:	4413      	add	r3, r2
 8003812:	009a      	lsls	r2, r3, #2
 8003814:	441a      	add	r2, r3
 8003816:	687b      	ldr	r3, [r7, #4]
 8003818:	009b      	lsls	r3, r3, #2
 800381a:	fbb2 f2f3 	udiv	r2, r2, r3
 800381e:	4b0e      	ldr	r3, [pc, #56]	@ (8003858 <LL_USART_SetBaudRate+0xb8>)
 8003820:	fba3 0302 	umull	r0, r3, r3, r2
 8003824:	095b      	lsrs	r3, r3, #5
 8003826:	2064      	movs	r0, #100	@ 0x64
 8003828:	fb00 f303 	mul.w	r3, r0, r3
 800382c:	1ad3      	subs	r3, r2, r3
 800382e:	011b      	lsls	r3, r3, #4
 8003830:	3332      	adds	r3, #50	@ 0x32
 8003832:	4a09      	ldr	r2, [pc, #36]	@ (8003858 <LL_USART_SetBaudRate+0xb8>)
 8003834:	fba2 2303 	umull	r2, r3, r2, r3
 8003838:	095b      	lsrs	r3, r3, #5
 800383a:	b29b      	uxth	r3, r3
 800383c:	f003 030f 	and.w	r3, r3, #15
 8003840:	b29b      	uxth	r3, r3
 8003842:	440b      	add	r3, r1
 8003844:	b29b      	uxth	r3, r3
 8003846:	461a      	mov	r2, r3
 8003848:	68fb      	ldr	r3, [r7, #12]
 800384a:	609a      	str	r2, [r3, #8]
}
 800384c:	bf00      	nop
 800384e:	3714      	adds	r7, #20
 8003850:	46bd      	mov	sp, r7
 8003852:	bc80      	pop	{r7}
 8003854:	4770      	bx	lr
 8003856:	bf00      	nop
 8003858:	51eb851f 	.word	0x51eb851f

0800385c <LL_USART_Init>:
  * @retval An ErrorStatus enumeration value:
  *          - SUCCESS: USART registers are initialized according to USART_InitStruct content
  *          - ERROR: Problem occurred during USART Registers initialization
  */
ErrorStatus LL_USART_Init(USART_TypeDef *USARTx, const LL_USART_InitTypeDef *USART_InitStruct)
{
 800385c:	b580      	push	{r7, lr}
 800385e:	b088      	sub	sp, #32
 8003860:	af00      	add	r7, sp, #0
 8003862:	6078      	str	r0, [r7, #4]
 8003864:	6039      	str	r1, [r7, #0]
  ErrorStatus status = ERROR;
 8003866:	2301      	movs	r3, #1
 8003868:	77fb      	strb	r3, [r7, #31]
  uint32_t periphclk = LL_RCC_PERIPH_FREQUENCY_NO;
 800386a:	2300      	movs	r3, #0
 800386c:	61bb      	str	r3, [r7, #24]
  assert_param(IS_LL_USART_OVERSAMPLING(USART_InitStruct->OverSampling));
#endif /* USART_OverSampling_Feature */

  /* USART needs to be in disabled state, in order to be able to configure some bits in
     CRx registers */
  if (LL_USART_IsEnabled(USARTx) == 0U)
 800386e:	6878      	ldr	r0, [r7, #4]
 8003870:	f7ff ff5e 	bl	8003730 <LL_USART_IsEnabled>
 8003874:	4603      	mov	r3, r0
 8003876:	2b00      	cmp	r3, #0
 8003878:	d145      	bne.n	8003906 <LL_USART_Init+0xaa>
               (USART_CR1_M | USART_CR1_PCE | USART_CR1_PS |
                USART_CR1_TE | USART_CR1_RE | USART_CR1_OVER8),
               (USART_InitStruct->DataWidth | USART_InitStruct->Parity |
                USART_InitStruct->TransferDirection | USART_InitStruct->OverSampling));
#else
    MODIFY_REG(USARTx->CR1,
 800387a:	687b      	ldr	r3, [r7, #4]
 800387c:	68db      	ldr	r3, [r3, #12]
 800387e:	f423 53b0 	bic.w	r3, r3, #5632	@ 0x1600
 8003882:	f023 030c 	bic.w	r3, r3, #12
 8003886:	683a      	ldr	r2, [r7, #0]
 8003888:	6851      	ldr	r1, [r2, #4]
 800388a:	683a      	ldr	r2, [r7, #0]
 800388c:	68d2      	ldr	r2, [r2, #12]
 800388e:	4311      	orrs	r1, r2
 8003890:	683a      	ldr	r2, [r7, #0]
 8003892:	6912      	ldr	r2, [r2, #16]
 8003894:	430a      	orrs	r2, r1
 8003896:	431a      	orrs	r2, r3
 8003898:	687b      	ldr	r3, [r7, #4]
 800389a:	60da      	str	r2, [r3, #12]
    /*---------------------------- USART CR2 Configuration -----------------------
     * Configure USARTx CR2 (Stop bits) with parameters:
     * - Stop Bits:          USART_CR2_STOP bits according to USART_InitStruct->StopBits value.
     * - CLKEN, CPOL, CPHA and LBCL bits are to be configured using LL_USART_ClockInit().
     */
    LL_USART_SetStopBitsLength(USARTx, USART_InitStruct->StopBits);
 800389c:	683b      	ldr	r3, [r7, #0]
 800389e:	689b      	ldr	r3, [r3, #8]
 80038a0:	4619      	mov	r1, r3
 80038a2:	6878      	ldr	r0, [r7, #4]
 80038a4:	f7ff ff57 	bl	8003756 <LL_USART_SetStopBitsLength>

    /*---------------------------- USART CR3 Configuration -----------------------
     * Configure USARTx CR3 (Hardware Flow Control) with parameters:
     * - HardwareFlowControl: USART_CR3_RTSE, USART_CR3_CTSE bits according to USART_InitStruct->HardwareFlowControl value.
     */
    LL_USART_SetHWFlowCtrl(USARTx, USART_InitStruct->HardwareFlowControl);
 80038a8:	683b      	ldr	r3, [r7, #0]
 80038aa:	695b      	ldr	r3, [r3, #20]
 80038ac:	4619      	mov	r1, r3
 80038ae:	6878      	ldr	r0, [r7, #4]
 80038b0:	f7ff ff63 	bl	800377a <LL_USART_SetHWFlowCtrl>

    /*---------------------------- USART BRR Configuration -----------------------
     * Retrieve Clock frequency used for USART Peripheral
     */
    LL_RCC_GetSystemClocksFreq(&rcc_clocks);
 80038b4:	f107 0308 	add.w	r3, r7, #8
 80038b8:	4618      	mov	r0, r3
 80038ba:	f7ff fe7d 	bl	80035b8 <LL_RCC_GetSystemClocksFreq>
    if (USARTx == USART1)
 80038be:	687b      	ldr	r3, [r7, #4]
 80038c0:	4a13      	ldr	r2, [pc, #76]	@ (8003910 <LL_USART_Init+0xb4>)
 80038c2:	4293      	cmp	r3, r2
 80038c4:	d102      	bne.n	80038cc <LL_USART_Init+0x70>
    {
      periphclk = rcc_clocks.PCLK2_Frequency;
 80038c6:	697b      	ldr	r3, [r7, #20]
 80038c8:	61bb      	str	r3, [r7, #24]
 80038ca:	e00c      	b.n	80038e6 <LL_USART_Init+0x8a>
    }
    else if (USARTx == USART2)
 80038cc:	687b      	ldr	r3, [r7, #4]
 80038ce:	4a11      	ldr	r2, [pc, #68]	@ (8003914 <LL_USART_Init+0xb8>)
 80038d0:	4293      	cmp	r3, r2
 80038d2:	d102      	bne.n	80038da <LL_USART_Init+0x7e>
    {
      periphclk = rcc_clocks.PCLK1_Frequency;
 80038d4:	693b      	ldr	r3, [r7, #16]
 80038d6:	61bb      	str	r3, [r7, #24]
 80038d8:	e005      	b.n	80038e6 <LL_USART_Init+0x8a>
    }
#if defined(USART3)
    else if (USARTx == USART3)
 80038da:	687b      	ldr	r3, [r7, #4]
 80038dc:	4a0e      	ldr	r2, [pc, #56]	@ (8003918 <LL_USART_Init+0xbc>)
 80038de:	4293      	cmp	r3, r2
 80038e0:	d101      	bne.n	80038e6 <LL_USART_Init+0x8a>
    {
      periphclk = rcc_clocks.PCLK1_Frequency;
 80038e2:	693b      	ldr	r3, [r7, #16]
 80038e4:	61bb      	str	r3, [r7, #24]

    /* Configure the USART Baud Rate :
       - valid baud rate value (different from 0) is required
       - Peripheral clock as returned by RCC service, should be valid (different from 0).
    */
    if ((periphclk != LL_RCC_PERIPH_FREQUENCY_NO)
 80038e6:	69bb      	ldr	r3, [r7, #24]
 80038e8:	2b00      	cmp	r3, #0
 80038ea:	d00c      	beq.n	8003906 <LL_USART_Init+0xaa>
        && (USART_InitStruct->BaudRate != 0U))
 80038ec:	683b      	ldr	r3, [r7, #0]
 80038ee:	681b      	ldr	r3, [r3, #0]
 80038f0:	2b00      	cmp	r3, #0
 80038f2:	d008      	beq.n	8003906 <LL_USART_Init+0xaa>
    {
      status = SUCCESS;
 80038f4:	2300      	movs	r3, #0
 80038f6:	77fb      	strb	r3, [r7, #31]
                           USART_InitStruct->OverSampling,
                           USART_InitStruct->BaudRate);
#else
      LL_USART_SetBaudRate(USARTx,
                           periphclk,
                           USART_InitStruct->BaudRate);
 80038f8:	683b      	ldr	r3, [r7, #0]
 80038fa:	681b      	ldr	r3, [r3, #0]
      LL_USART_SetBaudRate(USARTx,
 80038fc:	461a      	mov	r2, r3
 80038fe:	69b9      	ldr	r1, [r7, #24]
 8003900:	6878      	ldr	r0, [r7, #4]
 8003902:	f7ff ff4d 	bl	80037a0 <LL_USART_SetBaudRate>
      assert_param(IS_LL_USART_BRR_MIN(USARTx->BRR));
    }
  }
  /* Endif (=> USART not in Disabled state => return ERROR) */

  return (status);
 8003906:	7ffb      	ldrb	r3, [r7, #31]
}
 8003908:	4618      	mov	r0, r3
 800390a:	3720      	adds	r7, #32
 800390c:	46bd      	mov	sp, r7
 800390e:	bd80      	pop	{r7, pc}
 8003910:	40013800 	.word	0x40013800
 8003914:	40004400 	.word	0x40004400
 8003918:	40004800 	.word	0x40004800

0800391c <USB_CoreInit>:
  * @param  cfg pointer to a USB_CfgTypeDef structure that contains
  *         the configuration information for the specified USBx peripheral.
  * @retval HAL status
  */
HAL_StatusTypeDef USB_CoreInit(USB_TypeDef *USBx, USB_CfgTypeDef cfg)
{
 800391c:	b480      	push	{r7}
 800391e:	b085      	sub	sp, #20
 8003920:	af00      	add	r7, sp, #0
 8003922:	60f8      	str	r0, [r7, #12]
 8003924:	4638      	mov	r0, r7
 8003926:	e880 000e 	stmia.w	r0, {r1, r2, r3}
  /* NOTE : - This function is not required by USB Device FS peripheral, it is used
              only by USB OTG FS peripheral.
            - This function is added to ensure compatibility across platforms.
   */

  return HAL_OK;
 800392a:	2300      	movs	r3, #0
}
 800392c:	4618      	mov	r0, r3
 800392e:	3714      	adds	r7, #20
 8003930:	46bd      	mov	sp, r7
 8003932:	bc80      	pop	{r7}
 8003934:	4770      	bx	lr

08003936 <USB_EnableGlobalInt>:
  *         Enables the controller's Global Int in the AHB Config reg
  * @param  USBx Selected device
  * @retval HAL status
  */
HAL_StatusTypeDef USB_EnableGlobalInt(USB_TypeDef *USBx)
{
 8003936:	b480      	push	{r7}
 8003938:	b085      	sub	sp, #20
 800393a:	af00      	add	r7, sp, #0
 800393c:	6078      	str	r0, [r7, #4]
  uint32_t winterruptmask;

  /* Clear pending interrupts */
  USBx->ISTR = 0U;
 800393e:	687b      	ldr	r3, [r7, #4]
 8003940:	2200      	movs	r2, #0
 8003942:	f8a3 2044 	strh.w	r2, [r3, #68]	@ 0x44

  /* Set winterruptmask variable */
  winterruptmask = USB_CNTR_CTRM  | USB_CNTR_WKUPM |
 8003946:	f44f 433f 	mov.w	r3, #48896	@ 0xbf00
 800394a:	60fb      	str	r3, [r7, #12]
                   USB_CNTR_SUSPM | USB_CNTR_ERRM |
                   USB_CNTR_SOFM | USB_CNTR_ESOFM |
                   USB_CNTR_RESETM;

  /* Set interrupt mask */
  USBx->CNTR = (uint16_t)winterruptmask;
 800394c:	68fb      	ldr	r3, [r7, #12]
 800394e:	b29a      	uxth	r2, r3
 8003950:	687b      	ldr	r3, [r7, #4]
 8003952:	f8a3 2040 	strh.w	r2, [r3, #64]	@ 0x40

  return HAL_OK;
 8003956:	2300      	movs	r3, #0
}
 8003958:	4618      	mov	r0, r3
 800395a:	3714      	adds	r7, #20
 800395c:	46bd      	mov	sp, r7
 800395e:	bc80      	pop	{r7}
 8003960:	4770      	bx	lr

08003962 <USB_DisableGlobalInt>:
  *         Disable the controller's Global Int in the AHB Config reg
  * @param  USBx Selected device
  * @retval HAL status
  */
HAL_StatusTypeDef USB_DisableGlobalInt(USB_TypeDef *USBx)
{
 8003962:	b480      	push	{r7}
 8003964:	b085      	sub	sp, #20
 8003966:	af00      	add	r7, sp, #0
 8003968:	6078      	str	r0, [r7, #4]
  uint32_t winterruptmask;

  /* Set winterruptmask variable */
  winterruptmask = USB_CNTR_CTRM  | USB_CNTR_WKUPM |
 800396a:	f44f 433f 	mov.w	r3, #48896	@ 0xbf00
 800396e:	60fb      	str	r3, [r7, #12]
                   USB_CNTR_SUSPM | USB_CNTR_ERRM |
                   USB_CNTR_SOFM | USB_CNTR_ESOFM |
                   USB_CNTR_RESETM;

  /* Clear interrupt mask */
  USBx->CNTR &= (uint16_t)(~winterruptmask);
 8003970:	687b      	ldr	r3, [r7, #4]
 8003972:	f8b3 3040 	ldrh.w	r3, [r3, #64]	@ 0x40
 8003976:	b29a      	uxth	r2, r3
 8003978:	68fb      	ldr	r3, [r7, #12]
 800397a:	b29b      	uxth	r3, r3
 800397c:	43db      	mvns	r3, r3
 800397e:	b29b      	uxth	r3, r3
 8003980:	4013      	ands	r3, r2
 8003982:	b29a      	uxth	r2, r3
 8003984:	687b      	ldr	r3, [r7, #4]
 8003986:	f8a3 2040 	strh.w	r2, [r3, #64]	@ 0x40

  return HAL_OK;
 800398a:	2300      	movs	r3, #0
}
 800398c:	4618      	mov	r0, r3
 800398e:	3714      	adds	r7, #20
 8003990:	46bd      	mov	sp, r7
 8003992:	bc80      	pop	{r7}
 8003994:	4770      	bx	lr

08003996 <USB_SetCurrentMode>:
  *          This parameter can be one of the these values:
  *            @arg USB_DEVICE_MODE Peripheral mode
  * @retval HAL status
  */
HAL_StatusTypeDef USB_SetCurrentMode(USB_TypeDef *USBx, USB_ModeTypeDef mode)
{
 8003996:	b480      	push	{r7}
 8003998:	b083      	sub	sp, #12
 800399a:	af00      	add	r7, sp, #0
 800399c:	6078      	str	r0, [r7, #4]
 800399e:	460b      	mov	r3, r1
 80039a0:	70fb      	strb	r3, [r7, #3]

  /* NOTE : - This function is not required by USB Device FS peripheral, it is used
              only by USB OTG FS peripheral.
            - This function is added to ensure compatibility across platforms.
   */
  return HAL_OK;
 80039a2:	2300      	movs	r3, #0
}
 80039a4:	4618      	mov	r0, r3
 80039a6:	370c      	adds	r7, #12
 80039a8:	46bd      	mov	sp, r7
 80039aa:	bc80      	pop	{r7}
 80039ac:	4770      	bx	lr

080039ae <USB_DevInit>:
  * @param  cfg  pointer to a USB_CfgTypeDef structure that contains
  *         the configuration information for the specified USBx peripheral.
  * @retval HAL status
  */
HAL_StatusTypeDef USB_DevInit(USB_TypeDef *USBx, USB_CfgTypeDef cfg)
{
 80039ae:	b480      	push	{r7}
 80039b0:	b085      	sub	sp, #20
 80039b2:	af00      	add	r7, sp, #0
 80039b4:	60f8      	str	r0, [r7, #12]
 80039b6:	4638      	mov	r0, r7
 80039b8:	e880 000e 	stmia.w	r0, {r1, r2, r3}
  /* Prevent unused argument(s) compilation warning */
  UNUSED(cfg);

  /* Init Device */
  /* CNTR_FRES = 1 */
  USBx->CNTR = (uint16_t)USB_CNTR_FRES;
 80039bc:	68fb      	ldr	r3, [r7, #12]
 80039be:	2201      	movs	r2, #1
 80039c0:	f8a3 2040 	strh.w	r2, [r3, #64]	@ 0x40

  /* CNTR_FRES = 0 */
  USBx->CNTR = 0U;
 80039c4:	68fb      	ldr	r3, [r7, #12]
 80039c6:	2200      	movs	r2, #0
 80039c8:	f8a3 2040 	strh.w	r2, [r3, #64]	@ 0x40

  /* Clear pending interrupts */
  USBx->ISTR = 0U;
 80039cc:	68fb      	ldr	r3, [r7, #12]
 80039ce:	2200      	movs	r2, #0
 80039d0:	f8a3 2044 	strh.w	r2, [r3, #68]	@ 0x44

  /*Set Btable Address*/
  USBx->BTABLE = BTABLE_ADDRESS;
 80039d4:	68fb      	ldr	r3, [r7, #12]
 80039d6:	2200      	movs	r2, #0
 80039d8:	f8a3 2050 	strh.w	r2, [r3, #80]	@ 0x50

  return HAL_OK;
 80039dc:	2300      	movs	r3, #0
}
 80039de:	4618      	mov	r0, r3
 80039e0:	3714      	adds	r7, #20
 80039e2:	46bd      	mov	sp, r7
 80039e4:	bc80      	pop	{r7}
 80039e6:	4770      	bx	lr

080039e8 <USB_ActivateEndpoint>:
  * @param  USBx Selected device
  * @param  ep pointer to endpoint structure
  * @retval HAL status
  */
HAL_StatusTypeDef USB_ActivateEndpoint(USB_TypeDef *USBx, USB_EPTypeDef *ep)
{
 80039e8:	b480      	push	{r7}
 80039ea:	b09d      	sub	sp, #116	@ 0x74
 80039ec:	af00      	add	r7, sp, #0
 80039ee:	6078      	str	r0, [r7, #4]
 80039f0:	6039      	str	r1, [r7, #0]
  HAL_StatusTypeDef ret = HAL_OK;
 80039f2:	2300      	movs	r3, #0
 80039f4:	f887 306f 	strb.w	r3, [r7, #111]	@ 0x6f
  uint16_t wEpRegVal;

  wEpRegVal = PCD_GET_ENDPOINT(USBx, ep->num) & USB_EP_T_MASK;
 80039f8:	687a      	ldr	r2, [r7, #4]
 80039fa:	683b      	ldr	r3, [r7, #0]
 80039fc:	781b      	ldrb	r3, [r3, #0]
 80039fe:	009b      	lsls	r3, r3, #2
 8003a00:	4413      	add	r3, r2
 8003a02:	881b      	ldrh	r3, [r3, #0]
 8003a04:	b29b      	uxth	r3, r3
 8003a06:	f423 43ec 	bic.w	r3, r3, #30208	@ 0x7600
 8003a0a:	f023 0370 	bic.w	r3, r3, #112	@ 0x70
 8003a0e:	f8a7 306c 	strh.w	r3, [r7, #108]	@ 0x6c

  /* initialize Endpoint */
  switch (ep->type)
 8003a12:	683b      	ldr	r3, [r7, #0]
 8003a14:	78db      	ldrb	r3, [r3, #3]
 8003a16:	2b03      	cmp	r3, #3
 8003a18:	d81f      	bhi.n	8003a5a <USB_ActivateEndpoint+0x72>
 8003a1a:	a201      	add	r2, pc, #4	@ (adr r2, 8003a20 <USB_ActivateEndpoint+0x38>)
 8003a1c:	f852 f023 	ldr.w	pc, [r2, r3, lsl #2]
 8003a20:	08003a31 	.word	0x08003a31
 8003a24:	08003a4d 	.word	0x08003a4d
 8003a28:	08003a63 	.word	0x08003a63
 8003a2c:	08003a3f 	.word	0x08003a3f
  {
    case EP_TYPE_CTRL:
      wEpRegVal |= USB_EP_CONTROL;
 8003a30:	f8b7 306c 	ldrh.w	r3, [r7, #108]	@ 0x6c
 8003a34:	f443 7300 	orr.w	r3, r3, #512	@ 0x200
 8003a38:	f8a7 306c 	strh.w	r3, [r7, #108]	@ 0x6c
      break;
 8003a3c:	e012      	b.n	8003a64 <USB_ActivateEndpoint+0x7c>
    case EP_TYPE_BULK:
      wEpRegVal |= USB_EP_BULK;
      break;

    case EP_TYPE_INTR:
      wEpRegVal |= USB_EP_INTERRUPT;
 8003a3e:	f8b7 306c 	ldrh.w	r3, [r7, #108]	@ 0x6c
 8003a42:	f443 63c0 	orr.w	r3, r3, #1536	@ 0x600
 8003a46:	f8a7 306c 	strh.w	r3, [r7, #108]	@ 0x6c
      break;
 8003a4a:	e00b      	b.n	8003a64 <USB_ActivateEndpoint+0x7c>

    case EP_TYPE_ISOC:
      wEpRegVal |= USB_EP_ISOCHRONOUS;
 8003a4c:	f8b7 306c 	ldrh.w	r3, [r7, #108]	@ 0x6c
 8003a50:	f443 6380 	orr.w	r3, r3, #1024	@ 0x400
 8003a54:	f8a7 306c 	strh.w	r3, [r7, #108]	@ 0x6c
      break;
 8003a58:	e004      	b.n	8003a64 <USB_ActivateEndpoint+0x7c>

    default:
      ret = HAL_ERROR;
 8003a5a:	2301      	movs	r3, #1
 8003a5c:	f887 306f 	strb.w	r3, [r7, #111]	@ 0x6f
      break;
 8003a60:	e000      	b.n	8003a64 <USB_ActivateEndpoint+0x7c>
      break;
 8003a62:	bf00      	nop
  }

  PCD_SET_ENDPOINT(USBx, ep->num, (wEpRegVal | USB_EP_CTR_RX | USB_EP_CTR_TX));
 8003a64:	687a      	ldr	r2, [r7, #4]
 8003a66:	683b      	ldr	r3, [r7, #0]
 8003a68:	781b      	ldrb	r3, [r3, #0]
 8003a6a:	009b      	lsls	r3, r3, #2
 8003a6c:	441a      	add	r2, r3
 8003a6e:	f8b7 306c 	ldrh.w	r3, [r7, #108]	@ 0x6c
 8003a72:	f043 437f 	orr.w	r3, r3, #4278190080	@ 0xff000000
 8003a76:	f443 037f 	orr.w	r3, r3, #16711680	@ 0xff0000
 8003a7a:	f443 4300 	orr.w	r3, r3, #32768	@ 0x8000
 8003a7e:	f043 0380 	orr.w	r3, r3, #128	@ 0x80
 8003a82:	b29b      	uxth	r3, r3
 8003a84:	8013      	strh	r3, [r2, #0]

  PCD_SET_EP_ADDRESS(USBx, ep->num, ep->num);
 8003a86:	687a      	ldr	r2, [r7, #4]
 8003a88:	683b      	ldr	r3, [r7, #0]
 8003a8a:	781b      	ldrb	r3, [r3, #0]
 8003a8c:	009b      	lsls	r3, r3, #2
 8003a8e:	4413      	add	r3, r2
 8003a90:	881b      	ldrh	r3, [r3, #0]
 8003a92:	b29b      	uxth	r3, r3
 8003a94:	f423 43e0 	bic.w	r3, r3, #28672	@ 0x7000
 8003a98:	f023 0370 	bic.w	r3, r3, #112	@ 0x70
 8003a9c:	b29b      	uxth	r3, r3
 8003a9e:	683a      	ldr	r2, [r7, #0]
 8003aa0:	7812      	ldrb	r2, [r2, #0]
 8003aa2:	4313      	orrs	r3, r2
 8003aa4:	f8a7 3066 	strh.w	r3, [r7, #102]	@ 0x66
 8003aa8:	687a      	ldr	r2, [r7, #4]
 8003aaa:	683b      	ldr	r3, [r7, #0]
 8003aac:	781b      	ldrb	r3, [r3, #0]
 8003aae:	009b      	lsls	r3, r3, #2
 8003ab0:	441a      	add	r2, r3
 8003ab2:	f8b7 3066 	ldrh.w	r3, [r7, #102]	@ 0x66
 8003ab6:	f043 437f 	orr.w	r3, r3, #4278190080	@ 0xff000000
 8003aba:	f443 037f 	orr.w	r3, r3, #16711680	@ 0xff0000
 8003abe:	f443 4300 	orr.w	r3, r3, #32768	@ 0x8000
 8003ac2:	f043 0380 	orr.w	r3, r3, #128	@ 0x80
 8003ac6:	b29b      	uxth	r3, r3
 8003ac8:	8013      	strh	r3, [r2, #0]

  if (ep->doublebuffer == 0U)
 8003aca:	683b      	ldr	r3, [r7, #0]
 8003acc:	7b1b      	ldrb	r3, [r3, #12]
 8003ace:	2b00      	cmp	r3, #0
 8003ad0:	f040 8178 	bne.w	8003dc4 <USB_ActivateEndpoint+0x3dc>
  {
    if (ep->is_in != 0U)
 8003ad4:	683b      	ldr	r3, [r7, #0]
 8003ad6:	785b      	ldrb	r3, [r3, #1]
 8003ad8:	2b00      	cmp	r3, #0
 8003ada:	f000 8084 	beq.w	8003be6 <USB_ActivateEndpoint+0x1fe>
    {
      /*Set the endpoint Transmit buffer address */
      PCD_SET_EP_TX_ADDRESS(USBx, ep->num, ep->pmaadress);
 8003ade:	687b      	ldr	r3, [r7, #4]
 8003ae0:	61bb      	str	r3, [r7, #24]
 8003ae2:	687b      	ldr	r3, [r7, #4]
 8003ae4:	f8b3 3050 	ldrh.w	r3, [r3, #80]	@ 0x50
 8003ae8:	b29b      	uxth	r3, r3
 8003aea:	461a      	mov	r2, r3
 8003aec:	69bb      	ldr	r3, [r7, #24]
 8003aee:	4413      	add	r3, r2
 8003af0:	61bb      	str	r3, [r7, #24]
 8003af2:	683b      	ldr	r3, [r7, #0]
 8003af4:	781b      	ldrb	r3, [r3, #0]
 8003af6:	011a      	lsls	r2, r3, #4
 8003af8:	69bb      	ldr	r3, [r7, #24]
 8003afa:	4413      	add	r3, r2
 8003afc:	f503 6380 	add.w	r3, r3, #1024	@ 0x400
 8003b00:	617b      	str	r3, [r7, #20]
 8003b02:	683b      	ldr	r3, [r7, #0]
 8003b04:	88db      	ldrh	r3, [r3, #6]
 8003b06:	085b      	lsrs	r3, r3, #1
 8003b08:	b29b      	uxth	r3, r3
 8003b0a:	005b      	lsls	r3, r3, #1
 8003b0c:	b29a      	uxth	r2, r3
 8003b0e:	697b      	ldr	r3, [r7, #20]
 8003b10:	801a      	strh	r2, [r3, #0]
      PCD_CLEAR_TX_DTOG(USBx, ep->num);
 8003b12:	687a      	ldr	r2, [r7, #4]
 8003b14:	683b      	ldr	r3, [r7, #0]
 8003b16:	781b      	ldrb	r3, [r3, #0]
 8003b18:	009b      	lsls	r3, r3, #2
 8003b1a:	4413      	add	r3, r2
 8003b1c:	881b      	ldrh	r3, [r3, #0]
 8003b1e:	827b      	strh	r3, [r7, #18]
 8003b20:	8a7b      	ldrh	r3, [r7, #18]
 8003b22:	f003 0340 	and.w	r3, r3, #64	@ 0x40
 8003b26:	2b00      	cmp	r3, #0
 8003b28:	d01b      	beq.n	8003b62 <USB_ActivateEndpoint+0x17a>
 8003b2a:	687a      	ldr	r2, [r7, #4]
 8003b2c:	683b      	ldr	r3, [r7, #0]
 8003b2e:	781b      	ldrb	r3, [r3, #0]
 8003b30:	009b      	lsls	r3, r3, #2
 8003b32:	4413      	add	r3, r2
 8003b34:	881b      	ldrh	r3, [r3, #0]
 8003b36:	b29b      	uxth	r3, r3
 8003b38:	f423 43e0 	bic.w	r3, r3, #28672	@ 0x7000
 8003b3c:	f023 0370 	bic.w	r3, r3, #112	@ 0x70
 8003b40:	823b      	strh	r3, [r7, #16]
 8003b42:	687a      	ldr	r2, [r7, #4]
 8003b44:	683b      	ldr	r3, [r7, #0]
 8003b46:	781b      	ldrb	r3, [r3, #0]
 8003b48:	009b      	lsls	r3, r3, #2
 8003b4a:	441a      	add	r2, r3
 8003b4c:	8a3b      	ldrh	r3, [r7, #16]
 8003b4e:	f043 437f 	orr.w	r3, r3, #4278190080	@ 0xff000000
 8003b52:	f443 037f 	orr.w	r3, r3, #16711680	@ 0xff0000
 8003b56:	f443 4300 	orr.w	r3, r3, #32768	@ 0x8000
 8003b5a:	f043 03c0 	orr.w	r3, r3, #192	@ 0xc0
 8003b5e:	b29b      	uxth	r3, r3
 8003b60:	8013      	strh	r3, [r2, #0]

      if (ep->type != EP_TYPE_ISOC)
 8003b62:	683b      	ldr	r3, [r7, #0]
 8003b64:	78db      	ldrb	r3, [r3, #3]
 8003b66:	2b01      	cmp	r3, #1
 8003b68:	d020      	beq.n	8003bac <USB_ActivateEndpoint+0x1c4>
      {
        /* Configure NAK status for the Endpoint */
        PCD_SET_EP_TX_STATUS(USBx, ep->num, USB_EP_TX_NAK);
 8003b6a:	687a      	ldr	r2, [r7, #4]
 8003b6c:	683b      	ldr	r3, [r7, #0]
 8003b6e:	781b      	ldrb	r3, [r3, #0]
 8003b70:	009b      	lsls	r3, r3, #2
 8003b72:	4413      	add	r3, r2
 8003b74:	881b      	ldrh	r3, [r3, #0]
 8003b76:	b29b      	uxth	r3, r3
 8003b78:	f423 43e0 	bic.w	r3, r3, #28672	@ 0x7000
 8003b7c:	f023 0340 	bic.w	r3, r3, #64	@ 0x40
 8003b80:	81bb      	strh	r3, [r7, #12]
 8003b82:	89bb      	ldrh	r3, [r7, #12]
 8003b84:	f083 0320 	eor.w	r3, r3, #32
 8003b88:	81bb      	strh	r3, [r7, #12]
 8003b8a:	687a      	ldr	r2, [r7, #4]
 8003b8c:	683b      	ldr	r3, [r7, #0]
 8003b8e:	781b      	ldrb	r3, [r3, #0]
 8003b90:	009b      	lsls	r3, r3, #2
 8003b92:	441a      	add	r2, r3
 8003b94:	89bb      	ldrh	r3, [r7, #12]
 8003b96:	f043 437f 	orr.w	r3, r3, #4278190080	@ 0xff000000
 8003b9a:	f443 037f 	orr.w	r3, r3, #16711680	@ 0xff0000
 8003b9e:	f443 4300 	orr.w	r3, r3, #32768	@ 0x8000
 8003ba2:	f043 0380 	orr.w	r3, r3, #128	@ 0x80
 8003ba6:	b29b      	uxth	r3, r3
 8003ba8:	8013      	strh	r3, [r2, #0]
 8003baa:	e2d5      	b.n	8004158 <USB_ActivateEndpoint+0x770>
      }
      else
      {
        /* Configure TX Endpoint to disabled state */
        PCD_SET_EP_TX_STATUS(USBx, ep->num, USB_EP_TX_DIS);
 8003bac:	687a      	ldr	r2, [r7, #4]
 8003bae:	683b      	ldr	r3, [r7, #0]
 8003bb0:	781b      	ldrb	r3, [r3, #0]
 8003bb2:	009b      	lsls	r3, r3, #2
 8003bb4:	4413      	add	r3, r2
 8003bb6:	881b      	ldrh	r3, [r3, #0]
 8003bb8:	b29b      	uxth	r3, r3
 8003bba:	f423 43e0 	bic.w	r3, r3, #28672	@ 0x7000
 8003bbe:	f023 0340 	bic.w	r3, r3, #64	@ 0x40
 8003bc2:	81fb      	strh	r3, [r7, #14]
 8003bc4:	687a      	ldr	r2, [r7, #4]
 8003bc6:	683b      	ldr	r3, [r7, #0]
 8003bc8:	781b      	ldrb	r3, [r3, #0]
 8003bca:	009b      	lsls	r3, r3, #2
 8003bcc:	441a      	add	r2, r3
 8003bce:	89fb      	ldrh	r3, [r7, #14]
 8003bd0:	f043 437f 	orr.w	r3, r3, #4278190080	@ 0xff000000
 8003bd4:	f443 037f 	orr.w	r3, r3, #16711680	@ 0xff0000
 8003bd8:	f443 4300 	orr.w	r3, r3, #32768	@ 0x8000
 8003bdc:	f043 0380 	orr.w	r3, r3, #128	@ 0x80
 8003be0:	b29b      	uxth	r3, r3
 8003be2:	8013      	strh	r3, [r2, #0]
 8003be4:	e2b8      	b.n	8004158 <USB_ActivateEndpoint+0x770>
      }
    }
    else
    {
      /* Set the endpoint Receive buffer address */
      PCD_SET_EP_RX_ADDRESS(USBx, ep->num, ep->pmaadress);
 8003be6:	687b      	ldr	r3, [r7, #4]
 8003be8:	633b      	str	r3, [r7, #48]	@ 0x30
 8003bea:	687b      	ldr	r3, [r7, #4]
 8003bec:	f8b3 3050 	ldrh.w	r3, [r3, #80]	@ 0x50
 8003bf0:	b29b      	uxth	r3, r3
 8003bf2:	461a      	mov	r2, r3
 8003bf4:	6b3b      	ldr	r3, [r7, #48]	@ 0x30
 8003bf6:	4413      	add	r3, r2
 8003bf8:	633b      	str	r3, [r7, #48]	@ 0x30
 8003bfa:	683b      	ldr	r3, [r7, #0]
 8003bfc:	781b      	ldrb	r3, [r3, #0]
 8003bfe:	011a      	lsls	r2, r3, #4
 8003c00:	6b3b      	ldr	r3, [r7, #48]	@ 0x30
 8003c02:	4413      	add	r3, r2
 8003c04:	f503 6381 	add.w	r3, r3, #1032	@ 0x408
 8003c08:	62fb      	str	r3, [r7, #44]	@ 0x2c
 8003c0a:	683b      	ldr	r3, [r7, #0]
 8003c0c:	88db      	ldrh	r3, [r3, #6]
 8003c0e:	085b      	lsrs	r3, r3, #1
 8003c10:	b29b      	uxth	r3, r3
 8003c12:	005b      	lsls	r3, r3, #1
 8003c14:	b29a      	uxth	r2, r3
 8003c16:	6afb      	ldr	r3, [r7, #44]	@ 0x2c
 8003c18:	801a      	strh	r2, [r3, #0]

      /* Set the endpoint Receive buffer counter */
      PCD_SET_EP_RX_CNT(USBx, ep->num, ep->maxpacket);
 8003c1a:	687b      	ldr	r3, [r7, #4]
 8003c1c:	62bb      	str	r3, [r7, #40]	@ 0x28
 8003c1e:	687b      	ldr	r3, [r7, #4]
 8003c20:	f8b3 3050 	ldrh.w	r3, [r3, #80]	@ 0x50
 8003c24:	b29b      	uxth	r3, r3
 8003c26:	461a      	mov	r2, r3
 8003c28:	6abb      	ldr	r3, [r7, #40]	@ 0x28
 8003c2a:	4413      	add	r3, r2
 8003c2c:	62bb      	str	r3, [r7, #40]	@ 0x28
 8003c2e:	683b      	ldr	r3, [r7, #0]
 8003c30:	781b      	ldrb	r3, [r3, #0]
 8003c32:	011a      	lsls	r2, r3, #4
 8003c34:	6abb      	ldr	r3, [r7, #40]	@ 0x28
 8003c36:	4413      	add	r3, r2
 8003c38:	f203 430c 	addw	r3, r3, #1036	@ 0x40c
 8003c3c:	627b      	str	r3, [r7, #36]	@ 0x24
 8003c3e:	6a7b      	ldr	r3, [r7, #36]	@ 0x24
 8003c40:	881b      	ldrh	r3, [r3, #0]
 8003c42:	b29b      	uxth	r3, r3
 8003c44:	f3c3 0309 	ubfx	r3, r3, #0, #10
 8003c48:	b29a      	uxth	r2, r3
 8003c4a:	6a7b      	ldr	r3, [r7, #36]	@ 0x24
 8003c4c:	801a      	strh	r2, [r3, #0]
 8003c4e:	683b      	ldr	r3, [r7, #0]
 8003c50:	691b      	ldr	r3, [r3, #16]
 8003c52:	2b3e      	cmp	r3, #62	@ 0x3e
 8003c54:	d91d      	bls.n	8003c92 <USB_ActivateEndpoint+0x2aa>
 8003c56:	683b      	ldr	r3, [r7, #0]
 8003c58:	691b      	ldr	r3, [r3, #16]
 8003c5a:	095b      	lsrs	r3, r3, #5
 8003c5c:	66bb      	str	r3, [r7, #104]	@ 0x68
 8003c5e:	683b      	ldr	r3, [r7, #0]
 8003c60:	691b      	ldr	r3, [r3, #16]
 8003c62:	f003 031f 	and.w	r3, r3, #31
 8003c66:	2b00      	cmp	r3, #0
 8003c68:	d102      	bne.n	8003c70 <USB_ActivateEndpoint+0x288>
 8003c6a:	6ebb      	ldr	r3, [r7, #104]	@ 0x68
 8003c6c:	3b01      	subs	r3, #1
 8003c6e:	66bb      	str	r3, [r7, #104]	@ 0x68
 8003c70:	6a7b      	ldr	r3, [r7, #36]	@ 0x24
 8003c72:	881b      	ldrh	r3, [r3, #0]
 8003c74:	b29a      	uxth	r2, r3
 8003c76:	6ebb      	ldr	r3, [r7, #104]	@ 0x68
 8003c78:	b29b      	uxth	r3, r3
 8003c7a:	029b      	lsls	r3, r3, #10
 8003c7c:	b29b      	uxth	r3, r3
 8003c7e:	4313      	orrs	r3, r2
 8003c80:	b29b      	uxth	r3, r3
 8003c82:	ea6f 4343 	mvn.w	r3, r3, lsl #17
 8003c86:	ea6f 4353 	mvn.w	r3, r3, lsr #17
 8003c8a:	b29a      	uxth	r2, r3
 8003c8c:	6a7b      	ldr	r3, [r7, #36]	@ 0x24
 8003c8e:	801a      	strh	r2, [r3, #0]
 8003c90:	e026      	b.n	8003ce0 <USB_ActivateEndpoint+0x2f8>
 8003c92:	683b      	ldr	r3, [r7, #0]
 8003c94:	691b      	ldr	r3, [r3, #16]
 8003c96:	2b00      	cmp	r3, #0
 8003c98:	d10a      	bne.n	8003cb0 <USB_ActivateEndpoint+0x2c8>
 8003c9a:	6a7b      	ldr	r3, [r7, #36]	@ 0x24
 8003c9c:	881b      	ldrh	r3, [r3, #0]
 8003c9e:	b29b      	uxth	r3, r3
 8003ca0:	ea6f 4343 	mvn.w	r3, r3, lsl #17
 8003ca4:	ea6f 4353 	mvn.w	r3, r3, lsr #17
 8003ca8:	b29a      	uxth	r2, r3
 8003caa:	6a7b      	ldr	r3, [r7, #36]	@ 0x24
 8003cac:	801a      	strh	r2, [r3, #0]
 8003cae:	e017      	b.n	8003ce0 <USB_ActivateEndpoint+0x2f8>
 8003cb0:	683b      	ldr	r3, [r7, #0]
 8003cb2:	691b      	ldr	r3, [r3, #16]
 8003cb4:	085b      	lsrs	r3, r3, #1
 8003cb6:	66bb      	str	r3, [r7, #104]	@ 0x68
 8003cb8:	683b      	ldr	r3, [r7, #0]
 8003cba:	691b      	ldr	r3, [r3, #16]
 8003cbc:	f003 0301 	and.w	r3, r3, #1
 8003cc0:	2b00      	cmp	r3, #0
 8003cc2:	d002      	beq.n	8003cca <USB_ActivateEndpoint+0x2e2>
 8003cc4:	6ebb      	ldr	r3, [r7, #104]	@ 0x68
 8003cc6:	3301      	adds	r3, #1
 8003cc8:	66bb      	str	r3, [r7, #104]	@ 0x68
 8003cca:	6a7b      	ldr	r3, [r7, #36]	@ 0x24
 8003ccc:	881b      	ldrh	r3, [r3, #0]
 8003cce:	b29a      	uxth	r2, r3
 8003cd0:	6ebb      	ldr	r3, [r7, #104]	@ 0x68
 8003cd2:	b29b      	uxth	r3, r3
 8003cd4:	029b      	lsls	r3, r3, #10
 8003cd6:	b29b      	uxth	r3, r3
 8003cd8:	4313      	orrs	r3, r2
 8003cda:	b29a      	uxth	r2, r3
 8003cdc:	6a7b      	ldr	r3, [r7, #36]	@ 0x24
 8003cde:	801a      	strh	r2, [r3, #0]
      PCD_CLEAR_RX_DTOG(USBx, ep->num);
 8003ce0:	687a      	ldr	r2, [r7, #4]
 8003ce2:	683b      	ldr	r3, [r7, #0]
 8003ce4:	781b      	ldrb	r3, [r3, #0]
 8003ce6:	009b      	lsls	r3, r3, #2
 8003ce8:	4413      	add	r3, r2
 8003cea:	881b      	ldrh	r3, [r3, #0]
 8003cec:	847b      	strh	r3, [r7, #34]	@ 0x22
 8003cee:	8c7b      	ldrh	r3, [r7, #34]	@ 0x22
 8003cf0:	f403 4380 	and.w	r3, r3, #16384	@ 0x4000
 8003cf4:	2b00      	cmp	r3, #0
 8003cf6:	d01b      	beq.n	8003d30 <USB_ActivateEndpoint+0x348>
 8003cf8:	687a      	ldr	r2, [r7, #4]
 8003cfa:	683b      	ldr	r3, [r7, #0]
 8003cfc:	781b      	ldrb	r3, [r3, #0]
 8003cfe:	009b      	lsls	r3, r3, #2
 8003d00:	4413      	add	r3, r2
 8003d02:	881b      	ldrh	r3, [r3, #0]
 8003d04:	b29b      	uxth	r3, r3
 8003d06:	f423 43e0 	bic.w	r3, r3, #28672	@ 0x7000
 8003d0a:	f023 0370 	bic.w	r3, r3, #112	@ 0x70
 8003d0e:	843b      	strh	r3, [r7, #32]
 8003d10:	687a      	ldr	r2, [r7, #4]
 8003d12:	683b      	ldr	r3, [r7, #0]
 8003d14:	781b      	ldrb	r3, [r3, #0]
 8003d16:	009b      	lsls	r3, r3, #2
 8003d18:	441a      	add	r2, r3
 8003d1a:	8c3b      	ldrh	r3, [r7, #32]
 8003d1c:	f043 437f 	orr.w	r3, r3, #4278190080	@ 0xff000000
 8003d20:	f443 037f 	orr.w	r3, r3, #16711680	@ 0xff0000
 8003d24:	f443 4340 	orr.w	r3, r3, #49152	@ 0xc000
 8003d28:	f043 0380 	orr.w	r3, r3, #128	@ 0x80
 8003d2c:	b29b      	uxth	r3, r3
 8003d2e:	8013      	strh	r3, [r2, #0]

      if (ep->num == 0U)
 8003d30:	683b      	ldr	r3, [r7, #0]
 8003d32:	781b      	ldrb	r3, [r3, #0]
 8003d34:	2b00      	cmp	r3, #0
 8003d36:	d124      	bne.n	8003d82 <USB_ActivateEndpoint+0x39a>
      {
        /* Configure VALID status for EP0 */
        PCD_SET_EP_RX_STATUS(USBx, ep->num, USB_EP_RX_VALID);
 8003d38:	687a      	ldr	r2, [r7, #4]
 8003d3a:	683b      	ldr	r3, [r7, #0]
 8003d3c:	781b      	ldrb	r3, [r3, #0]
 8003d3e:	009b      	lsls	r3, r3, #2
 8003d40:	4413      	add	r3, r2
 8003d42:	881b      	ldrh	r3, [r3, #0]
 8003d44:	b29b      	uxth	r3, r3
 8003d46:	f423 4380 	bic.w	r3, r3, #16384	@ 0x4000
 8003d4a:	f023 0370 	bic.w	r3, r3, #112	@ 0x70
 8003d4e:	83bb      	strh	r3, [r7, #28]
 8003d50:	8bbb      	ldrh	r3, [r7, #28]
 8003d52:	f483 5380 	eor.w	r3, r3, #4096	@ 0x1000
 8003d56:	83bb      	strh	r3, [r7, #28]
 8003d58:	8bbb      	ldrh	r3, [r7, #28]
 8003d5a:	f483 5300 	eor.w	r3, r3, #8192	@ 0x2000
 8003d5e:	83bb      	strh	r3, [r7, #28]
 8003d60:	687a      	ldr	r2, [r7, #4]
 8003d62:	683b      	ldr	r3, [r7, #0]
 8003d64:	781b      	ldrb	r3, [r3, #0]
 8003d66:	009b      	lsls	r3, r3, #2
 8003d68:	441a      	add	r2, r3
 8003d6a:	8bbb      	ldrh	r3, [r7, #28]
 8003d6c:	f043 437f 	orr.w	r3, r3, #4278190080	@ 0xff000000
 8003d70:	f443 037f 	orr.w	r3, r3, #16711680	@ 0xff0000
 8003d74:	f443 4300 	orr.w	r3, r3, #32768	@ 0x8000
 8003d78:	f043 0380 	orr.w	r3, r3, #128	@ 0x80
 8003d7c:	b29b      	uxth	r3, r3
 8003d7e:	8013      	strh	r3, [r2, #0]
 8003d80:	e1ea      	b.n	8004158 <USB_ActivateEndpoint+0x770>
      }
      else
      {
        /* Configure NAK status for OUT Endpoint */
        PCD_SET_EP_RX_STATUS(USBx, ep->num, USB_EP_RX_NAK);
 8003d82:	687a      	ldr	r2, [r7, #4]
 8003d84:	683b      	ldr	r3, [r7, #0]
 8003d86:	781b      	ldrb	r3, [r3, #0]
 8003d88:	009b      	lsls	r3, r3, #2
 8003d8a:	4413      	add	r3, r2
 8003d8c:	881b      	ldrh	r3, [r3, #0]
 8003d8e:	b29b      	uxth	r3, r3
 8003d90:	f423 4380 	bic.w	r3, r3, #16384	@ 0x4000
 8003d94:	f023 0370 	bic.w	r3, r3, #112	@ 0x70
 8003d98:	83fb      	strh	r3, [r7, #30]
 8003d9a:	8bfb      	ldrh	r3, [r7, #30]
 8003d9c:	f483 5300 	eor.w	r3, r3, #8192	@ 0x2000
 8003da0:	83fb      	strh	r3, [r7, #30]
 8003da2:	687a      	ldr	r2, [r7, #4]
 8003da4:	683b      	ldr	r3, [r7, #0]
 8003da6:	781b      	ldrb	r3, [r3, #0]
 8003da8:	009b      	lsls	r3, r3, #2
 8003daa:	441a      	add	r2, r3
 8003dac:	8bfb      	ldrh	r3, [r7, #30]
 8003dae:	f043 437f 	orr.w	r3, r3, #4278190080	@ 0xff000000
 8003db2:	f443 037f 	orr.w	r3, r3, #16711680	@ 0xff0000
 8003db6:	f443 4300 	orr.w	r3, r3, #32768	@ 0x8000
 8003dba:	f043 0380 	orr.w	r3, r3, #128	@ 0x80
 8003dbe:	b29b      	uxth	r3, r3
 8003dc0:	8013      	strh	r3, [r2, #0]
 8003dc2:	e1c9      	b.n	8004158 <USB_ActivateEndpoint+0x770>
  }
#if (USE_USB_DOUBLE_BUFFER == 1U)
  /* Double Buffer */
  else
  {
    if (ep->type == EP_TYPE_BULK)
 8003dc4:	683b      	ldr	r3, [r7, #0]
 8003dc6:	78db      	ldrb	r3, [r3, #3]
 8003dc8:	2b02      	cmp	r3, #2
 8003dca:	d11e      	bne.n	8003e0a <USB_ActivateEndpoint+0x422>
    {
      /* Set bulk endpoint as double buffered */
      PCD_SET_BULK_EP_DBUF(USBx, ep->num);
 8003dcc:	687a      	ldr	r2, [r7, #4]
 8003dce:	683b      	ldr	r3, [r7, #0]
 8003dd0:	781b      	ldrb	r3, [r3, #0]
 8003dd2:	009b      	lsls	r3, r3, #2
 8003dd4:	4413      	add	r3, r2
 8003dd6:	881b      	ldrh	r3, [r3, #0]
 8003dd8:	b29b      	uxth	r3, r3
 8003dda:	f423 43e0 	bic.w	r3, r3, #28672	@ 0x7000
 8003dde:	f023 0370 	bic.w	r3, r3, #112	@ 0x70
 8003de2:	f8a7 3062 	strh.w	r3, [r7, #98]	@ 0x62
 8003de6:	687a      	ldr	r2, [r7, #4]
 8003de8:	683b      	ldr	r3, [r7, #0]
 8003dea:	781b      	ldrb	r3, [r3, #0]
 8003dec:	009b      	lsls	r3, r3, #2
 8003dee:	441a      	add	r2, r3
 8003df0:	f8b7 3062 	ldrh.w	r3, [r7, #98]	@ 0x62
 8003df4:	f043 437f 	orr.w	r3, r3, #4278190080	@ 0xff000000
 8003df8:	f443 037f 	orr.w	r3, r3, #16711680	@ 0xff0000
 8003dfc:	f443 4301 	orr.w	r3, r3, #33024	@ 0x8100
 8003e00:	f043 0380 	orr.w	r3, r3, #128	@ 0x80
 8003e04:	b29b      	uxth	r3, r3
 8003e06:	8013      	strh	r3, [r2, #0]
 8003e08:	e01d      	b.n	8003e46 <USB_ActivateEndpoint+0x45e>
    }
    else
    {
      /* Set the ISOC endpoint in double buffer mode */
      PCD_CLEAR_EP_KIND(USBx, ep->num);
 8003e0a:	687a      	ldr	r2, [r7, #4]
 8003e0c:	683b      	ldr	r3, [r7, #0]
 8003e0e:	781b      	ldrb	r3, [r3, #0]
 8003e10:	009b      	lsls	r3, r3, #2
 8003e12:	4413      	add	r3, r2
 8003e14:	881b      	ldrh	r3, [r3, #0]
 8003e16:	b29b      	uxth	r3, r3
 8003e18:	f423 43e2 	bic.w	r3, r3, #28928	@ 0x7100
 8003e1c:	f023 0370 	bic.w	r3, r3, #112	@ 0x70
 8003e20:	f8a7 3064 	strh.w	r3, [r7, #100]	@ 0x64
 8003e24:	687a      	ldr	r2, [r7, #4]
 8003e26:	683b      	ldr	r3, [r7, #0]
 8003e28:	781b      	ldrb	r3, [r3, #0]
 8003e2a:	009b      	lsls	r3, r3, #2
 8003e2c:	441a      	add	r2, r3
 8003e2e:	f8b7 3064 	ldrh.w	r3, [r7, #100]	@ 0x64
 8003e32:	f043 437f 	orr.w	r3, r3, #4278190080	@ 0xff000000
 8003e36:	f443 037f 	orr.w	r3, r3, #16711680	@ 0xff0000
 8003e3a:	f443 4300 	orr.w	r3, r3, #32768	@ 0x8000
 8003e3e:	f043 0380 	orr.w	r3, r3, #128	@ 0x80
 8003e42:	b29b      	uxth	r3, r3
 8003e44:	8013      	strh	r3, [r2, #0]
    }

    /* Set buffer address for double buffered mode */
    PCD_SET_EP_DBUF_ADDR(USBx, ep->num, ep->pmaaddr0, ep->pmaaddr1);
 8003e46:	687b      	ldr	r3, [r7, #4]
 8003e48:	65fb      	str	r3, [r7, #92]	@ 0x5c
 8003e4a:	687b      	ldr	r3, [r7, #4]
 8003e4c:	f8b3 3050 	ldrh.w	r3, [r3, #80]	@ 0x50
 8003e50:	b29b      	uxth	r3, r3
 8003e52:	461a      	mov	r2, r3
 8003e54:	6dfb      	ldr	r3, [r7, #92]	@ 0x5c
 8003e56:	4413      	add	r3, r2
 8003e58:	65fb      	str	r3, [r7, #92]	@ 0x5c
 8003e5a:	683b      	ldr	r3, [r7, #0]
 8003e5c:	781b      	ldrb	r3, [r3, #0]
 8003e5e:	011a      	lsls	r2, r3, #4
 8003e60:	6dfb      	ldr	r3, [r7, #92]	@ 0x5c
 8003e62:	4413      	add	r3, r2
 8003e64:	f503 6380 	add.w	r3, r3, #1024	@ 0x400
 8003e68:	65bb      	str	r3, [r7, #88]	@ 0x58
 8003e6a:	683b      	ldr	r3, [r7, #0]
 8003e6c:	891b      	ldrh	r3, [r3, #8]
 8003e6e:	085b      	lsrs	r3, r3, #1
 8003e70:	b29b      	uxth	r3, r3
 8003e72:	005b      	lsls	r3, r3, #1
 8003e74:	b29a      	uxth	r2, r3
 8003e76:	6dbb      	ldr	r3, [r7, #88]	@ 0x58
 8003e78:	801a      	strh	r2, [r3, #0]
 8003e7a:	687b      	ldr	r3, [r7, #4]
 8003e7c:	657b      	str	r3, [r7, #84]	@ 0x54
 8003e7e:	687b      	ldr	r3, [r7, #4]
 8003e80:	f8b3 3050 	ldrh.w	r3, [r3, #80]	@ 0x50
 8003e84:	b29b      	uxth	r3, r3
 8003e86:	461a      	mov	r2, r3
 8003e88:	6d7b      	ldr	r3, [r7, #84]	@ 0x54
 8003e8a:	4413      	add	r3, r2
 8003e8c:	657b      	str	r3, [r7, #84]	@ 0x54
 8003e8e:	683b      	ldr	r3, [r7, #0]
 8003e90:	781b      	ldrb	r3, [r3, #0]
 8003e92:	011a      	lsls	r2, r3, #4
 8003e94:	6d7b      	ldr	r3, [r7, #84]	@ 0x54
 8003e96:	4413      	add	r3, r2
 8003e98:	f503 6381 	add.w	r3, r3, #1032	@ 0x408
 8003e9c:	653b      	str	r3, [r7, #80]	@ 0x50
 8003e9e:	683b      	ldr	r3, [r7, #0]
 8003ea0:	895b      	ldrh	r3, [r3, #10]
 8003ea2:	085b      	lsrs	r3, r3, #1
 8003ea4:	b29b      	uxth	r3, r3
 8003ea6:	005b      	lsls	r3, r3, #1
 8003ea8:	b29a      	uxth	r2, r3
 8003eaa:	6d3b      	ldr	r3, [r7, #80]	@ 0x50
 8003eac:	801a      	strh	r2, [r3, #0]

    if (ep->is_in == 0U)
 8003eae:	683b      	ldr	r3, [r7, #0]
 8003eb0:	785b      	ldrb	r3, [r3, #1]
 8003eb2:	2b00      	cmp	r3, #0
 8003eb4:	f040 8093 	bne.w	8003fde <USB_ActivateEndpoint+0x5f6>
    {
      /* Clear the data toggle bits for the endpoint IN/OUT */
      PCD_CLEAR_RX_DTOG(USBx, ep->num);
 8003eb8:	687a      	ldr	r2, [r7, #4]
 8003eba:	683b      	ldr	r3, [r7, #0]
 8003ebc:	781b      	ldrb	r3, [r3, #0]
 8003ebe:	009b      	lsls	r3, r3, #2
 8003ec0:	4413      	add	r3, r2
 8003ec2:	881b      	ldrh	r3, [r3, #0]
 8003ec4:	f8a7 3040 	strh.w	r3, [r7, #64]	@ 0x40
 8003ec8:	f8b7 3040 	ldrh.w	r3, [r7, #64]	@ 0x40
 8003ecc:	f403 4380 	and.w	r3, r3, #16384	@ 0x4000
 8003ed0:	2b00      	cmp	r3, #0
 8003ed2:	d01b      	beq.n	8003f0c <USB_ActivateEndpoint+0x524>
 8003ed4:	687a      	ldr	r2, [r7, #4]
 8003ed6:	683b      	ldr	r3, [r7, #0]
 8003ed8:	781b      	ldrb	r3, [r3, #0]
 8003eda:	009b      	lsls	r3, r3, #2
 8003edc:	4413      	add	r3, r2
 8003ede:	881b      	ldrh	r3, [r3, #0]
 8003ee0:	b29b      	uxth	r3, r3
 8003ee2:	f423 43e0 	bic.w	r3, r3, #28672	@ 0x7000
 8003ee6:	f023 0370 	bic.w	r3, r3, #112	@ 0x70
 8003eea:	87fb      	strh	r3, [r7, #62]	@ 0x3e
 8003eec:	687a      	ldr	r2, [r7, #4]
 8003eee:	683b      	ldr	r3, [r7, #0]
 8003ef0:	781b      	ldrb	r3, [r3, #0]
 8003ef2:	009b      	lsls	r3, r3, #2
 8003ef4:	441a      	add	r2, r3
 8003ef6:	8ffb      	ldrh	r3, [r7, #62]	@ 0x3e
 8003ef8:	f043 437f 	orr.w	r3, r3, #4278190080	@ 0xff000000
 8003efc:	f443 037f 	orr.w	r3, r3, #16711680	@ 0xff0000
 8003f00:	f443 4340 	orr.w	r3, r3, #49152	@ 0xc000
 8003f04:	f043 0380 	orr.w	r3, r3, #128	@ 0x80
 8003f08:	b29b      	uxth	r3, r3
 8003f0a:	8013      	strh	r3, [r2, #0]
      PCD_CLEAR_TX_DTOG(USBx, ep->num);
 8003f0c:	687a      	ldr	r2, [r7, #4]
 8003f0e:	683b      	ldr	r3, [r7, #0]
 8003f10:	781b      	ldrb	r3, [r3, #0]
 8003f12:	009b      	lsls	r3, r3, #2
 8003f14:	4413      	add	r3, r2
 8003f16:	881b      	ldrh	r3, [r3, #0]
 8003f18:	87bb      	strh	r3, [r7, #60]	@ 0x3c
 8003f1a:	8fbb      	ldrh	r3, [r7, #60]	@ 0x3c
 8003f1c:	f003 0340 	and.w	r3, r3, #64	@ 0x40
 8003f20:	2b00      	cmp	r3, #0
 8003f22:	d01b      	beq.n	8003f5c <USB_ActivateEndpoint+0x574>
 8003f24:	687a      	ldr	r2, [r7, #4]
 8003f26:	683b      	ldr	r3, [r7, #0]
 8003f28:	781b      	ldrb	r3, [r3, #0]
 8003f2a:	009b      	lsls	r3, r3, #2
 8003f2c:	4413      	add	r3, r2
 8003f2e:	881b      	ldrh	r3, [r3, #0]
 8003f30:	b29b      	uxth	r3, r3
 8003f32:	f423 43e0 	bic.w	r3, r3, #28672	@ 0x7000
 8003f36:	f023 0370 	bic.w	r3, r3, #112	@ 0x70
 8003f3a:	877b      	strh	r3, [r7, #58]	@ 0x3a
 8003f3c:	687a      	ldr	r2, [r7, #4]
 8003f3e:	683b      	ldr	r3, [r7, #0]
 8003f40:	781b      	ldrb	r3, [r3, #0]
 8003f42:	009b      	lsls	r3, r3, #2
 8003f44:	441a      	add	r2, r3
 8003f46:	8f7b      	ldrh	r3, [r7, #58]	@ 0x3a
 8003f48:	f043 437f 	orr.w	r3, r3, #4278190080	@ 0xff000000
 8003f4c:	f443 037f 	orr.w	r3, r3, #16711680	@ 0xff0000
 8003f50:	f443 4300 	orr.w	r3, r3, #32768	@ 0x8000
 8003f54:	f043 03c0 	orr.w	r3, r3, #192	@ 0xc0
 8003f58:	b29b      	uxth	r3, r3
 8003f5a:	8013      	strh	r3, [r2, #0]

      PCD_SET_EP_RX_STATUS(USBx, ep->num, USB_EP_RX_VALID);
 8003f5c:	687a      	ldr	r2, [r7, #4]
 8003f5e:	683b      	ldr	r3, [r7, #0]
 8003f60:	781b      	ldrb	r3, [r3, #0]
 8003f62:	009b      	lsls	r3, r3, #2
 8003f64:	4413      	add	r3, r2
 8003f66:	881b      	ldrh	r3, [r3, #0]
 8003f68:	b29b      	uxth	r3, r3
 8003f6a:	f423 4380 	bic.w	r3, r3, #16384	@ 0x4000
 8003f6e:	f023 0370 	bic.w	r3, r3, #112	@ 0x70
 8003f72:	873b      	strh	r3, [r7, #56]	@ 0x38
 8003f74:	8f3b      	ldrh	r3, [r7, #56]	@ 0x38
 8003f76:	f483 5380 	eor.w	r3, r3, #4096	@ 0x1000
 8003f7a:	873b      	strh	r3, [r7, #56]	@ 0x38
 8003f7c:	8f3b      	ldrh	r3, [r7, #56]	@ 0x38
 8003f7e:	f483 5300 	eor.w	r3, r3, #8192	@ 0x2000
 8003f82:	873b      	strh	r3, [r7, #56]	@ 0x38
 8003f84:	687a      	ldr	r2, [r7, #4]
 8003f86:	683b      	ldr	r3, [r7, #0]
 8003f88:	781b      	ldrb	r3, [r3, #0]
 8003f8a:	009b      	lsls	r3, r3, #2
 8003f8c:	441a      	add	r2, r3
 8003f8e:	8f3b      	ldrh	r3, [r7, #56]	@ 0x38
 8003f90:	f043 437f 	orr.w	r3, r3, #4278190080	@ 0xff000000
 8003f94:	f443 037f 	orr.w	r3, r3, #16711680	@ 0xff0000
 8003f98:	f443 4300 	orr.w	r3, r3, #32768	@ 0x8000
 8003f9c:	f043 0380 	orr.w	r3, r3, #128	@ 0x80
 8003fa0:	b29b      	uxth	r3, r3
 8003fa2:	8013      	strh	r3, [r2, #0]
      PCD_SET_EP_TX_STATUS(USBx, ep->num, USB_EP_TX_DIS);
 8003fa4:	687a      	ldr	r2, [r7, #4]
 8003fa6:	683b      	ldr	r3, [r7, #0]
 8003fa8:	781b      	ldrb	r3, [r3, #0]
 8003faa:	009b      	lsls	r3, r3, #2
 8003fac:	4413      	add	r3, r2
 8003fae:	881b      	ldrh	r3, [r3, #0]
 8003fb0:	b29b      	uxth	r3, r3
 8003fb2:	f423 43e0 	bic.w	r3, r3, #28672	@ 0x7000
 8003fb6:	f023 0340 	bic.w	r3, r3, #64	@ 0x40
 8003fba:	86fb      	strh	r3, [r7, #54]	@ 0x36
 8003fbc:	687a      	ldr	r2, [r7, #4]
 8003fbe:	683b      	ldr	r3, [r7, #0]
 8003fc0:	781b      	ldrb	r3, [r3, #0]
 8003fc2:	009b      	lsls	r3, r3, #2
 8003fc4:	441a      	add	r2, r3
 8003fc6:	8efb      	ldrh	r3, [r7, #54]	@ 0x36
 8003fc8:	f043 437f 	orr.w	r3, r3, #4278190080	@ 0xff000000
 8003fcc:	f443 037f 	orr.w	r3, r3, #16711680	@ 0xff0000
 8003fd0:	f443 4300 	orr.w	r3, r3, #32768	@ 0x8000
 8003fd4:	f043 0380 	orr.w	r3, r3, #128	@ 0x80
 8003fd8:	b29b      	uxth	r3, r3
 8003fda:	8013      	strh	r3, [r2, #0]
 8003fdc:	e0bc      	b.n	8004158 <USB_ActivateEndpoint+0x770>
    }
    else
    {
      /* Clear the data toggle bits for the endpoint IN/OUT */
      PCD_CLEAR_RX_DTOG(USBx, ep->num);
 8003fde:	687a      	ldr	r2, [r7, #4]
 8003fe0:	683b      	ldr	r3, [r7, #0]
 8003fe2:	781b      	ldrb	r3, [r3, #0]
 8003fe4:	009b      	lsls	r3, r3, #2
 8003fe6:	4413      	add	r3, r2
 8003fe8:	881b      	ldrh	r3, [r3, #0]
 8003fea:	f8a7 304e 	strh.w	r3, [r7, #78]	@ 0x4e
 8003fee:	f8b7 304e 	ldrh.w	r3, [r7, #78]	@ 0x4e
 8003ff2:	f403 4380 	and.w	r3, r3, #16384	@ 0x4000
 8003ff6:	2b00      	cmp	r3, #0
 8003ff8:	d01d      	beq.n	8004036 <USB_ActivateEndpoint+0x64e>
 8003ffa:	687a      	ldr	r2, [r7, #4]
 8003ffc:	683b      	ldr	r3, [r7, #0]
 8003ffe:	781b      	ldrb	r3, [r3, #0]
 8004000:	009b      	lsls	r3, r3, #2
 8004002:	4413      	add	r3, r2
 8004004:	881b      	ldrh	r3, [r3, #0]
 8004006:	b29b      	uxth	r3, r3
 8004008:	f423 43e0 	bic.w	r3, r3, #28672	@ 0x7000
 800400c:	f023 0370 	bic.w	r3, r3, #112	@ 0x70
 8004010:	f8a7 304c 	strh.w	r3, [r7, #76]	@ 0x4c
 8004014:	687a      	ldr	r2, [r7, #4]
 8004016:	683b      	ldr	r3, [r7, #0]
 8004018:	781b      	ldrb	r3, [r3, #0]
 800401a:	009b      	lsls	r3, r3, #2
 800401c:	441a      	add	r2, r3
 800401e:	f8b7 304c 	ldrh.w	r3, [r7, #76]	@ 0x4c
 8004022:	f043 437f 	orr.w	r3, r3, #4278190080	@ 0xff000000
 8004026:	f443 037f 	orr.w	r3, r3, #16711680	@ 0xff0000
 800402a:	f443 4340 	orr.w	r3, r3, #49152	@ 0xc000
 800402e:	f043 0380 	orr.w	r3, r3, #128	@ 0x80
 8004032:	b29b      	uxth	r3, r3
 8004034:	8013      	strh	r3, [r2, #0]
      PCD_CLEAR_TX_DTOG(USBx, ep->num);
 8004036:	687a      	ldr	r2, [r7, #4]
 8004038:	683b      	ldr	r3, [r7, #0]
 800403a:	781b      	ldrb	r3, [r3, #0]
 800403c:	009b      	lsls	r3, r3, #2
 800403e:	4413      	add	r3, r2
 8004040:	881b      	ldrh	r3, [r3, #0]
 8004042:	f8a7 304a 	strh.w	r3, [r7, #74]	@ 0x4a
 8004046:	f8b7 304a 	ldrh.w	r3, [r7, #74]	@ 0x4a
 800404a:	f003 0340 	and.w	r3, r3, #64	@ 0x40
 800404e:	2b00      	cmp	r3, #0
 8004050:	d01d      	beq.n	800408e <USB_ActivateEndpoint+0x6a6>
 8004052:	687a      	ldr	r2, [r7, #4]
 8004054:	683b      	ldr	r3, [r7, #0]
 8004056:	781b      	ldrb	r3, [r3, #0]
 8004058:	009b      	lsls	r3, r3, #2
 800405a:	4413      	add	r3, r2
 800405c:	881b      	ldrh	r3, [r3, #0]
 800405e:	b29b      	uxth	r3, r3
 8004060:	f423 43e0 	bic.w	r3, r3, #28672	@ 0x7000
 8004064:	f023 0370 	bic.w	r3, r3, #112	@ 0x70
 8004068:	f8a7 3048 	strh.w	r3, [r7, #72]	@ 0x48
 800406c:	687a      	ldr	r2, [r7, #4]
 800406e:	683b      	ldr	r3, [r7, #0]
 8004070:	781b      	ldrb	r3, [r3, #0]
 8004072:	009b      	lsls	r3, r3, #2
 8004074:	441a      	add	r2, r3
 8004076:	f8b7 3048 	ldrh.w	r3, [r7, #72]	@ 0x48
 800407a:	f043 437f 	orr.w	r3, r3, #4278190080	@ 0xff000000
 800407e:	f443 037f 	orr.w	r3, r3, #16711680	@ 0xff0000
 8004082:	f443 4300 	orr.w	r3, r3, #32768	@ 0x8000
 8004086:	f043 03c0 	orr.w	r3, r3, #192	@ 0xc0
 800408a:	b29b      	uxth	r3, r3
 800408c:	8013      	strh	r3, [r2, #0]

      if (ep->type != EP_TYPE_ISOC)
 800408e:	683b      	ldr	r3, [r7, #0]
 8004090:	78db      	ldrb	r3, [r3, #3]
 8004092:	2b01      	cmp	r3, #1
 8004094:	d024      	beq.n	80040e0 <USB_ActivateEndpoint+0x6f8>
      {
        /* Configure NAK status for the Endpoint */
        PCD_SET_EP_TX_STATUS(USBx, ep->num, USB_EP_TX_NAK);
 8004096:	687a      	ldr	r2, [r7, #4]
 8004098:	683b      	ldr	r3, [r7, #0]
 800409a:	781b      	ldrb	r3, [r3, #0]
 800409c:	009b      	lsls	r3, r3, #2
 800409e:	4413      	add	r3, r2
 80040a0:	881b      	ldrh	r3, [r3, #0]
 80040a2:	b29b      	uxth	r3, r3
 80040a4:	f423 43e0 	bic.w	r3, r3, #28672	@ 0x7000
 80040a8:	f023 0340 	bic.w	r3, r3, #64	@ 0x40
 80040ac:	f8a7 3044 	strh.w	r3, [r7, #68]	@ 0x44
 80040b0:	f8b7 3044 	ldrh.w	r3, [r7, #68]	@ 0x44
 80040b4:	f083 0320 	eor.w	r3, r3, #32
 80040b8:	f8a7 3044 	strh.w	r3, [r7, #68]	@ 0x44
 80040bc:	687a      	ldr	r2, [r7, #4]
 80040be:	683b      	ldr	r3, [r7, #0]
 80040c0:	781b      	ldrb	r3, [r3, #0]
 80040c2:	009b      	lsls	r3, r3, #2
 80040c4:	441a      	add	r2, r3
 80040c6:	f8b7 3044 	ldrh.w	r3, [r7, #68]	@ 0x44
 80040ca:	f043 437f 	orr.w	r3, r3, #4278190080	@ 0xff000000
 80040ce:	f443 037f 	orr.w	r3, r3, #16711680	@ 0xff0000
 80040d2:	f443 4300 	orr.w	r3, r3, #32768	@ 0x8000
 80040d6:	f043 0380 	orr.w	r3, r3, #128	@ 0x80
 80040da:	b29b      	uxth	r3, r3
 80040dc:	8013      	strh	r3, [r2, #0]
 80040de:	e01d      	b.n	800411c <USB_ActivateEndpoint+0x734>
      }
      else
      {
        /* Configure TX Endpoint to disabled state */
        PCD_SET_EP_TX_STATUS(USBx, ep->num, USB_EP_TX_DIS);
 80040e0:	687a      	ldr	r2, [r7, #4]
 80040e2:	683b      	ldr	r3, [r7, #0]
 80040e4:	781b      	ldrb	r3, [r3, #0]
 80040e6:	009b      	lsls	r3, r3, #2
 80040e8:	4413      	add	r3, r2
 80040ea:	881b      	ldrh	r3, [r3, #0]
 80040ec:	b29b      	uxth	r3, r3
 80040ee:	f423 43e0 	bic.w	r3, r3, #28672	@ 0x7000
 80040f2:	f023 0340 	bic.w	r3, r3, #64	@ 0x40
 80040f6:	f8a7 3046 	strh.w	r3, [r7, #70]	@ 0x46
 80040fa:	687a      	ldr	r2, [r7, #4]
 80040fc:	683b      	ldr	r3, [r7, #0]
 80040fe:	781b      	ldrb	r3, [r3, #0]
 8004100:	009b      	lsls	r3, r3, #2
 8004102:	441a      	add	r2, r3
 8004104:	f8b7 3046 	ldrh.w	r3, [r7, #70]	@ 0x46
 8004108:	f043 437f 	orr.w	r3, r3, #4278190080	@ 0xff000000
 800410c:	f443 037f 	orr.w	r3, r3, #16711680	@ 0xff0000
 8004110:	f443 4300 	orr.w	r3, r3, #32768	@ 0x8000
 8004114:	f043 0380 	orr.w	r3, r3, #128	@ 0x80
 8004118:	b29b      	uxth	r3, r3
 800411a:	8013      	strh	r3, [r2, #0]
      }

      PCD_SET_EP_RX_STATUS(USBx, ep->num, USB_EP_RX_DIS);
 800411c:	687a      	ldr	r2, [r7, #4]
 800411e:	683b      	ldr	r3, [r7, #0]
 8004120:	781b      	ldrb	r3, [r3, #0]
 8004122:	009b      	lsls	r3, r3, #2
 8004124:	4413      	add	r3, r2
 8004126:	881b      	ldrh	r3, [r3, #0]
 8004128:	b29b      	uxth	r3, r3
 800412a:	f423 4380 	bic.w	r3, r3, #16384	@ 0x4000
 800412e:	f023 0370 	bic.w	r3, r3, #112	@ 0x70
 8004132:	f8a7 3042 	strh.w	r3, [r7, #66]	@ 0x42
 8004136:	687a      	ldr	r2, [r7, #4]
 8004138:	683b      	ldr	r3, [r7, #0]
 800413a:	781b      	ldrb	r3, [r3, #0]
 800413c:	009b      	lsls	r3, r3, #2
 800413e:	441a      	add	r2, r3
 8004140:	f8b7 3042 	ldrh.w	r3, [r7, #66]	@ 0x42
 8004144:	f043 437f 	orr.w	r3, r3, #4278190080	@ 0xff000000
 8004148:	f443 037f 	orr.w	r3, r3, #16711680	@ 0xff0000
 800414c:	f443 4300 	orr.w	r3, r3, #32768	@ 0x8000
 8004150:	f043 0380 	orr.w	r3, r3, #128	@ 0x80
 8004154:	b29b      	uxth	r3, r3
 8004156:	8013      	strh	r3, [r2, #0]
    }
  }
#endif /* (USE_USB_DOUBLE_BUFFER == 1U) */

  return ret;
 8004158:	f897 306f 	ldrb.w	r3, [r7, #111]	@ 0x6f
}
 800415c:	4618      	mov	r0, r3
 800415e:	3774      	adds	r7, #116	@ 0x74
 8004160:	46bd      	mov	sp, r7
 8004162:	bc80      	pop	{r7}
 8004164:	4770      	bx	lr
 8004166:	bf00      	nop

08004168 <USB_DeactivateEndpoint>:
  * @param  USBx Selected device
  * @param  ep pointer to endpoint structure
  * @retval HAL status
  */
HAL_StatusTypeDef USB_DeactivateEndpoint(USB_TypeDef *USBx, USB_EPTypeDef *ep)
{
 8004168:	b480      	push	{r7}
 800416a:	b08d      	sub	sp, #52	@ 0x34
 800416c:	af00      	add	r7, sp, #0
 800416e:	6078      	str	r0, [r7, #4]
 8004170:	6039      	str	r1, [r7, #0]
  if (ep->doublebuffer == 0U)
 8004172:	683b      	ldr	r3, [r7, #0]
 8004174:	7b1b      	ldrb	r3, [r3, #12]
 8004176:	2b00      	cmp	r3, #0
 8004178:	f040 808e 	bne.w	8004298 <USB_DeactivateEndpoint+0x130>
  {
    if (ep->is_in != 0U)
 800417c:	683b      	ldr	r3, [r7, #0]
 800417e:	785b      	ldrb	r3, [r3, #1]
 8004180:	2b00      	cmp	r3, #0
 8004182:	d044      	beq.n	800420e <USB_DeactivateEndpoint+0xa6>
    {
      PCD_CLEAR_TX_DTOG(USBx, ep->num);
 8004184:	687a      	ldr	r2, [r7, #4]
 8004186:	683b      	ldr	r3, [r7, #0]
 8004188:	781b      	ldrb	r3, [r3, #0]
 800418a:	009b      	lsls	r3, r3, #2
 800418c:	4413      	add	r3, r2
 800418e:	881b      	ldrh	r3, [r3, #0]
 8004190:	81bb      	strh	r3, [r7, #12]
 8004192:	89bb      	ldrh	r3, [r7, #12]
 8004194:	f003 0340 	and.w	r3, r3, #64	@ 0x40
 8004198:	2b00      	cmp	r3, #0
 800419a:	d01b      	beq.n	80041d4 <USB_DeactivateEndpoint+0x6c>
 800419c:	687a      	ldr	r2, [r7, #4]
 800419e:	683b      	ldr	r3, [r7, #0]
 80041a0:	781b      	ldrb	r3, [r3, #0]
 80041a2:	009b      	lsls	r3, r3, #2
 80041a4:	4413      	add	r3, r2
 80041a6:	881b      	ldrh	r3, [r3, #0]
 80041a8:	b29b      	uxth	r3, r3
 80041aa:	f423 43e0 	bic.w	r3, r3, #28672	@ 0x7000
 80041ae:	f023 0370 	bic.w	r3, r3, #112	@ 0x70
 80041b2:	817b      	strh	r3, [r7, #10]
 80041b4:	687a      	ldr	r2, [r7, #4]
 80041b6:	683b      	ldr	r3, [r7, #0]
 80041b8:	781b      	ldrb	r3, [r3, #0]
 80041ba:	009b      	lsls	r3, r3, #2
 80041bc:	441a      	add	r2, r3
 80041be:	897b      	ldrh	r3, [r7, #10]
 80041c0:	f043 437f 	orr.w	r3, r3, #4278190080	@ 0xff000000
 80041c4:	f443 037f 	orr.w	r3, r3, #16711680	@ 0xff0000
 80041c8:	f443 4300 	orr.w	r3, r3, #32768	@ 0x8000
 80041cc:	f043 03c0 	orr.w	r3, r3, #192	@ 0xc0
 80041d0:	b29b      	uxth	r3, r3
 80041d2:	8013      	strh	r3, [r2, #0]

      /* Configure DISABLE status for the Endpoint */
      PCD_SET_EP_TX_STATUS(USBx, ep->num, USB_EP_TX_DIS);
 80041d4:	687a      	ldr	r2, [r7, #4]
 80041d6:	683b      	ldr	r3, [r7, #0]
 80041d8:	781b      	ldrb	r3, [r3, #0]
 80041da:	009b      	lsls	r3, r3, #2
 80041dc:	4413      	add	r3, r2
 80041de:	881b      	ldrh	r3, [r3, #0]
 80041e0:	b29b      	uxth	r3, r3
 80041e2:	f423 43e0 	bic.w	r3, r3, #28672	@ 0x7000
 80041e6:	f023 0340 	bic.w	r3, r3, #64	@ 0x40
 80041ea:	813b      	strh	r3, [r7, #8]
 80041ec:	687a      	ldr	r2, [r7, #4]
 80041ee:	683b      	ldr	r3, [r7, #0]
 80041f0:	781b      	ldrb	r3, [r3, #0]
 80041f2:	009b      	lsls	r3, r3, #2
 80041f4:	441a      	add	r2, r3
 80041f6:	893b      	ldrh	r3, [r7, #8]
 80041f8:	f043 437f 	orr.w	r3, r3, #4278190080	@ 0xff000000
 80041fc:	f443 037f 	orr.w	r3, r3, #16711680	@ 0xff0000
 8004200:	f443 4300 	orr.w	r3, r3, #32768	@ 0x8000
 8004204:	f043 0380 	orr.w	r3, r3, #128	@ 0x80
 8004208:	b29b      	uxth	r3, r3
 800420a:	8013      	strh	r3, [r2, #0]
 800420c:	e192      	b.n	8004534 <USB_DeactivateEndpoint+0x3cc>
    }

    else
    {
      PCD_CLEAR_RX_DTOG(USBx, ep->num);
 800420e:	687a      	ldr	r2, [r7, #4]
 8004210:	683b      	ldr	r3, [r7, #0]
 8004212:	781b      	ldrb	r3, [r3, #0]
 8004214:	009b      	lsls	r3, r3, #2
 8004216:	4413      	add	r3, r2
 8004218:	881b      	ldrh	r3, [r3, #0]
 800421a:	827b      	strh	r3, [r7, #18]
 800421c:	8a7b      	ldrh	r3, [r7, #18]
 800421e:	f403 4380 	and.w	r3, r3, #16384	@ 0x4000
 8004222:	2b00      	cmp	r3, #0
 8004224:	d01b      	beq.n	800425e <USB_DeactivateEndpoint+0xf6>
 8004226:	687a      	ldr	r2, [r7, #4]
 8004228:	683b      	ldr	r3, [r7, #0]
 800422a:	781b      	ldrb	r3, [r3, #0]
 800422c:	009b      	lsls	r3, r3, #2
 800422e:	4413      	add	r3, r2
 8004230:	881b      	ldrh	r3, [r3, #0]
 8004232:	b29b      	uxth	r3, r3
 8004234:	f423 43e0 	bic.w	r3, r3, #28672	@ 0x7000
 8004238:	f023 0370 	bic.w	r3, r3, #112	@ 0x70
 800423c:	823b      	strh	r3, [r7, #16]
 800423e:	687a      	ldr	r2, [r7, #4]
 8004240:	683b      	ldr	r3, [r7, #0]
 8004242:	781b      	ldrb	r3, [r3, #0]
 8004244:	009b      	lsls	r3, r3, #2
 8004246:	441a      	add	r2, r3
 8004248:	8a3b      	ldrh	r3, [r7, #16]
 800424a:	f043 437f 	orr.w	r3, r3, #4278190080	@ 0xff000000
 800424e:	f443 037f 	orr.w	r3, r3, #16711680	@ 0xff0000
 8004252:	f443 4340 	orr.w	r3, r3, #49152	@ 0xc000
 8004256:	f043 0380 	orr.w	r3, r3, #128	@ 0x80
 800425a:	b29b      	uxth	r3, r3
 800425c:	8013      	strh	r3, [r2, #0]

      /* Configure DISABLE status for the Endpoint */
      PCD_SET_EP_RX_STATUS(USBx, ep->num, USB_EP_RX_DIS);
 800425e:	687a      	ldr	r2, [r7, #4]
 8004260:	683b      	ldr	r3, [r7, #0]
 8004262:	781b      	ldrb	r3, [r3, #0]
 8004264:	009b      	lsls	r3, r3, #2
 8004266:	4413      	add	r3, r2
 8004268:	881b      	ldrh	r3, [r3, #0]
 800426a:	b29b      	uxth	r3, r3
 800426c:	f423 4380 	bic.w	r3, r3, #16384	@ 0x4000
 8004270:	f023 0370 	bic.w	r3, r3, #112	@ 0x70
 8004274:	81fb      	strh	r3, [r7, #14]
 8004276:	687a      	ldr	r2, [r7, #4]
 8004278:	683b      	ldr	r3, [r7, #0]
 800427a:	781b      	ldrb	r3, [r3, #0]
 800427c:	009b      	lsls	r3, r3, #2
 800427e:	441a      	add	r2, r3
 8004280:	89fb      	ldrh	r3, [r7, #14]
 8004282:	f043 437f 	orr.w	r3, r3, #4278190080	@ 0xff000000
 8004286:	f443 037f 	orr.w	r3, r3, #16711680	@ 0xff0000
 800428a:	f443 4300 	orr.w	r3, r3, #32768	@ 0x8000
 800428e:	f043 0380 	orr.w	r3, r3, #128	@ 0x80
 8004292:	b29b      	uxth	r3, r3
 8004294:	8013      	strh	r3, [r2, #0]
 8004296:	e14d      	b.n	8004534 <USB_DeactivateEndpoint+0x3cc>
  }
#if (USE_USB_DOUBLE_BUFFER == 1U)
  /* Double Buffer */
  else
  {
    if (ep->is_in == 0U)
 8004298:	683b      	ldr	r3, [r7, #0]
 800429a:	785b      	ldrb	r3, [r3, #1]
 800429c:	2b00      	cmp	r3, #0
 800429e:	f040 80a5 	bne.w	80043ec <USB_DeactivateEndpoint+0x284>
    {
      /* Clear the data toggle bits for the endpoint IN/OUT*/
      PCD_CLEAR_RX_DTOG(USBx, ep->num);
 80042a2:	687a      	ldr	r2, [r7, #4]
 80042a4:	683b      	ldr	r3, [r7, #0]
 80042a6:	781b      	ldrb	r3, [r3, #0]
 80042a8:	009b      	lsls	r3, r3, #2
 80042aa:	4413      	add	r3, r2
 80042ac:	881b      	ldrh	r3, [r3, #0]
 80042ae:	843b      	strh	r3, [r7, #32]
 80042b0:	8c3b      	ldrh	r3, [r7, #32]
 80042b2:	f403 4380 	and.w	r3, r3, #16384	@ 0x4000
 80042b6:	2b00      	cmp	r3, #0
 80042b8:	d01b      	beq.n	80042f2 <USB_DeactivateEndpoint+0x18a>
 80042ba:	687a      	ldr	r2, [r7, #4]
 80042bc:	683b      	ldr	r3, [r7, #0]
 80042be:	781b      	ldrb	r3, [r3, #0]
 80042c0:	009b      	lsls	r3, r3, #2
 80042c2:	4413      	add	r3, r2
 80042c4:	881b      	ldrh	r3, [r3, #0]
 80042c6:	b29b      	uxth	r3, r3
 80042c8:	f423 43e0 	bic.w	r3, r3, #28672	@ 0x7000
 80042cc:	f023 0370 	bic.w	r3, r3, #112	@ 0x70
 80042d0:	83fb      	strh	r3, [r7, #30]
 80042d2:	687a      	ldr	r2, [r7, #4]
 80042d4:	683b      	ldr	r3, [r7, #0]
 80042d6:	781b      	ldrb	r3, [r3, #0]
 80042d8:	009b      	lsls	r3, r3, #2
 80042da:	441a      	add	r2, r3
 80042dc:	8bfb      	ldrh	r3, [r7, #30]
 80042de:	f043 437f 	orr.w	r3, r3, #4278190080	@ 0xff000000
 80042e2:	f443 037f 	orr.w	r3, r3, #16711680	@ 0xff0000
 80042e6:	f443 4340 	orr.w	r3, r3, #49152	@ 0xc000
 80042ea:	f043 0380 	orr.w	r3, r3, #128	@ 0x80
 80042ee:	b29b      	uxth	r3, r3
 80042f0:	8013      	strh	r3, [r2, #0]
      PCD_CLEAR_TX_DTOG(USBx, ep->num);
 80042f2:	687a      	ldr	r2, [r7, #4]
 80042f4:	683b      	ldr	r3, [r7, #0]
 80042f6:	781b      	ldrb	r3, [r3, #0]
 80042f8:	009b      	lsls	r3, r3, #2
 80042fa:	4413      	add	r3, r2
 80042fc:	881b      	ldrh	r3, [r3, #0]
 80042fe:	83bb      	strh	r3, [r7, #28]
 8004300:	8bbb      	ldrh	r3, [r7, #28]
 8004302:	f003 0340 	and.w	r3, r3, #64	@ 0x40
 8004306:	2b00      	cmp	r3, #0
 8004308:	d01b      	beq.n	8004342 <USB_DeactivateEndpoint+0x1da>
 800430a:	687a      	ldr	r2, [r7, #4]
 800430c:	683b      	ldr	r3, [r7, #0]
 800430e:	781b      	ldrb	r3, [r3, #0]
 8004310:	009b      	lsls	r3, r3, #2
 8004312:	4413      	add	r3, r2
 8004314:	881b      	ldrh	r3, [r3, #0]
 8004316:	b29b      	uxth	r3, r3
 8004318:	f423 43e0 	bic.w	r3, r3, #28672	@ 0x7000
 800431c:	f023 0370 	bic.w	r3, r3, #112	@ 0x70
 8004320:	837b      	strh	r3, [r7, #26]
 8004322:	687a      	ldr	r2, [r7, #4]
 8004324:	683b      	ldr	r3, [r7, #0]
 8004326:	781b      	ldrb	r3, [r3, #0]
 8004328:	009b      	lsls	r3, r3, #2
 800432a:	441a      	add	r2, r3
 800432c:	8b7b      	ldrh	r3, [r7, #26]
 800432e:	f043 437f 	orr.w	r3, r3, #4278190080	@ 0xff000000
 8004332:	f443 037f 	orr.w	r3, r3, #16711680	@ 0xff0000
 8004336:	f443 4300 	orr.w	r3, r3, #32768	@ 0x8000
 800433a:	f043 03c0 	orr.w	r3, r3, #192	@ 0xc0
 800433e:	b29b      	uxth	r3, r3
 8004340:	8013      	strh	r3, [r2, #0]

      /* Reset value of the data toggle bits for the endpoint out*/
      PCD_TX_DTOG(USBx, ep->num);
 8004342:	687a      	ldr	r2, [r7, #4]
 8004344:	683b      	ldr	r3, [r7, #0]
 8004346:	781b      	ldrb	r3, [r3, #0]
 8004348:	009b      	lsls	r3, r3, #2
 800434a:	4413      	add	r3, r2
 800434c:	881b      	ldrh	r3, [r3, #0]
 800434e:	b29b      	uxth	r3, r3
 8004350:	f423 43e0 	bic.w	r3, r3, #28672	@ 0x7000
 8004354:	f023 0370 	bic.w	r3, r3, #112	@ 0x70
 8004358:	833b      	strh	r3, [r7, #24]
 800435a:	687a      	ldr	r2, [r7, #4]
 800435c:	683b      	ldr	r3, [r7, #0]
 800435e:	781b      	ldrb	r3, [r3, #0]
 8004360:	009b      	lsls	r3, r3, #2
 8004362:	441a      	add	r2, r3
 8004364:	8b3b      	ldrh	r3, [r7, #24]
 8004366:	f043 437f 	orr.w	r3, r3, #4278190080	@ 0xff000000
 800436a:	f443 037f 	orr.w	r3, r3, #16711680	@ 0xff0000
 800436e:	f443 4300 	orr.w	r3, r3, #32768	@ 0x8000
 8004372:	f043 03c0 	orr.w	r3, r3, #192	@ 0xc0
 8004376:	b29b      	uxth	r3, r3
 8004378:	8013      	strh	r3, [r2, #0]

      PCD_SET_EP_RX_STATUS(USBx, ep->num, USB_EP_RX_DIS);
 800437a:	687a      	ldr	r2, [r7, #4]
 800437c:	683b      	ldr	r3, [r7, #0]
 800437e:	781b      	ldrb	r3, [r3, #0]
 8004380:	009b      	lsls	r3, r3, #2
 8004382:	4413      	add	r3, r2
 8004384:	881b      	ldrh	r3, [r3, #0]
 8004386:	b29b      	uxth	r3, r3
 8004388:	f423 4380 	bic.w	r3, r3, #16384	@ 0x4000
 800438c:	f023 0370 	bic.w	r3, r3, #112	@ 0x70
 8004390:	82fb      	strh	r3, [r7, #22]
 8004392:	687a      	ldr	r2, [r7, #4]
 8004394:	683b      	ldr	r3, [r7, #0]
 8004396:	781b      	ldrb	r3, [r3, #0]
 8004398:	009b      	lsls	r3, r3, #2
 800439a:	441a      	add	r2, r3
 800439c:	8afb      	ldrh	r3, [r7, #22]
 800439e:	f043 437f 	orr.w	r3, r3, #4278190080	@ 0xff000000
 80043a2:	f443 037f 	orr.w	r3, r3, #16711680	@ 0xff0000
 80043a6:	f443 4300 	orr.w	r3, r3, #32768	@ 0x8000
 80043aa:	f043 0380 	orr.w	r3, r3, #128	@ 0x80
 80043ae:	b29b      	uxth	r3, r3
 80043b0:	8013      	strh	r3, [r2, #0]
      PCD_SET_EP_TX_STATUS(USBx, ep->num, USB_EP_TX_DIS);
 80043b2:	687a      	ldr	r2, [r7, #4]
 80043b4:	683b      	ldr	r3, [r7, #0]
 80043b6:	781b      	ldrb	r3, [r3, #0]
 80043b8:	009b      	lsls	r3, r3, #2
 80043ba:	4413      	add	r3, r2
 80043bc:	881b      	ldrh	r3, [r3, #0]
 80043be:	b29b      	uxth	r3, r3
 80043c0:	f423 43e0 	bic.w	r3, r3, #28672	@ 0x7000
 80043c4:	f023 0340 	bic.w	r3, r3, #64	@ 0x40
 80043c8:	82bb      	strh	r3, [r7, #20]
 80043ca:	687a      	ldr	r2, [r7, #4]
 80043cc:	683b      	ldr	r3, [r7, #0]
 80043ce:	781b      	ldrb	r3, [r3, #0]
 80043d0:	009b      	lsls	r3, r3, #2
 80043d2:	441a      	add	r2, r3
 80043d4:	8abb      	ldrh	r3, [r7, #20]
 80043d6:	f043 437f 	orr.w	r3, r3, #4278190080	@ 0xff000000
 80043da:	f443 037f 	orr.w	r3, r3, #16711680	@ 0xff0000
 80043de:	f443 4300 	orr.w	r3, r3, #32768	@ 0x8000
 80043e2:	f043 0380 	orr.w	r3, r3, #128	@ 0x80
 80043e6:	b29b      	uxth	r3, r3
 80043e8:	8013      	strh	r3, [r2, #0]
 80043ea:	e0a3      	b.n	8004534 <USB_DeactivateEndpoint+0x3cc>
    }
    else
    {
      /* Clear the data toggle bits for the endpoint IN/OUT*/
      PCD_CLEAR_RX_DTOG(USBx, ep->num);
 80043ec:	687a      	ldr	r2, [r7, #4]
 80043ee:	683b      	ldr	r3, [r7, #0]
 80043f0:	781b      	ldrb	r3, [r3, #0]
 80043f2:	009b      	lsls	r3, r3, #2
 80043f4:	4413      	add	r3, r2
 80043f6:	881b      	ldrh	r3, [r3, #0]
 80043f8:	85fb      	strh	r3, [r7, #46]	@ 0x2e
 80043fa:	8dfb      	ldrh	r3, [r7, #46]	@ 0x2e
 80043fc:	f403 4380 	and.w	r3, r3, #16384	@ 0x4000
 8004400:	2b00      	cmp	r3, #0
 8004402:	d01b      	beq.n	800443c <USB_DeactivateEndpoint+0x2d4>
 8004404:	687a      	ldr	r2, [r7, #4]
 8004406:	683b      	ldr	r3, [r7, #0]
 8004408:	781b      	ldrb	r3, [r3, #0]
 800440a:	009b      	lsls	r3, r3, #2
 800440c:	4413      	add	r3, r2
 800440e:	881b      	ldrh	r3, [r3, #0]
 8004410:	b29b      	uxth	r3, r3
 8004412:	f423 43e0 	bic.w	r3, r3, #28672	@ 0x7000
 8004416:	f023 0370 	bic.w	r3, r3, #112	@ 0x70
 800441a:	85bb      	strh	r3, [r7, #44]	@ 0x2c
 800441c:	687a      	ldr	r2, [r7, #4]
 800441e:	683b      	ldr	r3, [r7, #0]
 8004420:	781b      	ldrb	r3, [r3, #0]
 8004422:	009b      	lsls	r3, r3, #2
 8004424:	441a      	add	r2, r3
 8004426:	8dbb      	ldrh	r3, [r7, #44]	@ 0x2c
 8004428:	f043 437f 	orr.w	r3, r3, #4278190080	@ 0xff000000
 800442c:	f443 037f 	orr.w	r3, r3, #16711680	@ 0xff0000
 8004430:	f443 4340 	orr.w	r3, r3, #49152	@ 0xc000
 8004434:	f043 0380 	orr.w	r3, r3, #128	@ 0x80
 8004438:	b29b      	uxth	r3, r3
 800443a:	8013      	strh	r3, [r2, #0]
      PCD_CLEAR_TX_DTOG(USBx, ep->num);
 800443c:	687a      	ldr	r2, [r7, #4]
 800443e:	683b      	ldr	r3, [r7, #0]
 8004440:	781b      	ldrb	r3, [r3, #0]
 8004442:	009b      	lsls	r3, r3, #2
 8004444:	4413      	add	r3, r2
 8004446:	881b      	ldrh	r3, [r3, #0]
 8004448:	857b      	strh	r3, [r7, #42]	@ 0x2a
 800444a:	8d7b      	ldrh	r3, [r7, #42]	@ 0x2a
 800444c:	f003 0340 	and.w	r3, r3, #64	@ 0x40
 8004450:	2b00      	cmp	r3, #0
 8004452:	d01b      	beq.n	800448c <USB_DeactivateEndpoint+0x324>
 8004454:	687a      	ldr	r2, [r7, #4]
 8004456:	683b      	ldr	r3, [r7, #0]
 8004458:	781b      	ldrb	r3, [r3, #0]
 800445a:	009b      	lsls	r3, r3, #2
 800445c:	4413      	add	r3, r2
 800445e:	881b      	ldrh	r3, [r3, #0]
 8004460:	b29b      	uxth	r3, r3
 8004462:	f423 43e0 	bic.w	r3, r3, #28672	@ 0x7000
 8004466:	f023 0370 	bic.w	r3, r3, #112	@ 0x70
 800446a:	853b      	strh	r3, [r7, #40]	@ 0x28
 800446c:	687a      	ldr	r2, [r7, #4]
 800446e:	683b      	ldr	r3, [r7, #0]
 8004470:	781b      	ldrb	r3, [r3, #0]
 8004472:	009b      	lsls	r3, r3, #2
 8004474:	441a      	add	r2, r3
 8004476:	8d3b      	ldrh	r3, [r7, #40]	@ 0x28
 8004478:	f043 437f 	orr.w	r3, r3, #4278190080	@ 0xff000000
 800447c:	f443 037f 	orr.w	r3, r3, #16711680	@ 0xff0000
 8004480:	f443 4300 	orr.w	r3, r3, #32768	@ 0x8000
 8004484:	f043 03c0 	orr.w	r3, r3, #192	@ 0xc0
 8004488:	b29b      	uxth	r3, r3
 800448a:	8013      	strh	r3, [r2, #0]
      PCD_RX_DTOG(USBx, ep->num);
 800448c:	687a      	ldr	r2, [r7, #4]
 800448e:	683b      	ldr	r3, [r7, #0]
 8004490:	781b      	ldrb	r3, [r3, #0]
 8004492:	009b      	lsls	r3, r3, #2
 8004494:	4413      	add	r3, r2
 8004496:	881b      	ldrh	r3, [r3, #0]
 8004498:	b29b      	uxth	r3, r3
 800449a:	f423 43e0 	bic.w	r3, r3, #28672	@ 0x7000
 800449e:	f023 0370 	bic.w	r3, r3, #112	@ 0x70
 80044a2:	84fb      	strh	r3, [r7, #38]	@ 0x26
 80044a4:	687a      	ldr	r2, [r7, #4]
 80044a6:	683b      	ldr	r3, [r7, #0]
 80044a8:	781b      	ldrb	r3, [r3, #0]
 80044aa:	009b      	lsls	r3, r3, #2
 80044ac:	441a      	add	r2, r3
 80044ae:	8cfb      	ldrh	r3, [r7, #38]	@ 0x26
 80044b0:	f043 437f 	orr.w	r3, r3, #4278190080	@ 0xff000000
 80044b4:	f443 037f 	orr.w	r3, r3, #16711680	@ 0xff0000
 80044b8:	f443 4340 	orr.w	r3, r3, #49152	@ 0xc000
 80044bc:	f043 0380 	orr.w	r3, r3, #128	@ 0x80
 80044c0:	b29b      	uxth	r3, r3
 80044c2:	8013      	strh	r3, [r2, #0]

      /* Configure DISABLE status for the Endpoint*/
      PCD_SET_EP_TX_STATUS(USBx, ep->num, USB_EP_TX_DIS);
 80044c4:	687a      	ldr	r2, [r7, #4]
 80044c6:	683b      	ldr	r3, [r7, #0]
 80044c8:	781b      	ldrb	r3, [r3, #0]
 80044ca:	009b      	lsls	r3, r3, #2
 80044cc:	4413      	add	r3, r2
 80044ce:	881b      	ldrh	r3, [r3, #0]
 80044d0:	b29b      	uxth	r3, r3
 80044d2:	f423 43e0 	bic.w	r3, r3, #28672	@ 0x7000
 80044d6:	f023 0340 	bic.w	r3, r3, #64	@ 0x40
 80044da:	84bb      	strh	r3, [r7, #36]	@ 0x24
 80044dc:	687a      	ldr	r2, [r7, #4]
 80044de:	683b      	ldr	r3, [r7, #0]
 80044e0:	781b      	ldrb	r3, [r3, #0]
 80044e2:	009b      	lsls	r3, r3, #2
 80044e4:	441a      	add	r2, r3
 80044e6:	8cbb      	ldrh	r3, [r7, #36]	@ 0x24
 80044e8:	f043 437f 	orr.w	r3, r3, #4278190080	@ 0xff000000
 80044ec:	f443 037f 	orr.w	r3, r3, #16711680	@ 0xff0000
 80044f0:	f443 4300 	orr.w	r3, r3, #32768	@ 0x8000
 80044f4:	f043 0380 	orr.w	r3, r3, #128	@ 0x80
 80044f8:	b29b      	uxth	r3, r3
 80044fa:	8013      	strh	r3, [r2, #0]
      PCD_SET_EP_RX_STATUS(USBx, ep->num, USB_EP_RX_DIS);
 80044fc:	687a      	ldr	r2, [r7, #4]
 80044fe:	683b      	ldr	r3, [r7, #0]
 8004500:	781b      	ldrb	r3, [r3, #0]
 8004502:	009b      	lsls	r3, r3, #2
 8004504:	4413      	add	r3, r2
 8004506:	881b      	ldrh	r3, [r3, #0]
 8004508:	b29b      	uxth	r3, r3
 800450a:	f423 4380 	bic.w	r3, r3, #16384	@ 0x4000
 800450e:	f023 0370 	bic.w	r3, r3, #112	@ 0x70
 8004512:	847b      	strh	r3, [r7, #34]	@ 0x22
 8004514:	687a      	ldr	r2, [r7, #4]
 8004516:	683b      	ldr	r3, [r7, #0]
 8004518:	781b      	ldrb	r3, [r3, #0]
 800451a:	009b      	lsls	r3, r3, #2
 800451c:	441a      	add	r2, r3
 800451e:	8c7b      	ldrh	r3, [r7, #34]	@ 0x22
 8004520:	f043 437f 	orr.w	r3, r3, #4278190080	@ 0xff000000
 8004524:	f443 037f 	orr.w	r3, r3, #16711680	@ 0xff0000
 8004528:	f443 4300 	orr.w	r3, r3, #32768	@ 0x8000
 800452c:	f043 0380 	orr.w	r3, r3, #128	@ 0x80
 8004530:	b29b      	uxth	r3, r3
 8004532:	8013      	strh	r3, [r2, #0]
    }
  }
#endif /* (USE_USB_DOUBLE_BUFFER == 1U) */

  return HAL_OK;
 8004534:	2300      	movs	r3, #0
}
 8004536:	4618      	mov	r0, r3
 8004538:	3734      	adds	r7, #52	@ 0x34
 800453a:	46bd      	mov	sp, r7
 800453c:	bc80      	pop	{r7}
 800453e:	4770      	bx	lr

08004540 <USB_EPStartXfer>:
  * @param  USBx Selected device
  * @param  ep pointer to endpoint structure
  * @retval HAL status
  */
HAL_StatusTypeDef USB_EPStartXfer(USB_TypeDef *USBx, USB_EPTypeDef *ep)
{
 8004540:	b580      	push	{r7, lr}
 8004542:	b0c2      	sub	sp, #264	@ 0x108
 8004544:	af00      	add	r7, sp, #0
 8004546:	f507 7384 	add.w	r3, r7, #264	@ 0x108
 800454a:	f5a3 7382 	sub.w	r3, r3, #260	@ 0x104
 800454e:	6018      	str	r0, [r3, #0]
 8004550:	f507 7384 	add.w	r3, r7, #264	@ 0x108
 8004554:	f5a3 7384 	sub.w	r3, r3, #264	@ 0x108
 8004558:	6019      	str	r1, [r3, #0]
  uint16_t pmabuffer;
  uint16_t wEPVal;
#endif /* (USE_USB_DOUBLE_BUFFER == 1U) */

  /* IN endpoint */
  if (ep->is_in == 1U)
 800455a:	f507 7384 	add.w	r3, r7, #264	@ 0x108
 800455e:	f5a3 7384 	sub.w	r3, r3, #264	@ 0x108
 8004562:	681b      	ldr	r3, [r3, #0]
 8004564:	785b      	ldrb	r3, [r3, #1]
 8004566:	2b01      	cmp	r3, #1
 8004568:	f040 86b7 	bne.w	80052da <USB_EPStartXfer+0xd9a>
  {
    /*Multi packet transfer*/
    if (ep->xfer_len > ep->maxpacket)
 800456c:	f507 7384 	add.w	r3, r7, #264	@ 0x108
 8004570:	f5a3 7384 	sub.w	r3, r3, #264	@ 0x108
 8004574:	681b      	ldr	r3, [r3, #0]
 8004576:	699a      	ldr	r2, [r3, #24]
 8004578:	f507 7384 	add.w	r3, r7, #264	@ 0x108
 800457c:	f5a3 7384 	sub.w	r3, r3, #264	@ 0x108
 8004580:	681b      	ldr	r3, [r3, #0]
 8004582:	691b      	ldr	r3, [r3, #16]
 8004584:	429a      	cmp	r2, r3
 8004586:	d908      	bls.n	800459a <USB_EPStartXfer+0x5a>
    {
      len = ep->maxpacket;
 8004588:	f507 7384 	add.w	r3, r7, #264	@ 0x108
 800458c:	f5a3 7384 	sub.w	r3, r3, #264	@ 0x108
 8004590:	681b      	ldr	r3, [r3, #0]
 8004592:	691b      	ldr	r3, [r3, #16]
 8004594:	f8c7 3104 	str.w	r3, [r7, #260]	@ 0x104
 8004598:	e007      	b.n	80045aa <USB_EPStartXfer+0x6a>
    }
    else
    {
      len = ep->xfer_len;
 800459a:	f507 7384 	add.w	r3, r7, #264	@ 0x108
 800459e:	f5a3 7384 	sub.w	r3, r3, #264	@ 0x108
 80045a2:	681b      	ldr	r3, [r3, #0]
 80045a4:	699b      	ldr	r3, [r3, #24]
 80045a6:	f8c7 3104 	str.w	r3, [r7, #260]	@ 0x104
    }

    /* configure and validate Tx endpoint */
    if (ep->doublebuffer == 0U)
 80045aa:	f507 7384 	add.w	r3, r7, #264	@ 0x108
 80045ae:	f5a3 7384 	sub.w	r3, r3, #264	@ 0x108
 80045b2:	681b      	ldr	r3, [r3, #0]
 80045b4:	7b1b      	ldrb	r3, [r3, #12]
 80045b6:	2b00      	cmp	r3, #0
 80045b8:	d13a      	bne.n	8004630 <USB_EPStartXfer+0xf0>
    {
      USB_WritePMA(USBx, ep->xfer_buff, ep->pmaadress, (uint16_t)len);
 80045ba:	f507 7384 	add.w	r3, r7, #264	@ 0x108
 80045be:	f5a3 7384 	sub.w	r3, r3, #264	@ 0x108
 80045c2:	681b      	ldr	r3, [r3, #0]
 80045c4:	6959      	ldr	r1, [r3, #20]
 80045c6:	f507 7384 	add.w	r3, r7, #264	@ 0x108
 80045ca:	f5a3 7384 	sub.w	r3, r3, #264	@ 0x108
 80045ce:	681b      	ldr	r3, [r3, #0]
 80045d0:	88da      	ldrh	r2, [r3, #6]
 80045d2:	f8d7 3104 	ldr.w	r3, [r7, #260]	@ 0x104
 80045d6:	b29b      	uxth	r3, r3
 80045d8:	f507 7084 	add.w	r0, r7, #264	@ 0x108
 80045dc:	f5a0 7082 	sub.w	r0, r0, #260	@ 0x104
 80045e0:	6800      	ldr	r0, [r0, #0]
 80045e2:	f001 fc9c 	bl	8005f1e <USB_WritePMA>
      PCD_SET_EP_TX_CNT(USBx, ep->num, len);
 80045e6:	f507 7384 	add.w	r3, r7, #264	@ 0x108
 80045ea:	f5a3 7382 	sub.w	r3, r3, #260	@ 0x104
 80045ee:	681b      	ldr	r3, [r3, #0]
 80045f0:	613b      	str	r3, [r7, #16]
 80045f2:	f507 7384 	add.w	r3, r7, #264	@ 0x108
 80045f6:	f5a3 7382 	sub.w	r3, r3, #260	@ 0x104
 80045fa:	681b      	ldr	r3, [r3, #0]
 80045fc:	f8b3 3050 	ldrh.w	r3, [r3, #80]	@ 0x50
 8004600:	b29b      	uxth	r3, r3
 8004602:	461a      	mov	r2, r3
 8004604:	693b      	ldr	r3, [r7, #16]
 8004606:	4413      	add	r3, r2
 8004608:	613b      	str	r3, [r7, #16]
 800460a:	f507 7384 	add.w	r3, r7, #264	@ 0x108
 800460e:	f5a3 7384 	sub.w	r3, r3, #264	@ 0x108
 8004612:	681b      	ldr	r3, [r3, #0]
 8004614:	781b      	ldrb	r3, [r3, #0]
 8004616:	011a      	lsls	r2, r3, #4
 8004618:	693b      	ldr	r3, [r7, #16]
 800461a:	4413      	add	r3, r2
 800461c:	f203 4304 	addw	r3, r3, #1028	@ 0x404
 8004620:	60fb      	str	r3, [r7, #12]
 8004622:	f8d7 3104 	ldr.w	r3, [r7, #260]	@ 0x104
 8004626:	b29a      	uxth	r2, r3
 8004628:	68fb      	ldr	r3, [r7, #12]
 800462a:	801a      	strh	r2, [r3, #0]
 800462c:	f000 be1f 	b.w	800526e <USB_EPStartXfer+0xd2e>
    }
#if (USE_USB_DOUBLE_BUFFER == 1U)
    else
    {
      /* double buffer bulk management */
      if (ep->type == EP_TYPE_BULK)
 8004630:	f507 7384 	add.w	r3, r7, #264	@ 0x108
 8004634:	f5a3 7384 	sub.w	r3, r3, #264	@ 0x108
 8004638:	681b      	ldr	r3, [r3, #0]
 800463a:	78db      	ldrb	r3, [r3, #3]
 800463c:	2b02      	cmp	r3, #2
 800463e:	f040 8462 	bne.w	8004f06 <USB_EPStartXfer+0x9c6>
      {
        if (ep->xfer_len_db > ep->maxpacket)
 8004642:	f507 7384 	add.w	r3, r7, #264	@ 0x108
 8004646:	f5a3 7384 	sub.w	r3, r3, #264	@ 0x108
 800464a:	681b      	ldr	r3, [r3, #0]
 800464c:	6a1a      	ldr	r2, [r3, #32]
 800464e:	f507 7384 	add.w	r3, r7, #264	@ 0x108
 8004652:	f5a3 7384 	sub.w	r3, r3, #264	@ 0x108
 8004656:	681b      	ldr	r3, [r3, #0]
 8004658:	691b      	ldr	r3, [r3, #16]
 800465a:	429a      	cmp	r2, r3
 800465c:	f240 83df 	bls.w	8004e1e <USB_EPStartXfer+0x8de>
        {
          /* enable double buffer */
          PCD_SET_BULK_EP_DBUF(USBx, ep->num);
 8004660:	f507 7384 	add.w	r3, r7, #264	@ 0x108
 8004664:	f5a3 7382 	sub.w	r3, r3, #260	@ 0x104
 8004668:	681a      	ldr	r2, [r3, #0]
 800466a:	f507 7384 	add.w	r3, r7, #264	@ 0x108
 800466e:	f5a3 7384 	sub.w	r3, r3, #264	@ 0x108
 8004672:	681b      	ldr	r3, [r3, #0]
 8004674:	781b      	ldrb	r3, [r3, #0]
 8004676:	009b      	lsls	r3, r3, #2
 8004678:	4413      	add	r3, r2
 800467a:	881b      	ldrh	r3, [r3, #0]
 800467c:	b29b      	uxth	r3, r3
 800467e:	f423 43e0 	bic.w	r3, r3, #28672	@ 0x7000
 8004682:	f023 0370 	bic.w	r3, r3, #112	@ 0x70
 8004686:	f8a7 3056 	strh.w	r3, [r7, #86]	@ 0x56
 800468a:	f507 7384 	add.w	r3, r7, #264	@ 0x108
 800468e:	f5a3 7382 	sub.w	r3, r3, #260	@ 0x104
 8004692:	681a      	ldr	r2, [r3, #0]
 8004694:	f507 7384 	add.w	r3, r7, #264	@ 0x108
 8004698:	f5a3 7384 	sub.w	r3, r3, #264	@ 0x108
 800469c:	681b      	ldr	r3, [r3, #0]
 800469e:	781b      	ldrb	r3, [r3, #0]
 80046a0:	009b      	lsls	r3, r3, #2
 80046a2:	441a      	add	r2, r3
 80046a4:	f8b7 3056 	ldrh.w	r3, [r7, #86]	@ 0x56
 80046a8:	f043 437f 	orr.w	r3, r3, #4278190080	@ 0xff000000
 80046ac:	f443 037f 	orr.w	r3, r3, #16711680	@ 0xff0000
 80046b0:	f443 4301 	orr.w	r3, r3, #33024	@ 0x8100
 80046b4:	f043 0380 	orr.w	r3, r3, #128	@ 0x80
 80046b8:	b29b      	uxth	r3, r3
 80046ba:	8013      	strh	r3, [r2, #0]

          /* each Time to write in PMA xfer_len_db will */
          ep->xfer_len_db -= len;
 80046bc:	f507 7384 	add.w	r3, r7, #264	@ 0x108
 80046c0:	f5a3 7384 	sub.w	r3, r3, #264	@ 0x108
 80046c4:	681b      	ldr	r3, [r3, #0]
 80046c6:	6a1a      	ldr	r2, [r3, #32]
 80046c8:	f8d7 3104 	ldr.w	r3, [r7, #260]	@ 0x104
 80046cc:	1ad2      	subs	r2, r2, r3
 80046ce:	f507 7384 	add.w	r3, r7, #264	@ 0x108
 80046d2:	f5a3 7384 	sub.w	r3, r3, #264	@ 0x108
 80046d6:	681b      	ldr	r3, [r3, #0]
 80046d8:	621a      	str	r2, [r3, #32]

          /* Fill the two first buffer in the Buffer0 & Buffer1 */
          if ((PCD_GET_ENDPOINT(USBx, ep->num) & USB_EP_DTOG_TX) != 0U)
 80046da:	f507 7384 	add.w	r3, r7, #264	@ 0x108
 80046de:	f5a3 7382 	sub.w	r3, r3, #260	@ 0x104
 80046e2:	681a      	ldr	r2, [r3, #0]
 80046e4:	f507 7384 	add.w	r3, r7, #264	@ 0x108
 80046e8:	f5a3 7384 	sub.w	r3, r3, #264	@ 0x108
 80046ec:	681b      	ldr	r3, [r3, #0]
 80046ee:	781b      	ldrb	r3, [r3, #0]
 80046f0:	009b      	lsls	r3, r3, #2
 80046f2:	4413      	add	r3, r2
 80046f4:	881b      	ldrh	r3, [r3, #0]
 80046f6:	b29b      	uxth	r3, r3
 80046f8:	f003 0340 	and.w	r3, r3, #64	@ 0x40
 80046fc:	2b00      	cmp	r3, #0
 80046fe:	f000 81c7 	beq.w	8004a90 <USB_EPStartXfer+0x550>
          {
            /* Set the Double buffer counter for pmabuffer1 */
            PCD_SET_EP_DBUF1_CNT(USBx, ep->num, ep->is_in, len);
 8004702:	f507 7384 	add.w	r3, r7, #264	@ 0x108
 8004706:	f5a3 7382 	sub.w	r3, r3, #260	@ 0x104
 800470a:	681b      	ldr	r3, [r3, #0]
 800470c:	633b      	str	r3, [r7, #48]	@ 0x30
 800470e:	f507 7384 	add.w	r3, r7, #264	@ 0x108
 8004712:	f5a3 7384 	sub.w	r3, r3, #264	@ 0x108
 8004716:	681b      	ldr	r3, [r3, #0]
 8004718:	785b      	ldrb	r3, [r3, #1]
 800471a:	2b00      	cmp	r3, #0
 800471c:	d177      	bne.n	800480e <USB_EPStartXfer+0x2ce>
 800471e:	f507 7384 	add.w	r3, r7, #264	@ 0x108
 8004722:	f5a3 7382 	sub.w	r3, r3, #260	@ 0x104
 8004726:	681b      	ldr	r3, [r3, #0]
 8004728:	62bb      	str	r3, [r7, #40]	@ 0x28
 800472a:	f507 7384 	add.w	r3, r7, #264	@ 0x108
 800472e:	f5a3 7382 	sub.w	r3, r3, #260	@ 0x104
 8004732:	681b      	ldr	r3, [r3, #0]
 8004734:	f8b3 3050 	ldrh.w	r3, [r3, #80]	@ 0x50
 8004738:	b29b      	uxth	r3, r3
 800473a:	461a      	mov	r2, r3
 800473c:	6abb      	ldr	r3, [r7, #40]	@ 0x28
 800473e:	4413      	add	r3, r2
 8004740:	62bb      	str	r3, [r7, #40]	@ 0x28
 8004742:	f507 7384 	add.w	r3, r7, #264	@ 0x108
 8004746:	f5a3 7384 	sub.w	r3, r3, #264	@ 0x108
 800474a:	681b      	ldr	r3, [r3, #0]
 800474c:	781b      	ldrb	r3, [r3, #0]
 800474e:	011a      	lsls	r2, r3, #4
 8004750:	6abb      	ldr	r3, [r7, #40]	@ 0x28
 8004752:	4413      	add	r3, r2
 8004754:	f203 430c 	addw	r3, r3, #1036	@ 0x40c
 8004758:	627b      	str	r3, [r7, #36]	@ 0x24
 800475a:	6a7b      	ldr	r3, [r7, #36]	@ 0x24
 800475c:	881b      	ldrh	r3, [r3, #0]
 800475e:	b29b      	uxth	r3, r3
 8004760:	f3c3 0309 	ubfx	r3, r3, #0, #10
 8004764:	b29a      	uxth	r2, r3
 8004766:	6a7b      	ldr	r3, [r7, #36]	@ 0x24
 8004768:	801a      	strh	r2, [r3, #0]
 800476a:	f8d7 3104 	ldr.w	r3, [r7, #260]	@ 0x104
 800476e:	2b3e      	cmp	r3, #62	@ 0x3e
 8004770:	d921      	bls.n	80047b6 <USB_EPStartXfer+0x276>
 8004772:	f8d7 3104 	ldr.w	r3, [r7, #260]	@ 0x104
 8004776:	095b      	lsrs	r3, r3, #5
 8004778:	f8c7 3100 	str.w	r3, [r7, #256]	@ 0x100
 800477c:	f8d7 3104 	ldr.w	r3, [r7, #260]	@ 0x104
 8004780:	f003 031f 	and.w	r3, r3, #31
 8004784:	2b00      	cmp	r3, #0
 8004786:	d104      	bne.n	8004792 <USB_EPStartXfer+0x252>
 8004788:	f8d7 3100 	ldr.w	r3, [r7, #256]	@ 0x100
 800478c:	3b01      	subs	r3, #1
 800478e:	f8c7 3100 	str.w	r3, [r7, #256]	@ 0x100
 8004792:	6a7b      	ldr	r3, [r7, #36]	@ 0x24
 8004794:	881b      	ldrh	r3, [r3, #0]
 8004796:	b29a      	uxth	r2, r3
 8004798:	f8d7 3100 	ldr.w	r3, [r7, #256]	@ 0x100
 800479c:	b29b      	uxth	r3, r3
 800479e:	029b      	lsls	r3, r3, #10
 80047a0:	b29b      	uxth	r3, r3
 80047a2:	4313      	orrs	r3, r2
 80047a4:	b29b      	uxth	r3, r3
 80047a6:	ea6f 4343 	mvn.w	r3, r3, lsl #17
 80047aa:	ea6f 4353 	mvn.w	r3, r3, lsr #17
 80047ae:	b29a      	uxth	r2, r3
 80047b0:	6a7b      	ldr	r3, [r7, #36]	@ 0x24
 80047b2:	801a      	strh	r2, [r3, #0]
 80047b4:	e050      	b.n	8004858 <USB_EPStartXfer+0x318>
 80047b6:	f8d7 3104 	ldr.w	r3, [r7, #260]	@ 0x104
 80047ba:	2b00      	cmp	r3, #0
 80047bc:	d10a      	bne.n	80047d4 <USB_EPStartXfer+0x294>
 80047be:	6a7b      	ldr	r3, [r7, #36]	@ 0x24
 80047c0:	881b      	ldrh	r3, [r3, #0]
 80047c2:	b29b      	uxth	r3, r3
 80047c4:	ea6f 4343 	mvn.w	r3, r3, lsl #17
 80047c8:	ea6f 4353 	mvn.w	r3, r3, lsr #17
 80047cc:	b29a      	uxth	r2, r3
 80047ce:	6a7b      	ldr	r3, [r7, #36]	@ 0x24
 80047d0:	801a      	strh	r2, [r3, #0]
 80047d2:	e041      	b.n	8004858 <USB_EPStartXfer+0x318>
 80047d4:	f8d7 3104 	ldr.w	r3, [r7, #260]	@ 0x104
 80047d8:	085b      	lsrs	r3, r3, #1
 80047da:	f8c7 3100 	str.w	r3, [r7, #256]	@ 0x100
 80047de:	f8d7 3104 	ldr.w	r3, [r7, #260]	@ 0x104
 80047e2:	f003 0301 	and.w	r3, r3, #1
 80047e6:	2b00      	cmp	r3, #0
 80047e8:	d004      	beq.n	80047f4 <USB_EPStartXfer+0x2b4>
 80047ea:	f8d7 3100 	ldr.w	r3, [r7, #256]	@ 0x100
 80047ee:	3301      	adds	r3, #1
 80047f0:	f8c7 3100 	str.w	r3, [r7, #256]	@ 0x100
 80047f4:	6a7b      	ldr	r3, [r7, #36]	@ 0x24
 80047f6:	881b      	ldrh	r3, [r3, #0]
 80047f8:	b29a      	uxth	r2, r3
 80047fa:	f8d7 3100 	ldr.w	r3, [r7, #256]	@ 0x100
 80047fe:	b29b      	uxth	r3, r3
 8004800:	029b      	lsls	r3, r3, #10
 8004802:	b29b      	uxth	r3, r3
 8004804:	4313      	orrs	r3, r2
 8004806:	b29a      	uxth	r2, r3
 8004808:	6a7b      	ldr	r3, [r7, #36]	@ 0x24
 800480a:	801a      	strh	r2, [r3, #0]
 800480c:	e024      	b.n	8004858 <USB_EPStartXfer+0x318>
 800480e:	f507 7384 	add.w	r3, r7, #264	@ 0x108
 8004812:	f5a3 7384 	sub.w	r3, r3, #264	@ 0x108
 8004816:	681b      	ldr	r3, [r3, #0]
 8004818:	785b      	ldrb	r3, [r3, #1]
 800481a:	2b01      	cmp	r3, #1
 800481c:	d11c      	bne.n	8004858 <USB_EPStartXfer+0x318>
 800481e:	f507 7384 	add.w	r3, r7, #264	@ 0x108
 8004822:	f5a3 7382 	sub.w	r3, r3, #260	@ 0x104
 8004826:	681b      	ldr	r3, [r3, #0]
 8004828:	f8b3 3050 	ldrh.w	r3, [r3, #80]	@ 0x50
 800482c:	b29b      	uxth	r3, r3
 800482e:	461a      	mov	r2, r3
 8004830:	6b3b      	ldr	r3, [r7, #48]	@ 0x30
 8004832:	4413      	add	r3, r2
 8004834:	633b      	str	r3, [r7, #48]	@ 0x30
 8004836:	f507 7384 	add.w	r3, r7, #264	@ 0x108
 800483a:	f5a3 7384 	sub.w	r3, r3, #264	@ 0x108
 800483e:	681b      	ldr	r3, [r3, #0]
 8004840:	781b      	ldrb	r3, [r3, #0]
 8004842:	011a      	lsls	r2, r3, #4
 8004844:	6b3b      	ldr	r3, [r7, #48]	@ 0x30
 8004846:	4413      	add	r3, r2
 8004848:	f203 430c 	addw	r3, r3, #1036	@ 0x40c
 800484c:	62fb      	str	r3, [r7, #44]	@ 0x2c
 800484e:	f8d7 3104 	ldr.w	r3, [r7, #260]	@ 0x104
 8004852:	b29a      	uxth	r2, r3
 8004854:	6afb      	ldr	r3, [r7, #44]	@ 0x2c
 8004856:	801a      	strh	r2, [r3, #0]
            pmabuffer = ep->pmaaddr1;
 8004858:	f507 7384 	add.w	r3, r7, #264	@ 0x108
 800485c:	f5a3 7384 	sub.w	r3, r3, #264	@ 0x108
 8004860:	681b      	ldr	r3, [r3, #0]
 8004862:	895b      	ldrh	r3, [r3, #10]
 8004864:	f8a7 3076 	strh.w	r3, [r7, #118]	@ 0x76

            /* Write the user buffer to USB PMA */
            USB_WritePMA(USBx, ep->xfer_buff, pmabuffer, (uint16_t)len);
 8004868:	f507 7384 	add.w	r3, r7, #264	@ 0x108
 800486c:	f5a3 7384 	sub.w	r3, r3, #264	@ 0x108
 8004870:	681b      	ldr	r3, [r3, #0]
 8004872:	6959      	ldr	r1, [r3, #20]
 8004874:	f8d7 3104 	ldr.w	r3, [r7, #260]	@ 0x104
 8004878:	b29b      	uxth	r3, r3
 800487a:	f8b7 2076 	ldrh.w	r2, [r7, #118]	@ 0x76
 800487e:	f507 7084 	add.w	r0, r7, #264	@ 0x108
 8004882:	f5a0 7082 	sub.w	r0, r0, #260	@ 0x104
 8004886:	6800      	ldr	r0, [r0, #0]
 8004888:	f001 fb49 	bl	8005f1e <USB_WritePMA>
            ep->xfer_buff += len;
 800488c:	f507 7384 	add.w	r3, r7, #264	@ 0x108
 8004890:	f5a3 7384 	sub.w	r3, r3, #264	@ 0x108
 8004894:	681b      	ldr	r3, [r3, #0]
 8004896:	695a      	ldr	r2, [r3, #20]
 8004898:	f8d7 3104 	ldr.w	r3, [r7, #260]	@ 0x104
 800489c:	441a      	add	r2, r3
 800489e:	f507 7384 	add.w	r3, r7, #264	@ 0x108
 80048a2:	f5a3 7384 	sub.w	r3, r3, #264	@ 0x108
 80048a6:	681b      	ldr	r3, [r3, #0]
 80048a8:	615a      	str	r2, [r3, #20]

            if (ep->xfer_len_db > ep->maxpacket)
 80048aa:	f507 7384 	add.w	r3, r7, #264	@ 0x108
 80048ae:	f5a3 7384 	sub.w	r3, r3, #264	@ 0x108
 80048b2:	681b      	ldr	r3, [r3, #0]
 80048b4:	6a1a      	ldr	r2, [r3, #32]
 80048b6:	f507 7384 	add.w	r3, r7, #264	@ 0x108
 80048ba:	f5a3 7384 	sub.w	r3, r3, #264	@ 0x108
 80048be:	681b      	ldr	r3, [r3, #0]
 80048c0:	691b      	ldr	r3, [r3, #16]
 80048c2:	429a      	cmp	r2, r3
 80048c4:	d90f      	bls.n	80048e6 <USB_EPStartXfer+0x3a6>
            {
              ep->xfer_len_db -= len;
 80048c6:	f507 7384 	add.w	r3, r7, #264	@ 0x108
 80048ca:	f5a3 7384 	sub.w	r3, r3, #264	@ 0x108
 80048ce:	681b      	ldr	r3, [r3, #0]
 80048d0:	6a1a      	ldr	r2, [r3, #32]
 80048d2:	f8d7 3104 	ldr.w	r3, [r7, #260]	@ 0x104
 80048d6:	1ad2      	subs	r2, r2, r3
 80048d8:	f507 7384 	add.w	r3, r7, #264	@ 0x108
 80048dc:	f5a3 7384 	sub.w	r3, r3, #264	@ 0x108
 80048e0:	681b      	ldr	r3, [r3, #0]
 80048e2:	621a      	str	r2, [r3, #32]
 80048e4:	e00e      	b.n	8004904 <USB_EPStartXfer+0x3c4>
            }
            else
            {
              len = ep->xfer_len_db;
 80048e6:	f507 7384 	add.w	r3, r7, #264	@ 0x108
 80048ea:	f5a3 7384 	sub.w	r3, r3, #264	@ 0x108
 80048ee:	681b      	ldr	r3, [r3, #0]
 80048f0:	6a1b      	ldr	r3, [r3, #32]
 80048f2:	f8c7 3104 	str.w	r3, [r7, #260]	@ 0x104
              ep->xfer_len_db = 0U;
 80048f6:	f507 7384 	add.w	r3, r7, #264	@ 0x108
 80048fa:	f5a3 7384 	sub.w	r3, r3, #264	@ 0x108
 80048fe:	681b      	ldr	r3, [r3, #0]
 8004900:	2200      	movs	r2, #0
 8004902:	621a      	str	r2, [r3, #32]
            }

            /* Set the Double buffer counter for pmabuffer0 */
            PCD_SET_EP_DBUF0_CNT(USBx, ep->num, ep->is_in, len);
 8004904:	f507 7384 	add.w	r3, r7, #264	@ 0x108
 8004908:	f5a3 7384 	sub.w	r3, r3, #264	@ 0x108
 800490c:	681b      	ldr	r3, [r3, #0]
 800490e:	785b      	ldrb	r3, [r3, #1]
 8004910:	2b00      	cmp	r3, #0
 8004912:	d177      	bne.n	8004a04 <USB_EPStartXfer+0x4c4>
 8004914:	f507 7384 	add.w	r3, r7, #264	@ 0x108
 8004918:	f5a3 7382 	sub.w	r3, r3, #260	@ 0x104
 800491c:	681b      	ldr	r3, [r3, #0]
 800491e:	61bb      	str	r3, [r7, #24]
 8004920:	f507 7384 	add.w	r3, r7, #264	@ 0x108
 8004924:	f5a3 7382 	sub.w	r3, r3, #260	@ 0x104
 8004928:	681b      	ldr	r3, [r3, #0]
 800492a:	f8b3 3050 	ldrh.w	r3, [r3, #80]	@ 0x50
 800492e:	b29b      	uxth	r3, r3
 8004930:	461a      	mov	r2, r3
 8004932:	69bb      	ldr	r3, [r7, #24]
 8004934:	4413      	add	r3, r2
 8004936:	61bb      	str	r3, [r7, #24]
 8004938:	f507 7384 	add.w	r3, r7, #264	@ 0x108
 800493c:	f5a3 7384 	sub.w	r3, r3, #264	@ 0x108
 8004940:	681b      	ldr	r3, [r3, #0]
 8004942:	781b      	ldrb	r3, [r3, #0]
 8004944:	011a      	lsls	r2, r3, #4
 8004946:	69bb      	ldr	r3, [r7, #24]
 8004948:	4413      	add	r3, r2
 800494a:	f203 4304 	addw	r3, r3, #1028	@ 0x404
 800494e:	617b      	str	r3, [r7, #20]
 8004950:	697b      	ldr	r3, [r7, #20]
 8004952:	881b      	ldrh	r3, [r3, #0]
 8004954:	b29b      	uxth	r3, r3
 8004956:	f3c3 0309 	ubfx	r3, r3, #0, #10
 800495a:	b29a      	uxth	r2, r3
 800495c:	697b      	ldr	r3, [r7, #20]
 800495e:	801a      	strh	r2, [r3, #0]
 8004960:	f8d7 3104 	ldr.w	r3, [r7, #260]	@ 0x104
 8004964:	2b3e      	cmp	r3, #62	@ 0x3e
 8004966:	d921      	bls.n	80049ac <USB_EPStartXfer+0x46c>
 8004968:	f8d7 3104 	ldr.w	r3, [r7, #260]	@ 0x104
 800496c:	095b      	lsrs	r3, r3, #5
 800496e:	f8c7 30fc 	str.w	r3, [r7, #252]	@ 0xfc
 8004972:	f8d7 3104 	ldr.w	r3, [r7, #260]	@ 0x104
 8004976:	f003 031f 	and.w	r3, r3, #31
 800497a:	2b00      	cmp	r3, #0
 800497c:	d104      	bne.n	8004988 <USB_EPStartXfer+0x448>
 800497e:	f8d7 30fc 	ldr.w	r3, [r7, #252]	@ 0xfc
 8004982:	3b01      	subs	r3, #1
 8004984:	f8c7 30fc 	str.w	r3, [r7, #252]	@ 0xfc
 8004988:	697b      	ldr	r3, [r7, #20]
 800498a:	881b      	ldrh	r3, [r3, #0]
 800498c:	b29a      	uxth	r2, r3
 800498e:	f8d7 30fc 	ldr.w	r3, [r7, #252]	@ 0xfc
 8004992:	b29b      	uxth	r3, r3
 8004994:	029b      	lsls	r3, r3, #10
 8004996:	b29b      	uxth	r3, r3
 8004998:	4313      	orrs	r3, r2
 800499a:	b29b      	uxth	r3, r3
 800499c:	ea6f 4343 	mvn.w	r3, r3, lsl #17
 80049a0:	ea6f 4353 	mvn.w	r3, r3, lsr #17
 80049a4:	b29a      	uxth	r2, r3
 80049a6:	697b      	ldr	r3, [r7, #20]
 80049a8:	801a      	strh	r2, [r3, #0]
 80049aa:	e056      	b.n	8004a5a <USB_EPStartXfer+0x51a>
 80049ac:	f8d7 3104 	ldr.w	r3, [r7, #260]	@ 0x104
 80049b0:	2b00      	cmp	r3, #0
 80049b2:	d10a      	bne.n	80049ca <USB_EPStartXfer+0x48a>
 80049b4:	697b      	ldr	r3, [r7, #20]
 80049b6:	881b      	ldrh	r3, [r3, #0]
 80049b8:	b29b      	uxth	r3, r3
 80049ba:	ea6f 4343 	mvn.w	r3, r3, lsl #17
 80049be:	ea6f 4353 	mvn.w	r3, r3, lsr #17
 80049c2:	b29a      	uxth	r2, r3
 80049c4:	697b      	ldr	r3, [r7, #20]
 80049c6:	801a      	strh	r2, [r3, #0]
 80049c8:	e047      	b.n	8004a5a <USB_EPStartXfer+0x51a>
 80049ca:	f8d7 3104 	ldr.w	r3, [r7, #260]	@ 0x104
 80049ce:	085b      	lsrs	r3, r3, #1
 80049d0:	f8c7 30fc 	str.w	r3, [r7, #252]	@ 0xfc
 80049d4:	f8d7 3104 	ldr.w	r3, [r7, #260]	@ 0x104
 80049d8:	f003 0301 	and.w	r3, r3, #1
 80049dc:	2b00      	cmp	r3, #0
 80049de:	d004      	beq.n	80049ea <USB_EPStartXfer+0x4aa>
 80049e0:	f8d7 30fc 	ldr.w	r3, [r7, #252]	@ 0xfc
 80049e4:	3301      	adds	r3, #1
 80049e6:	f8c7 30fc 	str.w	r3, [r7, #252]	@ 0xfc
 80049ea:	697b      	ldr	r3, [r7, #20]
 80049ec:	881b      	ldrh	r3, [r3, #0]
 80049ee:	b29a      	uxth	r2, r3
 80049f0:	f8d7 30fc 	ldr.w	r3, [r7, #252]	@ 0xfc
 80049f4:	b29b      	uxth	r3, r3
 80049f6:	029b      	lsls	r3, r3, #10
 80049f8:	b29b      	uxth	r3, r3
 80049fa:	4313      	orrs	r3, r2
 80049fc:	b29a      	uxth	r2, r3
 80049fe:	697b      	ldr	r3, [r7, #20]
 8004a00:	801a      	strh	r2, [r3, #0]
 8004a02:	e02a      	b.n	8004a5a <USB_EPStartXfer+0x51a>
 8004a04:	f507 7384 	add.w	r3, r7, #264	@ 0x108
 8004a08:	f5a3 7384 	sub.w	r3, r3, #264	@ 0x108
 8004a0c:	681b      	ldr	r3, [r3, #0]
 8004a0e:	785b      	ldrb	r3, [r3, #1]
 8004a10:	2b01      	cmp	r3, #1
 8004a12:	d122      	bne.n	8004a5a <USB_EPStartXfer+0x51a>
 8004a14:	f507 7384 	add.w	r3, r7, #264	@ 0x108
 8004a18:	f5a3 7382 	sub.w	r3, r3, #260	@ 0x104
 8004a1c:	681b      	ldr	r3, [r3, #0]
 8004a1e:	623b      	str	r3, [r7, #32]
 8004a20:	f507 7384 	add.w	r3, r7, #264	@ 0x108
 8004a24:	f5a3 7382 	sub.w	r3, r3, #260	@ 0x104
 8004a28:	681b      	ldr	r3, [r3, #0]
 8004a2a:	f8b3 3050 	ldrh.w	r3, [r3, #80]	@ 0x50
 8004a2e:	b29b      	uxth	r3, r3
 8004a30:	461a      	mov	r2, r3
 8004a32:	6a3b      	ldr	r3, [r7, #32]
 8004a34:	4413      	add	r3, r2
 8004a36:	623b      	str	r3, [r7, #32]
 8004a38:	f507 7384 	add.w	r3, r7, #264	@ 0x108
 8004a3c:	f5a3 7384 	sub.w	r3, r3, #264	@ 0x108
 8004a40:	681b      	ldr	r3, [r3, #0]
 8004a42:	781b      	ldrb	r3, [r3, #0]
 8004a44:	011a      	lsls	r2, r3, #4
 8004a46:	6a3b      	ldr	r3, [r7, #32]
 8004a48:	4413      	add	r3, r2
 8004a4a:	f203 4304 	addw	r3, r3, #1028	@ 0x404
 8004a4e:	61fb      	str	r3, [r7, #28]
 8004a50:	f8d7 3104 	ldr.w	r3, [r7, #260]	@ 0x104
 8004a54:	b29a      	uxth	r2, r3
 8004a56:	69fb      	ldr	r3, [r7, #28]
 8004a58:	801a      	strh	r2, [r3, #0]
            pmabuffer = ep->pmaaddr0;
 8004a5a:	f507 7384 	add.w	r3, r7, #264	@ 0x108
 8004a5e:	f5a3 7384 	sub.w	r3, r3, #264	@ 0x108
 8004a62:	681b      	ldr	r3, [r3, #0]
 8004a64:	891b      	ldrh	r3, [r3, #8]
 8004a66:	f8a7 3076 	strh.w	r3, [r7, #118]	@ 0x76

            /* Write the user buffer to USB PMA */
            USB_WritePMA(USBx, ep->xfer_buff, pmabuffer, (uint16_t)len);
 8004a6a:	f507 7384 	add.w	r3, r7, #264	@ 0x108
 8004a6e:	f5a3 7384 	sub.w	r3, r3, #264	@ 0x108
 8004a72:	681b      	ldr	r3, [r3, #0]
 8004a74:	6959      	ldr	r1, [r3, #20]
 8004a76:	f8d7 3104 	ldr.w	r3, [r7, #260]	@ 0x104
 8004a7a:	b29b      	uxth	r3, r3
 8004a7c:	f8b7 2076 	ldrh.w	r2, [r7, #118]	@ 0x76
 8004a80:	f507 7084 	add.w	r0, r7, #264	@ 0x108
 8004a84:	f5a0 7082 	sub.w	r0, r0, #260	@ 0x104
 8004a88:	6800      	ldr	r0, [r0, #0]
 8004a8a:	f001 fa48 	bl	8005f1e <USB_WritePMA>
 8004a8e:	e3ee      	b.n	800526e <USB_EPStartXfer+0xd2e>
          }
          else
          {
            /* Set the Double buffer counter for pmabuffer0 */
            PCD_SET_EP_DBUF0_CNT(USBx, ep->num, ep->is_in, len);
 8004a90:	f507 7384 	add.w	r3, r7, #264	@ 0x108
 8004a94:	f5a3 7384 	sub.w	r3, r3, #264	@ 0x108
 8004a98:	681b      	ldr	r3, [r3, #0]
 8004a9a:	785b      	ldrb	r3, [r3, #1]
 8004a9c:	2b00      	cmp	r3, #0
 8004a9e:	d177      	bne.n	8004b90 <USB_EPStartXfer+0x650>
 8004aa0:	f507 7384 	add.w	r3, r7, #264	@ 0x108
 8004aa4:	f5a3 7382 	sub.w	r3, r3, #260	@ 0x104
 8004aa8:	681b      	ldr	r3, [r3, #0]
 8004aaa:	64bb      	str	r3, [r7, #72]	@ 0x48
 8004aac:	f507 7384 	add.w	r3, r7, #264	@ 0x108
 8004ab0:	f5a3 7382 	sub.w	r3, r3, #260	@ 0x104
 8004ab4:	681b      	ldr	r3, [r3, #0]
 8004ab6:	f8b3 3050 	ldrh.w	r3, [r3, #80]	@ 0x50
 8004aba:	b29b      	uxth	r3, r3
 8004abc:	461a      	mov	r2, r3
 8004abe:	6cbb      	ldr	r3, [r7, #72]	@ 0x48
 8004ac0:	4413      	add	r3, r2
 8004ac2:	64bb      	str	r3, [r7, #72]	@ 0x48
 8004ac4:	f507 7384 	add.w	r3, r7, #264	@ 0x108
 8004ac8:	f5a3 7384 	sub.w	r3, r3, #264	@ 0x108
 8004acc:	681b      	ldr	r3, [r3, #0]
 8004ace:	781b      	ldrb	r3, [r3, #0]
 8004ad0:	011a      	lsls	r2, r3, #4
 8004ad2:	6cbb      	ldr	r3, [r7, #72]	@ 0x48
 8004ad4:	4413      	add	r3, r2
 8004ad6:	f203 4304 	addw	r3, r3, #1028	@ 0x404
 8004ada:	647b      	str	r3, [r7, #68]	@ 0x44
 8004adc:	6c7b      	ldr	r3, [r7, #68]	@ 0x44
 8004ade:	881b      	ldrh	r3, [r3, #0]
 8004ae0:	b29b      	uxth	r3, r3
 8004ae2:	f3c3 0309 	ubfx	r3, r3, #0, #10
 8004ae6:	b29a      	uxth	r2, r3
 8004ae8:	6c7b      	ldr	r3, [r7, #68]	@ 0x44
 8004aea:	801a      	strh	r2, [r3, #0]
 8004aec:	f8d7 3104 	ldr.w	r3, [r7, #260]	@ 0x104
 8004af0:	2b3e      	cmp	r3, #62	@ 0x3e
 8004af2:	d921      	bls.n	8004b38 <USB_EPStartXfer+0x5f8>
 8004af4:	f8d7 3104 	ldr.w	r3, [r7, #260]	@ 0x104
 8004af8:	095b      	lsrs	r3, r3, #5
 8004afa:	f8c7 30f8 	str.w	r3, [r7, #248]	@ 0xf8
 8004afe:	f8d7 3104 	ldr.w	r3, [r7, #260]	@ 0x104
 8004b02:	f003 031f 	and.w	r3, r3, #31
 8004b06:	2b00      	cmp	r3, #0
 8004b08:	d104      	bne.n	8004b14 <USB_EPStartXfer+0x5d4>
 8004b0a:	f8d7 30f8 	ldr.w	r3, [r7, #248]	@ 0xf8
 8004b0e:	3b01      	subs	r3, #1
 8004b10:	f8c7 30f8 	str.w	r3, [r7, #248]	@ 0xf8
 8004b14:	6c7b      	ldr	r3, [r7, #68]	@ 0x44
 8004b16:	881b      	ldrh	r3, [r3, #0]
 8004b18:	b29a      	uxth	r2, r3
 8004b1a:	f8d7 30f8 	ldr.w	r3, [r7, #248]	@ 0xf8
 8004b1e:	b29b      	uxth	r3, r3
 8004b20:	029b      	lsls	r3, r3, #10
 8004b22:	b29b      	uxth	r3, r3
 8004b24:	4313      	orrs	r3, r2
 8004b26:	b29b      	uxth	r3, r3
 8004b28:	ea6f 4343 	mvn.w	r3, r3, lsl #17
 8004b2c:	ea6f 4353 	mvn.w	r3, r3, lsr #17
 8004b30:	b29a      	uxth	r2, r3
 8004b32:	6c7b      	ldr	r3, [r7, #68]	@ 0x44
 8004b34:	801a      	strh	r2, [r3, #0]
 8004b36:	e056      	b.n	8004be6 <USB_EPStartXfer+0x6a6>
 8004b38:	f8d7 3104 	ldr.w	r3, [r7, #260]	@ 0x104
 8004b3c:	2b00      	cmp	r3, #0
 8004b3e:	d10a      	bne.n	8004b56 <USB_EPStartXfer+0x616>
 8004b40:	6c7b      	ldr	r3, [r7, #68]	@ 0x44
 8004b42:	881b      	ldrh	r3, [r3, #0]
 8004b44:	b29b      	uxth	r3, r3
 8004b46:	ea6f 4343 	mvn.w	r3, r3, lsl #17
 8004b4a:	ea6f 4353 	mvn.w	r3, r3, lsr #17
 8004b4e:	b29a      	uxth	r2, r3
 8004b50:	6c7b      	ldr	r3, [r7, #68]	@ 0x44
 8004b52:	801a      	strh	r2, [r3, #0]
 8004b54:	e047      	b.n	8004be6 <USB_EPStartXfer+0x6a6>
 8004b56:	f8d7 3104 	ldr.w	r3, [r7, #260]	@ 0x104
 8004b5a:	085b      	lsrs	r3, r3, #1
 8004b5c:	f8c7 30f8 	str.w	r3, [r7, #248]	@ 0xf8
 8004b60:	f8d7 3104 	ldr.w	r3, [r7, #260]	@ 0x104
 8004b64:	f003 0301 	and.w	r3, r3, #1
 8004b68:	2b00      	cmp	r3, #0
 8004b6a:	d004      	beq.n	8004b76 <USB_EPStartXfer+0x636>
 8004b6c:	f8d7 30f8 	ldr.w	r3, [r7, #248]	@ 0xf8
 8004b70:	3301      	adds	r3, #1
 8004b72:	f8c7 30f8 	str.w	r3, [r7, #248]	@ 0xf8
 8004b76:	6c7b      	ldr	r3, [r7, #68]	@ 0x44
 8004b78:	881b      	ldrh	r3, [r3, #0]
 8004b7a:	b29a      	uxth	r2, r3
 8004b7c:	f8d7 30f8 	ldr.w	r3, [r7, #248]	@ 0xf8
 8004b80:	b29b      	uxth	r3, r3
 8004b82:	029b      	lsls	r3, r3, #10
 8004b84:	b29b      	uxth	r3, r3
 8004b86:	4313      	orrs	r3, r2
 8004b88:	b29a      	uxth	r2, r3
 8004b8a:	6c7b      	ldr	r3, [r7, #68]	@ 0x44
 8004b8c:	801a      	strh	r2, [r3, #0]
 8004b8e:	e02a      	b.n	8004be6 <USB_EPStartXfer+0x6a6>
 8004b90:	f507 7384 	add.w	r3, r7, #264	@ 0x108
 8004b94:	f5a3 7384 	sub.w	r3, r3, #264	@ 0x108
 8004b98:	681b      	ldr	r3, [r3, #0]
 8004b9a:	785b      	ldrb	r3, [r3, #1]
 8004b9c:	2b01      	cmp	r3, #1
 8004b9e:	d122      	bne.n	8004be6 <USB_EPStartXfer+0x6a6>
 8004ba0:	f507 7384 	add.w	r3, r7, #264	@ 0x108
 8004ba4:	f5a3 7382 	sub.w	r3, r3, #260	@ 0x104
 8004ba8:	681b      	ldr	r3, [r3, #0]
 8004baa:	653b      	str	r3, [r7, #80]	@ 0x50
 8004bac:	f507 7384 	add.w	r3, r7, #264	@ 0x108
 8004bb0:	f5a3 7382 	sub.w	r3, r3, #260	@ 0x104
 8004bb4:	681b      	ldr	r3, [r3, #0]
 8004bb6:	f8b3 3050 	ldrh.w	r3, [r3, #80]	@ 0x50
 8004bba:	b29b      	uxth	r3, r3
 8004bbc:	461a      	mov	r2, r3
 8004bbe:	6d3b      	ldr	r3, [r7, #80]	@ 0x50
 8004bc0:	4413      	add	r3, r2
 8004bc2:	653b      	str	r3, [r7, #80]	@ 0x50
 8004bc4:	f507 7384 	add.w	r3, r7, #264	@ 0x108
 8004bc8:	f5a3 7384 	sub.w	r3, r3, #264	@ 0x108
 8004bcc:	681b      	ldr	r3, [r3, #0]
 8004bce:	781b      	ldrb	r3, [r3, #0]
 8004bd0:	011a      	lsls	r2, r3, #4
 8004bd2:	6d3b      	ldr	r3, [r7, #80]	@ 0x50
 8004bd4:	4413      	add	r3, r2
 8004bd6:	f203 4304 	addw	r3, r3, #1028	@ 0x404
 8004bda:	64fb      	str	r3, [r7, #76]	@ 0x4c
 8004bdc:	f8d7 3104 	ldr.w	r3, [r7, #260]	@ 0x104
 8004be0:	b29a      	uxth	r2, r3
 8004be2:	6cfb      	ldr	r3, [r7, #76]	@ 0x4c
 8004be4:	801a      	strh	r2, [r3, #0]
            pmabuffer = ep->pmaaddr0;
 8004be6:	f507 7384 	add.w	r3, r7, #264	@ 0x108
 8004bea:	f5a3 7384 	sub.w	r3, r3, #264	@ 0x108
 8004bee:	681b      	ldr	r3, [r3, #0]
 8004bf0:	891b      	ldrh	r3, [r3, #8]
 8004bf2:	f8a7 3076 	strh.w	r3, [r7, #118]	@ 0x76

            /* Write the user buffer to USB PMA */
            USB_WritePMA(USBx, ep->xfer_buff, pmabuffer, (uint16_t)len);
 8004bf6:	f507 7384 	add.w	r3, r7, #264	@ 0x108
 8004bfa:	f5a3 7384 	sub.w	r3, r3, #264	@ 0x108
 8004bfe:	681b      	ldr	r3, [r3, #0]
 8004c00:	6959      	ldr	r1, [r3, #20]
 8004c02:	f8d7 3104 	ldr.w	r3, [r7, #260]	@ 0x104
 8004c06:	b29b      	uxth	r3, r3
 8004c08:	f8b7 2076 	ldrh.w	r2, [r7, #118]	@ 0x76
 8004c0c:	f507 7084 	add.w	r0, r7, #264	@ 0x108
 8004c10:	f5a0 7082 	sub.w	r0, r0, #260	@ 0x104
 8004c14:	6800      	ldr	r0, [r0, #0]
 8004c16:	f001 f982 	bl	8005f1e <USB_WritePMA>
            ep->xfer_buff += len;
 8004c1a:	f507 7384 	add.w	r3, r7, #264	@ 0x108
 8004c1e:	f5a3 7384 	sub.w	r3, r3, #264	@ 0x108
 8004c22:	681b      	ldr	r3, [r3, #0]
 8004c24:	695a      	ldr	r2, [r3, #20]
 8004c26:	f8d7 3104 	ldr.w	r3, [r7, #260]	@ 0x104
 8004c2a:	441a      	add	r2, r3
 8004c2c:	f507 7384 	add.w	r3, r7, #264	@ 0x108
 8004c30:	f5a3 7384 	sub.w	r3, r3, #264	@ 0x108
 8004c34:	681b      	ldr	r3, [r3, #0]
 8004c36:	615a      	str	r2, [r3, #20]

            if (ep->xfer_len_db > ep->maxpacket)
 8004c38:	f507 7384 	add.w	r3, r7, #264	@ 0x108
 8004c3c:	f5a3 7384 	sub.w	r3, r3, #264	@ 0x108
 8004c40:	681b      	ldr	r3, [r3, #0]
 8004c42:	6a1a      	ldr	r2, [r3, #32]
 8004c44:	f507 7384 	add.w	r3, r7, #264	@ 0x108
 8004c48:	f5a3 7384 	sub.w	r3, r3, #264	@ 0x108
 8004c4c:	681b      	ldr	r3, [r3, #0]
 8004c4e:	691b      	ldr	r3, [r3, #16]
 8004c50:	429a      	cmp	r2, r3
 8004c52:	d90f      	bls.n	8004c74 <USB_EPStartXfer+0x734>
            {
              ep->xfer_len_db -= len;
 8004c54:	f507 7384 	add.w	r3, r7, #264	@ 0x108
 8004c58:	f5a3 7384 	sub.w	r3, r3, #264	@ 0x108
 8004c5c:	681b      	ldr	r3, [r3, #0]
 8004c5e:	6a1a      	ldr	r2, [r3, #32]
 8004c60:	f8d7 3104 	ldr.w	r3, [r7, #260]	@ 0x104
 8004c64:	1ad2      	subs	r2, r2, r3
 8004c66:	f507 7384 	add.w	r3, r7, #264	@ 0x108
 8004c6a:	f5a3 7384 	sub.w	r3, r3, #264	@ 0x108
 8004c6e:	681b      	ldr	r3, [r3, #0]
 8004c70:	621a      	str	r2, [r3, #32]
 8004c72:	e00e      	b.n	8004c92 <USB_EPStartXfer+0x752>
            }
            else
            {
              len = ep->xfer_len_db;
 8004c74:	f507 7384 	add.w	r3, r7, #264	@ 0x108
 8004c78:	f5a3 7384 	sub.w	r3, r3, #264	@ 0x108
 8004c7c:	681b      	ldr	r3, [r3, #0]
 8004c7e:	6a1b      	ldr	r3, [r3, #32]
 8004c80:	f8c7 3104 	str.w	r3, [r7, #260]	@ 0x104
              ep->xfer_len_db = 0U;
 8004c84:	f507 7384 	add.w	r3, r7, #264	@ 0x108
 8004c88:	f5a3 7384 	sub.w	r3, r3, #264	@ 0x108
 8004c8c:	681b      	ldr	r3, [r3, #0]
 8004c8e:	2200      	movs	r2, #0
 8004c90:	621a      	str	r2, [r3, #32]
            }

            /* Set the Double buffer counter for pmabuffer1 */
            PCD_SET_EP_DBUF1_CNT(USBx, ep->num, ep->is_in, len);
 8004c92:	f507 7384 	add.w	r3, r7, #264	@ 0x108
 8004c96:	f5a3 7382 	sub.w	r3, r3, #260	@ 0x104
 8004c9a:	681b      	ldr	r3, [r3, #0]
 8004c9c:	643b      	str	r3, [r7, #64]	@ 0x40
 8004c9e:	f507 7384 	add.w	r3, r7, #264	@ 0x108
 8004ca2:	f5a3 7384 	sub.w	r3, r3, #264	@ 0x108
 8004ca6:	681b      	ldr	r3, [r3, #0]
 8004ca8:	785b      	ldrb	r3, [r3, #1]
 8004caa:	2b00      	cmp	r3, #0
 8004cac:	d177      	bne.n	8004d9e <USB_EPStartXfer+0x85e>
 8004cae:	f507 7384 	add.w	r3, r7, #264	@ 0x108
 8004cb2:	f5a3 7382 	sub.w	r3, r3, #260	@ 0x104
 8004cb6:	681b      	ldr	r3, [r3, #0]
 8004cb8:	63bb      	str	r3, [r7, #56]	@ 0x38
 8004cba:	f507 7384 	add.w	r3, r7, #264	@ 0x108
 8004cbe:	f5a3 7382 	sub.w	r3, r3, #260	@ 0x104
 8004cc2:	681b      	ldr	r3, [r3, #0]
 8004cc4:	f8b3 3050 	ldrh.w	r3, [r3, #80]	@ 0x50
 8004cc8:	b29b      	uxth	r3, r3
 8004cca:	461a      	mov	r2, r3
 8004ccc:	6bbb      	ldr	r3, [r7, #56]	@ 0x38
 8004cce:	4413      	add	r3, r2
 8004cd0:	63bb      	str	r3, [r7, #56]	@ 0x38
 8004cd2:	f507 7384 	add.w	r3, r7, #264	@ 0x108
 8004cd6:	f5a3 7384 	sub.w	r3, r3, #264	@ 0x108
 8004cda:	681b      	ldr	r3, [r3, #0]
 8004cdc:	781b      	ldrb	r3, [r3, #0]
 8004cde:	011a      	lsls	r2, r3, #4
 8004ce0:	6bbb      	ldr	r3, [r7, #56]	@ 0x38
 8004ce2:	4413      	add	r3, r2
 8004ce4:	f203 430c 	addw	r3, r3, #1036	@ 0x40c
 8004ce8:	637b      	str	r3, [r7, #52]	@ 0x34
 8004cea:	6b7b      	ldr	r3, [r7, #52]	@ 0x34
 8004cec:	881b      	ldrh	r3, [r3, #0]
 8004cee:	b29b      	uxth	r3, r3
 8004cf0:	f3c3 0309 	ubfx	r3, r3, #0, #10
 8004cf4:	b29a      	uxth	r2, r3
 8004cf6:	6b7b      	ldr	r3, [r7, #52]	@ 0x34
 8004cf8:	801a      	strh	r2, [r3, #0]
 8004cfa:	f8d7 3104 	ldr.w	r3, [r7, #260]	@ 0x104
 8004cfe:	2b3e      	cmp	r3, #62	@ 0x3e
 8004d00:	d921      	bls.n	8004d46 <USB_EPStartXfer+0x806>
 8004d02:	f8d7 3104 	ldr.w	r3, [r7, #260]	@ 0x104
 8004d06:	095b      	lsrs	r3, r3, #5
 8004d08:	f8c7 30f4 	str.w	r3, [r7, #244]	@ 0xf4
 8004d0c:	f8d7 3104 	ldr.w	r3, [r7, #260]	@ 0x104
 8004d10:	f003 031f 	and.w	r3, r3, #31
 8004d14:	2b00      	cmp	r3, #0
 8004d16:	d104      	bne.n	8004d22 <USB_EPStartXfer+0x7e2>
 8004d18:	f8d7 30f4 	ldr.w	r3, [r7, #244]	@ 0xf4
 8004d1c:	3b01      	subs	r3, #1
 8004d1e:	f8c7 30f4 	str.w	r3, [r7, #244]	@ 0xf4
 8004d22:	6b7b      	ldr	r3, [r7, #52]	@ 0x34
 8004d24:	881b      	ldrh	r3, [r3, #0]
 8004d26:	b29a      	uxth	r2, r3
 8004d28:	f8d7 30f4 	ldr.w	r3, [r7, #244]	@ 0xf4
 8004d2c:	b29b      	uxth	r3, r3
 8004d2e:	029b      	lsls	r3, r3, #10
 8004d30:	b29b      	uxth	r3, r3
 8004d32:	4313      	orrs	r3, r2
 8004d34:	b29b      	uxth	r3, r3
 8004d36:	ea6f 4343 	mvn.w	r3, r3, lsl #17
 8004d3a:	ea6f 4353 	mvn.w	r3, r3, lsr #17
 8004d3e:	b29a      	uxth	r2, r3
 8004d40:	6b7b      	ldr	r3, [r7, #52]	@ 0x34
 8004d42:	801a      	strh	r2, [r3, #0]
 8004d44:	e050      	b.n	8004de8 <USB_EPStartXfer+0x8a8>
 8004d46:	f8d7 3104 	ldr.w	r3, [r7, #260]	@ 0x104
 8004d4a:	2b00      	cmp	r3, #0
 8004d4c:	d10a      	bne.n	8004d64 <USB_EPStartXfer+0x824>
 8004d4e:	6b7b      	ldr	r3, [r7, #52]	@ 0x34
 8004d50:	881b      	ldrh	r3, [r3, #0]
 8004d52:	b29b      	uxth	r3, r3
 8004d54:	ea6f 4343 	mvn.w	r3, r3, lsl #17
 8004d58:	ea6f 4353 	mvn.w	r3, r3, lsr #17
 8004d5c:	b29a      	uxth	r2, r3
 8004d5e:	6b7b      	ldr	r3, [r7, #52]	@ 0x34
 8004d60:	801a      	strh	r2, [r3, #0]
 8004d62:	e041      	b.n	8004de8 <USB_EPStartXfer+0x8a8>
 8004d64:	f8d7 3104 	ldr.w	r3, [r7, #260]	@ 0x104
 8004d68:	085b      	lsrs	r3, r3, #1
 8004d6a:	f8c7 30f4 	str.w	r3, [r7, #244]	@ 0xf4
 8004d6e:	f8d7 3104 	ldr.w	r3, [r7, #260]	@ 0x104
 8004d72:	f003 0301 	and.w	r3, r3, #1
 8004d76:	2b00      	cmp	r3, #0
 8004d78:	d004      	beq.n	8004d84 <USB_EPStartXfer+0x844>
 8004d7a:	f8d7 30f4 	ldr.w	r3, [r7, #244]	@ 0xf4
 8004d7e:	3301      	adds	r3, #1
 8004d80:	f8c7 30f4 	str.w	r3, [r7, #244]	@ 0xf4
 8004d84:	6b7b      	ldr	r3, [r7, #52]	@ 0x34
 8004d86:	881b      	ldrh	r3, [r3, #0]
 8004d88:	b29a      	uxth	r2, r3
 8004d8a:	f8d7 30f4 	ldr.w	r3, [r7, #244]	@ 0xf4
 8004d8e:	b29b      	uxth	r3, r3
 8004d90:	029b      	lsls	r3, r3, #10
 8004d92:	b29b      	uxth	r3, r3
 8004d94:	4313      	orrs	r3, r2
 8004d96:	b29a      	uxth	r2, r3
 8004d98:	6b7b      	ldr	r3, [r7, #52]	@ 0x34
 8004d9a:	801a      	strh	r2, [r3, #0]
 8004d9c:	e024      	b.n	8004de8 <USB_EPStartXfer+0x8a8>
 8004d9e:	f507 7384 	add.w	r3, r7, #264	@ 0x108
 8004da2:	f5a3 7384 	sub.w	r3, r3, #264	@ 0x108
 8004da6:	681b      	ldr	r3, [r3, #0]
 8004da8:	785b      	ldrb	r3, [r3, #1]
 8004daa:	2b01      	cmp	r3, #1
 8004dac:	d11c      	bne.n	8004de8 <USB_EPStartXfer+0x8a8>
 8004dae:	f507 7384 	add.w	r3, r7, #264	@ 0x108
 8004db2:	f5a3 7382 	sub.w	r3, r3, #260	@ 0x104
 8004db6:	681b      	ldr	r3, [r3, #0]
 8004db8:	f8b3 3050 	ldrh.w	r3, [r3, #80]	@ 0x50
 8004dbc:	b29b      	uxth	r3, r3
 8004dbe:	461a      	mov	r2, r3
 8004dc0:	6c3b      	ldr	r3, [r7, #64]	@ 0x40
 8004dc2:	4413      	add	r3, r2
 8004dc4:	643b      	str	r3, [r7, #64]	@ 0x40
 8004dc6:	f507 7384 	add.w	r3, r7, #264	@ 0x108
 8004dca:	f5a3 7384 	sub.w	r3, r3, #264	@ 0x108
 8004dce:	681b      	ldr	r3, [r3, #0]
 8004dd0:	781b      	ldrb	r3, [r3, #0]
 8004dd2:	011a      	lsls	r2, r3, #4
 8004dd4:	6c3b      	ldr	r3, [r7, #64]	@ 0x40
 8004dd6:	4413      	add	r3, r2
 8004dd8:	f203 430c 	addw	r3, r3, #1036	@ 0x40c
 8004ddc:	63fb      	str	r3, [r7, #60]	@ 0x3c
 8004dde:	f8d7 3104 	ldr.w	r3, [r7, #260]	@ 0x104
 8004de2:	b29a      	uxth	r2, r3
 8004de4:	6bfb      	ldr	r3, [r7, #60]	@ 0x3c
 8004de6:	801a      	strh	r2, [r3, #0]
            pmabuffer = ep->pmaaddr1;
 8004de8:	f507 7384 	add.w	r3, r7, #264	@ 0x108
 8004dec:	f5a3 7384 	sub.w	r3, r3, #264	@ 0x108
 8004df0:	681b      	ldr	r3, [r3, #0]
 8004df2:	895b      	ldrh	r3, [r3, #10]
 8004df4:	f8a7 3076 	strh.w	r3, [r7, #118]	@ 0x76

            /* Write the user buffer to USB PMA */
            USB_WritePMA(USBx, ep->xfer_buff, pmabuffer, (uint16_t)len);
 8004df8:	f507 7384 	add.w	r3, r7, #264	@ 0x108
 8004dfc:	f5a3 7384 	sub.w	r3, r3, #264	@ 0x108
 8004e00:	681b      	ldr	r3, [r3, #0]
 8004e02:	6959      	ldr	r1, [r3, #20]
 8004e04:	f8d7 3104 	ldr.w	r3, [r7, #260]	@ 0x104
 8004e08:	b29b      	uxth	r3, r3
 8004e0a:	f8b7 2076 	ldrh.w	r2, [r7, #118]	@ 0x76
 8004e0e:	f507 7084 	add.w	r0, r7, #264	@ 0x108
 8004e12:	f5a0 7082 	sub.w	r0, r0, #260	@ 0x104
 8004e16:	6800      	ldr	r0, [r0, #0]
 8004e18:	f001 f881 	bl	8005f1e <USB_WritePMA>
 8004e1c:	e227      	b.n	800526e <USB_EPStartXfer+0xd2e>
          }
        }
        /* auto Switch to single buffer mode when transfer <Mps no need to manage in double buffer */
        else
        {
          len = ep->xfer_len_db;
 8004e1e:	f507 7384 	add.w	r3, r7, #264	@ 0x108
 8004e22:	f5a3 7384 	sub.w	r3, r3, #264	@ 0x108
 8004e26:	681b      	ldr	r3, [r3, #0]
 8004e28:	6a1b      	ldr	r3, [r3, #32]
 8004e2a:	f8c7 3104 	str.w	r3, [r7, #260]	@ 0x104

          /* disable double buffer mode for Bulk endpoint */
          PCD_CLEAR_BULK_EP_DBUF(USBx, ep->num);
 8004e2e:	f507 7384 	add.w	r3, r7, #264	@ 0x108
 8004e32:	f5a3 7382 	sub.w	r3, r3, #260	@ 0x104
 8004e36:	681a      	ldr	r2, [r3, #0]
 8004e38:	f507 7384 	add.w	r3, r7, #264	@ 0x108
 8004e3c:	f5a3 7384 	sub.w	r3, r3, #264	@ 0x108
 8004e40:	681b      	ldr	r3, [r3, #0]
 8004e42:	781b      	ldrb	r3, [r3, #0]
 8004e44:	009b      	lsls	r3, r3, #2
 8004e46:	4413      	add	r3, r2
 8004e48:	881b      	ldrh	r3, [r3, #0]
 8004e4a:	b29b      	uxth	r3, r3
 8004e4c:	f423 43e2 	bic.w	r3, r3, #28928	@ 0x7100
 8004e50:	f023 0370 	bic.w	r3, r3, #112	@ 0x70
 8004e54:	f8a7 3062 	strh.w	r3, [r7, #98]	@ 0x62
 8004e58:	f507 7384 	add.w	r3, r7, #264	@ 0x108
 8004e5c:	f5a3 7382 	sub.w	r3, r3, #260	@ 0x104
 8004e60:	681a      	ldr	r2, [r3, #0]
 8004e62:	f507 7384 	add.w	r3, r7, #264	@ 0x108
 8004e66:	f5a3 7384 	sub.w	r3, r3, #264	@ 0x108
 8004e6a:	681b      	ldr	r3, [r3, #0]
 8004e6c:	781b      	ldrb	r3, [r3, #0]
 8004e6e:	009b      	lsls	r3, r3, #2
 8004e70:	441a      	add	r2, r3
 8004e72:	f8b7 3062 	ldrh.w	r3, [r7, #98]	@ 0x62
 8004e76:	f043 437f 	orr.w	r3, r3, #4278190080	@ 0xff000000
 8004e7a:	f443 037f 	orr.w	r3, r3, #16711680	@ 0xff0000
 8004e7e:	f443 4300 	orr.w	r3, r3, #32768	@ 0x8000
 8004e82:	f043 0380 	orr.w	r3, r3, #128	@ 0x80
 8004e86:	b29b      	uxth	r3, r3
 8004e88:	8013      	strh	r3, [r2, #0]

          /* Set Tx count with nbre of byte to be transmitted */
          PCD_SET_EP_TX_CNT(USBx, ep->num, len);
 8004e8a:	f507 7384 	add.w	r3, r7, #264	@ 0x108
 8004e8e:	f5a3 7382 	sub.w	r3, r3, #260	@ 0x104
 8004e92:	681b      	ldr	r3, [r3, #0]
 8004e94:	65fb      	str	r3, [r7, #92]	@ 0x5c
 8004e96:	f507 7384 	add.w	r3, r7, #264	@ 0x108
 8004e9a:	f5a3 7382 	sub.w	r3, r3, #260	@ 0x104
 8004e9e:	681b      	ldr	r3, [r3, #0]
 8004ea0:	f8b3 3050 	ldrh.w	r3, [r3, #80]	@ 0x50
 8004ea4:	b29b      	uxth	r3, r3
 8004ea6:	461a      	mov	r2, r3
 8004ea8:	6dfb      	ldr	r3, [r7, #92]	@ 0x5c
 8004eaa:	4413      	add	r3, r2
 8004eac:	65fb      	str	r3, [r7, #92]	@ 0x5c
 8004eae:	f507 7384 	add.w	r3, r7, #264	@ 0x108
 8004eb2:	f5a3 7384 	sub.w	r3, r3, #264	@ 0x108
 8004eb6:	681b      	ldr	r3, [r3, #0]
 8004eb8:	781b      	ldrb	r3, [r3, #0]
 8004eba:	011a      	lsls	r2, r3, #4
 8004ebc:	6dfb      	ldr	r3, [r7, #92]	@ 0x5c
 8004ebe:	4413      	add	r3, r2
 8004ec0:	f203 4304 	addw	r3, r3, #1028	@ 0x404
 8004ec4:	65bb      	str	r3, [r7, #88]	@ 0x58
 8004ec6:	f8d7 3104 	ldr.w	r3, [r7, #260]	@ 0x104
 8004eca:	b29a      	uxth	r2, r3
 8004ecc:	6dbb      	ldr	r3, [r7, #88]	@ 0x58
 8004ece:	801a      	strh	r2, [r3, #0]
          pmabuffer = ep->pmaaddr0;
 8004ed0:	f507 7384 	add.w	r3, r7, #264	@ 0x108
 8004ed4:	f5a3 7384 	sub.w	r3, r3, #264	@ 0x108
 8004ed8:	681b      	ldr	r3, [r3, #0]
 8004eda:	891b      	ldrh	r3, [r3, #8]
 8004edc:	f8a7 3076 	strh.w	r3, [r7, #118]	@ 0x76

          /* Write the user buffer to USB PMA */
          USB_WritePMA(USBx, ep->xfer_buff, pmabuffer, (uint16_t)len);
 8004ee0:	f507 7384 	add.w	r3, r7, #264	@ 0x108
 8004ee4:	f5a3 7384 	sub.w	r3, r3, #264	@ 0x108
 8004ee8:	681b      	ldr	r3, [r3, #0]
 8004eea:	6959      	ldr	r1, [r3, #20]
 8004eec:	f8d7 3104 	ldr.w	r3, [r7, #260]	@ 0x104
 8004ef0:	b29b      	uxth	r3, r3
 8004ef2:	f8b7 2076 	ldrh.w	r2, [r7, #118]	@ 0x76
 8004ef6:	f507 7084 	add.w	r0, r7, #264	@ 0x108
 8004efa:	f5a0 7082 	sub.w	r0, r0, #260	@ 0x104
 8004efe:	6800      	ldr	r0, [r0, #0]
 8004f00:	f001 f80d 	bl	8005f1e <USB_WritePMA>
 8004f04:	e1b3      	b.n	800526e <USB_EPStartXfer+0xd2e>
        }
      }
      else /* manage isochronous double buffer IN mode */
      {
        /* each Time to write in PMA xfer_len_db will */
        ep->xfer_len_db -= len;
 8004f06:	f507 7384 	add.w	r3, r7, #264	@ 0x108
 8004f0a:	f5a3 7384 	sub.w	r3, r3, #264	@ 0x108
 8004f0e:	681b      	ldr	r3, [r3, #0]
 8004f10:	6a1a      	ldr	r2, [r3, #32]
 8004f12:	f8d7 3104 	ldr.w	r3, [r7, #260]	@ 0x104
 8004f16:	1ad2      	subs	r2, r2, r3
 8004f18:	f507 7384 	add.w	r3, r7, #264	@ 0x108
 8004f1c:	f5a3 7384 	sub.w	r3, r3, #264	@ 0x108
 8004f20:	681b      	ldr	r3, [r3, #0]
 8004f22:	621a      	str	r2, [r3, #32]

        /* Fill the data buffer */
        if ((PCD_GET_ENDPOINT(USBx, ep->num) & USB_EP_DTOG_TX) != 0U)
 8004f24:	f507 7384 	add.w	r3, r7, #264	@ 0x108
 8004f28:	f5a3 7382 	sub.w	r3, r3, #260	@ 0x104
 8004f2c:	681a      	ldr	r2, [r3, #0]
 8004f2e:	f507 7384 	add.w	r3, r7, #264	@ 0x108
 8004f32:	f5a3 7384 	sub.w	r3, r3, #264	@ 0x108
 8004f36:	681b      	ldr	r3, [r3, #0]
 8004f38:	781b      	ldrb	r3, [r3, #0]
 8004f3a:	009b      	lsls	r3, r3, #2
 8004f3c:	4413      	add	r3, r2
 8004f3e:	881b      	ldrh	r3, [r3, #0]
 8004f40:	b29b      	uxth	r3, r3
 8004f42:	f003 0340 	and.w	r3, r3, #64	@ 0x40
 8004f46:	2b00      	cmp	r3, #0
 8004f48:	f000 80c6 	beq.w	80050d8 <USB_EPStartXfer+0xb98>
        {
          /* Set the Double buffer counter for pmabuffer1 */
          PCD_SET_EP_DBUF1_CNT(USBx, ep->num, ep->is_in, len);
 8004f4c:	f507 7384 	add.w	r3, r7, #264	@ 0x108
 8004f50:	f5a3 7382 	sub.w	r3, r3, #260	@ 0x104
 8004f54:	681b      	ldr	r3, [r3, #0]
 8004f56:	673b      	str	r3, [r7, #112]	@ 0x70
 8004f58:	f507 7384 	add.w	r3, r7, #264	@ 0x108
 8004f5c:	f5a3 7384 	sub.w	r3, r3, #264	@ 0x108
 8004f60:	681b      	ldr	r3, [r3, #0]
 8004f62:	785b      	ldrb	r3, [r3, #1]
 8004f64:	2b00      	cmp	r3, #0
 8004f66:	d177      	bne.n	8005058 <USB_EPStartXfer+0xb18>
 8004f68:	f507 7384 	add.w	r3, r7, #264	@ 0x108
 8004f6c:	f5a3 7382 	sub.w	r3, r3, #260	@ 0x104
 8004f70:	681b      	ldr	r3, [r3, #0]
 8004f72:	66bb      	str	r3, [r7, #104]	@ 0x68
 8004f74:	f507 7384 	add.w	r3, r7, #264	@ 0x108
 8004f78:	f5a3 7382 	sub.w	r3, r3, #260	@ 0x104
 8004f7c:	681b      	ldr	r3, [r3, #0]
 8004f7e:	f8b3 3050 	ldrh.w	r3, [r3, #80]	@ 0x50
 8004f82:	b29b      	uxth	r3, r3
 8004f84:	461a      	mov	r2, r3
 8004f86:	6ebb      	ldr	r3, [r7, #104]	@ 0x68
 8004f88:	4413      	add	r3, r2
 8004f8a:	66bb      	str	r3, [r7, #104]	@ 0x68
 8004f8c:	f507 7384 	add.w	r3, r7, #264	@ 0x108
 8004f90:	f5a3 7384 	sub.w	r3, r3, #264	@ 0x108
 8004f94:	681b      	ldr	r3, [r3, #0]
 8004f96:	781b      	ldrb	r3, [r3, #0]
 8004f98:	011a      	lsls	r2, r3, #4
 8004f9a:	6ebb      	ldr	r3, [r7, #104]	@ 0x68
 8004f9c:	4413      	add	r3, r2
 8004f9e:	f203 430c 	addw	r3, r3, #1036	@ 0x40c
 8004fa2:	667b      	str	r3, [r7, #100]	@ 0x64
 8004fa4:	6e7b      	ldr	r3, [r7, #100]	@ 0x64
 8004fa6:	881b      	ldrh	r3, [r3, #0]
 8004fa8:	b29b      	uxth	r3, r3
 8004faa:	f3c3 0309 	ubfx	r3, r3, #0, #10
 8004fae:	b29a      	uxth	r2, r3
 8004fb0:	6e7b      	ldr	r3, [r7, #100]	@ 0x64
 8004fb2:	801a      	strh	r2, [r3, #0]
 8004fb4:	f8d7 3104 	ldr.w	r3, [r7, #260]	@ 0x104
 8004fb8:	2b3e      	cmp	r3, #62	@ 0x3e
 8004fba:	d921      	bls.n	8005000 <USB_EPStartXfer+0xac0>
 8004fbc:	f8d7 3104 	ldr.w	r3, [r7, #260]	@ 0x104
 8004fc0:	095b      	lsrs	r3, r3, #5
 8004fc2:	f8c7 30f0 	str.w	r3, [r7, #240]	@ 0xf0
 8004fc6:	f8d7 3104 	ldr.w	r3, [r7, #260]	@ 0x104
 8004fca:	f003 031f 	and.w	r3, r3, #31
 8004fce:	2b00      	cmp	r3, #0
 8004fd0:	d104      	bne.n	8004fdc <USB_EPStartXfer+0xa9c>
 8004fd2:	f8d7 30f0 	ldr.w	r3, [r7, #240]	@ 0xf0
 8004fd6:	3b01      	subs	r3, #1
 8004fd8:	f8c7 30f0 	str.w	r3, [r7, #240]	@ 0xf0
 8004fdc:	6e7b      	ldr	r3, [r7, #100]	@ 0x64
 8004fde:	881b      	ldrh	r3, [r3, #0]
 8004fe0:	b29a      	uxth	r2, r3
 8004fe2:	f8d7 30f0 	ldr.w	r3, [r7, #240]	@ 0xf0
 8004fe6:	b29b      	uxth	r3, r3
 8004fe8:	029b      	lsls	r3, r3, #10
 8004fea:	b29b      	uxth	r3, r3
 8004fec:	4313      	orrs	r3, r2
 8004fee:	b29b      	uxth	r3, r3
 8004ff0:	ea6f 4343 	mvn.w	r3, r3, lsl #17
 8004ff4:	ea6f 4353 	mvn.w	r3, r3, lsr #17
 8004ff8:	b29a      	uxth	r2, r3
 8004ffa:	6e7b      	ldr	r3, [r7, #100]	@ 0x64
 8004ffc:	801a      	strh	r2, [r3, #0]
 8004ffe:	e050      	b.n	80050a2 <USB_EPStartXfer+0xb62>
 8005000:	f8d7 3104 	ldr.w	r3, [r7, #260]	@ 0x104
 8005004:	2b00      	cmp	r3, #0
 8005006:	d10a      	bne.n	800501e <USB_EPStartXfer+0xade>
 8005008:	6e7b      	ldr	r3, [r7, #100]	@ 0x64
 800500a:	881b      	ldrh	r3, [r3, #0]
 800500c:	b29b      	uxth	r3, r3
 800500e:	ea6f 4343 	mvn.w	r3, r3, lsl #17
 8005012:	ea6f 4353 	mvn.w	r3, r3, lsr #17
 8005016:	b29a      	uxth	r2, r3
 8005018:	6e7b      	ldr	r3, [r7, #100]	@ 0x64
 800501a:	801a      	strh	r2, [r3, #0]
 800501c:	e041      	b.n	80050a2 <USB_EPStartXfer+0xb62>
 800501e:	f8d7 3104 	ldr.w	r3, [r7, #260]	@ 0x104
 8005022:	085b      	lsrs	r3, r3, #1
 8005024:	f8c7 30f0 	str.w	r3, [r7, #240]	@ 0xf0
 8005028:	f8d7 3104 	ldr.w	r3, [r7, #260]	@ 0x104
 800502c:	f003 0301 	and.w	r3, r3, #1
 8005030:	2b00      	cmp	r3, #0
 8005032:	d004      	beq.n	800503e <USB_EPStartXfer+0xafe>
 8005034:	f8d7 30f0 	ldr.w	r3, [r7, #240]	@ 0xf0
 8005038:	3301      	adds	r3, #1
 800503a:	f8c7 30f0 	str.w	r3, [r7, #240]	@ 0xf0
 800503e:	6e7b      	ldr	r3, [r7, #100]	@ 0x64
 8005040:	881b      	ldrh	r3, [r3, #0]
 8005042:	b29a      	uxth	r2, r3
 8005044:	f8d7 30f0 	ldr.w	r3, [r7, #240]	@ 0xf0
 8005048:	b29b      	uxth	r3, r3
 800504a:	029b      	lsls	r3, r3, #10
 800504c:	b29b      	uxth	r3, r3
 800504e:	4313      	orrs	r3, r2
 8005050:	b29a      	uxth	r2, r3
 8005052:	6e7b      	ldr	r3, [r7, #100]	@ 0x64
 8005054:	801a      	strh	r2, [r3, #0]
 8005056:	e024      	b.n	80050a2 <USB_EPStartXfer+0xb62>
 8005058:	f507 7384 	add.w	r3, r7, #264	@ 0x108
 800505c:	f5a3 7384 	sub.w	r3, r3, #264	@ 0x108
 8005060:	681b      	ldr	r3, [r3, #0]
 8005062:	785b      	ldrb	r3, [r3, #1]
 8005064:	2b01      	cmp	r3, #1
 8005066:	d11c      	bne.n	80050a2 <USB_EPStartXfer+0xb62>
 8005068:	f507 7384 	add.w	r3, r7, #264	@ 0x108
 800506c:	f5a3 7382 	sub.w	r3, r3, #260	@ 0x104
 8005070:	681b      	ldr	r3, [r3, #0]
 8005072:	f8b3 3050 	ldrh.w	r3, [r3, #80]	@ 0x50
 8005076:	b29b      	uxth	r3, r3
 8005078:	461a      	mov	r2, r3
 800507a:	6f3b      	ldr	r3, [r7, #112]	@ 0x70
 800507c:	4413      	add	r3, r2
 800507e:	673b      	str	r3, [r7, #112]	@ 0x70
 8005080:	f507 7384 	add.w	r3, r7, #264	@ 0x108
 8005084:	f5a3 7384 	sub.w	r3, r3, #264	@ 0x108
 8005088:	681b      	ldr	r3, [r3, #0]
 800508a:	781b      	ldrb	r3, [r3, #0]
 800508c:	011a      	lsls	r2, r3, #4
 800508e:	6f3b      	ldr	r3, [r7, #112]	@ 0x70
 8005090:	4413      	add	r3, r2
 8005092:	f203 430c 	addw	r3, r3, #1036	@ 0x40c
 8005096:	66fb      	str	r3, [r7, #108]	@ 0x6c
 8005098:	f8d7 3104 	ldr.w	r3, [r7, #260]	@ 0x104
 800509c:	b29a      	uxth	r2, r3
 800509e:	6efb      	ldr	r3, [r7, #108]	@ 0x6c
 80050a0:	801a      	strh	r2, [r3, #0]
          pmabuffer = ep->pmaaddr1;
 80050a2:	f507 7384 	add.w	r3, r7, #264	@ 0x108
 80050a6:	f5a3 7384 	sub.w	r3, r3, #264	@ 0x108
 80050aa:	681b      	ldr	r3, [r3, #0]
 80050ac:	895b      	ldrh	r3, [r3, #10]
 80050ae:	f8a7 3076 	strh.w	r3, [r7, #118]	@ 0x76

          /* Write the user buffer to USB PMA */
          USB_WritePMA(USBx, ep->xfer_buff, pmabuffer, (uint16_t)len);
 80050b2:	f507 7384 	add.w	r3, r7, #264	@ 0x108
 80050b6:	f5a3 7384 	sub.w	r3, r3, #264	@ 0x108
 80050ba:	681b      	ldr	r3, [r3, #0]
 80050bc:	6959      	ldr	r1, [r3, #20]
 80050be:	f8d7 3104 	ldr.w	r3, [r7, #260]	@ 0x104
 80050c2:	b29b      	uxth	r3, r3
 80050c4:	f8b7 2076 	ldrh.w	r2, [r7, #118]	@ 0x76
 80050c8:	f507 7084 	add.w	r0, r7, #264	@ 0x108
 80050cc:	f5a0 7082 	sub.w	r0, r0, #260	@ 0x104
 80050d0:	6800      	ldr	r0, [r0, #0]
 80050d2:	f000 ff24 	bl	8005f1e <USB_WritePMA>
 80050d6:	e0ca      	b.n	800526e <USB_EPStartXfer+0xd2e>
        }
        else
        {
          /* Set the Double buffer counter for pmabuffer0 */
          PCD_SET_EP_DBUF0_CNT(USBx, ep->num, ep->is_in, len);
 80050d8:	f507 7384 	add.w	r3, r7, #264	@ 0x108
 80050dc:	f5a3 7384 	sub.w	r3, r3, #264	@ 0x108
 80050e0:	681b      	ldr	r3, [r3, #0]
 80050e2:	785b      	ldrb	r3, [r3, #1]
 80050e4:	2b00      	cmp	r3, #0
 80050e6:	d177      	bne.n	80051d8 <USB_EPStartXfer+0xc98>
 80050e8:	f507 7384 	add.w	r3, r7, #264	@ 0x108
 80050ec:	f5a3 7382 	sub.w	r3, r3, #260	@ 0x104
 80050f0:	681b      	ldr	r3, [r3, #0]
 80050f2:	67fb      	str	r3, [r7, #124]	@ 0x7c
 80050f4:	f507 7384 	add.w	r3, r7, #264	@ 0x108
 80050f8:	f5a3 7382 	sub.w	r3, r3, #260	@ 0x104
 80050fc:	681b      	ldr	r3, [r3, #0]
 80050fe:	f8b3 3050 	ldrh.w	r3, [r3, #80]	@ 0x50
 8005102:	b29b      	uxth	r3, r3
 8005104:	461a      	mov	r2, r3
 8005106:	6ffb      	ldr	r3, [r7, #124]	@ 0x7c
 8005108:	4413      	add	r3, r2
 800510a:	67fb      	str	r3, [r7, #124]	@ 0x7c
 800510c:	f507 7384 	add.w	r3, r7, #264	@ 0x108
 8005110:	f5a3 7384 	sub.w	r3, r3, #264	@ 0x108
 8005114:	681b      	ldr	r3, [r3, #0]
 8005116:	781b      	ldrb	r3, [r3, #0]
 8005118:	011a      	lsls	r2, r3, #4
 800511a:	6ffb      	ldr	r3, [r7, #124]	@ 0x7c
 800511c:	4413      	add	r3, r2
 800511e:	f203 4304 	addw	r3, r3, #1028	@ 0x404
 8005122:	67bb      	str	r3, [r7, #120]	@ 0x78
 8005124:	6fbb      	ldr	r3, [r7, #120]	@ 0x78
 8005126:	881b      	ldrh	r3, [r3, #0]
 8005128:	b29b      	uxth	r3, r3
 800512a:	f3c3 0309 	ubfx	r3, r3, #0, #10
 800512e:	b29a      	uxth	r2, r3
 8005130:	6fbb      	ldr	r3, [r7, #120]	@ 0x78
 8005132:	801a      	strh	r2, [r3, #0]
 8005134:	f8d7 3104 	ldr.w	r3, [r7, #260]	@ 0x104
 8005138:	2b3e      	cmp	r3, #62	@ 0x3e
 800513a:	d921      	bls.n	8005180 <USB_EPStartXfer+0xc40>
 800513c:	f8d7 3104 	ldr.w	r3, [r7, #260]	@ 0x104
 8005140:	095b      	lsrs	r3, r3, #5
 8005142:	f8c7 30ec 	str.w	r3, [r7, #236]	@ 0xec
 8005146:	f8d7 3104 	ldr.w	r3, [r7, #260]	@ 0x104
 800514a:	f003 031f 	and.w	r3, r3, #31
 800514e:	2b00      	cmp	r3, #0
 8005150:	d104      	bne.n	800515c <USB_EPStartXfer+0xc1c>
 8005152:	f8d7 30ec 	ldr.w	r3, [r7, #236]	@ 0xec
 8005156:	3b01      	subs	r3, #1
 8005158:	f8c7 30ec 	str.w	r3, [r7, #236]	@ 0xec
 800515c:	6fbb      	ldr	r3, [r7, #120]	@ 0x78
 800515e:	881b      	ldrh	r3, [r3, #0]
 8005160:	b29a      	uxth	r2, r3
 8005162:	f8d7 30ec 	ldr.w	r3, [r7, #236]	@ 0xec
 8005166:	b29b      	uxth	r3, r3
 8005168:	029b      	lsls	r3, r3, #10
 800516a:	b29b      	uxth	r3, r3
 800516c:	4313      	orrs	r3, r2
 800516e:	b29b      	uxth	r3, r3
 8005170:	ea6f 4343 	mvn.w	r3, r3, lsl #17
 8005174:	ea6f 4353 	mvn.w	r3, r3, lsr #17
 8005178:	b29a      	uxth	r2, r3
 800517a:	6fbb      	ldr	r3, [r7, #120]	@ 0x78
 800517c:	801a      	strh	r2, [r3, #0]
 800517e:	e05c      	b.n	800523a <USB_EPStartXfer+0xcfa>
 8005180:	f8d7 3104 	ldr.w	r3, [r7, #260]	@ 0x104
 8005184:	2b00      	cmp	r3, #0
 8005186:	d10a      	bne.n	800519e <USB_EPStartXfer+0xc5e>
 8005188:	6fbb      	ldr	r3, [r7, #120]	@ 0x78
 800518a:	881b      	ldrh	r3, [r3, #0]
 800518c:	b29b      	uxth	r3, r3
 800518e:	ea6f 4343 	mvn.w	r3, r3, lsl #17
 8005192:	ea6f 4353 	mvn.w	r3, r3, lsr #17
 8005196:	b29a      	uxth	r2, r3
 8005198:	6fbb      	ldr	r3, [r7, #120]	@ 0x78
 800519a:	801a      	strh	r2, [r3, #0]
 800519c:	e04d      	b.n	800523a <USB_EPStartXfer+0xcfa>
 800519e:	f8d7 3104 	ldr.w	r3, [r7, #260]	@ 0x104
 80051a2:	085b      	lsrs	r3, r3, #1
 80051a4:	f8c7 30ec 	str.w	r3, [r7, #236]	@ 0xec
 80051a8:	f8d7 3104 	ldr.w	r3, [r7, #260]	@ 0x104
 80051ac:	f003 0301 	and.w	r3, r3, #1
 80051b0:	2b00      	cmp	r3, #0
 80051b2:	d004      	beq.n	80051be <USB_EPStartXfer+0xc7e>
 80051b4:	f8d7 30ec 	ldr.w	r3, [r7, #236]	@ 0xec
 80051b8:	3301      	adds	r3, #1
 80051ba:	f8c7 30ec 	str.w	r3, [r7, #236]	@ 0xec
 80051be:	6fbb      	ldr	r3, [r7, #120]	@ 0x78
 80051c0:	881b      	ldrh	r3, [r3, #0]
 80051c2:	b29a      	uxth	r2, r3
 80051c4:	f8d7 30ec 	ldr.w	r3, [r7, #236]	@ 0xec
 80051c8:	b29b      	uxth	r3, r3
 80051ca:	029b      	lsls	r3, r3, #10
 80051cc:	b29b      	uxth	r3, r3
 80051ce:	4313      	orrs	r3, r2
 80051d0:	b29a      	uxth	r2, r3
 80051d2:	6fbb      	ldr	r3, [r7, #120]	@ 0x78
 80051d4:	801a      	strh	r2, [r3, #0]
 80051d6:	e030      	b.n	800523a <USB_EPStartXfer+0xcfa>
 80051d8:	f507 7384 	add.w	r3, r7, #264	@ 0x108
 80051dc:	f5a3 7384 	sub.w	r3, r3, #264	@ 0x108
 80051e0:	681b      	ldr	r3, [r3, #0]
 80051e2:	785b      	ldrb	r3, [r3, #1]
 80051e4:	2b01      	cmp	r3, #1
 80051e6:	d128      	bne.n	800523a <USB_EPStartXfer+0xcfa>
 80051e8:	f507 7384 	add.w	r3, r7, #264	@ 0x108
 80051ec:	f5a3 7382 	sub.w	r3, r3, #260	@ 0x104
 80051f0:	681b      	ldr	r3, [r3, #0]
 80051f2:	f8c7 3084 	str.w	r3, [r7, #132]	@ 0x84
 80051f6:	f507 7384 	add.w	r3, r7, #264	@ 0x108
 80051fa:	f5a3 7382 	sub.w	r3, r3, #260	@ 0x104
 80051fe:	681b      	ldr	r3, [r3, #0]
 8005200:	f8b3 3050 	ldrh.w	r3, [r3, #80]	@ 0x50
 8005204:	b29b      	uxth	r3, r3
 8005206:	461a      	mov	r2, r3
 8005208:	f8d7 3084 	ldr.w	r3, [r7, #132]	@ 0x84
 800520c:	4413      	add	r3, r2
 800520e:	f8c7 3084 	str.w	r3, [r7, #132]	@ 0x84
 8005212:	f507 7384 	add.w	r3, r7, #264	@ 0x108
 8005216:	f5a3 7384 	sub.w	r3, r3, #264	@ 0x108
 800521a:	681b      	ldr	r3, [r3, #0]
 800521c:	781b      	ldrb	r3, [r3, #0]
 800521e:	011a      	lsls	r2, r3, #4
 8005220:	f8d7 3084 	ldr.w	r3, [r7, #132]	@ 0x84
 8005224:	4413      	add	r3, r2
 8005226:	f203 4304 	addw	r3, r3, #1028	@ 0x404
 800522a:	f8c7 3080 	str.w	r3, [r7, #128]	@ 0x80
 800522e:	f8d7 3104 	ldr.w	r3, [r7, #260]	@ 0x104
 8005232:	b29a      	uxth	r2, r3
 8005234:	f8d7 3080 	ldr.w	r3, [r7, #128]	@ 0x80
 8005238:	801a      	strh	r2, [r3, #0]
          pmabuffer = ep->pmaaddr0;
 800523a:	f507 7384 	add.w	r3, r7, #264	@ 0x108
 800523e:	f5a3 7384 	sub.w	r3, r3, #264	@ 0x108
 8005242:	681b      	ldr	r3, [r3, #0]
 8005244:	891b      	ldrh	r3, [r3, #8]
 8005246:	f8a7 3076 	strh.w	r3, [r7, #118]	@ 0x76

          /* Write the user buffer to USB PMA */
          USB_WritePMA(USBx, ep->xfer_buff, pmabuffer, (uint16_t)len);
 800524a:	f507 7384 	add.w	r3, r7, #264	@ 0x108
 800524e:	f5a3 7384 	sub.w	r3, r3, #264	@ 0x108
 8005252:	681b      	ldr	r3, [r3, #0]
 8005254:	6959      	ldr	r1, [r3, #20]
 8005256:	f8d7 3104 	ldr.w	r3, [r7, #260]	@ 0x104
 800525a:	b29b      	uxth	r3, r3
 800525c:	f8b7 2076 	ldrh.w	r2, [r7, #118]	@ 0x76
 8005260:	f507 7084 	add.w	r0, r7, #264	@ 0x108
 8005264:	f5a0 7082 	sub.w	r0, r0, #260	@ 0x104
 8005268:	6800      	ldr	r0, [r0, #0]
 800526a:	f000 fe58 	bl	8005f1e <USB_WritePMA>
        }
      }
    }
#endif /* (USE_USB_DOUBLE_BUFFER == 1U) */

    PCD_SET_EP_TX_STATUS(USBx, ep->num, USB_EP_TX_VALID);
 800526e:	f507 7384 	add.w	r3, r7, #264	@ 0x108
 8005272:	f5a3 7382 	sub.w	r3, r3, #260	@ 0x104
 8005276:	681a      	ldr	r2, [r3, #0]
 8005278:	f507 7384 	add.w	r3, r7, #264	@ 0x108
 800527c:	f5a3 7384 	sub.w	r3, r3, #264	@ 0x108
 8005280:	681b      	ldr	r3, [r3, #0]
 8005282:	781b      	ldrb	r3, [r3, #0]
 8005284:	009b      	lsls	r3, r3, #2
 8005286:	4413      	add	r3, r2
 8005288:	881b      	ldrh	r3, [r3, #0]
 800528a:	b29b      	uxth	r3, r3
 800528c:	f423 43e0 	bic.w	r3, r3, #28672	@ 0x7000
 8005290:	f023 0340 	bic.w	r3, r3, #64	@ 0x40
 8005294:	817b      	strh	r3, [r7, #10]
 8005296:	897b      	ldrh	r3, [r7, #10]
 8005298:	f083 0310 	eor.w	r3, r3, #16
 800529c:	817b      	strh	r3, [r7, #10]
 800529e:	897b      	ldrh	r3, [r7, #10]
 80052a0:	f083 0320 	eor.w	r3, r3, #32
 80052a4:	817b      	strh	r3, [r7, #10]
 80052a6:	f507 7384 	add.w	r3, r7, #264	@ 0x108
 80052aa:	f5a3 7382 	sub.w	r3, r3, #260	@ 0x104
 80052ae:	681a      	ldr	r2, [r3, #0]
 80052b0:	f507 7384 	add.w	r3, r7, #264	@ 0x108
 80052b4:	f5a3 7384 	sub.w	r3, r3, #264	@ 0x108
 80052b8:	681b      	ldr	r3, [r3, #0]
 80052ba:	781b      	ldrb	r3, [r3, #0]
 80052bc:	009b      	lsls	r3, r3, #2
 80052be:	441a      	add	r2, r3
 80052c0:	897b      	ldrh	r3, [r7, #10]
 80052c2:	f043 437f 	orr.w	r3, r3, #4278190080	@ 0xff000000
 80052c6:	f443 037f 	orr.w	r3, r3, #16711680	@ 0xff0000
 80052ca:	f443 4300 	orr.w	r3, r3, #32768	@ 0x8000
 80052ce:	f043 0380 	orr.w	r3, r3, #128	@ 0x80
 80052d2:	b29b      	uxth	r3, r3
 80052d4:	8013      	strh	r3, [r2, #0]
 80052d6:	f000 bcde 	b.w	8005c96 <USB_EPStartXfer+0x1756>
  }
  else /* OUT endpoint */
  {
    if (ep->doublebuffer == 0U)
 80052da:	f507 7384 	add.w	r3, r7, #264	@ 0x108
 80052de:	f5a3 7384 	sub.w	r3, r3, #264	@ 0x108
 80052e2:	681b      	ldr	r3, [r3, #0]
 80052e4:	7b1b      	ldrb	r3, [r3, #12]
 80052e6:	2b00      	cmp	r3, #0
 80052e8:	f040 80bb 	bne.w	8005462 <USB_EPStartXfer+0xf22>
    {
      /* Multi packet transfer */
      if (ep->xfer_len > ep->maxpacket)
 80052ec:	f507 7384 	add.w	r3, r7, #264	@ 0x108
 80052f0:	f5a3 7384 	sub.w	r3, r3, #264	@ 0x108
 80052f4:	681b      	ldr	r3, [r3, #0]
 80052f6:	699a      	ldr	r2, [r3, #24]
 80052f8:	f507 7384 	add.w	r3, r7, #264	@ 0x108
 80052fc:	f5a3 7384 	sub.w	r3, r3, #264	@ 0x108
 8005300:	681b      	ldr	r3, [r3, #0]
 8005302:	691b      	ldr	r3, [r3, #16]
 8005304:	429a      	cmp	r2, r3
 8005306:	d917      	bls.n	8005338 <USB_EPStartXfer+0xdf8>
      {
        len = ep->maxpacket;
 8005308:	f507 7384 	add.w	r3, r7, #264	@ 0x108
 800530c:	f5a3 7384 	sub.w	r3, r3, #264	@ 0x108
 8005310:	681b      	ldr	r3, [r3, #0]
 8005312:	691b      	ldr	r3, [r3, #16]
 8005314:	f8c7 3104 	str.w	r3, [r7, #260]	@ 0x104
        ep->xfer_len -= len;
 8005318:	f507 7384 	add.w	r3, r7, #264	@ 0x108
 800531c:	f5a3 7384 	sub.w	r3, r3, #264	@ 0x108
 8005320:	681b      	ldr	r3, [r3, #0]
 8005322:	699a      	ldr	r2, [r3, #24]
 8005324:	f8d7 3104 	ldr.w	r3, [r7, #260]	@ 0x104
 8005328:	1ad2      	subs	r2, r2, r3
 800532a:	f507 7384 	add.w	r3, r7, #264	@ 0x108
 800532e:	f5a3 7384 	sub.w	r3, r3, #264	@ 0x108
 8005332:	681b      	ldr	r3, [r3, #0]
 8005334:	619a      	str	r2, [r3, #24]
 8005336:	e00e      	b.n	8005356 <USB_EPStartXfer+0xe16>
      }
      else
      {
        len = ep->xfer_len;
 8005338:	f507 7384 	add.w	r3, r7, #264	@ 0x108
 800533c:	f5a3 7384 	sub.w	r3, r3, #264	@ 0x108
 8005340:	681b      	ldr	r3, [r3, #0]
 8005342:	699b      	ldr	r3, [r3, #24]
 8005344:	f8c7 3104 	str.w	r3, [r7, #260]	@ 0x104
        ep->xfer_len = 0U;
 8005348:	f507 7384 	add.w	r3, r7, #264	@ 0x108
 800534c:	f5a3 7384 	sub.w	r3, r3, #264	@ 0x108
 8005350:	681b      	ldr	r3, [r3, #0]
 8005352:	2200      	movs	r2, #0
 8005354:	619a      	str	r2, [r3, #24]
      }
      /* configure and validate Rx endpoint */
      PCD_SET_EP_RX_CNT(USBx, ep->num, len);
 8005356:	f507 7384 	add.w	r3, r7, #264	@ 0x108
 800535a:	f5a3 7382 	sub.w	r3, r3, #260	@ 0x104
 800535e:	681b      	ldr	r3, [r3, #0]
 8005360:	f8c7 3090 	str.w	r3, [r7, #144]	@ 0x90
 8005364:	f507 7384 	add.w	r3, r7, #264	@ 0x108
 8005368:	f5a3 7382 	sub.w	r3, r3, #260	@ 0x104
 800536c:	681b      	ldr	r3, [r3, #0]
 800536e:	f8b3 3050 	ldrh.w	r3, [r3, #80]	@ 0x50
 8005372:	b29b      	uxth	r3, r3
 8005374:	461a      	mov	r2, r3
 8005376:	f8d7 3090 	ldr.w	r3, [r7, #144]	@ 0x90
 800537a:	4413      	add	r3, r2
 800537c:	f8c7 3090 	str.w	r3, [r7, #144]	@ 0x90
 8005380:	f507 7384 	add.w	r3, r7, #264	@ 0x108
 8005384:	f5a3 7384 	sub.w	r3, r3, #264	@ 0x108
 8005388:	681b      	ldr	r3, [r3, #0]
 800538a:	781b      	ldrb	r3, [r3, #0]
 800538c:	011a      	lsls	r2, r3, #4
 800538e:	f8d7 3090 	ldr.w	r3, [r7, #144]	@ 0x90
 8005392:	4413      	add	r3, r2
 8005394:	f203 430c 	addw	r3, r3, #1036	@ 0x40c
 8005398:	f8c7 308c 	str.w	r3, [r7, #140]	@ 0x8c
 800539c:	f8d7 308c 	ldr.w	r3, [r7, #140]	@ 0x8c
 80053a0:	881b      	ldrh	r3, [r3, #0]
 80053a2:	b29b      	uxth	r3, r3
 80053a4:	f3c3 0309 	ubfx	r3, r3, #0, #10
 80053a8:	b29a      	uxth	r2, r3
 80053aa:	f8d7 308c 	ldr.w	r3, [r7, #140]	@ 0x8c
 80053ae:	801a      	strh	r2, [r3, #0]
 80053b0:	f8d7 3104 	ldr.w	r3, [r7, #260]	@ 0x104
 80053b4:	2b3e      	cmp	r3, #62	@ 0x3e
 80053b6:	d924      	bls.n	8005402 <USB_EPStartXfer+0xec2>
 80053b8:	f8d7 3104 	ldr.w	r3, [r7, #260]	@ 0x104
 80053bc:	095b      	lsrs	r3, r3, #5
 80053be:	f8c7 30e8 	str.w	r3, [r7, #232]	@ 0xe8
 80053c2:	f8d7 3104 	ldr.w	r3, [r7, #260]	@ 0x104
 80053c6:	f003 031f 	and.w	r3, r3, #31
 80053ca:	2b00      	cmp	r3, #0
 80053cc:	d104      	bne.n	80053d8 <USB_EPStartXfer+0xe98>
 80053ce:	f8d7 30e8 	ldr.w	r3, [r7, #232]	@ 0xe8
 80053d2:	3b01      	subs	r3, #1
 80053d4:	f8c7 30e8 	str.w	r3, [r7, #232]	@ 0xe8
 80053d8:	f8d7 308c 	ldr.w	r3, [r7, #140]	@ 0x8c
 80053dc:	881b      	ldrh	r3, [r3, #0]
 80053de:	b29a      	uxth	r2, r3
 80053e0:	f8d7 30e8 	ldr.w	r3, [r7, #232]	@ 0xe8
 80053e4:	b29b      	uxth	r3, r3
 80053e6:	029b      	lsls	r3, r3, #10
 80053e8:	b29b      	uxth	r3, r3
 80053ea:	4313      	orrs	r3, r2
 80053ec:	b29b      	uxth	r3, r3
 80053ee:	ea6f 4343 	mvn.w	r3, r3, lsl #17
 80053f2:	ea6f 4353 	mvn.w	r3, r3, lsr #17
 80053f6:	b29a      	uxth	r2, r3
 80053f8:	f8d7 308c 	ldr.w	r3, [r7, #140]	@ 0x8c
 80053fc:	801a      	strh	r2, [r3, #0]
 80053fe:	f000 bc10 	b.w	8005c22 <USB_EPStartXfer+0x16e2>
 8005402:	f8d7 3104 	ldr.w	r3, [r7, #260]	@ 0x104
 8005406:	2b00      	cmp	r3, #0
 8005408:	d10c      	bne.n	8005424 <USB_EPStartXfer+0xee4>
 800540a:	f8d7 308c 	ldr.w	r3, [r7, #140]	@ 0x8c
 800540e:	881b      	ldrh	r3, [r3, #0]
 8005410:	b29b      	uxth	r3, r3
 8005412:	ea6f 4343 	mvn.w	r3, r3, lsl #17
 8005416:	ea6f 4353 	mvn.w	r3, r3, lsr #17
 800541a:	b29a      	uxth	r2, r3
 800541c:	f8d7 308c 	ldr.w	r3, [r7, #140]	@ 0x8c
 8005420:	801a      	strh	r2, [r3, #0]
 8005422:	e3fe      	b.n	8005c22 <USB_EPStartXfer+0x16e2>
 8005424:	f8d7 3104 	ldr.w	r3, [r7, #260]	@ 0x104
 8005428:	085b      	lsrs	r3, r3, #1
 800542a:	f8c7 30e8 	str.w	r3, [r7, #232]	@ 0xe8
 800542e:	f8d7 3104 	ldr.w	r3, [r7, #260]	@ 0x104
 8005432:	f003 0301 	and.w	r3, r3, #1
 8005436:	2b00      	cmp	r3, #0
 8005438:	d004      	beq.n	8005444 <USB_EPStartXfer+0xf04>
 800543a:	f8d7 30e8 	ldr.w	r3, [r7, #232]	@ 0xe8
 800543e:	3301      	adds	r3, #1
 8005440:	f8c7 30e8 	str.w	r3, [r7, #232]	@ 0xe8
 8005444:	f8d7 308c 	ldr.w	r3, [r7, #140]	@ 0x8c
 8005448:	881b      	ldrh	r3, [r3, #0]
 800544a:	b29a      	uxth	r2, r3
 800544c:	f8d7 30e8 	ldr.w	r3, [r7, #232]	@ 0xe8
 8005450:	b29b      	uxth	r3, r3
 8005452:	029b      	lsls	r3, r3, #10
 8005454:	b29b      	uxth	r3, r3
 8005456:	4313      	orrs	r3, r2
 8005458:	b29a      	uxth	r2, r3
 800545a:	f8d7 308c 	ldr.w	r3, [r7, #140]	@ 0x8c
 800545e:	801a      	strh	r2, [r3, #0]
 8005460:	e3df      	b.n	8005c22 <USB_EPStartXfer+0x16e2>
#if (USE_USB_DOUBLE_BUFFER == 1U)
    else
    {
      /* First Transfer Coming From HAL_PCD_EP_Receive & From ISR */
      /* Set the Double buffer counter */
      if (ep->type == EP_TYPE_BULK)
 8005462:	f507 7384 	add.w	r3, r7, #264	@ 0x108
 8005466:	f5a3 7384 	sub.w	r3, r3, #264	@ 0x108
 800546a:	681b      	ldr	r3, [r3, #0]
 800546c:	78db      	ldrb	r3, [r3, #3]
 800546e:	2b02      	cmp	r3, #2
 8005470:	f040 8218 	bne.w	80058a4 <USB_EPStartXfer+0x1364>
      {
        PCD_SET_EP_DBUF_CNT(USBx, ep->num, ep->is_in, ep->maxpacket);
 8005474:	f507 7384 	add.w	r3, r7, #264	@ 0x108
 8005478:	f5a3 7384 	sub.w	r3, r3, #264	@ 0x108
 800547c:	681b      	ldr	r3, [r3, #0]
 800547e:	785b      	ldrb	r3, [r3, #1]
 8005480:	2b00      	cmp	r3, #0
 8005482:	f040 809d 	bne.w	80055c0 <USB_EPStartXfer+0x1080>
 8005486:	f507 7384 	add.w	r3, r7, #264	@ 0x108
 800548a:	f5a3 7382 	sub.w	r3, r3, #260	@ 0x104
 800548e:	681b      	ldr	r3, [r3, #0]
 8005490:	f8c7 30ac 	str.w	r3, [r7, #172]	@ 0xac
 8005494:	f507 7384 	add.w	r3, r7, #264	@ 0x108
 8005498:	f5a3 7382 	sub.w	r3, r3, #260	@ 0x104
 800549c:	681b      	ldr	r3, [r3, #0]
 800549e:	f8b3 3050 	ldrh.w	r3, [r3, #80]	@ 0x50
 80054a2:	b29b      	uxth	r3, r3
 80054a4:	461a      	mov	r2, r3
 80054a6:	f8d7 30ac 	ldr.w	r3, [r7, #172]	@ 0xac
 80054aa:	4413      	add	r3, r2
 80054ac:	f8c7 30ac 	str.w	r3, [r7, #172]	@ 0xac
 80054b0:	f507 7384 	add.w	r3, r7, #264	@ 0x108
 80054b4:	f5a3 7384 	sub.w	r3, r3, #264	@ 0x108
 80054b8:	681b      	ldr	r3, [r3, #0]
 80054ba:	781b      	ldrb	r3, [r3, #0]
 80054bc:	011a      	lsls	r2, r3, #4
 80054be:	f8d7 30ac 	ldr.w	r3, [r7, #172]	@ 0xac
 80054c2:	4413      	add	r3, r2
 80054c4:	f203 4304 	addw	r3, r3, #1028	@ 0x404
 80054c8:	f8c7 30a8 	str.w	r3, [r7, #168]	@ 0xa8
 80054cc:	f8d7 30a8 	ldr.w	r3, [r7, #168]	@ 0xa8
 80054d0:	881b      	ldrh	r3, [r3, #0]
 80054d2:	b29b      	uxth	r3, r3
 80054d4:	f3c3 0309 	ubfx	r3, r3, #0, #10
 80054d8:	b29a      	uxth	r2, r3
 80054da:	f8d7 30a8 	ldr.w	r3, [r7, #168]	@ 0xa8
 80054de:	801a      	strh	r2, [r3, #0]
 80054e0:	f507 7384 	add.w	r3, r7, #264	@ 0x108
 80054e4:	f5a3 7384 	sub.w	r3, r3, #264	@ 0x108
 80054e8:	681b      	ldr	r3, [r3, #0]
 80054ea:	691b      	ldr	r3, [r3, #16]
 80054ec:	2b3e      	cmp	r3, #62	@ 0x3e
 80054ee:	d92b      	bls.n	8005548 <USB_EPStartXfer+0x1008>
 80054f0:	f507 7384 	add.w	r3, r7, #264	@ 0x108
 80054f4:	f5a3 7384 	sub.w	r3, r3, #264	@ 0x108
 80054f8:	681b      	ldr	r3, [r3, #0]
 80054fa:	691b      	ldr	r3, [r3, #16]
 80054fc:	095b      	lsrs	r3, r3, #5
 80054fe:	f8c7 30e4 	str.w	r3, [r7, #228]	@ 0xe4
 8005502:	f507 7384 	add.w	r3, r7, #264	@ 0x108
 8005506:	f5a3 7384 	sub.w	r3, r3, #264	@ 0x108
 800550a:	681b      	ldr	r3, [r3, #0]
 800550c:	691b      	ldr	r3, [r3, #16]
 800550e:	f003 031f 	and.w	r3, r3, #31
 8005512:	2b00      	cmp	r3, #0
 8005514:	d104      	bne.n	8005520 <USB_EPStartXfer+0xfe0>
 8005516:	f8d7 30e4 	ldr.w	r3, [r7, #228]	@ 0xe4
 800551a:	3b01      	subs	r3, #1
 800551c:	f8c7 30e4 	str.w	r3, [r7, #228]	@ 0xe4
 8005520:	f8d7 30a8 	ldr.w	r3, [r7, #168]	@ 0xa8
 8005524:	881b      	ldrh	r3, [r3, #0]
 8005526:	b29a      	uxth	r2, r3
 8005528:	f8d7 30e4 	ldr.w	r3, [r7, #228]	@ 0xe4
 800552c:	b29b      	uxth	r3, r3
 800552e:	029b      	lsls	r3, r3, #10
 8005530:	b29b      	uxth	r3, r3
 8005532:	4313      	orrs	r3, r2
 8005534:	b29b      	uxth	r3, r3
 8005536:	ea6f 4343 	mvn.w	r3, r3, lsl #17
 800553a:	ea6f 4353 	mvn.w	r3, r3, lsr #17
 800553e:	b29a      	uxth	r2, r3
 8005540:	f8d7 30a8 	ldr.w	r3, [r7, #168]	@ 0xa8
 8005544:	801a      	strh	r2, [r3, #0]
 8005546:	e070      	b.n	800562a <USB_EPStartXfer+0x10ea>
 8005548:	f507 7384 	add.w	r3, r7, #264	@ 0x108
 800554c:	f5a3 7384 	sub.w	r3, r3, #264	@ 0x108
 8005550:	681b      	ldr	r3, [r3, #0]
 8005552:	691b      	ldr	r3, [r3, #16]
 8005554:	2b00      	cmp	r3, #0
 8005556:	d10c      	bne.n	8005572 <USB_EPStartXfer+0x1032>
 8005558:	f8d7 30a8 	ldr.w	r3, [r7, #168]	@ 0xa8
 800555c:	881b      	ldrh	r3, [r3, #0]
 800555e:	b29b      	uxth	r3, r3
 8005560:	ea6f 4343 	mvn.w	r3, r3, lsl #17
 8005564:	ea6f 4353 	mvn.w	r3, r3, lsr #17
 8005568:	b29a      	uxth	r2, r3
 800556a:	f8d7 30a8 	ldr.w	r3, [r7, #168]	@ 0xa8
 800556e:	801a      	strh	r2, [r3, #0]
 8005570:	e05b      	b.n	800562a <USB_EPStartXfer+0x10ea>
 8005572:	f507 7384 	add.w	r3, r7, #264	@ 0x108
 8005576:	f5a3 7384 	sub.w	r3, r3, #264	@ 0x108
 800557a:	681b      	ldr	r3, [r3, #0]
 800557c:	691b      	ldr	r3, [r3, #16]
 800557e:	085b      	lsrs	r3, r3, #1
 8005580:	f8c7 30e4 	str.w	r3, [r7, #228]	@ 0xe4
 8005584:	f507 7384 	add.w	r3, r7, #264	@ 0x108
 8005588:	f5a3 7384 	sub.w	r3, r3, #264	@ 0x108
 800558c:	681b      	ldr	r3, [r3, #0]
 800558e:	691b      	ldr	r3, [r3, #16]
 8005590:	f003 0301 	and.w	r3, r3, #1
 8005594:	2b00      	cmp	r3, #0
 8005596:	d004      	beq.n	80055a2 <USB_EPStartXfer+0x1062>
 8005598:	f8d7 30e4 	ldr.w	r3, [r7, #228]	@ 0xe4
 800559c:	3301      	adds	r3, #1
 800559e:	f8c7 30e4 	str.w	r3, [r7, #228]	@ 0xe4
 80055a2:	f8d7 30a8 	ldr.w	r3, [r7, #168]	@ 0xa8
 80055a6:	881b      	ldrh	r3, [r3, #0]
 80055a8:	b29a      	uxth	r2, r3
 80055aa:	f8d7 30e4 	ldr.w	r3, [r7, #228]	@ 0xe4
 80055ae:	b29b      	uxth	r3, r3
 80055b0:	029b      	lsls	r3, r3, #10
 80055b2:	b29b      	uxth	r3, r3
 80055b4:	4313      	orrs	r3, r2
 80055b6:	b29a      	uxth	r2, r3
 80055b8:	f8d7 30a8 	ldr.w	r3, [r7, #168]	@ 0xa8
 80055bc:	801a      	strh	r2, [r3, #0]
 80055be:	e034      	b.n	800562a <USB_EPStartXfer+0x10ea>
 80055c0:	f507 7384 	add.w	r3, r7, #264	@ 0x108
 80055c4:	f5a3 7384 	sub.w	r3, r3, #264	@ 0x108
 80055c8:	681b      	ldr	r3, [r3, #0]
 80055ca:	785b      	ldrb	r3, [r3, #1]
 80055cc:	2b01      	cmp	r3, #1
 80055ce:	d12c      	bne.n	800562a <USB_EPStartXfer+0x10ea>
 80055d0:	f507 7384 	add.w	r3, r7, #264	@ 0x108
 80055d4:	f5a3 7382 	sub.w	r3, r3, #260	@ 0x104
 80055d8:	681b      	ldr	r3, [r3, #0]
 80055da:	f8c7 30b4 	str.w	r3, [r7, #180]	@ 0xb4
 80055de:	f507 7384 	add.w	r3, r7, #264	@ 0x108
 80055e2:	f5a3 7382 	sub.w	r3, r3, #260	@ 0x104
 80055e6:	681b      	ldr	r3, [r3, #0]
 80055e8:	f8b3 3050 	ldrh.w	r3, [r3, #80]	@ 0x50
 80055ec:	b29b      	uxth	r3, r3
 80055ee:	461a      	mov	r2, r3
 80055f0:	f8d7 30b4 	ldr.w	r3, [r7, #180]	@ 0xb4
 80055f4:	4413      	add	r3, r2
 80055f6:	f8c7 30b4 	str.w	r3, [r7, #180]	@ 0xb4
 80055fa:	f507 7384 	add.w	r3, r7, #264	@ 0x108
 80055fe:	f5a3 7384 	sub.w	r3, r3, #264	@ 0x108
 8005602:	681b      	ldr	r3, [r3, #0]
 8005604:	781b      	ldrb	r3, [r3, #0]
 8005606:	011a      	lsls	r2, r3, #4
 8005608:	f8d7 30b4 	ldr.w	r3, [r7, #180]	@ 0xb4
 800560c:	4413      	add	r3, r2
 800560e:	f203 4304 	addw	r3, r3, #1028	@ 0x404
 8005612:	f8c7 30b0 	str.w	r3, [r7, #176]	@ 0xb0
 8005616:	f507 7384 	add.w	r3, r7, #264	@ 0x108
 800561a:	f5a3 7384 	sub.w	r3, r3, #264	@ 0x108
 800561e:	681b      	ldr	r3, [r3, #0]
 8005620:	691b      	ldr	r3, [r3, #16]
 8005622:	b29a      	uxth	r2, r3
 8005624:	f8d7 30b0 	ldr.w	r3, [r7, #176]	@ 0xb0
 8005628:	801a      	strh	r2, [r3, #0]
 800562a:	f507 7384 	add.w	r3, r7, #264	@ 0x108
 800562e:	f5a3 7382 	sub.w	r3, r3, #260	@ 0x104
 8005632:	681b      	ldr	r3, [r3, #0]
 8005634:	f8c7 30a4 	str.w	r3, [r7, #164]	@ 0xa4
 8005638:	f507 7384 	add.w	r3, r7, #264	@ 0x108
 800563c:	f5a3 7384 	sub.w	r3, r3, #264	@ 0x108
 8005640:	681b      	ldr	r3, [r3, #0]
 8005642:	785b      	ldrb	r3, [r3, #1]
 8005644:	2b00      	cmp	r3, #0
 8005646:	f040 809d 	bne.w	8005784 <USB_EPStartXfer+0x1244>
 800564a:	f507 7384 	add.w	r3, r7, #264	@ 0x108
 800564e:	f5a3 7382 	sub.w	r3, r3, #260	@ 0x104
 8005652:	681b      	ldr	r3, [r3, #0]
 8005654:	f8c7 309c 	str.w	r3, [r7, #156]	@ 0x9c
 8005658:	f507 7384 	add.w	r3, r7, #264	@ 0x108
 800565c:	f5a3 7382 	sub.w	r3, r3, #260	@ 0x104
 8005660:	681b      	ldr	r3, [r3, #0]
 8005662:	f8b3 3050 	ldrh.w	r3, [r3, #80]	@ 0x50
 8005666:	b29b      	uxth	r3, r3
 8005668:	461a      	mov	r2, r3
 800566a:	f8d7 309c 	ldr.w	r3, [r7, #156]	@ 0x9c
 800566e:	4413      	add	r3, r2
 8005670:	f8c7 309c 	str.w	r3, [r7, #156]	@ 0x9c
 8005674:	f507 7384 	add.w	r3, r7, #264	@ 0x108
 8005678:	f5a3 7384 	sub.w	r3, r3, #264	@ 0x108
 800567c:	681b      	ldr	r3, [r3, #0]
 800567e:	781b      	ldrb	r3, [r3, #0]
 8005680:	011a      	lsls	r2, r3, #4
 8005682:	f8d7 309c 	ldr.w	r3, [r7, #156]	@ 0x9c
 8005686:	4413      	add	r3, r2
 8005688:	f203 430c 	addw	r3, r3, #1036	@ 0x40c
 800568c:	f8c7 3098 	str.w	r3, [r7, #152]	@ 0x98
 8005690:	f8d7 3098 	ldr.w	r3, [r7, #152]	@ 0x98
 8005694:	881b      	ldrh	r3, [r3, #0]
 8005696:	b29b      	uxth	r3, r3
 8005698:	f3c3 0309 	ubfx	r3, r3, #0, #10
 800569c:	b29a      	uxth	r2, r3
 800569e:	f8d7 3098 	ldr.w	r3, [r7, #152]	@ 0x98
 80056a2:	801a      	strh	r2, [r3, #0]
 80056a4:	f507 7384 	add.w	r3, r7, #264	@ 0x108
 80056a8:	f5a3 7384 	sub.w	r3, r3, #264	@ 0x108
 80056ac:	681b      	ldr	r3, [r3, #0]
 80056ae:	691b      	ldr	r3, [r3, #16]
 80056b0:	2b3e      	cmp	r3, #62	@ 0x3e
 80056b2:	d92b      	bls.n	800570c <USB_EPStartXfer+0x11cc>
 80056b4:	f507 7384 	add.w	r3, r7, #264	@ 0x108
 80056b8:	f5a3 7384 	sub.w	r3, r3, #264	@ 0x108
 80056bc:	681b      	ldr	r3, [r3, #0]
 80056be:	691b      	ldr	r3, [r3, #16]
 80056c0:	095b      	lsrs	r3, r3, #5
 80056c2:	f8c7 30e0 	str.w	r3, [r7, #224]	@ 0xe0
 80056c6:	f507 7384 	add.w	r3, r7, #264	@ 0x108
 80056ca:	f5a3 7384 	sub.w	r3, r3, #264	@ 0x108
 80056ce:	681b      	ldr	r3, [r3, #0]
 80056d0:	691b      	ldr	r3, [r3, #16]
 80056d2:	f003 031f 	and.w	r3, r3, #31
 80056d6:	2b00      	cmp	r3, #0
 80056d8:	d104      	bne.n	80056e4 <USB_EPStartXfer+0x11a4>
 80056da:	f8d7 30e0 	ldr.w	r3, [r7, #224]	@ 0xe0
 80056de:	3b01      	subs	r3, #1
 80056e0:	f8c7 30e0 	str.w	r3, [r7, #224]	@ 0xe0
 80056e4:	f8d7 3098 	ldr.w	r3, [r7, #152]	@ 0x98
 80056e8:	881b      	ldrh	r3, [r3, #0]
 80056ea:	b29a      	uxth	r2, r3
 80056ec:	f8d7 30e0 	ldr.w	r3, [r7, #224]	@ 0xe0
 80056f0:	b29b      	uxth	r3, r3
 80056f2:	029b      	lsls	r3, r3, #10
 80056f4:	b29b      	uxth	r3, r3
 80056f6:	4313      	orrs	r3, r2
 80056f8:	b29b      	uxth	r3, r3
 80056fa:	ea6f 4343 	mvn.w	r3, r3, lsl #17
 80056fe:	ea6f 4353 	mvn.w	r3, r3, lsr #17
 8005702:	b29a      	uxth	r2, r3
 8005704:	f8d7 3098 	ldr.w	r3, [r7, #152]	@ 0x98
 8005708:	801a      	strh	r2, [r3, #0]
 800570a:	e069      	b.n	80057e0 <USB_EPStartXfer+0x12a0>
 800570c:	f507 7384 	add.w	r3, r7, #264	@ 0x108
 8005710:	f5a3 7384 	sub.w	r3, r3, #264	@ 0x108
 8005714:	681b      	ldr	r3, [r3, #0]
 8005716:	691b      	ldr	r3, [r3, #16]
 8005718:	2b00      	cmp	r3, #0
 800571a:	d10c      	bne.n	8005736 <USB_EPStartXfer+0x11f6>
 800571c:	f8d7 3098 	ldr.w	r3, [r7, #152]	@ 0x98
 8005720:	881b      	ldrh	r3, [r3, #0]
 8005722:	b29b      	uxth	r3, r3
 8005724:	ea6f 4343 	mvn.w	r3, r3, lsl #17
 8005728:	ea6f 4353 	mvn.w	r3, r3, lsr #17
 800572c:	b29a      	uxth	r2, r3
 800572e:	f8d7 3098 	ldr.w	r3, [r7, #152]	@ 0x98
 8005732:	801a      	strh	r2, [r3, #0]
 8005734:	e054      	b.n	80057e0 <USB_EPStartXfer+0x12a0>
 8005736:	f507 7384 	add.w	r3, r7, #264	@ 0x108
 800573a:	f5a3 7384 	sub.w	r3, r3, #264	@ 0x108
 800573e:	681b      	ldr	r3, [r3, #0]
 8005740:	691b      	ldr	r3, [r3, #16]
 8005742:	085b      	lsrs	r3, r3, #1
 8005744:	f8c7 30e0 	str.w	r3, [r7, #224]	@ 0xe0
 8005748:	f507 7384 	add.w	r3, r7, #264	@ 0x108
 800574c:	f5a3 7384 	sub.w	r3, r3, #264	@ 0x108
 8005750:	681b      	ldr	r3, [r3, #0]
 8005752:	691b      	ldr	r3, [r3, #16]
 8005754:	f003 0301 	and.w	r3, r3, #1
 8005758:	2b00      	cmp	r3, #0
 800575a:	d004      	beq.n	8005766 <USB_EPStartXfer+0x1226>
 800575c:	f8d7 30e0 	ldr.w	r3, [r7, #224]	@ 0xe0
 8005760:	3301      	adds	r3, #1
 8005762:	f8c7 30e0 	str.w	r3, [r7, #224]	@ 0xe0
 8005766:	f8d7 3098 	ldr.w	r3, [r7, #152]	@ 0x98
 800576a:	881b      	ldrh	r3, [r3, #0]
 800576c:	b29a      	uxth	r2, r3
 800576e:	f8d7 30e0 	ldr.w	r3, [r7, #224]	@ 0xe0
 8005772:	b29b      	uxth	r3, r3
 8005774:	029b      	lsls	r3, r3, #10
 8005776:	b29b      	uxth	r3, r3
 8005778:	4313      	orrs	r3, r2
 800577a:	b29a      	uxth	r2, r3
 800577c:	f8d7 3098 	ldr.w	r3, [r7, #152]	@ 0x98
 8005780:	801a      	strh	r2, [r3, #0]
 8005782:	e02d      	b.n	80057e0 <USB_EPStartXfer+0x12a0>
 8005784:	f507 7384 	add.w	r3, r7, #264	@ 0x108
 8005788:	f5a3 7384 	sub.w	r3, r3, #264	@ 0x108
 800578c:	681b      	ldr	r3, [r3, #0]
 800578e:	785b      	ldrb	r3, [r3, #1]
 8005790:	2b01      	cmp	r3, #1
 8005792:	d125      	bne.n	80057e0 <USB_EPStartXfer+0x12a0>
 8005794:	f507 7384 	add.w	r3, r7, #264	@ 0x108
 8005798:	f5a3 7382 	sub.w	r3, r3, #260	@ 0x104
 800579c:	681b      	ldr	r3, [r3, #0]
 800579e:	f8b3 3050 	ldrh.w	r3, [r3, #80]	@ 0x50
 80057a2:	b29b      	uxth	r3, r3
 80057a4:	461a      	mov	r2, r3
 80057a6:	f8d7 30a4 	ldr.w	r3, [r7, #164]	@ 0xa4
 80057aa:	4413      	add	r3, r2
 80057ac:	f8c7 30a4 	str.w	r3, [r7, #164]	@ 0xa4
 80057b0:	f507 7384 	add.w	r3, r7, #264	@ 0x108
 80057b4:	f5a3 7384 	sub.w	r3, r3, #264	@ 0x108
 80057b8:	681b      	ldr	r3, [r3, #0]
 80057ba:	781b      	ldrb	r3, [r3, #0]
 80057bc:	011a      	lsls	r2, r3, #4
 80057be:	f8d7 30a4 	ldr.w	r3, [r7, #164]	@ 0xa4
 80057c2:	4413      	add	r3, r2
 80057c4:	f203 430c 	addw	r3, r3, #1036	@ 0x40c
 80057c8:	f8c7 30a0 	str.w	r3, [r7, #160]	@ 0xa0
 80057cc:	f507 7384 	add.w	r3, r7, #264	@ 0x108
 80057d0:	f5a3 7384 	sub.w	r3, r3, #264	@ 0x108
 80057d4:	681b      	ldr	r3, [r3, #0]
 80057d6:	691b      	ldr	r3, [r3, #16]
 80057d8:	b29a      	uxth	r2, r3
 80057da:	f8d7 30a0 	ldr.w	r3, [r7, #160]	@ 0xa0
 80057de:	801a      	strh	r2, [r3, #0]

        /* Coming from ISR */
        if (ep->xfer_count != 0U)
 80057e0:	f507 7384 	add.w	r3, r7, #264	@ 0x108
 80057e4:	f5a3 7384 	sub.w	r3, r3, #264	@ 0x108
 80057e8:	681b      	ldr	r3, [r3, #0]
 80057ea:	69db      	ldr	r3, [r3, #28]
 80057ec:	2b00      	cmp	r3, #0
 80057ee:	f000 8218 	beq.w	8005c22 <USB_EPStartXfer+0x16e2>
        {
          /* update last value to check if there is blocking state */
          wEPVal = PCD_GET_ENDPOINT(USBx, ep->num);
 80057f2:	f507 7384 	add.w	r3, r7, #264	@ 0x108
 80057f6:	f5a3 7382 	sub.w	r3, r3, #260	@ 0x104
 80057fa:	681a      	ldr	r2, [r3, #0]
 80057fc:	f507 7384 	add.w	r3, r7, #264	@ 0x108
 8005800:	f5a3 7384 	sub.w	r3, r3, #264	@ 0x108
 8005804:	681b      	ldr	r3, [r3, #0]
 8005806:	781b      	ldrb	r3, [r3, #0]
 8005808:	009b      	lsls	r3, r3, #2
 800580a:	4413      	add	r3, r2
 800580c:	881b      	ldrh	r3, [r3, #0]
 800580e:	f8a7 3096 	strh.w	r3, [r7, #150]	@ 0x96

          /*Blocking State */
          if ((((wEPVal & USB_EP_DTOG_RX) != 0U) && ((wEPVal & USB_EP_DTOG_TX) != 0U)) ||
 8005812:	f8b7 3096 	ldrh.w	r3, [r7, #150]	@ 0x96
 8005816:	f403 4380 	and.w	r3, r3, #16384	@ 0x4000
 800581a:	2b00      	cmp	r3, #0
 800581c:	d005      	beq.n	800582a <USB_EPStartXfer+0x12ea>
 800581e:	f8b7 3096 	ldrh.w	r3, [r7, #150]	@ 0x96
 8005822:	f003 0340 	and.w	r3, r3, #64	@ 0x40
 8005826:	2b00      	cmp	r3, #0
 8005828:	d10d      	bne.n	8005846 <USB_EPStartXfer+0x1306>
              (((wEPVal & USB_EP_DTOG_RX) == 0U) && ((wEPVal & USB_EP_DTOG_TX) == 0U)))
 800582a:	f8b7 3096 	ldrh.w	r3, [r7, #150]	@ 0x96
 800582e:	f403 4380 	and.w	r3, r3, #16384	@ 0x4000
          if ((((wEPVal & USB_EP_DTOG_RX) != 0U) && ((wEPVal & USB_EP_DTOG_TX) != 0U)) ||
 8005832:	2b00      	cmp	r3, #0
 8005834:	f040 81f5 	bne.w	8005c22 <USB_EPStartXfer+0x16e2>
              (((wEPVal & USB_EP_DTOG_RX) == 0U) && ((wEPVal & USB_EP_DTOG_TX) == 0U)))
 8005838:	f8b7 3096 	ldrh.w	r3, [r7, #150]	@ 0x96
 800583c:	f003 0340 	and.w	r3, r3, #64	@ 0x40
 8005840:	2b00      	cmp	r3, #0
 8005842:	f040 81ee 	bne.w	8005c22 <USB_EPStartXfer+0x16e2>
          {
            PCD_FREE_USER_BUFFER(USBx, ep->num, 0U);
 8005846:	f507 7384 	add.w	r3, r7, #264	@ 0x108
 800584a:	f5a3 7382 	sub.w	r3, r3, #260	@ 0x104
 800584e:	681a      	ldr	r2, [r3, #0]
 8005850:	f507 7384 	add.w	r3, r7, #264	@ 0x108
 8005854:	f5a3 7384 	sub.w	r3, r3, #264	@ 0x108
 8005858:	681b      	ldr	r3, [r3, #0]
 800585a:	781b      	ldrb	r3, [r3, #0]
 800585c:	009b      	lsls	r3, r3, #2
 800585e:	4413      	add	r3, r2
 8005860:	881b      	ldrh	r3, [r3, #0]
 8005862:	b29b      	uxth	r3, r3
 8005864:	f423 43e0 	bic.w	r3, r3, #28672	@ 0x7000
 8005868:	f023 0370 	bic.w	r3, r3, #112	@ 0x70
 800586c:	f8a7 3094 	strh.w	r3, [r7, #148]	@ 0x94
 8005870:	f507 7384 	add.w	r3, r7, #264	@ 0x108
 8005874:	f5a3 7382 	sub.w	r3, r3, #260	@ 0x104
 8005878:	681a      	ldr	r2, [r3, #0]
 800587a:	f507 7384 	add.w	r3, r7, #264	@ 0x108
 800587e:	f5a3 7384 	sub.w	r3, r3, #264	@ 0x108
 8005882:	681b      	ldr	r3, [r3, #0]
 8005884:	781b      	ldrb	r3, [r3, #0]
 8005886:	009b      	lsls	r3, r3, #2
 8005888:	441a      	add	r2, r3
 800588a:	f8b7 3094 	ldrh.w	r3, [r7, #148]	@ 0x94
 800588e:	f043 437f 	orr.w	r3, r3, #4278190080	@ 0xff000000
 8005892:	f443 037f 	orr.w	r3, r3, #16711680	@ 0xff0000
 8005896:	f443 4300 	orr.w	r3, r3, #32768	@ 0x8000
 800589a:	f043 03c0 	orr.w	r3, r3, #192	@ 0xc0
 800589e:	b29b      	uxth	r3, r3
 80058a0:	8013      	strh	r3, [r2, #0]
 80058a2:	e1be      	b.n	8005c22 <USB_EPStartXfer+0x16e2>
          }
        }
      }
      /* iso out double */
      else if (ep->type == EP_TYPE_ISOC)
 80058a4:	f507 7384 	add.w	r3, r7, #264	@ 0x108
 80058a8:	f5a3 7384 	sub.w	r3, r3, #264	@ 0x108
 80058ac:	681b      	ldr	r3, [r3, #0]
 80058ae:	78db      	ldrb	r3, [r3, #3]
 80058b0:	2b01      	cmp	r3, #1
 80058b2:	f040 81b4 	bne.w	8005c1e <USB_EPStartXfer+0x16de>
      {
        /* Multi packet transfer */
        if (ep->xfer_len > ep->maxpacket)
 80058b6:	f507 7384 	add.w	r3, r7, #264	@ 0x108
 80058ba:	f5a3 7384 	sub.w	r3, r3, #264	@ 0x108
 80058be:	681b      	ldr	r3, [r3, #0]
 80058c0:	699a      	ldr	r2, [r3, #24]
 80058c2:	f507 7384 	add.w	r3, r7, #264	@ 0x108
 80058c6:	f5a3 7384 	sub.w	r3, r3, #264	@ 0x108
 80058ca:	681b      	ldr	r3, [r3, #0]
 80058cc:	691b      	ldr	r3, [r3, #16]
 80058ce:	429a      	cmp	r2, r3
 80058d0:	d917      	bls.n	8005902 <USB_EPStartXfer+0x13c2>
        {
          len = ep->maxpacket;
 80058d2:	f507 7384 	add.w	r3, r7, #264	@ 0x108
 80058d6:	f5a3 7384 	sub.w	r3, r3, #264	@ 0x108
 80058da:	681b      	ldr	r3, [r3, #0]
 80058dc:	691b      	ldr	r3, [r3, #16]
 80058de:	f8c7 3104 	str.w	r3, [r7, #260]	@ 0x104
          ep->xfer_len -= len;
 80058e2:	f507 7384 	add.w	r3, r7, #264	@ 0x108
 80058e6:	f5a3 7384 	sub.w	r3, r3, #264	@ 0x108
 80058ea:	681b      	ldr	r3, [r3, #0]
 80058ec:	699a      	ldr	r2, [r3, #24]
 80058ee:	f8d7 3104 	ldr.w	r3, [r7, #260]	@ 0x104
 80058f2:	1ad2      	subs	r2, r2, r3
 80058f4:	f507 7384 	add.w	r3, r7, #264	@ 0x108
 80058f8:	f5a3 7384 	sub.w	r3, r3, #264	@ 0x108
 80058fc:	681b      	ldr	r3, [r3, #0]
 80058fe:	619a      	str	r2, [r3, #24]
 8005900:	e00e      	b.n	8005920 <USB_EPStartXfer+0x13e0>
        }
        else
        {
          len = ep->xfer_len;
 8005902:	f507 7384 	add.w	r3, r7, #264	@ 0x108
 8005906:	f5a3 7384 	sub.w	r3, r3, #264	@ 0x108
 800590a:	681b      	ldr	r3, [r3, #0]
 800590c:	699b      	ldr	r3, [r3, #24]
 800590e:	f8c7 3104 	str.w	r3, [r7, #260]	@ 0x104
          ep->xfer_len = 0U;
 8005912:	f507 7384 	add.w	r3, r7, #264	@ 0x108
 8005916:	f5a3 7384 	sub.w	r3, r3, #264	@ 0x108
 800591a:	681b      	ldr	r3, [r3, #0]
 800591c:	2200      	movs	r2, #0
 800591e:	619a      	str	r2, [r3, #24]
        }
        PCD_SET_EP_DBUF_CNT(USBx, ep->num, ep->is_in, len);
 8005920:	f507 7384 	add.w	r3, r7, #264	@ 0x108
 8005924:	f5a3 7384 	sub.w	r3, r3, #264	@ 0x108
 8005928:	681b      	ldr	r3, [r3, #0]
 800592a:	785b      	ldrb	r3, [r3, #1]
 800592c:	2b00      	cmp	r3, #0
 800592e:	f040 8085 	bne.w	8005a3c <USB_EPStartXfer+0x14fc>
 8005932:	f507 7384 	add.w	r3, r7, #264	@ 0x108
 8005936:	f5a3 7382 	sub.w	r3, r3, #260	@ 0x104
 800593a:	681b      	ldr	r3, [r3, #0]
 800593c:	f8c7 30cc 	str.w	r3, [r7, #204]	@ 0xcc
 8005940:	f507 7384 	add.w	r3, r7, #264	@ 0x108
 8005944:	f5a3 7382 	sub.w	r3, r3, #260	@ 0x104
 8005948:	681b      	ldr	r3, [r3, #0]
 800594a:	f8b3 3050 	ldrh.w	r3, [r3, #80]	@ 0x50
 800594e:	b29b      	uxth	r3, r3
 8005950:	461a      	mov	r2, r3
 8005952:	f8d7 30cc 	ldr.w	r3, [r7, #204]	@ 0xcc
 8005956:	4413      	add	r3, r2
 8005958:	f8c7 30cc 	str.w	r3, [r7, #204]	@ 0xcc
 800595c:	f507 7384 	add.w	r3, r7, #264	@ 0x108
 8005960:	f5a3 7384 	sub.w	r3, r3, #264	@ 0x108
 8005964:	681b      	ldr	r3, [r3, #0]
 8005966:	781b      	ldrb	r3, [r3, #0]
 8005968:	011a      	lsls	r2, r3, #4
 800596a:	f8d7 30cc 	ldr.w	r3, [r7, #204]	@ 0xcc
 800596e:	4413      	add	r3, r2
 8005970:	f203 4304 	addw	r3, r3, #1028	@ 0x404
 8005974:	f8c7 30c8 	str.w	r3, [r7, #200]	@ 0xc8
 8005978:	f8d7 30c8 	ldr.w	r3, [r7, #200]	@ 0xc8
 800597c:	881b      	ldrh	r3, [r3, #0]
 800597e:	b29b      	uxth	r3, r3
 8005980:	f3c3 0309 	ubfx	r3, r3, #0, #10
 8005984:	b29a      	uxth	r2, r3
 8005986:	f8d7 30c8 	ldr.w	r3, [r7, #200]	@ 0xc8
 800598a:	801a      	strh	r2, [r3, #0]
 800598c:	f8d7 3104 	ldr.w	r3, [r7, #260]	@ 0x104
 8005990:	2b3e      	cmp	r3, #62	@ 0x3e
 8005992:	d923      	bls.n	80059dc <USB_EPStartXfer+0x149c>
 8005994:	f8d7 3104 	ldr.w	r3, [r7, #260]	@ 0x104
 8005998:	095b      	lsrs	r3, r3, #5
 800599a:	f8c7 30dc 	str.w	r3, [r7, #220]	@ 0xdc
 800599e:	f8d7 3104 	ldr.w	r3, [r7, #260]	@ 0x104
 80059a2:	f003 031f 	and.w	r3, r3, #31
 80059a6:	2b00      	cmp	r3, #0
 80059a8:	d104      	bne.n	80059b4 <USB_EPStartXfer+0x1474>
 80059aa:	f8d7 30dc 	ldr.w	r3, [r7, #220]	@ 0xdc
 80059ae:	3b01      	subs	r3, #1
 80059b0:	f8c7 30dc 	str.w	r3, [r7, #220]	@ 0xdc
 80059b4:	f8d7 30c8 	ldr.w	r3, [r7, #200]	@ 0xc8
 80059b8:	881b      	ldrh	r3, [r3, #0]
 80059ba:	b29a      	uxth	r2, r3
 80059bc:	f8d7 30dc 	ldr.w	r3, [r7, #220]	@ 0xdc
 80059c0:	b29b      	uxth	r3, r3
 80059c2:	029b      	lsls	r3, r3, #10
 80059c4:	b29b      	uxth	r3, r3
 80059c6:	4313      	orrs	r3, r2
 80059c8:	b29b      	uxth	r3, r3
 80059ca:	ea6f 4343 	mvn.w	r3, r3, lsl #17
 80059ce:	ea6f 4353 	mvn.w	r3, r3, lsr #17
 80059d2:	b29a      	uxth	r2, r3
 80059d4:	f8d7 30c8 	ldr.w	r3, [r7, #200]	@ 0xc8
 80059d8:	801a      	strh	r2, [r3, #0]
 80059da:	e060      	b.n	8005a9e <USB_EPStartXfer+0x155e>
 80059dc:	f8d7 3104 	ldr.w	r3, [r7, #260]	@ 0x104
 80059e0:	2b00      	cmp	r3, #0
 80059e2:	d10c      	bne.n	80059fe <USB_EPStartXfer+0x14be>
 80059e4:	f8d7 30c8 	ldr.w	r3, [r7, #200]	@ 0xc8
 80059e8:	881b      	ldrh	r3, [r3, #0]
 80059ea:	b29b      	uxth	r3, r3
 80059ec:	ea6f 4343 	mvn.w	r3, r3, lsl #17
 80059f0:	ea6f 4353 	mvn.w	r3, r3, lsr #17
 80059f4:	b29a      	uxth	r2, r3
 80059f6:	f8d7 30c8 	ldr.w	r3, [r7, #200]	@ 0xc8
 80059fa:	801a      	strh	r2, [r3, #0]
 80059fc:	e04f      	b.n	8005a9e <USB_EPStartXfer+0x155e>
 80059fe:	f8d7 3104 	ldr.w	r3, [r7, #260]	@ 0x104
 8005a02:	085b      	lsrs	r3, r3, #1
 8005a04:	f8c7 30dc 	str.w	r3, [r7, #220]	@ 0xdc
 8005a08:	f8d7 3104 	ldr.w	r3, [r7, #260]	@ 0x104
 8005a0c:	f003 0301 	and.w	r3, r3, #1
 8005a10:	2b00      	cmp	r3, #0
 8005a12:	d004      	beq.n	8005a1e <USB_EPStartXfer+0x14de>
 8005a14:	f8d7 30dc 	ldr.w	r3, [r7, #220]	@ 0xdc
 8005a18:	3301      	adds	r3, #1
 8005a1a:	f8c7 30dc 	str.w	r3, [r7, #220]	@ 0xdc
 8005a1e:	f8d7 30c8 	ldr.w	r3, [r7, #200]	@ 0xc8
 8005a22:	881b      	ldrh	r3, [r3, #0]
 8005a24:	b29a      	uxth	r2, r3
 8005a26:	f8d7 30dc 	ldr.w	r3, [r7, #220]	@ 0xdc
 8005a2a:	b29b      	uxth	r3, r3
 8005a2c:	029b      	lsls	r3, r3, #10
 8005a2e:	b29b      	uxth	r3, r3
 8005a30:	4313      	orrs	r3, r2
 8005a32:	b29a      	uxth	r2, r3
 8005a34:	f8d7 30c8 	ldr.w	r3, [r7, #200]	@ 0xc8
 8005a38:	801a      	strh	r2, [r3, #0]
 8005a3a:	e030      	b.n	8005a9e <USB_EPStartXfer+0x155e>
 8005a3c:	f507 7384 	add.w	r3, r7, #264	@ 0x108
 8005a40:	f5a3 7384 	sub.w	r3, r3, #264	@ 0x108
 8005a44:	681b      	ldr	r3, [r3, #0]
 8005a46:	785b      	ldrb	r3, [r3, #1]
 8005a48:	2b01      	cmp	r3, #1
 8005a4a:	d128      	bne.n	8005a9e <USB_EPStartXfer+0x155e>
 8005a4c:	f507 7384 	add.w	r3, r7, #264	@ 0x108
 8005a50:	f5a3 7382 	sub.w	r3, r3, #260	@ 0x104
 8005a54:	681b      	ldr	r3, [r3, #0]
 8005a56:	f8c7 30d4 	str.w	r3, [r7, #212]	@ 0xd4
 8005a5a:	f507 7384 	add.w	r3, r7, #264	@ 0x108
 8005a5e:	f5a3 7382 	sub.w	r3, r3, #260	@ 0x104
 8005a62:	681b      	ldr	r3, [r3, #0]
 8005a64:	f8b3 3050 	ldrh.w	r3, [r3, #80]	@ 0x50
 8005a68:	b29b      	uxth	r3, r3
 8005a6a:	461a      	mov	r2, r3
 8005a6c:	f8d7 30d4 	ldr.w	r3, [r7, #212]	@ 0xd4
 8005a70:	4413      	add	r3, r2
 8005a72:	f8c7 30d4 	str.w	r3, [r7, #212]	@ 0xd4
 8005a76:	f507 7384 	add.w	r3, r7, #264	@ 0x108
 8005a7a:	f5a3 7384 	sub.w	r3, r3, #264	@ 0x108
 8005a7e:	681b      	ldr	r3, [r3, #0]
 8005a80:	781b      	ldrb	r3, [r3, #0]
 8005a82:	011a      	lsls	r2, r3, #4
 8005a84:	f8d7 30d4 	ldr.w	r3, [r7, #212]	@ 0xd4
 8005a88:	4413      	add	r3, r2
 8005a8a:	f203 4304 	addw	r3, r3, #1028	@ 0x404
 8005a8e:	f8c7 30d0 	str.w	r3, [r7, #208]	@ 0xd0
 8005a92:	f8d7 3104 	ldr.w	r3, [r7, #260]	@ 0x104
 8005a96:	b29a      	uxth	r2, r3
 8005a98:	f8d7 30d0 	ldr.w	r3, [r7, #208]	@ 0xd0
 8005a9c:	801a      	strh	r2, [r3, #0]
 8005a9e:	f507 7384 	add.w	r3, r7, #264	@ 0x108
 8005aa2:	f5a3 7382 	sub.w	r3, r3, #260	@ 0x104
 8005aa6:	681b      	ldr	r3, [r3, #0]
 8005aa8:	f8c7 30c4 	str.w	r3, [r7, #196]	@ 0xc4
 8005aac:	f507 7384 	add.w	r3, r7, #264	@ 0x108
 8005ab0:	f5a3 7384 	sub.w	r3, r3, #264	@ 0x108
 8005ab4:	681b      	ldr	r3, [r3, #0]
 8005ab6:	785b      	ldrb	r3, [r3, #1]
 8005ab8:	2b00      	cmp	r3, #0
 8005aba:	f040 8085 	bne.w	8005bc8 <USB_EPStartXfer+0x1688>
 8005abe:	f507 7384 	add.w	r3, r7, #264	@ 0x108
 8005ac2:	f5a3 7382 	sub.w	r3, r3, #260	@ 0x104
 8005ac6:	681b      	ldr	r3, [r3, #0]
 8005ac8:	f8c7 30bc 	str.w	r3, [r7, #188]	@ 0xbc
 8005acc:	f507 7384 	add.w	r3, r7, #264	@ 0x108
 8005ad0:	f5a3 7382 	sub.w	r3, r3, #260	@ 0x104
 8005ad4:	681b      	ldr	r3, [r3, #0]
 8005ad6:	f8b3 3050 	ldrh.w	r3, [r3, #80]	@ 0x50
 8005ada:	b29b      	uxth	r3, r3
 8005adc:	461a      	mov	r2, r3
 8005ade:	f8d7 30bc 	ldr.w	r3, [r7, #188]	@ 0xbc
 8005ae2:	4413      	add	r3, r2
 8005ae4:	f8c7 30bc 	str.w	r3, [r7, #188]	@ 0xbc
 8005ae8:	f507 7384 	add.w	r3, r7, #264	@ 0x108
 8005aec:	f5a3 7384 	sub.w	r3, r3, #264	@ 0x108
 8005af0:	681b      	ldr	r3, [r3, #0]
 8005af2:	781b      	ldrb	r3, [r3, #0]
 8005af4:	011a      	lsls	r2, r3, #4
 8005af6:	f8d7 30bc 	ldr.w	r3, [r7, #188]	@ 0xbc
 8005afa:	4413      	add	r3, r2
 8005afc:	f203 430c 	addw	r3, r3, #1036	@ 0x40c
 8005b00:	f8c7 30b8 	str.w	r3, [r7, #184]	@ 0xb8
 8005b04:	f8d7 30b8 	ldr.w	r3, [r7, #184]	@ 0xb8
 8005b08:	881b      	ldrh	r3, [r3, #0]
 8005b0a:	b29b      	uxth	r3, r3
 8005b0c:	f3c3 0309 	ubfx	r3, r3, #0, #10
 8005b10:	b29a      	uxth	r2, r3
 8005b12:	f8d7 30b8 	ldr.w	r3, [r7, #184]	@ 0xb8
 8005b16:	801a      	strh	r2, [r3, #0]
 8005b18:	f8d7 3104 	ldr.w	r3, [r7, #260]	@ 0x104
 8005b1c:	2b3e      	cmp	r3, #62	@ 0x3e
 8005b1e:	d923      	bls.n	8005b68 <USB_EPStartXfer+0x1628>
 8005b20:	f8d7 3104 	ldr.w	r3, [r7, #260]	@ 0x104
 8005b24:	095b      	lsrs	r3, r3, #5
 8005b26:	f8c7 30d8 	str.w	r3, [r7, #216]	@ 0xd8
 8005b2a:	f8d7 3104 	ldr.w	r3, [r7, #260]	@ 0x104
 8005b2e:	f003 031f 	and.w	r3, r3, #31
 8005b32:	2b00      	cmp	r3, #0
 8005b34:	d104      	bne.n	8005b40 <USB_EPStartXfer+0x1600>
 8005b36:	f8d7 30d8 	ldr.w	r3, [r7, #216]	@ 0xd8
 8005b3a:	3b01      	subs	r3, #1
 8005b3c:	f8c7 30d8 	str.w	r3, [r7, #216]	@ 0xd8
 8005b40:	f8d7 30b8 	ldr.w	r3, [r7, #184]	@ 0xb8
 8005b44:	881b      	ldrh	r3, [r3, #0]
 8005b46:	b29a      	uxth	r2, r3
 8005b48:	f8d7 30d8 	ldr.w	r3, [r7, #216]	@ 0xd8
 8005b4c:	b29b      	uxth	r3, r3
 8005b4e:	029b      	lsls	r3, r3, #10
 8005b50:	b29b      	uxth	r3, r3
 8005b52:	4313      	orrs	r3, r2
 8005b54:	b29b      	uxth	r3, r3
 8005b56:	ea6f 4343 	mvn.w	r3, r3, lsl #17
 8005b5a:	ea6f 4353 	mvn.w	r3, r3, lsr #17
 8005b5e:	b29a      	uxth	r2, r3
 8005b60:	f8d7 30b8 	ldr.w	r3, [r7, #184]	@ 0xb8
 8005b64:	801a      	strh	r2, [r3, #0]
 8005b66:	e05c      	b.n	8005c22 <USB_EPStartXfer+0x16e2>
 8005b68:	f8d7 3104 	ldr.w	r3, [r7, #260]	@ 0x104
 8005b6c:	2b00      	cmp	r3, #0
 8005b6e:	d10c      	bne.n	8005b8a <USB_EPStartXfer+0x164a>
 8005b70:	f8d7 30b8 	ldr.w	r3, [r7, #184]	@ 0xb8
 8005b74:	881b      	ldrh	r3, [r3, #0]
 8005b76:	b29b      	uxth	r3, r3
 8005b78:	ea6f 4343 	mvn.w	r3, r3, lsl #17
 8005b7c:	ea6f 4353 	mvn.w	r3, r3, lsr #17
 8005b80:	b29a      	uxth	r2, r3
 8005b82:	f8d7 30b8 	ldr.w	r3, [r7, #184]	@ 0xb8
 8005b86:	801a      	strh	r2, [r3, #0]
 8005b88:	e04b      	b.n	8005c22 <USB_EPStartXfer+0x16e2>
 8005b8a:	f8d7 3104 	ldr.w	r3, [r7, #260]	@ 0x104
 8005b8e:	085b      	lsrs	r3, r3, #1
 8005b90:	f8c7 30d8 	str.w	r3, [r7, #216]	@ 0xd8
 8005b94:	f8d7 3104 	ldr.w	r3, [r7, #260]	@ 0x104
 8005b98:	f003 0301 	and.w	r3, r3, #1
 8005b9c:	2b00      	cmp	r3, #0
 8005b9e:	d004      	beq.n	8005baa <USB_EPStartXfer+0x166a>
 8005ba0:	f8d7 30d8 	ldr.w	r3, [r7, #216]	@ 0xd8
 8005ba4:	3301      	adds	r3, #1
 8005ba6:	f8c7 30d8 	str.w	r3, [r7, #216]	@ 0xd8
 8005baa:	f8d7 30b8 	ldr.w	r3, [r7, #184]	@ 0xb8
 8005bae:	881b      	ldrh	r3, [r3, #0]
 8005bb0:	b29a      	uxth	r2, r3
 8005bb2:	f8d7 30d8 	ldr.w	r3, [r7, #216]	@ 0xd8
 8005bb6:	b29b      	uxth	r3, r3
 8005bb8:	029b      	lsls	r3, r3, #10
 8005bba:	b29b      	uxth	r3, r3
 8005bbc:	4313      	orrs	r3, r2
 8005bbe:	b29a      	uxth	r2, r3
 8005bc0:	f8d7 30b8 	ldr.w	r3, [r7, #184]	@ 0xb8
 8005bc4:	801a      	strh	r2, [r3, #0]
 8005bc6:	e02c      	b.n	8005c22 <USB_EPStartXfer+0x16e2>
 8005bc8:	f507 7384 	add.w	r3, r7, #264	@ 0x108
 8005bcc:	f5a3 7384 	sub.w	r3, r3, #264	@ 0x108
 8005bd0:	681b      	ldr	r3, [r3, #0]
 8005bd2:	785b      	ldrb	r3, [r3, #1]
 8005bd4:	2b01      	cmp	r3, #1
 8005bd6:	d124      	bne.n	8005c22 <USB_EPStartXfer+0x16e2>
 8005bd8:	f507 7384 	add.w	r3, r7, #264	@ 0x108
 8005bdc:	f5a3 7382 	sub.w	r3, r3, #260	@ 0x104
 8005be0:	681b      	ldr	r3, [r3, #0]
 8005be2:	f8b3 3050 	ldrh.w	r3, [r3, #80]	@ 0x50
 8005be6:	b29b      	uxth	r3, r3
 8005be8:	461a      	mov	r2, r3
 8005bea:	f8d7 30c4 	ldr.w	r3, [r7, #196]	@ 0xc4
 8005bee:	4413      	add	r3, r2
 8005bf0:	f8c7 30c4 	str.w	r3, [r7, #196]	@ 0xc4
 8005bf4:	f507 7384 	add.w	r3, r7, #264	@ 0x108
 8005bf8:	f5a3 7384 	sub.w	r3, r3, #264	@ 0x108
 8005bfc:	681b      	ldr	r3, [r3, #0]
 8005bfe:	781b      	ldrb	r3, [r3, #0]
 8005c00:	011a      	lsls	r2, r3, #4
 8005c02:	f8d7 30c4 	ldr.w	r3, [r7, #196]	@ 0xc4
 8005c06:	4413      	add	r3, r2
 8005c08:	f203 430c 	addw	r3, r3, #1036	@ 0x40c
 8005c0c:	f8c7 30c0 	str.w	r3, [r7, #192]	@ 0xc0
 8005c10:	f8d7 3104 	ldr.w	r3, [r7, #260]	@ 0x104
 8005c14:	b29a      	uxth	r2, r3
 8005c16:	f8d7 30c0 	ldr.w	r3, [r7, #192]	@ 0xc0
 8005c1a:	801a      	strh	r2, [r3, #0]
 8005c1c:	e001      	b.n	8005c22 <USB_EPStartXfer+0x16e2>
      }
      else
      {
        return HAL_ERROR;
 8005c1e:	2301      	movs	r3, #1
 8005c20:	e03a      	b.n	8005c98 <USB_EPStartXfer+0x1758>
      }
    }
#endif /* (USE_USB_DOUBLE_BUFFER == 1U) */

    PCD_SET_EP_RX_STATUS(USBx, ep->num, USB_EP_RX_VALID);
 8005c22:	f507 7384 	add.w	r3, r7, #264	@ 0x108
 8005c26:	f5a3 7382 	sub.w	r3, r3, #260	@ 0x104
 8005c2a:	681a      	ldr	r2, [r3, #0]
 8005c2c:	f507 7384 	add.w	r3, r7, #264	@ 0x108
 8005c30:	f5a3 7384 	sub.w	r3, r3, #264	@ 0x108
 8005c34:	681b      	ldr	r3, [r3, #0]
 8005c36:	781b      	ldrb	r3, [r3, #0]
 8005c38:	009b      	lsls	r3, r3, #2
 8005c3a:	4413      	add	r3, r2
 8005c3c:	881b      	ldrh	r3, [r3, #0]
 8005c3e:	b29b      	uxth	r3, r3
 8005c40:	f423 4380 	bic.w	r3, r3, #16384	@ 0x4000
 8005c44:	f023 0370 	bic.w	r3, r3, #112	@ 0x70
 8005c48:	f8a7 308a 	strh.w	r3, [r7, #138]	@ 0x8a
 8005c4c:	f8b7 308a 	ldrh.w	r3, [r7, #138]	@ 0x8a
 8005c50:	f483 5380 	eor.w	r3, r3, #4096	@ 0x1000
 8005c54:	f8a7 308a 	strh.w	r3, [r7, #138]	@ 0x8a
 8005c58:	f8b7 308a 	ldrh.w	r3, [r7, #138]	@ 0x8a
 8005c5c:	f483 5300 	eor.w	r3, r3, #8192	@ 0x2000
 8005c60:	f8a7 308a 	strh.w	r3, [r7, #138]	@ 0x8a
 8005c64:	f507 7384 	add.w	r3, r7, #264	@ 0x108
 8005c68:	f5a3 7382 	sub.w	r3, r3, #260	@ 0x104
 8005c6c:	681a      	ldr	r2, [r3, #0]
 8005c6e:	f507 7384 	add.w	r3, r7, #264	@ 0x108
 8005c72:	f5a3 7384 	sub.w	r3, r3, #264	@ 0x108
 8005c76:	681b      	ldr	r3, [r3, #0]
 8005c78:	781b      	ldrb	r3, [r3, #0]
 8005c7a:	009b      	lsls	r3, r3, #2
 8005c7c:	441a      	add	r2, r3
 8005c7e:	f8b7 308a 	ldrh.w	r3, [r7, #138]	@ 0x8a
 8005c82:	f043 437f 	orr.w	r3, r3, #4278190080	@ 0xff000000
 8005c86:	f443 037f 	orr.w	r3, r3, #16711680	@ 0xff0000
 8005c8a:	f443 4300 	orr.w	r3, r3, #32768	@ 0x8000
 8005c8e:	f043 0380 	orr.w	r3, r3, #128	@ 0x80
 8005c92:	b29b      	uxth	r3, r3
 8005c94:	8013      	strh	r3, [r2, #0]
  }

  return HAL_OK;
 8005c96:	2300      	movs	r3, #0
}
 8005c98:	4618      	mov	r0, r3
 8005c9a:	f507 7784 	add.w	r7, r7, #264	@ 0x108
 8005c9e:	46bd      	mov	sp, r7
 8005ca0:	bd80      	pop	{r7, pc}

08005ca2 <USB_EPSetStall>:
  * @param  USBx Selected device
  * @param  ep pointer to endpoint structure
  * @retval HAL status
  */
HAL_StatusTypeDef USB_EPSetStall(USB_TypeDef *USBx, USB_EPTypeDef *ep)
{
 8005ca2:	b480      	push	{r7}
 8005ca4:	b085      	sub	sp, #20
 8005ca6:	af00      	add	r7, sp, #0
 8005ca8:	6078      	str	r0, [r7, #4]
 8005caa:	6039      	str	r1, [r7, #0]
  if (ep->is_in != 0U)
 8005cac:	683b      	ldr	r3, [r7, #0]
 8005cae:	785b      	ldrb	r3, [r3, #1]
 8005cb0:	2b00      	cmp	r3, #0
 8005cb2:	d020      	beq.n	8005cf6 <USB_EPSetStall+0x54>
  {
    PCD_SET_EP_TX_STATUS(USBx, ep->num, USB_EP_TX_STALL);
 8005cb4:	687a      	ldr	r2, [r7, #4]
 8005cb6:	683b      	ldr	r3, [r7, #0]
 8005cb8:	781b      	ldrb	r3, [r3, #0]
 8005cba:	009b      	lsls	r3, r3, #2
 8005cbc:	4413      	add	r3, r2
 8005cbe:	881b      	ldrh	r3, [r3, #0]
 8005cc0:	b29b      	uxth	r3, r3
 8005cc2:	f423 43e0 	bic.w	r3, r3, #28672	@ 0x7000
 8005cc6:	f023 0340 	bic.w	r3, r3, #64	@ 0x40
 8005cca:	81bb      	strh	r3, [r7, #12]
 8005ccc:	89bb      	ldrh	r3, [r7, #12]
 8005cce:	f083 0310 	eor.w	r3, r3, #16
 8005cd2:	81bb      	strh	r3, [r7, #12]
 8005cd4:	687a      	ldr	r2, [r7, #4]
 8005cd6:	683b      	ldr	r3, [r7, #0]
 8005cd8:	781b      	ldrb	r3, [r3, #0]
 8005cda:	009b      	lsls	r3, r3, #2
 8005cdc:	441a      	add	r2, r3
 8005cde:	89bb      	ldrh	r3, [r7, #12]
 8005ce0:	f043 437f 	orr.w	r3, r3, #4278190080	@ 0xff000000
 8005ce4:	f443 037f 	orr.w	r3, r3, #16711680	@ 0xff0000
 8005ce8:	f443 4300 	orr.w	r3, r3, #32768	@ 0x8000
 8005cec:	f043 0380 	orr.w	r3, r3, #128	@ 0x80
 8005cf0:	b29b      	uxth	r3, r3
 8005cf2:	8013      	strh	r3, [r2, #0]
 8005cf4:	e01f      	b.n	8005d36 <USB_EPSetStall+0x94>
  }
  else
  {
    PCD_SET_EP_RX_STATUS(USBx, ep->num, USB_EP_RX_STALL);
 8005cf6:	687a      	ldr	r2, [r7, #4]
 8005cf8:	683b      	ldr	r3, [r7, #0]
 8005cfa:	781b      	ldrb	r3, [r3, #0]
 8005cfc:	009b      	lsls	r3, r3, #2
 8005cfe:	4413      	add	r3, r2
 8005d00:	881b      	ldrh	r3, [r3, #0]
 8005d02:	b29b      	uxth	r3, r3
 8005d04:	f423 4380 	bic.w	r3, r3, #16384	@ 0x4000
 8005d08:	f023 0370 	bic.w	r3, r3, #112	@ 0x70
 8005d0c:	81fb      	strh	r3, [r7, #14]
 8005d0e:	89fb      	ldrh	r3, [r7, #14]
 8005d10:	f483 5380 	eor.w	r3, r3, #4096	@ 0x1000
 8005d14:	81fb      	strh	r3, [r7, #14]
 8005d16:	687a      	ldr	r2, [r7, #4]
 8005d18:	683b      	ldr	r3, [r7, #0]
 8005d1a:	781b      	ldrb	r3, [r3, #0]
 8005d1c:	009b      	lsls	r3, r3, #2
 8005d1e:	441a      	add	r2, r3
 8005d20:	89fb      	ldrh	r3, [r7, #14]
 8005d22:	f043 437f 	orr.w	r3, r3, #4278190080	@ 0xff000000
 8005d26:	f443 037f 	orr.w	r3, r3, #16711680	@ 0xff0000
 8005d2a:	f443 4300 	orr.w	r3, r3, #32768	@ 0x8000
 8005d2e:	f043 0380 	orr.w	r3, r3, #128	@ 0x80
 8005d32:	b29b      	uxth	r3, r3
 8005d34:	8013      	strh	r3, [r2, #0]
  }

  return HAL_OK;
 8005d36:	2300      	movs	r3, #0
}
 8005d38:	4618      	mov	r0, r3
 8005d3a:	3714      	adds	r7, #20
 8005d3c:	46bd      	mov	sp, r7
 8005d3e:	bc80      	pop	{r7}
 8005d40:	4770      	bx	lr

08005d42 <USB_EPClearStall>:
  * @param  USBx Selected device
  * @param  ep pointer to endpoint structure
  * @retval HAL status
  */
HAL_StatusTypeDef USB_EPClearStall(USB_TypeDef *USBx, USB_EPTypeDef *ep)
{
 8005d42:	b480      	push	{r7}
 8005d44:	b087      	sub	sp, #28
 8005d46:	af00      	add	r7, sp, #0
 8005d48:	6078      	str	r0, [r7, #4]
 8005d4a:	6039      	str	r1, [r7, #0]
  if (ep->doublebuffer == 0U)
 8005d4c:	683b      	ldr	r3, [r7, #0]
 8005d4e:	7b1b      	ldrb	r3, [r3, #12]
 8005d50:	2b00      	cmp	r3, #0
 8005d52:	f040 809d 	bne.w	8005e90 <USB_EPClearStall+0x14e>
  {
    if (ep->is_in != 0U)
 8005d56:	683b      	ldr	r3, [r7, #0]
 8005d58:	785b      	ldrb	r3, [r3, #1]
 8005d5a:	2b00      	cmp	r3, #0
 8005d5c:	d04c      	beq.n	8005df8 <USB_EPClearStall+0xb6>
    {
      PCD_CLEAR_TX_DTOG(USBx, ep->num);
 8005d5e:	687a      	ldr	r2, [r7, #4]
 8005d60:	683b      	ldr	r3, [r7, #0]
 8005d62:	781b      	ldrb	r3, [r3, #0]
 8005d64:	009b      	lsls	r3, r3, #2
 8005d66:	4413      	add	r3, r2
 8005d68:	881b      	ldrh	r3, [r3, #0]
 8005d6a:	823b      	strh	r3, [r7, #16]
 8005d6c:	8a3b      	ldrh	r3, [r7, #16]
 8005d6e:	f003 0340 	and.w	r3, r3, #64	@ 0x40
 8005d72:	2b00      	cmp	r3, #0
 8005d74:	d01b      	beq.n	8005dae <USB_EPClearStall+0x6c>
 8005d76:	687a      	ldr	r2, [r7, #4]
 8005d78:	683b      	ldr	r3, [r7, #0]
 8005d7a:	781b      	ldrb	r3, [r3, #0]
 8005d7c:	009b      	lsls	r3, r3, #2
 8005d7e:	4413      	add	r3, r2
 8005d80:	881b      	ldrh	r3, [r3, #0]
 8005d82:	b29b      	uxth	r3, r3
 8005d84:	f423 43e0 	bic.w	r3, r3, #28672	@ 0x7000
 8005d88:	f023 0370 	bic.w	r3, r3, #112	@ 0x70
 8005d8c:	81fb      	strh	r3, [r7, #14]
 8005d8e:	687a      	ldr	r2, [r7, #4]
 8005d90:	683b      	ldr	r3, [r7, #0]
 8005d92:	781b      	ldrb	r3, [r3, #0]
 8005d94:	009b      	lsls	r3, r3, #2
 8005d96:	441a      	add	r2, r3
 8005d98:	89fb      	ldrh	r3, [r7, #14]
 8005d9a:	f043 437f 	orr.w	r3, r3, #4278190080	@ 0xff000000
 8005d9e:	f443 037f 	orr.w	r3, r3, #16711680	@ 0xff0000
 8005da2:	f443 4300 	orr.w	r3, r3, #32768	@ 0x8000
 8005da6:	f043 03c0 	orr.w	r3, r3, #192	@ 0xc0
 8005daa:	b29b      	uxth	r3, r3
 8005dac:	8013      	strh	r3, [r2, #0]

      if (ep->type != EP_TYPE_ISOC)
 8005dae:	683b      	ldr	r3, [r7, #0]
 8005db0:	78db      	ldrb	r3, [r3, #3]
 8005db2:	2b01      	cmp	r3, #1
 8005db4:	d06c      	beq.n	8005e90 <USB_EPClearStall+0x14e>
      {
        /* Configure NAK status for the Endpoint */
        PCD_SET_EP_TX_STATUS(USBx, ep->num, USB_EP_TX_NAK);
 8005db6:	687a      	ldr	r2, [r7, #4]
 8005db8:	683b      	ldr	r3, [r7, #0]
 8005dba:	781b      	ldrb	r3, [r3, #0]
 8005dbc:	009b      	lsls	r3, r3, #2
 8005dbe:	4413      	add	r3, r2
 8005dc0:	881b      	ldrh	r3, [r3, #0]
 8005dc2:	b29b      	uxth	r3, r3
 8005dc4:	f423 43e0 	bic.w	r3, r3, #28672	@ 0x7000
 8005dc8:	f023 0340 	bic.w	r3, r3, #64	@ 0x40
 8005dcc:	81bb      	strh	r3, [r7, #12]
 8005dce:	89bb      	ldrh	r3, [r7, #12]
 8005dd0:	f083 0320 	eor.w	r3, r3, #32
 8005dd4:	81bb      	strh	r3, [r7, #12]
 8005dd6:	687a      	ldr	r2, [r7, #4]
 8005dd8:	683b      	ldr	r3, [r7, #0]
 8005dda:	781b      	ldrb	r3, [r3, #0]
 8005ddc:	009b      	lsls	r3, r3, #2
 8005dde:	441a      	add	r2, r3
 8005de0:	89bb      	ldrh	r3, [r7, #12]
 8005de2:	f043 437f 	orr.w	r3, r3, #4278190080	@ 0xff000000
 8005de6:	f443 037f 	orr.w	r3, r3, #16711680	@ 0xff0000
 8005dea:	f443 4300 	orr.w	r3, r3, #32768	@ 0x8000
 8005dee:	f043 0380 	orr.w	r3, r3, #128	@ 0x80
 8005df2:	b29b      	uxth	r3, r3
 8005df4:	8013      	strh	r3, [r2, #0]
 8005df6:	e04b      	b.n	8005e90 <USB_EPClearStall+0x14e>
      }
    }
    else
    {
      PCD_CLEAR_RX_DTOG(USBx, ep->num);
 8005df8:	687a      	ldr	r2, [r7, #4]
 8005dfa:	683b      	ldr	r3, [r7, #0]
 8005dfc:	781b      	ldrb	r3, [r3, #0]
 8005dfe:	009b      	lsls	r3, r3, #2
 8005e00:	4413      	add	r3, r2
 8005e02:	881b      	ldrh	r3, [r3, #0]
 8005e04:	82fb      	strh	r3, [r7, #22]
 8005e06:	8afb      	ldrh	r3, [r7, #22]
 8005e08:	f403 4380 	and.w	r3, r3, #16384	@ 0x4000
 8005e0c:	2b00      	cmp	r3, #0
 8005e0e:	d01b      	beq.n	8005e48 <USB_EPClearStall+0x106>
 8005e10:	687a      	ldr	r2, [r7, #4]
 8005e12:	683b      	ldr	r3, [r7, #0]
 8005e14:	781b      	ldrb	r3, [r3, #0]
 8005e16:	009b      	lsls	r3, r3, #2
 8005e18:	4413      	add	r3, r2
 8005e1a:	881b      	ldrh	r3, [r3, #0]
 8005e1c:	b29b      	uxth	r3, r3
 8005e1e:	f423 43e0 	bic.w	r3, r3, #28672	@ 0x7000
 8005e22:	f023 0370 	bic.w	r3, r3, #112	@ 0x70
 8005e26:	82bb      	strh	r3, [r7, #20]
 8005e28:	687a      	ldr	r2, [r7, #4]
 8005e2a:	683b      	ldr	r3, [r7, #0]
 8005e2c:	781b      	ldrb	r3, [r3, #0]
 8005e2e:	009b      	lsls	r3, r3, #2
 8005e30:	441a      	add	r2, r3
 8005e32:	8abb      	ldrh	r3, [r7, #20]
 8005e34:	f043 437f 	orr.w	r3, r3, #4278190080	@ 0xff000000
 8005e38:	f443 037f 	orr.w	r3, r3, #16711680	@ 0xff0000
 8005e3c:	f443 4340 	orr.w	r3, r3, #49152	@ 0xc000
 8005e40:	f043 0380 	orr.w	r3, r3, #128	@ 0x80
 8005e44:	b29b      	uxth	r3, r3
 8005e46:	8013      	strh	r3, [r2, #0]

      /* Configure VALID status for the Endpoint */
      PCD_SET_EP_RX_STATUS(USBx, ep->num, USB_EP_RX_VALID);
 8005e48:	687a      	ldr	r2, [r7, #4]
 8005e4a:	683b      	ldr	r3, [r7, #0]
 8005e4c:	781b      	ldrb	r3, [r3, #0]
 8005e4e:	009b      	lsls	r3, r3, #2
 8005e50:	4413      	add	r3, r2
 8005e52:	881b      	ldrh	r3, [r3, #0]
 8005e54:	b29b      	uxth	r3, r3
 8005e56:	f423 4380 	bic.w	r3, r3, #16384	@ 0x4000
 8005e5a:	f023 0370 	bic.w	r3, r3, #112	@ 0x70
 8005e5e:	827b      	strh	r3, [r7, #18]
 8005e60:	8a7b      	ldrh	r3, [r7, #18]
 8005e62:	f483 5380 	eor.w	r3, r3, #4096	@ 0x1000
 8005e66:	827b      	strh	r3, [r7, #18]
 8005e68:	8a7b      	ldrh	r3, [r7, #18]
 8005e6a:	f483 5300 	eor.w	r3, r3, #8192	@ 0x2000
 8005e6e:	827b      	strh	r3, [r7, #18]
 8005e70:	687a      	ldr	r2, [r7, #4]
 8005e72:	683b      	ldr	r3, [r7, #0]
 8005e74:	781b      	ldrb	r3, [r3, #0]
 8005e76:	009b      	lsls	r3, r3, #2
 8005e78:	441a      	add	r2, r3
 8005e7a:	8a7b      	ldrh	r3, [r7, #18]
 8005e7c:	f043 437f 	orr.w	r3, r3, #4278190080	@ 0xff000000
 8005e80:	f443 037f 	orr.w	r3, r3, #16711680	@ 0xff0000
 8005e84:	f443 4300 	orr.w	r3, r3, #32768	@ 0x8000
 8005e88:	f043 0380 	orr.w	r3, r3, #128	@ 0x80
 8005e8c:	b29b      	uxth	r3, r3
 8005e8e:	8013      	strh	r3, [r2, #0]
    }
  }

  return HAL_OK;
 8005e90:	2300      	movs	r3, #0
}
 8005e92:	4618      	mov	r0, r3
 8005e94:	371c      	adds	r7, #28
 8005e96:	46bd      	mov	sp, r7
 8005e98:	bc80      	pop	{r7}
 8005e9a:	4770      	bx	lr

08005e9c <USB_SetDevAddress>:
  * @param  address new device address to be assigned
  *          This parameter can be a value from 0 to 255
  * @retval HAL status
  */
HAL_StatusTypeDef  USB_SetDevAddress(USB_TypeDef *USBx, uint8_t address)
{
 8005e9c:	b480      	push	{r7}
 8005e9e:	b083      	sub	sp, #12
 8005ea0:	af00      	add	r7, sp, #0
 8005ea2:	6078      	str	r0, [r7, #4]
 8005ea4:	460b      	mov	r3, r1
 8005ea6:	70fb      	strb	r3, [r7, #3]
  if (address == 0U)
 8005ea8:	78fb      	ldrb	r3, [r7, #3]
 8005eaa:	2b00      	cmp	r3, #0
 8005eac:	d103      	bne.n	8005eb6 <USB_SetDevAddress+0x1a>
  {
    /* set device address and enable function */
    USBx->DADDR = (uint16_t)USB_DADDR_EF;
 8005eae:	687b      	ldr	r3, [r7, #4]
 8005eb0:	2280      	movs	r2, #128	@ 0x80
 8005eb2:	f8a3 204c 	strh.w	r2, [r3, #76]	@ 0x4c
  }

  return HAL_OK;
 8005eb6:	2300      	movs	r3, #0
}
 8005eb8:	4618      	mov	r0, r3
 8005eba:	370c      	adds	r7, #12
 8005ebc:	46bd      	mov	sp, r7
 8005ebe:	bc80      	pop	{r7}
 8005ec0:	4770      	bx	lr

08005ec2 <USB_DevConnect>:
  * @brief  USB_DevConnect Connect the USB device by enabling the pull-up/pull-down
  * @param  USBx Selected device
  * @retval HAL status
  */
HAL_StatusTypeDef  USB_DevConnect(USB_TypeDef *USBx)
{
 8005ec2:	b480      	push	{r7}
 8005ec4:	b083      	sub	sp, #12
 8005ec6:	af00      	add	r7, sp, #0
 8005ec8:	6078      	str	r0, [r7, #4]
  /* NOTE : - This function is not required by USB Device FS peripheral, it is used
              only by USB OTG FS peripheral.
            - This function is added to ensure compatibility across platforms.
   */

  return HAL_OK;
 8005eca:	2300      	movs	r3, #0
}
 8005ecc:	4618      	mov	r0, r3
 8005ece:	370c      	adds	r7, #12
 8005ed0:	46bd      	mov	sp, r7
 8005ed2:	bc80      	pop	{r7}
 8005ed4:	4770      	bx	lr

08005ed6 <USB_DevDisconnect>:
  * @brief  USB_DevDisconnect Disconnect the USB device by disabling the pull-up/pull-down
  * @param  USBx Selected device
  * @retval HAL status
  */
HAL_StatusTypeDef  USB_DevDisconnect(USB_TypeDef *USBx)
{
 8005ed6:	b480      	push	{r7}
 8005ed8:	b083      	sub	sp, #12
 8005eda:	af00      	add	r7, sp, #0
 8005edc:	6078      	str	r0, [r7, #4]
  /* NOTE : - This function is not required by USB Device FS peripheral, it is used
              only by USB OTG FS peripheral.
            - This function is added to ensure compatibility across platforms.
   */

  return HAL_OK;
 8005ede:	2300      	movs	r3, #0
}
 8005ee0:	4618      	mov	r0, r3
 8005ee2:	370c      	adds	r7, #12
 8005ee4:	46bd      	mov	sp, r7
 8005ee6:	bc80      	pop	{r7}
 8005ee8:	4770      	bx	lr

08005eea <USB_ReadInterrupts>:
  * @brief  USB_ReadInterrupts return the global USB interrupt status
  * @param  USBx Selected device
  * @retval USB Global Interrupt status
  */
uint32_t USB_ReadInterrupts(USB_TypeDef const *USBx)
{
 8005eea:	b480      	push	{r7}
 8005eec:	b085      	sub	sp, #20
 8005eee:	af00      	add	r7, sp, #0
 8005ef0:	6078      	str	r0, [r7, #4]
  uint32_t tmpreg;

  tmpreg = USBx->ISTR;
 8005ef2:	687b      	ldr	r3, [r7, #4]
 8005ef4:	f8b3 3044 	ldrh.w	r3, [r3, #68]	@ 0x44
 8005ef8:	b29b      	uxth	r3, r3
 8005efa:	60fb      	str	r3, [r7, #12]
  return tmpreg;
 8005efc:	68fb      	ldr	r3, [r7, #12]
}
 8005efe:	4618      	mov	r0, r3
 8005f00:	3714      	adds	r7, #20
 8005f02:	46bd      	mov	sp, r7
 8005f04:	bc80      	pop	{r7}
 8005f06:	4770      	bx	lr

08005f08 <USB_EP0_OutStart>:
  * @param  USBx Selected device
  * @param  psetup pointer to setup packet
  * @retval HAL status
  */
HAL_StatusTypeDef USB_EP0_OutStart(USB_TypeDef *USBx, uint8_t *psetup)
{
 8005f08:	b480      	push	{r7}
 8005f0a:	b083      	sub	sp, #12
 8005f0c:	af00      	add	r7, sp, #0
 8005f0e:	6078      	str	r0, [r7, #4]
 8005f10:	6039      	str	r1, [r7, #0]
  UNUSED(psetup);
  /* NOTE : - This function is not required by USB Device FS peripheral, it is used
              only by USB OTG FS peripheral.
            - This function is added to ensure compatibility across platforms.
   */
  return HAL_OK;
 8005f12:	2300      	movs	r3, #0
}
 8005f14:	4618      	mov	r0, r3
 8005f16:	370c      	adds	r7, #12
 8005f18:	46bd      	mov	sp, r7
 8005f1a:	bc80      	pop	{r7}
 8005f1c:	4770      	bx	lr

08005f1e <USB_WritePMA>:
  * @param   wPMABufAddr address into PMA.
  * @param   wNBytes no. of bytes to be copied.
  * @retval None
  */
void USB_WritePMA(USB_TypeDef const *USBx, uint8_t *pbUsrBuf, uint16_t wPMABufAddr, uint16_t wNBytes)
{
 8005f1e:	b480      	push	{r7}
 8005f20:	b08b      	sub	sp, #44	@ 0x2c
 8005f22:	af00      	add	r7, sp, #0
 8005f24:	60f8      	str	r0, [r7, #12]
 8005f26:	60b9      	str	r1, [r7, #8]
 8005f28:	4611      	mov	r1, r2
 8005f2a:	461a      	mov	r2, r3
 8005f2c:	460b      	mov	r3, r1
 8005f2e:	80fb      	strh	r3, [r7, #6]
 8005f30:	4613      	mov	r3, r2
 8005f32:	80bb      	strh	r3, [r7, #4]
  uint32_t n = ((uint32_t)wNBytes + 1U) >> 1;
 8005f34:	88bb      	ldrh	r3, [r7, #4]
 8005f36:	3301      	adds	r3, #1
 8005f38:	085b      	lsrs	r3, r3, #1
 8005f3a:	61bb      	str	r3, [r7, #24]
  uint32_t BaseAddr = (uint32_t)USBx;
 8005f3c:	68fb      	ldr	r3, [r7, #12]
 8005f3e:	617b      	str	r3, [r7, #20]
  uint32_t count;
  uint16_t WrVal;
  __IO uint16_t *pdwVal;
  uint8_t *pBuf = pbUsrBuf;
 8005f40:	68bb      	ldr	r3, [r7, #8]
 8005f42:	61fb      	str	r3, [r7, #28]

  pdwVal = (__IO uint16_t *)(BaseAddr + 0x400U + ((uint32_t)wPMABufAddr * PMA_ACCESS));
 8005f44:	88fb      	ldrh	r3, [r7, #6]
 8005f46:	005a      	lsls	r2, r3, #1
 8005f48:	697b      	ldr	r3, [r7, #20]
 8005f4a:	4413      	add	r3, r2
 8005f4c:	f503 6380 	add.w	r3, r3, #1024	@ 0x400
 8005f50:	623b      	str	r3, [r7, #32]

  for (count = n; count != 0U; count--)
 8005f52:	69bb      	ldr	r3, [r7, #24]
 8005f54:	627b      	str	r3, [r7, #36]	@ 0x24
 8005f56:	e01e      	b.n	8005f96 <USB_WritePMA+0x78>
  {
    WrVal = pBuf[0];
 8005f58:	69fb      	ldr	r3, [r7, #28]
 8005f5a:	781b      	ldrb	r3, [r3, #0]
 8005f5c:	827b      	strh	r3, [r7, #18]
    WrVal |= (uint16_t)pBuf[1] << 8;
 8005f5e:	69fb      	ldr	r3, [r7, #28]
 8005f60:	3301      	adds	r3, #1
 8005f62:	781b      	ldrb	r3, [r3, #0]
 8005f64:	021b      	lsls	r3, r3, #8
 8005f66:	b21a      	sxth	r2, r3
 8005f68:	f9b7 3012 	ldrsh.w	r3, [r7, #18]
 8005f6c:	4313      	orrs	r3, r2
 8005f6e:	b21b      	sxth	r3, r3
 8005f70:	827b      	strh	r3, [r7, #18]
    *pdwVal = (WrVal & 0xFFFFU);
 8005f72:	6a3b      	ldr	r3, [r7, #32]
 8005f74:	8a7a      	ldrh	r2, [r7, #18]
 8005f76:	801a      	strh	r2, [r3, #0]
    pdwVal++;
 8005f78:	6a3b      	ldr	r3, [r7, #32]
 8005f7a:	3302      	adds	r3, #2
 8005f7c:	623b      	str	r3, [r7, #32]

#if PMA_ACCESS > 1U
    pdwVal++;
 8005f7e:	6a3b      	ldr	r3, [r7, #32]
 8005f80:	3302      	adds	r3, #2
 8005f82:	623b      	str	r3, [r7, #32]
#endif /* PMA_ACCESS */

    pBuf++;
 8005f84:	69fb      	ldr	r3, [r7, #28]
 8005f86:	3301      	adds	r3, #1
 8005f88:	61fb      	str	r3, [r7, #28]
    pBuf++;
 8005f8a:	69fb      	ldr	r3, [r7, #28]
 8005f8c:	3301      	adds	r3, #1
 8005f8e:	61fb      	str	r3, [r7, #28]
  for (count = n; count != 0U; count--)
 8005f90:	6a7b      	ldr	r3, [r7, #36]	@ 0x24
 8005f92:	3b01      	subs	r3, #1
 8005f94:	627b      	str	r3, [r7, #36]	@ 0x24
 8005f96:	6a7b      	ldr	r3, [r7, #36]	@ 0x24
 8005f98:	2b00      	cmp	r3, #0
 8005f9a:	d1dd      	bne.n	8005f58 <USB_WritePMA+0x3a>
  }
}
 8005f9c:	bf00      	nop
 8005f9e:	bf00      	nop
 8005fa0:	372c      	adds	r7, #44	@ 0x2c
 8005fa2:	46bd      	mov	sp, r7
 8005fa4:	bc80      	pop	{r7}
 8005fa6:	4770      	bx	lr

08005fa8 <USB_ReadPMA>:
  * @param   wPMABufAddr address into PMA.
  * @param   wNBytes no. of bytes to be copied.
  * @retval None
  */
void USB_ReadPMA(USB_TypeDef const *USBx, uint8_t *pbUsrBuf, uint16_t wPMABufAddr, uint16_t wNBytes)
{
 8005fa8:	b480      	push	{r7}
 8005faa:	b08b      	sub	sp, #44	@ 0x2c
 8005fac:	af00      	add	r7, sp, #0
 8005fae:	60f8      	str	r0, [r7, #12]
 8005fb0:	60b9      	str	r1, [r7, #8]
 8005fb2:	4611      	mov	r1, r2
 8005fb4:	461a      	mov	r2, r3
 8005fb6:	460b      	mov	r3, r1
 8005fb8:	80fb      	strh	r3, [r7, #6]
 8005fba:	4613      	mov	r3, r2
 8005fbc:	80bb      	strh	r3, [r7, #4]
  uint32_t n = (uint32_t)wNBytes >> 1;
 8005fbe:	88bb      	ldrh	r3, [r7, #4]
 8005fc0:	085b      	lsrs	r3, r3, #1
 8005fc2:	b29b      	uxth	r3, r3
 8005fc4:	61bb      	str	r3, [r7, #24]
  uint32_t BaseAddr = (uint32_t)USBx;
 8005fc6:	68fb      	ldr	r3, [r7, #12]
 8005fc8:	617b      	str	r3, [r7, #20]
  uint32_t count;
  uint32_t RdVal;
  __IO uint16_t *pdwVal;
  uint8_t *pBuf = pbUsrBuf;
 8005fca:	68bb      	ldr	r3, [r7, #8]
 8005fcc:	61fb      	str	r3, [r7, #28]

  pdwVal = (__IO uint16_t *)(BaseAddr + 0x400U + ((uint32_t)wPMABufAddr * PMA_ACCESS));
 8005fce:	88fb      	ldrh	r3, [r7, #6]
 8005fd0:	005a      	lsls	r2, r3, #1
 8005fd2:	697b      	ldr	r3, [r7, #20]
 8005fd4:	4413      	add	r3, r2
 8005fd6:	f503 6380 	add.w	r3, r3, #1024	@ 0x400
 8005fda:	623b      	str	r3, [r7, #32]

  for (count = n; count != 0U; count--)
 8005fdc:	69bb      	ldr	r3, [r7, #24]
 8005fde:	627b      	str	r3, [r7, #36]	@ 0x24
 8005fe0:	e01b      	b.n	800601a <USB_ReadPMA+0x72>
  {
    RdVal = *(__IO uint16_t *)pdwVal;
 8005fe2:	6a3b      	ldr	r3, [r7, #32]
 8005fe4:	881b      	ldrh	r3, [r3, #0]
 8005fe6:	b29b      	uxth	r3, r3
 8005fe8:	613b      	str	r3, [r7, #16]
    pdwVal++;
 8005fea:	6a3b      	ldr	r3, [r7, #32]
 8005fec:	3302      	adds	r3, #2
 8005fee:	623b      	str	r3, [r7, #32]
    *pBuf = (uint8_t)((RdVal >> 0) & 0xFFU);
 8005ff0:	693b      	ldr	r3, [r7, #16]
 8005ff2:	b2da      	uxtb	r2, r3
 8005ff4:	69fb      	ldr	r3, [r7, #28]
 8005ff6:	701a      	strb	r2, [r3, #0]
    pBuf++;
 8005ff8:	69fb      	ldr	r3, [r7, #28]
 8005ffa:	3301      	adds	r3, #1
 8005ffc:	61fb      	str	r3, [r7, #28]
    *pBuf = (uint8_t)((RdVal >> 8) & 0xFFU);
 8005ffe:	693b      	ldr	r3, [r7, #16]
 8006000:	0a1b      	lsrs	r3, r3, #8
 8006002:	b2da      	uxtb	r2, r3
 8006004:	69fb      	ldr	r3, [r7, #28]
 8006006:	701a      	strb	r2, [r3, #0]
    pBuf++;
 8006008:	69fb      	ldr	r3, [r7, #28]
 800600a:	3301      	adds	r3, #1
 800600c:	61fb      	str	r3, [r7, #28]

#if PMA_ACCESS > 1U
    pdwVal++;
 800600e:	6a3b      	ldr	r3, [r7, #32]
 8006010:	3302      	adds	r3, #2
 8006012:	623b      	str	r3, [r7, #32]
  for (count = n; count != 0U; count--)
 8006014:	6a7b      	ldr	r3, [r7, #36]	@ 0x24
 8006016:	3b01      	subs	r3, #1
 8006018:	627b      	str	r3, [r7, #36]	@ 0x24
 800601a:	6a7b      	ldr	r3, [r7, #36]	@ 0x24
 800601c:	2b00      	cmp	r3, #0
 800601e:	d1e0      	bne.n	8005fe2 <USB_ReadPMA+0x3a>
#endif /* PMA_ACCESS */
  }

  if ((wNBytes % 2U) != 0U)
 8006020:	88bb      	ldrh	r3, [r7, #4]
 8006022:	f003 0301 	and.w	r3, r3, #1
 8006026:	b29b      	uxth	r3, r3
 8006028:	2b00      	cmp	r3, #0
 800602a:	d007      	beq.n	800603c <USB_ReadPMA+0x94>
  {
    RdVal = *pdwVal;
 800602c:	6a3b      	ldr	r3, [r7, #32]
 800602e:	881b      	ldrh	r3, [r3, #0]
 8006030:	b29b      	uxth	r3, r3
 8006032:	613b      	str	r3, [r7, #16]
    *pBuf = (uint8_t)((RdVal >> 0) & 0xFFU);
 8006034:	693b      	ldr	r3, [r7, #16]
 8006036:	b2da      	uxtb	r2, r3
 8006038:	69fb      	ldr	r3, [r7, #28]
 800603a:	701a      	strb	r2, [r3, #0]
  }
}
 800603c:	bf00      	nop
 800603e:	372c      	adds	r7, #44	@ 0x2c
 8006040:	46bd      	mov	sp, r7
 8006042:	bc80      	pop	{r7}
 8006044:	4770      	bx	lr

08006046 <USBD_Init>:
* @param  id: Low level core index
* @retval None
*/
USBD_StatusTypeDef USBD_Init(USBD_HandleTypeDef *pdev,
                             USBD_DescriptorsTypeDef *pdesc, uint8_t id)
{
 8006046:	b580      	push	{r7, lr}
 8006048:	b084      	sub	sp, #16
 800604a:	af00      	add	r7, sp, #0
 800604c:	60f8      	str	r0, [r7, #12]
 800604e:	60b9      	str	r1, [r7, #8]
 8006050:	4613      	mov	r3, r2
 8006052:	71fb      	strb	r3, [r7, #7]
  /* Check whether the USB Host handle is valid */
  if (pdev == NULL)
 8006054:	68fb      	ldr	r3, [r7, #12]
 8006056:	2b00      	cmp	r3, #0
 8006058:	d101      	bne.n	800605e <USBD_Init+0x18>
  {
#if (USBD_DEBUG_LEVEL > 1U)
    USBD_ErrLog("Invalid Device handle");
#endif
    return USBD_FAIL;
 800605a:	2302      	movs	r3, #2
 800605c:	e01a      	b.n	8006094 <USBD_Init+0x4e>
  }

  /* Unlink previous class*/
  if (pdev->pClass != NULL)
 800605e:	68fb      	ldr	r3, [r7, #12]
 8006060:	f8d3 32b4 	ldr.w	r3, [r3, #692]	@ 0x2b4
 8006064:	2b00      	cmp	r3, #0
 8006066:	d003      	beq.n	8006070 <USBD_Init+0x2a>
  {
    pdev->pClass = NULL;
 8006068:	68fb      	ldr	r3, [r7, #12]
 800606a:	2200      	movs	r2, #0
 800606c:	f8c3 22b4 	str.w	r2, [r3, #692]	@ 0x2b4
  }

  /* Assign USBD Descriptors */
  if (pdesc != NULL)
 8006070:	68bb      	ldr	r3, [r7, #8]
 8006072:	2b00      	cmp	r3, #0
 8006074:	d003      	beq.n	800607e <USBD_Init+0x38>
  {
    pdev->pDesc = pdesc;
 8006076:	68fb      	ldr	r3, [r7, #12]
 8006078:	68ba      	ldr	r2, [r7, #8]
 800607a:	f8c3 22b0 	str.w	r2, [r3, #688]	@ 0x2b0
  }

  /* Set Device initial State */
  pdev->dev_state = USBD_STATE_DEFAULT;
 800607e:	68fb      	ldr	r3, [r7, #12]
 8006080:	2201      	movs	r2, #1
 8006082:	f883 229c 	strb.w	r2, [r3, #668]	@ 0x29c
  pdev->id = id;
 8006086:	68fb      	ldr	r3, [r7, #12]
 8006088:	79fa      	ldrb	r2, [r7, #7]
 800608a:	701a      	strb	r2, [r3, #0]
  /* Initialize low level driver */
  USBD_LL_Init(pdev);
 800608c:	68f8      	ldr	r0, [r7, #12]
 800608e:	f001 fbe1 	bl	8007854 <USBD_LL_Init>

  return USBD_OK;
 8006092:	2300      	movs	r3, #0
}
 8006094:	4618      	mov	r0, r3
 8006096:	3710      	adds	r7, #16
 8006098:	46bd      	mov	sp, r7
 800609a:	bd80      	pop	{r7, pc}

0800609c <USBD_RegisterClass>:
  * @param  pDevice : Device Handle
  * @param  pclass: Class handle
  * @retval USBD Status
  */
USBD_StatusTypeDef  USBD_RegisterClass(USBD_HandleTypeDef *pdev, USBD_ClassTypeDef *pclass)
{
 800609c:	b480      	push	{r7}
 800609e:	b085      	sub	sp, #20
 80060a0:	af00      	add	r7, sp, #0
 80060a2:	6078      	str	r0, [r7, #4]
 80060a4:	6039      	str	r1, [r7, #0]
  USBD_StatusTypeDef status = USBD_OK;
 80060a6:	2300      	movs	r3, #0
 80060a8:	73fb      	strb	r3, [r7, #15]
  if (pclass != NULL)
 80060aa:	683b      	ldr	r3, [r7, #0]
 80060ac:	2b00      	cmp	r3, #0
 80060ae:	d006      	beq.n	80060be <USBD_RegisterClass+0x22>
  {
    /* link the class to the USB Device handle */
    pdev->pClass = pclass;
 80060b0:	687b      	ldr	r3, [r7, #4]
 80060b2:	683a      	ldr	r2, [r7, #0]
 80060b4:	f8c3 22b4 	str.w	r2, [r3, #692]	@ 0x2b4
    status = USBD_OK;
 80060b8:	2300      	movs	r3, #0
 80060ba:	73fb      	strb	r3, [r7, #15]
 80060bc:	e001      	b.n	80060c2 <USBD_RegisterClass+0x26>
  else
  {
#if (USBD_DEBUG_LEVEL > 1U)
    USBD_ErrLog("Invalid Class handle");
#endif
    status = USBD_FAIL;
 80060be:	2302      	movs	r3, #2
 80060c0:	73fb      	strb	r3, [r7, #15]
  }

  return status;
 80060c2:	7bfb      	ldrb	r3, [r7, #15]
}
 80060c4:	4618      	mov	r0, r3
 80060c6:	3714      	adds	r7, #20
 80060c8:	46bd      	mov	sp, r7
 80060ca:	bc80      	pop	{r7}
 80060cc:	4770      	bx	lr

080060ce <USBD_Start>:
  *         Start the USB Device Core.
  * @param  pdev: Device Handle
  * @retval USBD Status
  */
USBD_StatusTypeDef  USBD_Start(USBD_HandleTypeDef *pdev)
{
 80060ce:	b580      	push	{r7, lr}
 80060d0:	b082      	sub	sp, #8
 80060d2:	af00      	add	r7, sp, #0
 80060d4:	6078      	str	r0, [r7, #4]
  /* Start the low level driver  */
  USBD_LL_Start(pdev);
 80060d6:	6878      	ldr	r0, [r7, #4]
 80060d8:	f001 fc04 	bl	80078e4 <USBD_LL_Start>

  return USBD_OK;
 80060dc:	2300      	movs	r3, #0
}
 80060de:	4618      	mov	r0, r3
 80060e0:	3708      	adds	r7, #8
 80060e2:	46bd      	mov	sp, r7
 80060e4:	bd80      	pop	{r7, pc}

080060e6 <USBD_RunTestMode>:
*         Launch test mode process
* @param  pdev: device instance
* @retval status
*/
USBD_StatusTypeDef  USBD_RunTestMode(USBD_HandleTypeDef  *pdev)
{
 80060e6:	b480      	push	{r7}
 80060e8:	b083      	sub	sp, #12
 80060ea:	af00      	add	r7, sp, #0
 80060ec:	6078      	str	r0, [r7, #4]
  /* Prevent unused argument compilation warning */
  UNUSED(pdev);

  return USBD_OK;
 80060ee:	2300      	movs	r3, #0
}
 80060f0:	4618      	mov	r0, r3
 80060f2:	370c      	adds	r7, #12
 80060f4:	46bd      	mov	sp, r7
 80060f6:	bc80      	pop	{r7}
 80060f8:	4770      	bx	lr

080060fa <USBD_SetClassConfig>:
* @param  cfgidx: configuration index
* @retval status
*/

USBD_StatusTypeDef USBD_SetClassConfig(USBD_HandleTypeDef  *pdev, uint8_t cfgidx)
{
 80060fa:	b580      	push	{r7, lr}
 80060fc:	b084      	sub	sp, #16
 80060fe:	af00      	add	r7, sp, #0
 8006100:	6078      	str	r0, [r7, #4]
 8006102:	460b      	mov	r3, r1
 8006104:	70fb      	strb	r3, [r7, #3]
  USBD_StatusTypeDef ret = USBD_FAIL;
 8006106:	2302      	movs	r3, #2
 8006108:	73fb      	strb	r3, [r7, #15]

  if (pdev->pClass != NULL)
 800610a:	687b      	ldr	r3, [r7, #4]
 800610c:	f8d3 32b4 	ldr.w	r3, [r3, #692]	@ 0x2b4
 8006110:	2b00      	cmp	r3, #0
 8006112:	d00c      	beq.n	800612e <USBD_SetClassConfig+0x34>
  {
    /* Set configuration  and Start the Class*/
    if (pdev->pClass->Init(pdev, cfgidx) == 0U)
 8006114:	687b      	ldr	r3, [r7, #4]
 8006116:	f8d3 32b4 	ldr.w	r3, [r3, #692]	@ 0x2b4
 800611a:	681b      	ldr	r3, [r3, #0]
 800611c:	78fa      	ldrb	r2, [r7, #3]
 800611e:	4611      	mov	r1, r2
 8006120:	6878      	ldr	r0, [r7, #4]
 8006122:	4798      	blx	r3
 8006124:	4603      	mov	r3, r0
 8006126:	2b00      	cmp	r3, #0
 8006128:	d101      	bne.n	800612e <USBD_SetClassConfig+0x34>
    {
      ret = USBD_OK;
 800612a:	2300      	movs	r3, #0
 800612c:	73fb      	strb	r3, [r7, #15]
    }
  }

  return ret;
 800612e:	7bfb      	ldrb	r3, [r7, #15]
}
 8006130:	4618      	mov	r0, r3
 8006132:	3710      	adds	r7, #16
 8006134:	46bd      	mov	sp, r7
 8006136:	bd80      	pop	{r7, pc}

08006138 <USBD_ClrClassConfig>:
* @param  pdev: device instance
* @param  cfgidx: configuration index
* @retval status: USBD_StatusTypeDef
*/
USBD_StatusTypeDef USBD_ClrClassConfig(USBD_HandleTypeDef  *pdev, uint8_t cfgidx)
{
 8006138:	b580      	push	{r7, lr}
 800613a:	b082      	sub	sp, #8
 800613c:	af00      	add	r7, sp, #0
 800613e:	6078      	str	r0, [r7, #4]
 8006140:	460b      	mov	r3, r1
 8006142:	70fb      	strb	r3, [r7, #3]
  /* Clear configuration  and De-initialize the Class process*/
  pdev->pClass->DeInit(pdev, cfgidx);
 8006144:	687b      	ldr	r3, [r7, #4]
 8006146:	f8d3 32b4 	ldr.w	r3, [r3, #692]	@ 0x2b4
 800614a:	685b      	ldr	r3, [r3, #4]
 800614c:	78fa      	ldrb	r2, [r7, #3]
 800614e:	4611      	mov	r1, r2
 8006150:	6878      	ldr	r0, [r7, #4]
 8006152:	4798      	blx	r3

  return USBD_OK;
 8006154:	2300      	movs	r3, #0
}
 8006156:	4618      	mov	r0, r3
 8006158:	3708      	adds	r7, #8
 800615a:	46bd      	mov	sp, r7
 800615c:	bd80      	pop	{r7, pc}

0800615e <USBD_LL_SetupStage>:
*         Handle the setup stage
* @param  pdev: device instance
* @retval status
*/
USBD_StatusTypeDef USBD_LL_SetupStage(USBD_HandleTypeDef *pdev, uint8_t *psetup)
{
 800615e:	b580      	push	{r7, lr}
 8006160:	b082      	sub	sp, #8
 8006162:	af00      	add	r7, sp, #0
 8006164:	6078      	str	r0, [r7, #4]
 8006166:	6039      	str	r1, [r7, #0]
  USBD_ParseSetupRequest(&pdev->request, psetup);
 8006168:	687b      	ldr	r3, [r7, #4]
 800616a:	f503 732a 	add.w	r3, r3, #680	@ 0x2a8
 800616e:	6839      	ldr	r1, [r7, #0]
 8006170:	4618      	mov	r0, r3
 8006172:	f000 fed8 	bl	8006f26 <USBD_ParseSetupRequest>

  pdev->ep0_state = USBD_EP0_SETUP;
 8006176:	687b      	ldr	r3, [r7, #4]
 8006178:	2201      	movs	r2, #1
 800617a:	f8c3 2294 	str.w	r2, [r3, #660]	@ 0x294

  pdev->ep0_data_len = pdev->request.wLength;
 800617e:	687b      	ldr	r3, [r7, #4]
 8006180:	f8b3 32ae 	ldrh.w	r3, [r3, #686]	@ 0x2ae
 8006184:	461a      	mov	r2, r3
 8006186:	687b      	ldr	r3, [r7, #4]
 8006188:	f8c3 2298 	str.w	r2, [r3, #664]	@ 0x298

  switch (pdev->request.bmRequest & 0x1FU)
 800618c:	687b      	ldr	r3, [r7, #4]
 800618e:	f893 32a8 	ldrb.w	r3, [r3, #680]	@ 0x2a8
 8006192:	f003 031f 	and.w	r3, r3, #31
 8006196:	2b02      	cmp	r3, #2
 8006198:	d016      	beq.n	80061c8 <USBD_LL_SetupStage+0x6a>
 800619a:	2b02      	cmp	r3, #2
 800619c:	d81c      	bhi.n	80061d8 <USBD_LL_SetupStage+0x7a>
 800619e:	2b00      	cmp	r3, #0
 80061a0:	d002      	beq.n	80061a8 <USBD_LL_SetupStage+0x4a>
 80061a2:	2b01      	cmp	r3, #1
 80061a4:	d008      	beq.n	80061b8 <USBD_LL_SetupStage+0x5a>
 80061a6:	e017      	b.n	80061d8 <USBD_LL_SetupStage+0x7a>
  {
    case USB_REQ_RECIPIENT_DEVICE:
      USBD_StdDevReq(pdev, &pdev->request);
 80061a8:	687b      	ldr	r3, [r7, #4]
 80061aa:	f503 732a 	add.w	r3, r3, #680	@ 0x2a8
 80061ae:	4619      	mov	r1, r3
 80061b0:	6878      	ldr	r0, [r7, #4]
 80061b2:	f000 f9cb 	bl	800654c <USBD_StdDevReq>
      break;
 80061b6:	e01a      	b.n	80061ee <USBD_LL_SetupStage+0x90>

    case USB_REQ_RECIPIENT_INTERFACE:
      USBD_StdItfReq(pdev, &pdev->request);
 80061b8:	687b      	ldr	r3, [r7, #4]
 80061ba:	f503 732a 	add.w	r3, r3, #680	@ 0x2a8
 80061be:	4619      	mov	r1, r3
 80061c0:	6878      	ldr	r0, [r7, #4]
 80061c2:	f000 fa2d 	bl	8006620 <USBD_StdItfReq>
      break;
 80061c6:	e012      	b.n	80061ee <USBD_LL_SetupStage+0x90>

    case USB_REQ_RECIPIENT_ENDPOINT:
      USBD_StdEPReq(pdev, &pdev->request);
 80061c8:	687b      	ldr	r3, [r7, #4]
 80061ca:	f503 732a 	add.w	r3, r3, #680	@ 0x2a8
 80061ce:	4619      	mov	r1, r3
 80061d0:	6878      	ldr	r0, [r7, #4]
 80061d2:	f000 fa6d 	bl	80066b0 <USBD_StdEPReq>
      break;
 80061d6:	e00a      	b.n	80061ee <USBD_LL_SetupStage+0x90>

    default:
      USBD_LL_StallEP(pdev, (pdev->request.bmRequest & 0x80U));
 80061d8:	687b      	ldr	r3, [r7, #4]
 80061da:	f893 32a8 	ldrb.w	r3, [r3, #680]	@ 0x2a8
 80061de:	f023 037f 	bic.w	r3, r3, #127	@ 0x7f
 80061e2:	b2db      	uxtb	r3, r3
 80061e4:	4619      	mov	r1, r3
 80061e6:	6878      	ldr	r0, [r7, #4]
 80061e8:	f001 fbdc 	bl	80079a4 <USBD_LL_StallEP>
      break;
 80061ec:	bf00      	nop
  }

  return USBD_OK;
 80061ee:	2300      	movs	r3, #0
}
 80061f0:	4618      	mov	r0, r3
 80061f2:	3708      	adds	r7, #8
 80061f4:	46bd      	mov	sp, r7
 80061f6:	bd80      	pop	{r7, pc}

080061f8 <USBD_LL_DataOutStage>:
* @param  epnum: endpoint index
* @retval status
*/
USBD_StatusTypeDef USBD_LL_DataOutStage(USBD_HandleTypeDef *pdev,
                                        uint8_t epnum, uint8_t *pdata)
{
 80061f8:	b580      	push	{r7, lr}
 80061fa:	b086      	sub	sp, #24
 80061fc:	af00      	add	r7, sp, #0
 80061fe:	60f8      	str	r0, [r7, #12]
 8006200:	460b      	mov	r3, r1
 8006202:	607a      	str	r2, [r7, #4]
 8006204:	72fb      	strb	r3, [r7, #11]
  USBD_EndpointTypeDef *pep;

  if (epnum == 0U)
 8006206:	7afb      	ldrb	r3, [r7, #11]
 8006208:	2b00      	cmp	r3, #0
 800620a:	d14b      	bne.n	80062a4 <USBD_LL_DataOutStage+0xac>
  {
    pep = &pdev->ep_out[0];
 800620c:	68fb      	ldr	r3, [r7, #12]
 800620e:	f503 73aa 	add.w	r3, r3, #340	@ 0x154
 8006212:	617b      	str	r3, [r7, #20]

    if (pdev->ep0_state == USBD_EP0_DATA_OUT)
 8006214:	68fb      	ldr	r3, [r7, #12]
 8006216:	f8d3 3294 	ldr.w	r3, [r3, #660]	@ 0x294
 800621a:	2b03      	cmp	r3, #3
 800621c:	d134      	bne.n	8006288 <USBD_LL_DataOutStage+0x90>
    {
      if (pep->rem_length > pep->maxpacket)
 800621e:	697b      	ldr	r3, [r7, #20]
 8006220:	68da      	ldr	r2, [r3, #12]
 8006222:	697b      	ldr	r3, [r7, #20]
 8006224:	691b      	ldr	r3, [r3, #16]
 8006226:	429a      	cmp	r2, r3
 8006228:	d919      	bls.n	800625e <USBD_LL_DataOutStage+0x66>
      {
        pep->rem_length -= pep->maxpacket;
 800622a:	697b      	ldr	r3, [r7, #20]
 800622c:	68da      	ldr	r2, [r3, #12]
 800622e:	697b      	ldr	r3, [r7, #20]
 8006230:	691b      	ldr	r3, [r3, #16]
 8006232:	1ad2      	subs	r2, r2, r3
 8006234:	697b      	ldr	r3, [r7, #20]
 8006236:	60da      	str	r2, [r3, #12]

        USBD_CtlContinueRx(pdev, pdata,
                           (uint16_t)MIN(pep->rem_length, pep->maxpacket));
 8006238:	697b      	ldr	r3, [r7, #20]
 800623a:	68da      	ldr	r2, [r3, #12]
 800623c:	697b      	ldr	r3, [r7, #20]
 800623e:	691b      	ldr	r3, [r3, #16]
        USBD_CtlContinueRx(pdev, pdata,
 8006240:	429a      	cmp	r2, r3
 8006242:	d203      	bcs.n	800624c <USBD_LL_DataOutStage+0x54>
                           (uint16_t)MIN(pep->rem_length, pep->maxpacket));
 8006244:	697b      	ldr	r3, [r7, #20]
 8006246:	68db      	ldr	r3, [r3, #12]
        USBD_CtlContinueRx(pdev, pdata,
 8006248:	b29b      	uxth	r3, r3
 800624a:	e002      	b.n	8006252 <USBD_LL_DataOutStage+0x5a>
                           (uint16_t)MIN(pep->rem_length, pep->maxpacket));
 800624c:	697b      	ldr	r3, [r7, #20]
 800624e:	691b      	ldr	r3, [r3, #16]
        USBD_CtlContinueRx(pdev, pdata,
 8006250:	b29b      	uxth	r3, r3
 8006252:	461a      	mov	r2, r3
 8006254:	6879      	ldr	r1, [r7, #4]
 8006256:	68f8      	ldr	r0, [r7, #12]
 8006258:	f001 f8ce 	bl	80073f8 <USBD_CtlContinueRx>
 800625c:	e038      	b.n	80062d0 <USBD_LL_DataOutStage+0xd8>
      }
      else
      {
        if ((pdev->pClass->EP0_RxReady != NULL) &&
 800625e:	68fb      	ldr	r3, [r7, #12]
 8006260:	f8d3 32b4 	ldr.w	r3, [r3, #692]	@ 0x2b4
 8006264:	691b      	ldr	r3, [r3, #16]
 8006266:	2b00      	cmp	r3, #0
 8006268:	d00a      	beq.n	8006280 <USBD_LL_DataOutStage+0x88>
            (pdev->dev_state == USBD_STATE_CONFIGURED))
 800626a:	68fb      	ldr	r3, [r7, #12]
 800626c:	f893 329c 	ldrb.w	r3, [r3, #668]	@ 0x29c
        if ((pdev->pClass->EP0_RxReady != NULL) &&
 8006270:	2b03      	cmp	r3, #3
 8006272:	d105      	bne.n	8006280 <USBD_LL_DataOutStage+0x88>
        {
          pdev->pClass->EP0_RxReady(pdev);
 8006274:	68fb      	ldr	r3, [r7, #12]
 8006276:	f8d3 32b4 	ldr.w	r3, [r3, #692]	@ 0x2b4
 800627a:	691b      	ldr	r3, [r3, #16]
 800627c:	68f8      	ldr	r0, [r7, #12]
 800627e:	4798      	blx	r3
        }
        USBD_CtlSendStatus(pdev);
 8006280:	68f8      	ldr	r0, [r7, #12]
 8006282:	f001 f8cb 	bl	800741c <USBD_CtlSendStatus>
 8006286:	e023      	b.n	80062d0 <USBD_LL_DataOutStage+0xd8>
      }
    }
    else
    {
      if (pdev->ep0_state == USBD_EP0_STATUS_OUT)
 8006288:	68fb      	ldr	r3, [r7, #12]
 800628a:	f8d3 3294 	ldr.w	r3, [r3, #660]	@ 0x294
 800628e:	2b05      	cmp	r3, #5
 8006290:	d11e      	bne.n	80062d0 <USBD_LL_DataOutStage+0xd8>
      {
        /*
         * STATUS PHASE completed, update ep0_state to idle
         */
        pdev->ep0_state = USBD_EP0_IDLE;
 8006292:	68fb      	ldr	r3, [r7, #12]
 8006294:	2200      	movs	r2, #0
 8006296:	f8c3 2294 	str.w	r2, [r3, #660]	@ 0x294
        USBD_LL_StallEP(pdev, 0U);
 800629a:	2100      	movs	r1, #0
 800629c:	68f8      	ldr	r0, [r7, #12]
 800629e:	f001 fb81 	bl	80079a4 <USBD_LL_StallEP>
 80062a2:	e015      	b.n	80062d0 <USBD_LL_DataOutStage+0xd8>
      }
    }
  }
  else if ((pdev->pClass->DataOut != NULL) &&
 80062a4:	68fb      	ldr	r3, [r7, #12]
 80062a6:	f8d3 32b4 	ldr.w	r3, [r3, #692]	@ 0x2b4
 80062aa:	699b      	ldr	r3, [r3, #24]
 80062ac:	2b00      	cmp	r3, #0
 80062ae:	d00d      	beq.n	80062cc <USBD_LL_DataOutStage+0xd4>
           (pdev->dev_state == USBD_STATE_CONFIGURED))
 80062b0:	68fb      	ldr	r3, [r7, #12]
 80062b2:	f893 329c 	ldrb.w	r3, [r3, #668]	@ 0x29c
  else if ((pdev->pClass->DataOut != NULL) &&
 80062b6:	2b03      	cmp	r3, #3
 80062b8:	d108      	bne.n	80062cc <USBD_LL_DataOutStage+0xd4>
  {
    pdev->pClass->DataOut(pdev, epnum);
 80062ba:	68fb      	ldr	r3, [r7, #12]
 80062bc:	f8d3 32b4 	ldr.w	r3, [r3, #692]	@ 0x2b4
 80062c0:	699b      	ldr	r3, [r3, #24]
 80062c2:	7afa      	ldrb	r2, [r7, #11]
 80062c4:	4611      	mov	r1, r2
 80062c6:	68f8      	ldr	r0, [r7, #12]
 80062c8:	4798      	blx	r3
 80062ca:	e001      	b.n	80062d0 <USBD_LL_DataOutStage+0xd8>
  }
  else
  {
    /* should never be in this condition */
    return USBD_FAIL;
 80062cc:	2302      	movs	r3, #2
 80062ce:	e000      	b.n	80062d2 <USBD_LL_DataOutStage+0xda>
  }

  return USBD_OK;
 80062d0:	2300      	movs	r3, #0
}
 80062d2:	4618      	mov	r0, r3
 80062d4:	3718      	adds	r7, #24
 80062d6:	46bd      	mov	sp, r7
 80062d8:	bd80      	pop	{r7, pc}

080062da <USBD_LL_DataInStage>:
* @param  epnum: endpoint index
* @retval status
*/
USBD_StatusTypeDef USBD_LL_DataInStage(USBD_HandleTypeDef *pdev,
                                       uint8_t epnum, uint8_t *pdata)
{
 80062da:	b580      	push	{r7, lr}
 80062dc:	b086      	sub	sp, #24
 80062de:	af00      	add	r7, sp, #0
 80062e0:	60f8      	str	r0, [r7, #12]
 80062e2:	460b      	mov	r3, r1
 80062e4:	607a      	str	r2, [r7, #4]
 80062e6:	72fb      	strb	r3, [r7, #11]
  USBD_EndpointTypeDef *pep;

  if (epnum == 0U)
 80062e8:	7afb      	ldrb	r3, [r7, #11]
 80062ea:	2b00      	cmp	r3, #0
 80062ec:	d17f      	bne.n	80063ee <USBD_LL_DataInStage+0x114>
  {
    pep = &pdev->ep_in[0];
 80062ee:	68fb      	ldr	r3, [r7, #12]
 80062f0:	3314      	adds	r3, #20
 80062f2:	617b      	str	r3, [r7, #20]

    if (pdev->ep0_state == USBD_EP0_DATA_IN)
 80062f4:	68fb      	ldr	r3, [r7, #12]
 80062f6:	f8d3 3294 	ldr.w	r3, [r3, #660]	@ 0x294
 80062fa:	2b02      	cmp	r3, #2
 80062fc:	d15c      	bne.n	80063b8 <USBD_LL_DataInStage+0xde>
    {
      if (pep->rem_length > pep->maxpacket)
 80062fe:	697b      	ldr	r3, [r7, #20]
 8006300:	68da      	ldr	r2, [r3, #12]
 8006302:	697b      	ldr	r3, [r7, #20]
 8006304:	691b      	ldr	r3, [r3, #16]
 8006306:	429a      	cmp	r2, r3
 8006308:	d915      	bls.n	8006336 <USBD_LL_DataInStage+0x5c>
      {
        pep->rem_length -= pep->maxpacket;
 800630a:	697b      	ldr	r3, [r7, #20]
 800630c:	68da      	ldr	r2, [r3, #12]
 800630e:	697b      	ldr	r3, [r7, #20]
 8006310:	691b      	ldr	r3, [r3, #16]
 8006312:	1ad2      	subs	r2, r2, r3
 8006314:	697b      	ldr	r3, [r7, #20]
 8006316:	60da      	str	r2, [r3, #12]

        USBD_CtlContinueSendData(pdev, pdata, (uint16_t)pep->rem_length);
 8006318:	697b      	ldr	r3, [r7, #20]
 800631a:	68db      	ldr	r3, [r3, #12]
 800631c:	b29b      	uxth	r3, r3
 800631e:	461a      	mov	r2, r3
 8006320:	6879      	ldr	r1, [r7, #4]
 8006322:	68f8      	ldr	r0, [r7, #12]
 8006324:	f001 f856 	bl	80073d4 <USBD_CtlContinueSendData>

        /* Prepare endpoint for premature end of transfer */
        USBD_LL_PrepareReceive(pdev, 0U, NULL, 0U);
 8006328:	2300      	movs	r3, #0
 800632a:	2200      	movs	r2, #0
 800632c:	2100      	movs	r1, #0
 800632e:	68f8      	ldr	r0, [r7, #12]
 8006330:	f001 fbe3 	bl	8007afa <USBD_LL_PrepareReceive>
 8006334:	e04e      	b.n	80063d4 <USBD_LL_DataInStage+0xfa>
      }
      else
      {
        /* last packet is MPS multiple, so send ZLP packet */
        if ((pep->total_length % pep->maxpacket == 0U) &&
 8006336:	697b      	ldr	r3, [r7, #20]
 8006338:	689b      	ldr	r3, [r3, #8]
 800633a:	697a      	ldr	r2, [r7, #20]
 800633c:	6912      	ldr	r2, [r2, #16]
 800633e:	fbb3 f1f2 	udiv	r1, r3, r2
 8006342:	fb01 f202 	mul.w	r2, r1, r2
 8006346:	1a9b      	subs	r3, r3, r2
 8006348:	2b00      	cmp	r3, #0
 800634a:	d11c      	bne.n	8006386 <USBD_LL_DataInStage+0xac>
            (pep->total_length >= pep->maxpacket) &&
 800634c:	697b      	ldr	r3, [r7, #20]
 800634e:	689a      	ldr	r2, [r3, #8]
 8006350:	697b      	ldr	r3, [r7, #20]
 8006352:	691b      	ldr	r3, [r3, #16]
        if ((pep->total_length % pep->maxpacket == 0U) &&
 8006354:	429a      	cmp	r2, r3
 8006356:	d316      	bcc.n	8006386 <USBD_LL_DataInStage+0xac>
            (pep->total_length < pdev->ep0_data_len))
 8006358:	697b      	ldr	r3, [r7, #20]
 800635a:	689a      	ldr	r2, [r3, #8]
 800635c:	68fb      	ldr	r3, [r7, #12]
 800635e:	f8d3 3298 	ldr.w	r3, [r3, #664]	@ 0x298
            (pep->total_length >= pep->maxpacket) &&
 8006362:	429a      	cmp	r2, r3
 8006364:	d20f      	bcs.n	8006386 <USBD_LL_DataInStage+0xac>
        {
          USBD_CtlContinueSendData(pdev, NULL, 0U);
 8006366:	2200      	movs	r2, #0
 8006368:	2100      	movs	r1, #0
 800636a:	68f8      	ldr	r0, [r7, #12]
 800636c:	f001 f832 	bl	80073d4 <USBD_CtlContinueSendData>
          pdev->ep0_data_len = 0U;
 8006370:	68fb      	ldr	r3, [r7, #12]
 8006372:	2200      	movs	r2, #0
 8006374:	f8c3 2298 	str.w	r2, [r3, #664]	@ 0x298

          /* Prepare endpoint for premature end of transfer */
          USBD_LL_PrepareReceive(pdev, 0U, NULL, 0U);
 8006378:	2300      	movs	r3, #0
 800637a:	2200      	movs	r2, #0
 800637c:	2100      	movs	r1, #0
 800637e:	68f8      	ldr	r0, [r7, #12]
 8006380:	f001 fbbb 	bl	8007afa <USBD_LL_PrepareReceive>
 8006384:	e026      	b.n	80063d4 <USBD_LL_DataInStage+0xfa>
        }
        else
        {
          if ((pdev->pClass->EP0_TxSent != NULL) &&
 8006386:	68fb      	ldr	r3, [r7, #12]
 8006388:	f8d3 32b4 	ldr.w	r3, [r3, #692]	@ 0x2b4
 800638c:	68db      	ldr	r3, [r3, #12]
 800638e:	2b00      	cmp	r3, #0
 8006390:	d00a      	beq.n	80063a8 <USBD_LL_DataInStage+0xce>
              (pdev->dev_state == USBD_STATE_CONFIGURED))
 8006392:	68fb      	ldr	r3, [r7, #12]
 8006394:	f893 329c 	ldrb.w	r3, [r3, #668]	@ 0x29c
          if ((pdev->pClass->EP0_TxSent != NULL) &&
 8006398:	2b03      	cmp	r3, #3
 800639a:	d105      	bne.n	80063a8 <USBD_LL_DataInStage+0xce>
          {
            pdev->pClass->EP0_TxSent(pdev);
 800639c:	68fb      	ldr	r3, [r7, #12]
 800639e:	f8d3 32b4 	ldr.w	r3, [r3, #692]	@ 0x2b4
 80063a2:	68db      	ldr	r3, [r3, #12]
 80063a4:	68f8      	ldr	r0, [r7, #12]
 80063a6:	4798      	blx	r3
          }
          USBD_LL_StallEP(pdev, 0x80U);
 80063a8:	2180      	movs	r1, #128	@ 0x80
 80063aa:	68f8      	ldr	r0, [r7, #12]
 80063ac:	f001 fafa 	bl	80079a4 <USBD_LL_StallEP>
          USBD_CtlReceiveStatus(pdev);
 80063b0:	68f8      	ldr	r0, [r7, #12]
 80063b2:	f001 f846 	bl	8007442 <USBD_CtlReceiveStatus>
 80063b6:	e00d      	b.n	80063d4 <USBD_LL_DataInStage+0xfa>
        }
      }
    }
    else
    {
      if ((pdev->ep0_state == USBD_EP0_STATUS_IN) ||
 80063b8:	68fb      	ldr	r3, [r7, #12]
 80063ba:	f8d3 3294 	ldr.w	r3, [r3, #660]	@ 0x294
 80063be:	2b04      	cmp	r3, #4
 80063c0:	d004      	beq.n	80063cc <USBD_LL_DataInStage+0xf2>
          (pdev->ep0_state == USBD_EP0_IDLE))
 80063c2:	68fb      	ldr	r3, [r7, #12]
 80063c4:	f8d3 3294 	ldr.w	r3, [r3, #660]	@ 0x294
      if ((pdev->ep0_state == USBD_EP0_STATUS_IN) ||
 80063c8:	2b00      	cmp	r3, #0
 80063ca:	d103      	bne.n	80063d4 <USBD_LL_DataInStage+0xfa>
      {
        USBD_LL_StallEP(pdev, 0x80U);
 80063cc:	2180      	movs	r1, #128	@ 0x80
 80063ce:	68f8      	ldr	r0, [r7, #12]
 80063d0:	f001 fae8 	bl	80079a4 <USBD_LL_StallEP>
      }
    }

    if (pdev->dev_test_mode == 1U)
 80063d4:	68fb      	ldr	r3, [r7, #12]
 80063d6:	f893 32a0 	ldrb.w	r3, [r3, #672]	@ 0x2a0
 80063da:	2b01      	cmp	r3, #1
 80063dc:	d11d      	bne.n	800641a <USBD_LL_DataInStage+0x140>
    {
      USBD_RunTestMode(pdev);
 80063de:	68f8      	ldr	r0, [r7, #12]
 80063e0:	f7ff fe81 	bl	80060e6 <USBD_RunTestMode>
      pdev->dev_test_mode = 0U;
 80063e4:	68fb      	ldr	r3, [r7, #12]
 80063e6:	2200      	movs	r2, #0
 80063e8:	f883 22a0 	strb.w	r2, [r3, #672]	@ 0x2a0
 80063ec:	e015      	b.n	800641a <USBD_LL_DataInStage+0x140>
    }
  }
  else if ((pdev->pClass->DataIn != NULL) &&
 80063ee:	68fb      	ldr	r3, [r7, #12]
 80063f0:	f8d3 32b4 	ldr.w	r3, [r3, #692]	@ 0x2b4
 80063f4:	695b      	ldr	r3, [r3, #20]
 80063f6:	2b00      	cmp	r3, #0
 80063f8:	d00d      	beq.n	8006416 <USBD_LL_DataInStage+0x13c>
           (pdev->dev_state == USBD_STATE_CONFIGURED))
 80063fa:	68fb      	ldr	r3, [r7, #12]
 80063fc:	f893 329c 	ldrb.w	r3, [r3, #668]	@ 0x29c
  else if ((pdev->pClass->DataIn != NULL) &&
 8006400:	2b03      	cmp	r3, #3
 8006402:	d108      	bne.n	8006416 <USBD_LL_DataInStage+0x13c>
  {
    pdev->pClass->DataIn(pdev, epnum);
 8006404:	68fb      	ldr	r3, [r7, #12]
 8006406:	f8d3 32b4 	ldr.w	r3, [r3, #692]	@ 0x2b4
 800640a:	695b      	ldr	r3, [r3, #20]
 800640c:	7afa      	ldrb	r2, [r7, #11]
 800640e:	4611      	mov	r1, r2
 8006410:	68f8      	ldr	r0, [r7, #12]
 8006412:	4798      	blx	r3
 8006414:	e001      	b.n	800641a <USBD_LL_DataInStage+0x140>
  }
  else
  {
    /* should never be in this condition */
    return USBD_FAIL;
 8006416:	2302      	movs	r3, #2
 8006418:	e000      	b.n	800641c <USBD_LL_DataInStage+0x142>
  }

  return USBD_OK;
 800641a:	2300      	movs	r3, #0
}
 800641c:	4618      	mov	r0, r3
 800641e:	3718      	adds	r7, #24
 8006420:	46bd      	mov	sp, r7
 8006422:	bd80      	pop	{r7, pc}

08006424 <USBD_LL_Reset>:
* @param  pdev: device instance
* @retval status
*/

USBD_StatusTypeDef USBD_LL_Reset(USBD_HandleTypeDef *pdev)
{
 8006424:	b580      	push	{r7, lr}
 8006426:	b082      	sub	sp, #8
 8006428:	af00      	add	r7, sp, #0
 800642a:	6078      	str	r0, [r7, #4]
  /* Open EP0 OUT */
  USBD_LL_OpenEP(pdev, 0x00U, USBD_EP_TYPE_CTRL, USB_MAX_EP0_SIZE);
 800642c:	2340      	movs	r3, #64	@ 0x40
 800642e:	2200      	movs	r2, #0
 8006430:	2100      	movs	r1, #0
 8006432:	6878      	ldr	r0, [r7, #4]
 8006434:	f001 fa71 	bl	800791a <USBD_LL_OpenEP>
  pdev->ep_out[0x00U & 0xFU].is_used = 1U;
 8006438:	687b      	ldr	r3, [r7, #4]
 800643a:	2201      	movs	r2, #1
 800643c:	f8c3 2158 	str.w	r2, [r3, #344]	@ 0x158

  pdev->ep_out[0].maxpacket = USB_MAX_EP0_SIZE;
 8006440:	687b      	ldr	r3, [r7, #4]
 8006442:	2240      	movs	r2, #64	@ 0x40
 8006444:	f8c3 2164 	str.w	r2, [r3, #356]	@ 0x164

  /* Open EP0 IN */
  USBD_LL_OpenEP(pdev, 0x80U, USBD_EP_TYPE_CTRL, USB_MAX_EP0_SIZE);
 8006448:	2340      	movs	r3, #64	@ 0x40
 800644a:	2200      	movs	r2, #0
 800644c:	2180      	movs	r1, #128	@ 0x80
 800644e:	6878      	ldr	r0, [r7, #4]
 8006450:	f001 fa63 	bl	800791a <USBD_LL_OpenEP>
  pdev->ep_in[0x80U & 0xFU].is_used = 1U;
 8006454:	687b      	ldr	r3, [r7, #4]
 8006456:	2201      	movs	r2, #1
 8006458:	619a      	str	r2, [r3, #24]

  pdev->ep_in[0].maxpacket = USB_MAX_EP0_SIZE;
 800645a:	687b      	ldr	r3, [r7, #4]
 800645c:	2240      	movs	r2, #64	@ 0x40
 800645e:	625a      	str	r2, [r3, #36]	@ 0x24

  /* Upon Reset call user call back */
  pdev->dev_state = USBD_STATE_DEFAULT;
 8006460:	687b      	ldr	r3, [r7, #4]
 8006462:	2201      	movs	r2, #1
 8006464:	f883 229c 	strb.w	r2, [r3, #668]	@ 0x29c
  pdev->ep0_state = USBD_EP0_IDLE;
 8006468:	687b      	ldr	r3, [r7, #4]
 800646a:	2200      	movs	r2, #0
 800646c:	f8c3 2294 	str.w	r2, [r3, #660]	@ 0x294
  pdev->dev_config = 0U;
 8006470:	687b      	ldr	r3, [r7, #4]
 8006472:	2200      	movs	r2, #0
 8006474:	605a      	str	r2, [r3, #4]
  pdev->dev_remote_wakeup = 0U;
 8006476:	687b      	ldr	r3, [r7, #4]
 8006478:	2200      	movs	r2, #0
 800647a:	f8c3 22a4 	str.w	r2, [r3, #676]	@ 0x2a4

  if (pdev->pClassData)
 800647e:	687b      	ldr	r3, [r7, #4]
 8006480:	f8d3 32b8 	ldr.w	r3, [r3, #696]	@ 0x2b8
 8006484:	2b00      	cmp	r3, #0
 8006486:	d009      	beq.n	800649c <USBD_LL_Reset+0x78>
  {
    pdev->pClass->DeInit(pdev, (uint8_t)pdev->dev_config);
 8006488:	687b      	ldr	r3, [r7, #4]
 800648a:	f8d3 32b4 	ldr.w	r3, [r3, #692]	@ 0x2b4
 800648e:	685b      	ldr	r3, [r3, #4]
 8006490:	687a      	ldr	r2, [r7, #4]
 8006492:	6852      	ldr	r2, [r2, #4]
 8006494:	b2d2      	uxtb	r2, r2
 8006496:	4611      	mov	r1, r2
 8006498:	6878      	ldr	r0, [r7, #4]
 800649a:	4798      	blx	r3
  }

  return USBD_OK;
 800649c:	2300      	movs	r3, #0
}
 800649e:	4618      	mov	r0, r3
 80064a0:	3708      	adds	r7, #8
 80064a2:	46bd      	mov	sp, r7
 80064a4:	bd80      	pop	{r7, pc}

080064a6 <USBD_LL_SetSpeed>:
* @param  pdev: device instance
* @retval status
*/
USBD_StatusTypeDef USBD_LL_SetSpeed(USBD_HandleTypeDef *pdev,
                                    USBD_SpeedTypeDef speed)
{
 80064a6:	b480      	push	{r7}
 80064a8:	b083      	sub	sp, #12
 80064aa:	af00      	add	r7, sp, #0
 80064ac:	6078      	str	r0, [r7, #4]
 80064ae:	460b      	mov	r3, r1
 80064b0:	70fb      	strb	r3, [r7, #3]
  pdev->dev_speed = speed;
 80064b2:	687b      	ldr	r3, [r7, #4]
 80064b4:	78fa      	ldrb	r2, [r7, #3]
 80064b6:	741a      	strb	r2, [r3, #16]

  return USBD_OK;
 80064b8:	2300      	movs	r3, #0
}
 80064ba:	4618      	mov	r0, r3
 80064bc:	370c      	adds	r7, #12
 80064be:	46bd      	mov	sp, r7
 80064c0:	bc80      	pop	{r7}
 80064c2:	4770      	bx	lr

080064c4 <USBD_LL_Suspend>:
* @param  pdev: device instance
* @retval status
*/

USBD_StatusTypeDef USBD_LL_Suspend(USBD_HandleTypeDef *pdev)
{
 80064c4:	b480      	push	{r7}
 80064c6:	b083      	sub	sp, #12
 80064c8:	af00      	add	r7, sp, #0
 80064ca:	6078      	str	r0, [r7, #4]
  pdev->dev_old_state =  pdev->dev_state;
 80064cc:	687b      	ldr	r3, [r7, #4]
 80064ce:	f893 229c 	ldrb.w	r2, [r3, #668]	@ 0x29c
 80064d2:	687b      	ldr	r3, [r7, #4]
 80064d4:	f883 229d 	strb.w	r2, [r3, #669]	@ 0x29d
  pdev->dev_state  = USBD_STATE_SUSPENDED;
 80064d8:	687b      	ldr	r3, [r7, #4]
 80064da:	2204      	movs	r2, #4
 80064dc:	f883 229c 	strb.w	r2, [r3, #668]	@ 0x29c

  return USBD_OK;
 80064e0:	2300      	movs	r3, #0
}
 80064e2:	4618      	mov	r0, r3
 80064e4:	370c      	adds	r7, #12
 80064e6:	46bd      	mov	sp, r7
 80064e8:	bc80      	pop	{r7}
 80064ea:	4770      	bx	lr

080064ec <USBD_LL_Resume>:
* @param  pdev: device instance
* @retval status
*/

USBD_StatusTypeDef USBD_LL_Resume(USBD_HandleTypeDef *pdev)
{
 80064ec:	b480      	push	{r7}
 80064ee:	b083      	sub	sp, #12
 80064f0:	af00      	add	r7, sp, #0
 80064f2:	6078      	str	r0, [r7, #4]
  if (pdev->dev_state == USBD_STATE_SUSPENDED)
 80064f4:	687b      	ldr	r3, [r7, #4]
 80064f6:	f893 329c 	ldrb.w	r3, [r3, #668]	@ 0x29c
 80064fa:	2b04      	cmp	r3, #4
 80064fc:	d105      	bne.n	800650a <USBD_LL_Resume+0x1e>
  {
    pdev->dev_state = pdev->dev_old_state;
 80064fe:	687b      	ldr	r3, [r7, #4]
 8006500:	f893 229d 	ldrb.w	r2, [r3, #669]	@ 0x29d
 8006504:	687b      	ldr	r3, [r7, #4]
 8006506:	f883 229c 	strb.w	r2, [r3, #668]	@ 0x29c
  }

  return USBD_OK;
 800650a:	2300      	movs	r3, #0
}
 800650c:	4618      	mov	r0, r3
 800650e:	370c      	adds	r7, #12
 8006510:	46bd      	mov	sp, r7
 8006512:	bc80      	pop	{r7}
 8006514:	4770      	bx	lr

08006516 <USBD_LL_SOF>:
* @param  pdev: device instance
* @retval status
*/

USBD_StatusTypeDef USBD_LL_SOF(USBD_HandleTypeDef *pdev)
{
 8006516:	b580      	push	{r7, lr}
 8006518:	b082      	sub	sp, #8
 800651a:	af00      	add	r7, sp, #0
 800651c:	6078      	str	r0, [r7, #4]
  if (pdev->dev_state == USBD_STATE_CONFIGURED)
 800651e:	687b      	ldr	r3, [r7, #4]
 8006520:	f893 329c 	ldrb.w	r3, [r3, #668]	@ 0x29c
 8006524:	2b03      	cmp	r3, #3
 8006526:	d10b      	bne.n	8006540 <USBD_LL_SOF+0x2a>
  {
    if (pdev->pClass->SOF != NULL)
 8006528:	687b      	ldr	r3, [r7, #4]
 800652a:	f8d3 32b4 	ldr.w	r3, [r3, #692]	@ 0x2b4
 800652e:	69db      	ldr	r3, [r3, #28]
 8006530:	2b00      	cmp	r3, #0
 8006532:	d005      	beq.n	8006540 <USBD_LL_SOF+0x2a>
    {
      pdev->pClass->SOF(pdev);
 8006534:	687b      	ldr	r3, [r7, #4]
 8006536:	f8d3 32b4 	ldr.w	r3, [r3, #692]	@ 0x2b4
 800653a:	69db      	ldr	r3, [r3, #28]
 800653c:	6878      	ldr	r0, [r7, #4]
 800653e:	4798      	blx	r3
    }
  }

  return USBD_OK;
 8006540:	2300      	movs	r3, #0
}
 8006542:	4618      	mov	r0, r3
 8006544:	3708      	adds	r7, #8
 8006546:	46bd      	mov	sp, r7
 8006548:	bd80      	pop	{r7, pc}
	...

0800654c <USBD_StdDevReq>:
* @param  req: usb request
* @retval status
*/
USBD_StatusTypeDef  USBD_StdDevReq(USBD_HandleTypeDef *pdev,
                                   USBD_SetupReqTypedef *req)
{
 800654c:	b580      	push	{r7, lr}
 800654e:	b084      	sub	sp, #16
 8006550:	af00      	add	r7, sp, #0
 8006552:	6078      	str	r0, [r7, #4]
 8006554:	6039      	str	r1, [r7, #0]
  USBD_StatusTypeDef ret = USBD_OK;
 8006556:	2300      	movs	r3, #0
 8006558:	73fb      	strb	r3, [r7, #15]

  switch (req->bmRequest & USB_REQ_TYPE_MASK)
 800655a:	683b      	ldr	r3, [r7, #0]
 800655c:	781b      	ldrb	r3, [r3, #0]
 800655e:	f003 0360 	and.w	r3, r3, #96	@ 0x60
 8006562:	2b40      	cmp	r3, #64	@ 0x40
 8006564:	d005      	beq.n	8006572 <USBD_StdDevReq+0x26>
 8006566:	2b40      	cmp	r3, #64	@ 0x40
 8006568:	d84f      	bhi.n	800660a <USBD_StdDevReq+0xbe>
 800656a:	2b00      	cmp	r3, #0
 800656c:	d009      	beq.n	8006582 <USBD_StdDevReq+0x36>
 800656e:	2b20      	cmp	r3, #32
 8006570:	d14b      	bne.n	800660a <USBD_StdDevReq+0xbe>
  {
    case USB_REQ_TYPE_CLASS:
    case USB_REQ_TYPE_VENDOR:
      pdev->pClass->Setup(pdev, req);
 8006572:	687b      	ldr	r3, [r7, #4]
 8006574:	f8d3 32b4 	ldr.w	r3, [r3, #692]	@ 0x2b4
 8006578:	689b      	ldr	r3, [r3, #8]
 800657a:	6839      	ldr	r1, [r7, #0]
 800657c:	6878      	ldr	r0, [r7, #4]
 800657e:	4798      	blx	r3
      break;
 8006580:	e048      	b.n	8006614 <USBD_StdDevReq+0xc8>

    case USB_REQ_TYPE_STANDARD:
      switch (req->bRequest)
 8006582:	683b      	ldr	r3, [r7, #0]
 8006584:	785b      	ldrb	r3, [r3, #1]
 8006586:	2b09      	cmp	r3, #9
 8006588:	d839      	bhi.n	80065fe <USBD_StdDevReq+0xb2>
 800658a:	a201      	add	r2, pc, #4	@ (adr r2, 8006590 <USBD_StdDevReq+0x44>)
 800658c:	f852 f023 	ldr.w	pc, [r2, r3, lsl #2]
 8006590:	080065e1 	.word	0x080065e1
 8006594:	080065f5 	.word	0x080065f5
 8006598:	080065ff 	.word	0x080065ff
 800659c:	080065eb 	.word	0x080065eb
 80065a0:	080065ff 	.word	0x080065ff
 80065a4:	080065c3 	.word	0x080065c3
 80065a8:	080065b9 	.word	0x080065b9
 80065ac:	080065ff 	.word	0x080065ff
 80065b0:	080065d7 	.word	0x080065d7
 80065b4:	080065cd 	.word	0x080065cd
      {
        case USB_REQ_GET_DESCRIPTOR:
          USBD_GetDescriptor(pdev, req);
 80065b8:	6839      	ldr	r1, [r7, #0]
 80065ba:	6878      	ldr	r0, [r7, #4]
 80065bc:	f000 f9dc 	bl	8006978 <USBD_GetDescriptor>
          break;
 80065c0:	e022      	b.n	8006608 <USBD_StdDevReq+0xbc>

        case USB_REQ_SET_ADDRESS:
          USBD_SetAddress(pdev, req);
 80065c2:	6839      	ldr	r1, [r7, #0]
 80065c4:	6878      	ldr	r0, [r7, #4]
 80065c6:	f000 fb3f 	bl	8006c48 <USBD_SetAddress>
          break;
 80065ca:	e01d      	b.n	8006608 <USBD_StdDevReq+0xbc>

        case USB_REQ_SET_CONFIGURATION:
          USBD_SetConfig(pdev, req);
 80065cc:	6839      	ldr	r1, [r7, #0]
 80065ce:	6878      	ldr	r0, [r7, #4]
 80065d0:	f000 fb7e 	bl	8006cd0 <USBD_SetConfig>
          break;
 80065d4:	e018      	b.n	8006608 <USBD_StdDevReq+0xbc>

        case USB_REQ_GET_CONFIGURATION:
          USBD_GetConfig(pdev, req);
 80065d6:	6839      	ldr	r1, [r7, #0]
 80065d8:	6878      	ldr	r0, [r7, #4]
 80065da:	f000 fc07 	bl	8006dec <USBD_GetConfig>
          break;
 80065de:	e013      	b.n	8006608 <USBD_StdDevReq+0xbc>

        case USB_REQ_GET_STATUS:
          USBD_GetStatus(pdev, req);
 80065e0:	6839      	ldr	r1, [r7, #0]
 80065e2:	6878      	ldr	r0, [r7, #4]
 80065e4:	f000 fc37 	bl	8006e56 <USBD_GetStatus>
          break;
 80065e8:	e00e      	b.n	8006608 <USBD_StdDevReq+0xbc>

        case USB_REQ_SET_FEATURE:
          USBD_SetFeature(pdev, req);
 80065ea:	6839      	ldr	r1, [r7, #0]
 80065ec:	6878      	ldr	r0, [r7, #4]
 80065ee:	f000 fc65 	bl	8006ebc <USBD_SetFeature>
          break;
 80065f2:	e009      	b.n	8006608 <USBD_StdDevReq+0xbc>

        case USB_REQ_CLEAR_FEATURE:
          USBD_ClrFeature(pdev, req);
 80065f4:	6839      	ldr	r1, [r7, #0]
 80065f6:	6878      	ldr	r0, [r7, #4]
 80065f8:	f000 fc74 	bl	8006ee4 <USBD_ClrFeature>
          break;
 80065fc:	e004      	b.n	8006608 <USBD_StdDevReq+0xbc>

        default:
          USBD_CtlError(pdev, req);
 80065fe:	6839      	ldr	r1, [r7, #0]
 8006600:	6878      	ldr	r0, [r7, #4]
 8006602:	f000 fcc9 	bl	8006f98 <USBD_CtlError>
          break;
 8006606:	bf00      	nop
      }
      break;
 8006608:	e004      	b.n	8006614 <USBD_StdDevReq+0xc8>

    default:
      USBD_CtlError(pdev, req);
 800660a:	6839      	ldr	r1, [r7, #0]
 800660c:	6878      	ldr	r0, [r7, #4]
 800660e:	f000 fcc3 	bl	8006f98 <USBD_CtlError>
      break;
 8006612:	bf00      	nop
  }

  return ret;
 8006614:	7bfb      	ldrb	r3, [r7, #15]
}
 8006616:	4618      	mov	r0, r3
 8006618:	3710      	adds	r7, #16
 800661a:	46bd      	mov	sp, r7
 800661c:	bd80      	pop	{r7, pc}
 800661e:	bf00      	nop

08006620 <USBD_StdItfReq>:
* @param  req: usb request
* @retval status
*/
USBD_StatusTypeDef  USBD_StdItfReq(USBD_HandleTypeDef *pdev,
                                   USBD_SetupReqTypedef  *req)
{
 8006620:	b580      	push	{r7, lr}
 8006622:	b084      	sub	sp, #16
 8006624:	af00      	add	r7, sp, #0
 8006626:	6078      	str	r0, [r7, #4]
 8006628:	6039      	str	r1, [r7, #0]
  USBD_StatusTypeDef ret = USBD_OK;
 800662a:	2300      	movs	r3, #0
 800662c:	73fb      	strb	r3, [r7, #15]

  switch (req->bmRequest & USB_REQ_TYPE_MASK)
 800662e:	683b      	ldr	r3, [r7, #0]
 8006630:	781b      	ldrb	r3, [r3, #0]
 8006632:	f003 0360 	and.w	r3, r3, #96	@ 0x60
 8006636:	2b40      	cmp	r3, #64	@ 0x40
 8006638:	d005      	beq.n	8006646 <USBD_StdItfReq+0x26>
 800663a:	2b40      	cmp	r3, #64	@ 0x40
 800663c:	d82e      	bhi.n	800669c <USBD_StdItfReq+0x7c>
 800663e:	2b00      	cmp	r3, #0
 8006640:	d001      	beq.n	8006646 <USBD_StdItfReq+0x26>
 8006642:	2b20      	cmp	r3, #32
 8006644:	d12a      	bne.n	800669c <USBD_StdItfReq+0x7c>
  {
    case USB_REQ_TYPE_CLASS:
    case USB_REQ_TYPE_VENDOR:
    case USB_REQ_TYPE_STANDARD:
      switch (pdev->dev_state)
 8006646:	687b      	ldr	r3, [r7, #4]
 8006648:	f893 329c 	ldrb.w	r3, [r3, #668]	@ 0x29c
 800664c:	3b01      	subs	r3, #1
 800664e:	2b02      	cmp	r3, #2
 8006650:	d81d      	bhi.n	800668e <USBD_StdItfReq+0x6e>
      {
        case USBD_STATE_DEFAULT:
        case USBD_STATE_ADDRESSED:
        case USBD_STATE_CONFIGURED:

          if (LOBYTE(req->wIndex) <= USBD_MAX_NUM_INTERFACES)
 8006652:	683b      	ldr	r3, [r7, #0]
 8006654:	889b      	ldrh	r3, [r3, #4]
 8006656:	b2db      	uxtb	r3, r3
 8006658:	2b01      	cmp	r3, #1
 800665a:	d813      	bhi.n	8006684 <USBD_StdItfReq+0x64>
          {
            ret = (USBD_StatusTypeDef)pdev->pClass->Setup(pdev, req);
 800665c:	687b      	ldr	r3, [r7, #4]
 800665e:	f8d3 32b4 	ldr.w	r3, [r3, #692]	@ 0x2b4
 8006662:	689b      	ldr	r3, [r3, #8]
 8006664:	6839      	ldr	r1, [r7, #0]
 8006666:	6878      	ldr	r0, [r7, #4]
 8006668:	4798      	blx	r3
 800666a:	4603      	mov	r3, r0
 800666c:	73fb      	strb	r3, [r7, #15]

            if ((req->wLength == 0U) && (ret == USBD_OK))
 800666e:	683b      	ldr	r3, [r7, #0]
 8006670:	88db      	ldrh	r3, [r3, #6]
 8006672:	2b00      	cmp	r3, #0
 8006674:	d110      	bne.n	8006698 <USBD_StdItfReq+0x78>
 8006676:	7bfb      	ldrb	r3, [r7, #15]
 8006678:	2b00      	cmp	r3, #0
 800667a:	d10d      	bne.n	8006698 <USBD_StdItfReq+0x78>
            {
              USBD_CtlSendStatus(pdev);
 800667c:	6878      	ldr	r0, [r7, #4]
 800667e:	f000 fecd 	bl	800741c <USBD_CtlSendStatus>
          }
          else
          {
            USBD_CtlError(pdev, req);
          }
          break;
 8006682:	e009      	b.n	8006698 <USBD_StdItfReq+0x78>
            USBD_CtlError(pdev, req);
 8006684:	6839      	ldr	r1, [r7, #0]
 8006686:	6878      	ldr	r0, [r7, #4]
 8006688:	f000 fc86 	bl	8006f98 <USBD_CtlError>
          break;
 800668c:	e004      	b.n	8006698 <USBD_StdItfReq+0x78>

        default:
          USBD_CtlError(pdev, req);
 800668e:	6839      	ldr	r1, [r7, #0]
 8006690:	6878      	ldr	r0, [r7, #4]
 8006692:	f000 fc81 	bl	8006f98 <USBD_CtlError>
          break;
 8006696:	e000      	b.n	800669a <USBD_StdItfReq+0x7a>
          break;
 8006698:	bf00      	nop
      }
      break;
 800669a:	e004      	b.n	80066a6 <USBD_StdItfReq+0x86>

    default:
      USBD_CtlError(pdev, req);
 800669c:	6839      	ldr	r1, [r7, #0]
 800669e:	6878      	ldr	r0, [r7, #4]
 80066a0:	f000 fc7a 	bl	8006f98 <USBD_CtlError>
      break;
 80066a4:	bf00      	nop
  }

  return USBD_OK;
 80066a6:	2300      	movs	r3, #0
}
 80066a8:	4618      	mov	r0, r3
 80066aa:	3710      	adds	r7, #16
 80066ac:	46bd      	mov	sp, r7
 80066ae:	bd80      	pop	{r7, pc}

080066b0 <USBD_StdEPReq>:
* @param  req: usb request
* @retval status
*/
USBD_StatusTypeDef  USBD_StdEPReq(USBD_HandleTypeDef *pdev,
                                  USBD_SetupReqTypedef  *req)
{
 80066b0:	b580      	push	{r7, lr}
 80066b2:	b084      	sub	sp, #16
 80066b4:	af00      	add	r7, sp, #0
 80066b6:	6078      	str	r0, [r7, #4]
 80066b8:	6039      	str	r1, [r7, #0]
  USBD_EndpointTypeDef *pep;
  uint8_t   ep_addr;
  USBD_StatusTypeDef ret = USBD_OK;
 80066ba:	2300      	movs	r3, #0
 80066bc:	73fb      	strb	r3, [r7, #15]
  ep_addr  = LOBYTE(req->wIndex);
 80066be:	683b      	ldr	r3, [r7, #0]
 80066c0:	889b      	ldrh	r3, [r3, #4]
 80066c2:	73bb      	strb	r3, [r7, #14]

  switch (req->bmRequest & USB_REQ_TYPE_MASK)
 80066c4:	683b      	ldr	r3, [r7, #0]
 80066c6:	781b      	ldrb	r3, [r3, #0]
 80066c8:	f003 0360 	and.w	r3, r3, #96	@ 0x60
 80066cc:	2b40      	cmp	r3, #64	@ 0x40
 80066ce:	d007      	beq.n	80066e0 <USBD_StdEPReq+0x30>
 80066d0:	2b40      	cmp	r3, #64	@ 0x40
 80066d2:	f200 8146 	bhi.w	8006962 <USBD_StdEPReq+0x2b2>
 80066d6:	2b00      	cmp	r3, #0
 80066d8:	d00a      	beq.n	80066f0 <USBD_StdEPReq+0x40>
 80066da:	2b20      	cmp	r3, #32
 80066dc:	f040 8141 	bne.w	8006962 <USBD_StdEPReq+0x2b2>
  {
    case USB_REQ_TYPE_CLASS:
    case USB_REQ_TYPE_VENDOR:
      pdev->pClass->Setup(pdev, req);
 80066e0:	687b      	ldr	r3, [r7, #4]
 80066e2:	f8d3 32b4 	ldr.w	r3, [r3, #692]	@ 0x2b4
 80066e6:	689b      	ldr	r3, [r3, #8]
 80066e8:	6839      	ldr	r1, [r7, #0]
 80066ea:	6878      	ldr	r0, [r7, #4]
 80066ec:	4798      	blx	r3
      break;
 80066ee:	e13d      	b.n	800696c <USBD_StdEPReq+0x2bc>

    case USB_REQ_TYPE_STANDARD:
      /* Check if it is a class request */
      if ((req->bmRequest & 0x60U) == 0x20U)
 80066f0:	683b      	ldr	r3, [r7, #0]
 80066f2:	781b      	ldrb	r3, [r3, #0]
 80066f4:	f003 0360 	and.w	r3, r3, #96	@ 0x60
 80066f8:	2b20      	cmp	r3, #32
 80066fa:	d10a      	bne.n	8006712 <USBD_StdEPReq+0x62>
      {
        ret = (USBD_StatusTypeDef)pdev->pClass->Setup(pdev, req);
 80066fc:	687b      	ldr	r3, [r7, #4]
 80066fe:	f8d3 32b4 	ldr.w	r3, [r3, #692]	@ 0x2b4
 8006702:	689b      	ldr	r3, [r3, #8]
 8006704:	6839      	ldr	r1, [r7, #0]
 8006706:	6878      	ldr	r0, [r7, #4]
 8006708:	4798      	blx	r3
 800670a:	4603      	mov	r3, r0
 800670c:	73fb      	strb	r3, [r7, #15]

        return ret;
 800670e:	7bfb      	ldrb	r3, [r7, #15]
 8006710:	e12d      	b.n	800696e <USBD_StdEPReq+0x2be>
      }

      switch (req->bRequest)
 8006712:	683b      	ldr	r3, [r7, #0]
 8006714:	785b      	ldrb	r3, [r3, #1]
 8006716:	2b03      	cmp	r3, #3
 8006718:	d007      	beq.n	800672a <USBD_StdEPReq+0x7a>
 800671a:	2b03      	cmp	r3, #3
 800671c:	f300 811b 	bgt.w	8006956 <USBD_StdEPReq+0x2a6>
 8006720:	2b00      	cmp	r3, #0
 8006722:	d072      	beq.n	800680a <USBD_StdEPReq+0x15a>
 8006724:	2b01      	cmp	r3, #1
 8006726:	d03a      	beq.n	800679e <USBD_StdEPReq+0xee>
 8006728:	e115      	b.n	8006956 <USBD_StdEPReq+0x2a6>
      {
        case USB_REQ_SET_FEATURE:
          switch (pdev->dev_state)
 800672a:	687b      	ldr	r3, [r7, #4]
 800672c:	f893 329c 	ldrb.w	r3, [r3, #668]	@ 0x29c
 8006730:	2b02      	cmp	r3, #2
 8006732:	d002      	beq.n	800673a <USBD_StdEPReq+0x8a>
 8006734:	2b03      	cmp	r3, #3
 8006736:	d015      	beq.n	8006764 <USBD_StdEPReq+0xb4>
 8006738:	e02b      	b.n	8006792 <USBD_StdEPReq+0xe2>
          {
            case USBD_STATE_ADDRESSED:
              if ((ep_addr != 0x00U) && (ep_addr != 0x80U))
 800673a:	7bbb      	ldrb	r3, [r7, #14]
 800673c:	2b00      	cmp	r3, #0
 800673e:	d00c      	beq.n	800675a <USBD_StdEPReq+0xaa>
 8006740:	7bbb      	ldrb	r3, [r7, #14]
 8006742:	2b80      	cmp	r3, #128	@ 0x80
 8006744:	d009      	beq.n	800675a <USBD_StdEPReq+0xaa>
              {
                USBD_LL_StallEP(pdev, ep_addr);
 8006746:	7bbb      	ldrb	r3, [r7, #14]
 8006748:	4619      	mov	r1, r3
 800674a:	6878      	ldr	r0, [r7, #4]
 800674c:	f001 f92a 	bl	80079a4 <USBD_LL_StallEP>
                USBD_LL_StallEP(pdev, 0x80U);
 8006750:	2180      	movs	r1, #128	@ 0x80
 8006752:	6878      	ldr	r0, [r7, #4]
 8006754:	f001 f926 	bl	80079a4 <USBD_LL_StallEP>
              }
              else
              {
                USBD_CtlError(pdev, req);
              }
              break;
 8006758:	e020      	b.n	800679c <USBD_StdEPReq+0xec>
                USBD_CtlError(pdev, req);
 800675a:	6839      	ldr	r1, [r7, #0]
 800675c:	6878      	ldr	r0, [r7, #4]
 800675e:	f000 fc1b 	bl	8006f98 <USBD_CtlError>
              break;
 8006762:	e01b      	b.n	800679c <USBD_StdEPReq+0xec>

            case USBD_STATE_CONFIGURED:
              if (req->wValue == USB_FEATURE_EP_HALT)
 8006764:	683b      	ldr	r3, [r7, #0]
 8006766:	885b      	ldrh	r3, [r3, #2]
 8006768:	2b00      	cmp	r3, #0
 800676a:	d10e      	bne.n	800678a <USBD_StdEPReq+0xda>
              {
                if ((ep_addr != 0x00U) &&
 800676c:	7bbb      	ldrb	r3, [r7, #14]
 800676e:	2b00      	cmp	r3, #0
 8006770:	d00b      	beq.n	800678a <USBD_StdEPReq+0xda>
 8006772:	7bbb      	ldrb	r3, [r7, #14]
 8006774:	2b80      	cmp	r3, #128	@ 0x80
 8006776:	d008      	beq.n	800678a <USBD_StdEPReq+0xda>
                    (ep_addr != 0x80U) && (req->wLength == 0x00U))
 8006778:	683b      	ldr	r3, [r7, #0]
 800677a:	88db      	ldrh	r3, [r3, #6]
 800677c:	2b00      	cmp	r3, #0
 800677e:	d104      	bne.n	800678a <USBD_StdEPReq+0xda>
                {
                  USBD_LL_StallEP(pdev, ep_addr);
 8006780:	7bbb      	ldrb	r3, [r7, #14]
 8006782:	4619      	mov	r1, r3
 8006784:	6878      	ldr	r0, [r7, #4]
 8006786:	f001 f90d 	bl	80079a4 <USBD_LL_StallEP>
                }
              }
              USBD_CtlSendStatus(pdev);
 800678a:	6878      	ldr	r0, [r7, #4]
 800678c:	f000 fe46 	bl	800741c <USBD_CtlSendStatus>

              break;
 8006790:	e004      	b.n	800679c <USBD_StdEPReq+0xec>

            default:
              USBD_CtlError(pdev, req);
 8006792:	6839      	ldr	r1, [r7, #0]
 8006794:	6878      	ldr	r0, [r7, #4]
 8006796:	f000 fbff 	bl	8006f98 <USBD_CtlError>
              break;
 800679a:	bf00      	nop
          }
          break;
 800679c:	e0e0      	b.n	8006960 <USBD_StdEPReq+0x2b0>

        case USB_REQ_CLEAR_FEATURE:

          switch (pdev->dev_state)
 800679e:	687b      	ldr	r3, [r7, #4]
 80067a0:	f893 329c 	ldrb.w	r3, [r3, #668]	@ 0x29c
 80067a4:	2b02      	cmp	r3, #2
 80067a6:	d002      	beq.n	80067ae <USBD_StdEPReq+0xfe>
 80067a8:	2b03      	cmp	r3, #3
 80067aa:	d015      	beq.n	80067d8 <USBD_StdEPReq+0x128>
 80067ac:	e026      	b.n	80067fc <USBD_StdEPReq+0x14c>
          {
            case USBD_STATE_ADDRESSED:
              if ((ep_addr != 0x00U) && (ep_addr != 0x80U))
 80067ae:	7bbb      	ldrb	r3, [r7, #14]
 80067b0:	2b00      	cmp	r3, #0
 80067b2:	d00c      	beq.n	80067ce <USBD_StdEPReq+0x11e>
 80067b4:	7bbb      	ldrb	r3, [r7, #14]
 80067b6:	2b80      	cmp	r3, #128	@ 0x80
 80067b8:	d009      	beq.n	80067ce <USBD_StdEPReq+0x11e>
              {
                USBD_LL_StallEP(pdev, ep_addr);
 80067ba:	7bbb      	ldrb	r3, [r7, #14]
 80067bc:	4619      	mov	r1, r3
 80067be:	6878      	ldr	r0, [r7, #4]
 80067c0:	f001 f8f0 	bl	80079a4 <USBD_LL_StallEP>
                USBD_LL_StallEP(pdev, 0x80U);
 80067c4:	2180      	movs	r1, #128	@ 0x80
 80067c6:	6878      	ldr	r0, [r7, #4]
 80067c8:	f001 f8ec 	bl	80079a4 <USBD_LL_StallEP>
              }
              else
              {
                USBD_CtlError(pdev, req);
              }
              break;
 80067cc:	e01c      	b.n	8006808 <USBD_StdEPReq+0x158>
                USBD_CtlError(pdev, req);
 80067ce:	6839      	ldr	r1, [r7, #0]
 80067d0:	6878      	ldr	r0, [r7, #4]
 80067d2:	f000 fbe1 	bl	8006f98 <USBD_CtlError>
              break;
 80067d6:	e017      	b.n	8006808 <USBD_StdEPReq+0x158>

            case USBD_STATE_CONFIGURED:
              if (req->wValue == USB_FEATURE_EP_HALT)
 80067d8:	683b      	ldr	r3, [r7, #0]
 80067da:	885b      	ldrh	r3, [r3, #2]
 80067dc:	2b00      	cmp	r3, #0
 80067de:	d112      	bne.n	8006806 <USBD_StdEPReq+0x156>
              {
                if ((ep_addr & 0x7FU) != 0x00U)
 80067e0:	7bbb      	ldrb	r3, [r7, #14]
 80067e2:	f003 037f 	and.w	r3, r3, #127	@ 0x7f
 80067e6:	2b00      	cmp	r3, #0
 80067e8:	d004      	beq.n	80067f4 <USBD_StdEPReq+0x144>
                {
                  USBD_LL_ClearStallEP(pdev, ep_addr);
 80067ea:	7bbb      	ldrb	r3, [r7, #14]
 80067ec:	4619      	mov	r1, r3
 80067ee:	6878      	ldr	r0, [r7, #4]
 80067f0:	f001 f8f7 	bl	80079e2 <USBD_LL_ClearStallEP>
                }
                USBD_CtlSendStatus(pdev);
 80067f4:	6878      	ldr	r0, [r7, #4]
 80067f6:	f000 fe11 	bl	800741c <USBD_CtlSendStatus>
              }
              break;
 80067fa:	e004      	b.n	8006806 <USBD_StdEPReq+0x156>

            default:
              USBD_CtlError(pdev, req);
 80067fc:	6839      	ldr	r1, [r7, #0]
 80067fe:	6878      	ldr	r0, [r7, #4]
 8006800:	f000 fbca 	bl	8006f98 <USBD_CtlError>
              break;
 8006804:	e000      	b.n	8006808 <USBD_StdEPReq+0x158>
              break;
 8006806:	bf00      	nop
          }
          break;
 8006808:	e0aa      	b.n	8006960 <USBD_StdEPReq+0x2b0>

        case USB_REQ_GET_STATUS:
          switch (pdev->dev_state)
 800680a:	687b      	ldr	r3, [r7, #4]
 800680c:	f893 329c 	ldrb.w	r3, [r3, #668]	@ 0x29c
 8006810:	2b02      	cmp	r3, #2
 8006812:	d002      	beq.n	800681a <USBD_StdEPReq+0x16a>
 8006814:	2b03      	cmp	r3, #3
 8006816:	d032      	beq.n	800687e <USBD_StdEPReq+0x1ce>
 8006818:	e097      	b.n	800694a <USBD_StdEPReq+0x29a>
          {
            case USBD_STATE_ADDRESSED:
              if ((ep_addr != 0x00U) && (ep_addr != 0x80U))
 800681a:	7bbb      	ldrb	r3, [r7, #14]
 800681c:	2b00      	cmp	r3, #0
 800681e:	d007      	beq.n	8006830 <USBD_StdEPReq+0x180>
 8006820:	7bbb      	ldrb	r3, [r7, #14]
 8006822:	2b80      	cmp	r3, #128	@ 0x80
 8006824:	d004      	beq.n	8006830 <USBD_StdEPReq+0x180>
              {
                USBD_CtlError(pdev, req);
 8006826:	6839      	ldr	r1, [r7, #0]
 8006828:	6878      	ldr	r0, [r7, #4]
 800682a:	f000 fbb5 	bl	8006f98 <USBD_CtlError>
                break;
 800682e:	e091      	b.n	8006954 <USBD_StdEPReq+0x2a4>
              }
              pep = ((ep_addr & 0x80U) == 0x80U) ? &pdev->ep_in[ep_addr & 0x7FU] : \
 8006830:	f997 300e 	ldrsb.w	r3, [r7, #14]
 8006834:	2b00      	cmp	r3, #0
 8006836:	da0b      	bge.n	8006850 <USBD_StdEPReq+0x1a0>
 8006838:	7bbb      	ldrb	r3, [r7, #14]
 800683a:	f003 027f 	and.w	r2, r3, #127	@ 0x7f
 800683e:	4613      	mov	r3, r2
 8006840:	009b      	lsls	r3, r3, #2
 8006842:	4413      	add	r3, r2
 8006844:	009b      	lsls	r3, r3, #2
 8006846:	3310      	adds	r3, #16
 8006848:	687a      	ldr	r2, [r7, #4]
 800684a:	4413      	add	r3, r2
 800684c:	3304      	adds	r3, #4
 800684e:	e00b      	b.n	8006868 <USBD_StdEPReq+0x1b8>
                    &pdev->ep_out[ep_addr & 0x7FU];
 8006850:	7bbb      	ldrb	r3, [r7, #14]
 8006852:	f003 027f 	and.w	r2, r3, #127	@ 0x7f
              pep = ((ep_addr & 0x80U) == 0x80U) ? &pdev->ep_in[ep_addr & 0x7FU] : \
 8006856:	4613      	mov	r3, r2
 8006858:	009b      	lsls	r3, r3, #2
 800685a:	4413      	add	r3, r2
 800685c:	009b      	lsls	r3, r3, #2
 800685e:	f503 73a8 	add.w	r3, r3, #336	@ 0x150
 8006862:	687a      	ldr	r2, [r7, #4]
 8006864:	4413      	add	r3, r2
 8006866:	3304      	adds	r3, #4
 8006868:	60bb      	str	r3, [r7, #8]

              pep->status = 0x0000U;
 800686a:	68bb      	ldr	r3, [r7, #8]
 800686c:	2200      	movs	r2, #0
 800686e:	601a      	str	r2, [r3, #0]

              USBD_CtlSendData(pdev, (uint8_t *)(void *)&pep->status, 2U);
 8006870:	68bb      	ldr	r3, [r7, #8]
 8006872:	2202      	movs	r2, #2
 8006874:	4619      	mov	r1, r3
 8006876:	6878      	ldr	r0, [r7, #4]
 8006878:	f000 fd90 	bl	800739c <USBD_CtlSendData>
              break;
 800687c:	e06a      	b.n	8006954 <USBD_StdEPReq+0x2a4>

            case USBD_STATE_CONFIGURED:
              if ((ep_addr & 0x80U) == 0x80U)
 800687e:	f997 300e 	ldrsb.w	r3, [r7, #14]
 8006882:	2b00      	cmp	r3, #0
 8006884:	da11      	bge.n	80068aa <USBD_StdEPReq+0x1fa>
              {
                if (pdev->ep_in[ep_addr & 0xFU].is_used == 0U)
 8006886:	7bbb      	ldrb	r3, [r7, #14]
 8006888:	f003 020f 	and.w	r2, r3, #15
 800688c:	6879      	ldr	r1, [r7, #4]
 800688e:	4613      	mov	r3, r2
 8006890:	009b      	lsls	r3, r3, #2
 8006892:	4413      	add	r3, r2
 8006894:	009b      	lsls	r3, r3, #2
 8006896:	440b      	add	r3, r1
 8006898:	3318      	adds	r3, #24
 800689a:	681b      	ldr	r3, [r3, #0]
 800689c:	2b00      	cmp	r3, #0
 800689e:	d117      	bne.n	80068d0 <USBD_StdEPReq+0x220>
                {
                  USBD_CtlError(pdev, req);
 80068a0:	6839      	ldr	r1, [r7, #0]
 80068a2:	6878      	ldr	r0, [r7, #4]
 80068a4:	f000 fb78 	bl	8006f98 <USBD_CtlError>
                  break;
 80068a8:	e054      	b.n	8006954 <USBD_StdEPReq+0x2a4>
                }
              }
              else
              {
                if (pdev->ep_out[ep_addr & 0xFU].is_used == 0U)
 80068aa:	7bbb      	ldrb	r3, [r7, #14]
 80068ac:	f003 020f 	and.w	r2, r3, #15
 80068b0:	6879      	ldr	r1, [r7, #4]
 80068b2:	4613      	mov	r3, r2
 80068b4:	009b      	lsls	r3, r3, #2
 80068b6:	4413      	add	r3, r2
 80068b8:	009b      	lsls	r3, r3, #2
 80068ba:	440b      	add	r3, r1
 80068bc:	f503 73ac 	add.w	r3, r3, #344	@ 0x158
 80068c0:	681b      	ldr	r3, [r3, #0]
 80068c2:	2b00      	cmp	r3, #0
 80068c4:	d104      	bne.n	80068d0 <USBD_StdEPReq+0x220>
                {
                  USBD_CtlError(pdev, req);
 80068c6:	6839      	ldr	r1, [r7, #0]
 80068c8:	6878      	ldr	r0, [r7, #4]
 80068ca:	f000 fb65 	bl	8006f98 <USBD_CtlError>
                  break;
 80068ce:	e041      	b.n	8006954 <USBD_StdEPReq+0x2a4>
                }
              }

              pep = ((ep_addr & 0x80U) == 0x80U) ? &pdev->ep_in[ep_addr & 0x7FU] : \
 80068d0:	f997 300e 	ldrsb.w	r3, [r7, #14]
 80068d4:	2b00      	cmp	r3, #0
 80068d6:	da0b      	bge.n	80068f0 <USBD_StdEPReq+0x240>
 80068d8:	7bbb      	ldrb	r3, [r7, #14]
 80068da:	f003 027f 	and.w	r2, r3, #127	@ 0x7f
 80068de:	4613      	mov	r3, r2
 80068e0:	009b      	lsls	r3, r3, #2
 80068e2:	4413      	add	r3, r2
 80068e4:	009b      	lsls	r3, r3, #2
 80068e6:	3310      	adds	r3, #16
 80068e8:	687a      	ldr	r2, [r7, #4]
 80068ea:	4413      	add	r3, r2
 80068ec:	3304      	adds	r3, #4
 80068ee:	e00b      	b.n	8006908 <USBD_StdEPReq+0x258>
                    &pdev->ep_out[ep_addr & 0x7FU];
 80068f0:	7bbb      	ldrb	r3, [r7, #14]
 80068f2:	f003 027f 	and.w	r2, r3, #127	@ 0x7f
              pep = ((ep_addr & 0x80U) == 0x80U) ? &pdev->ep_in[ep_addr & 0x7FU] : \
 80068f6:	4613      	mov	r3, r2
 80068f8:	009b      	lsls	r3, r3, #2
 80068fa:	4413      	add	r3, r2
 80068fc:	009b      	lsls	r3, r3, #2
 80068fe:	f503 73a8 	add.w	r3, r3, #336	@ 0x150
 8006902:	687a      	ldr	r2, [r7, #4]
 8006904:	4413      	add	r3, r2
 8006906:	3304      	adds	r3, #4
 8006908:	60bb      	str	r3, [r7, #8]

              if ((ep_addr == 0x00U) || (ep_addr == 0x80U))
 800690a:	7bbb      	ldrb	r3, [r7, #14]
 800690c:	2b00      	cmp	r3, #0
 800690e:	d002      	beq.n	8006916 <USBD_StdEPReq+0x266>
 8006910:	7bbb      	ldrb	r3, [r7, #14]
 8006912:	2b80      	cmp	r3, #128	@ 0x80
 8006914:	d103      	bne.n	800691e <USBD_StdEPReq+0x26e>
              {
                pep->status = 0x0000U;
 8006916:	68bb      	ldr	r3, [r7, #8]
 8006918:	2200      	movs	r2, #0
 800691a:	601a      	str	r2, [r3, #0]
 800691c:	e00e      	b.n	800693c <USBD_StdEPReq+0x28c>
              }
              else if (USBD_LL_IsStallEP(pdev, ep_addr))
 800691e:	7bbb      	ldrb	r3, [r7, #14]
 8006920:	4619      	mov	r1, r3
 8006922:	6878      	ldr	r0, [r7, #4]
 8006924:	f001 f87c 	bl	8007a20 <USBD_LL_IsStallEP>
 8006928:	4603      	mov	r3, r0
 800692a:	2b00      	cmp	r3, #0
 800692c:	d003      	beq.n	8006936 <USBD_StdEPReq+0x286>
              {
                pep->status = 0x0001U;
 800692e:	68bb      	ldr	r3, [r7, #8]
 8006930:	2201      	movs	r2, #1
 8006932:	601a      	str	r2, [r3, #0]
 8006934:	e002      	b.n	800693c <USBD_StdEPReq+0x28c>
              }
              else
              {
                pep->status = 0x0000U;
 8006936:	68bb      	ldr	r3, [r7, #8]
 8006938:	2200      	movs	r2, #0
 800693a:	601a      	str	r2, [r3, #0]
              }

              USBD_CtlSendData(pdev, (uint8_t *)(void *)&pep->status, 2U);
 800693c:	68bb      	ldr	r3, [r7, #8]
 800693e:	2202      	movs	r2, #2
 8006940:	4619      	mov	r1, r3
 8006942:	6878      	ldr	r0, [r7, #4]
 8006944:	f000 fd2a 	bl	800739c <USBD_CtlSendData>
              break;
 8006948:	e004      	b.n	8006954 <USBD_StdEPReq+0x2a4>

            default:
              USBD_CtlError(pdev, req);
 800694a:	6839      	ldr	r1, [r7, #0]
 800694c:	6878      	ldr	r0, [r7, #4]
 800694e:	f000 fb23 	bl	8006f98 <USBD_CtlError>
              break;
 8006952:	bf00      	nop
          }
          break;
 8006954:	e004      	b.n	8006960 <USBD_StdEPReq+0x2b0>

        default:
          USBD_CtlError(pdev, req);
 8006956:	6839      	ldr	r1, [r7, #0]
 8006958:	6878      	ldr	r0, [r7, #4]
 800695a:	f000 fb1d 	bl	8006f98 <USBD_CtlError>
          break;
 800695e:	bf00      	nop
      }
      break;
 8006960:	e004      	b.n	800696c <USBD_StdEPReq+0x2bc>

    default:
      USBD_CtlError(pdev, req);
 8006962:	6839      	ldr	r1, [r7, #0]
 8006964:	6878      	ldr	r0, [r7, #4]
 8006966:	f000 fb17 	bl	8006f98 <USBD_CtlError>
      break;
 800696a:	bf00      	nop
  }

  return ret;
 800696c:	7bfb      	ldrb	r3, [r7, #15]
}
 800696e:	4618      	mov	r0, r3
 8006970:	3710      	adds	r7, #16
 8006972:	46bd      	mov	sp, r7
 8006974:	bd80      	pop	{r7, pc}
	...

08006978 <USBD_GetDescriptor>:
* @param  req: usb request
* @retval status
*/
static void USBD_GetDescriptor(USBD_HandleTypeDef *pdev,
                               USBD_SetupReqTypedef *req)
{
 8006978:	b580      	push	{r7, lr}
 800697a:	b084      	sub	sp, #16
 800697c:	af00      	add	r7, sp, #0
 800697e:	6078      	str	r0, [r7, #4]
 8006980:	6039      	str	r1, [r7, #0]
  uint16_t len = 0U;
 8006982:	2300      	movs	r3, #0
 8006984:	813b      	strh	r3, [r7, #8]
  uint8_t *pbuf = NULL;
 8006986:	2300      	movs	r3, #0
 8006988:	60fb      	str	r3, [r7, #12]
  uint8_t err = 0U;
 800698a:	2300      	movs	r3, #0
 800698c:	72fb      	strb	r3, [r7, #11]

  switch (req->wValue >> 8)
 800698e:	683b      	ldr	r3, [r7, #0]
 8006990:	885b      	ldrh	r3, [r3, #2]
 8006992:	0a1b      	lsrs	r3, r3, #8
 8006994:	b29b      	uxth	r3, r3
 8006996:	3b01      	subs	r3, #1
 8006998:	2b06      	cmp	r3, #6
 800699a:	f200 8128 	bhi.w	8006bee <USBD_GetDescriptor+0x276>
 800699e:	a201      	add	r2, pc, #4	@ (adr r2, 80069a4 <USBD_GetDescriptor+0x2c>)
 80069a0:	f852 f023 	ldr.w	pc, [r2, r3, lsl #2]
 80069a4:	080069c1 	.word	0x080069c1
 80069a8:	080069d9 	.word	0x080069d9
 80069ac:	08006a19 	.word	0x08006a19
 80069b0:	08006bef 	.word	0x08006bef
 80069b4:	08006bef 	.word	0x08006bef
 80069b8:	08006b8f 	.word	0x08006b8f
 80069bc:	08006bbb 	.word	0x08006bbb
        err++;
      }
      break;
#endif
    case USB_DESC_TYPE_DEVICE:
      pbuf = pdev->pDesc->GetDeviceDescriptor(pdev->dev_speed, &len);
 80069c0:	687b      	ldr	r3, [r7, #4]
 80069c2:	f8d3 32b0 	ldr.w	r3, [r3, #688]	@ 0x2b0
 80069c6:	681b      	ldr	r3, [r3, #0]
 80069c8:	687a      	ldr	r2, [r7, #4]
 80069ca:	7c12      	ldrb	r2, [r2, #16]
 80069cc:	f107 0108 	add.w	r1, r7, #8
 80069d0:	4610      	mov	r0, r2
 80069d2:	4798      	blx	r3
 80069d4:	60f8      	str	r0, [r7, #12]
      break;
 80069d6:	e112      	b.n	8006bfe <USBD_GetDescriptor+0x286>

    case USB_DESC_TYPE_CONFIGURATION:
      if (pdev->dev_speed == USBD_SPEED_HIGH)
 80069d8:	687b      	ldr	r3, [r7, #4]
 80069da:	7c1b      	ldrb	r3, [r3, #16]
 80069dc:	2b00      	cmp	r3, #0
 80069de:	d10d      	bne.n	80069fc <USBD_GetDescriptor+0x84>
      {
        pbuf = pdev->pClass->GetHSConfigDescriptor(&len);
 80069e0:	687b      	ldr	r3, [r7, #4]
 80069e2:	f8d3 32b4 	ldr.w	r3, [r3, #692]	@ 0x2b4
 80069e6:	6a9b      	ldr	r3, [r3, #40]	@ 0x28
 80069e8:	f107 0208 	add.w	r2, r7, #8
 80069ec:	4610      	mov	r0, r2
 80069ee:	4798      	blx	r3
 80069f0:	60f8      	str	r0, [r7, #12]
        pbuf[1] = USB_DESC_TYPE_CONFIGURATION;
 80069f2:	68fb      	ldr	r3, [r7, #12]
 80069f4:	3301      	adds	r3, #1
 80069f6:	2202      	movs	r2, #2
 80069f8:	701a      	strb	r2, [r3, #0]
      else
      {
        pbuf = pdev->pClass->GetFSConfigDescriptor(&len);
        pbuf[1] = USB_DESC_TYPE_CONFIGURATION;
      }
      break;
 80069fa:	e100      	b.n	8006bfe <USBD_GetDescriptor+0x286>
        pbuf = pdev->pClass->GetFSConfigDescriptor(&len);
 80069fc:	687b      	ldr	r3, [r7, #4]
 80069fe:	f8d3 32b4 	ldr.w	r3, [r3, #692]	@ 0x2b4
 8006a02:	6adb      	ldr	r3, [r3, #44]	@ 0x2c
 8006a04:	f107 0208 	add.w	r2, r7, #8
 8006a08:	4610      	mov	r0, r2
 8006a0a:	4798      	blx	r3
 8006a0c:	60f8      	str	r0, [r7, #12]
        pbuf[1] = USB_DESC_TYPE_CONFIGURATION;
 8006a0e:	68fb      	ldr	r3, [r7, #12]
 8006a10:	3301      	adds	r3, #1
 8006a12:	2202      	movs	r2, #2
 8006a14:	701a      	strb	r2, [r3, #0]
      break;
 8006a16:	e0f2      	b.n	8006bfe <USBD_GetDescriptor+0x286>

    case USB_DESC_TYPE_STRING:
      switch ((uint8_t)(req->wValue))
 8006a18:	683b      	ldr	r3, [r7, #0]
 8006a1a:	885b      	ldrh	r3, [r3, #2]
 8006a1c:	b2db      	uxtb	r3, r3
 8006a1e:	2b05      	cmp	r3, #5
 8006a20:	f200 80ac 	bhi.w	8006b7c <USBD_GetDescriptor+0x204>
 8006a24:	a201      	add	r2, pc, #4	@ (adr r2, 8006a2c <USBD_GetDescriptor+0xb4>)
 8006a26:	f852 f023 	ldr.w	pc, [r2, r3, lsl #2]
 8006a2a:	bf00      	nop
 8006a2c:	08006a45 	.word	0x08006a45
 8006a30:	08006a79 	.word	0x08006a79
 8006a34:	08006aad 	.word	0x08006aad
 8006a38:	08006ae1 	.word	0x08006ae1
 8006a3c:	08006b15 	.word	0x08006b15
 8006a40:	08006b49 	.word	0x08006b49
      {
        case USBD_IDX_LANGID_STR:
          if (pdev->pDesc->GetLangIDStrDescriptor != NULL)
 8006a44:	687b      	ldr	r3, [r7, #4]
 8006a46:	f8d3 32b0 	ldr.w	r3, [r3, #688]	@ 0x2b0
 8006a4a:	685b      	ldr	r3, [r3, #4]
 8006a4c:	2b00      	cmp	r3, #0
 8006a4e:	d00b      	beq.n	8006a68 <USBD_GetDescriptor+0xf0>
          {
            pbuf = pdev->pDesc->GetLangIDStrDescriptor(pdev->dev_speed, &len);
 8006a50:	687b      	ldr	r3, [r7, #4]
 8006a52:	f8d3 32b0 	ldr.w	r3, [r3, #688]	@ 0x2b0
 8006a56:	685b      	ldr	r3, [r3, #4]
 8006a58:	687a      	ldr	r2, [r7, #4]
 8006a5a:	7c12      	ldrb	r2, [r2, #16]
 8006a5c:	f107 0108 	add.w	r1, r7, #8
 8006a60:	4610      	mov	r0, r2
 8006a62:	4798      	blx	r3
 8006a64:	60f8      	str	r0, [r7, #12]
          else
          {
            USBD_CtlError(pdev, req);
            err++;
          }
          break;
 8006a66:	e091      	b.n	8006b8c <USBD_GetDescriptor+0x214>
            USBD_CtlError(pdev, req);
 8006a68:	6839      	ldr	r1, [r7, #0]
 8006a6a:	6878      	ldr	r0, [r7, #4]
 8006a6c:	f000 fa94 	bl	8006f98 <USBD_CtlError>
            err++;
 8006a70:	7afb      	ldrb	r3, [r7, #11]
 8006a72:	3301      	adds	r3, #1
 8006a74:	72fb      	strb	r3, [r7, #11]
          break;
 8006a76:	e089      	b.n	8006b8c <USBD_GetDescriptor+0x214>

        case USBD_IDX_MFC_STR:
          if (pdev->pDesc->GetManufacturerStrDescriptor != NULL)
 8006a78:	687b      	ldr	r3, [r7, #4]
 8006a7a:	f8d3 32b0 	ldr.w	r3, [r3, #688]	@ 0x2b0
 8006a7e:	689b      	ldr	r3, [r3, #8]
 8006a80:	2b00      	cmp	r3, #0
 8006a82:	d00b      	beq.n	8006a9c <USBD_GetDescriptor+0x124>
          {
            pbuf = pdev->pDesc->GetManufacturerStrDescriptor(pdev->dev_speed, &len);
 8006a84:	687b      	ldr	r3, [r7, #4]
 8006a86:	f8d3 32b0 	ldr.w	r3, [r3, #688]	@ 0x2b0
 8006a8a:	689b      	ldr	r3, [r3, #8]
 8006a8c:	687a      	ldr	r2, [r7, #4]
 8006a8e:	7c12      	ldrb	r2, [r2, #16]
 8006a90:	f107 0108 	add.w	r1, r7, #8
 8006a94:	4610      	mov	r0, r2
 8006a96:	4798      	blx	r3
 8006a98:	60f8      	str	r0, [r7, #12]
          else
          {
            USBD_CtlError(pdev, req);
            err++;
          }
          break;
 8006a9a:	e077      	b.n	8006b8c <USBD_GetDescriptor+0x214>
            USBD_CtlError(pdev, req);
 8006a9c:	6839      	ldr	r1, [r7, #0]
 8006a9e:	6878      	ldr	r0, [r7, #4]
 8006aa0:	f000 fa7a 	bl	8006f98 <USBD_CtlError>
            err++;
 8006aa4:	7afb      	ldrb	r3, [r7, #11]
 8006aa6:	3301      	adds	r3, #1
 8006aa8:	72fb      	strb	r3, [r7, #11]
          break;
 8006aaa:	e06f      	b.n	8006b8c <USBD_GetDescriptor+0x214>

        case USBD_IDX_PRODUCT_STR:
          if (pdev->pDesc->GetProductStrDescriptor != NULL)
 8006aac:	687b      	ldr	r3, [r7, #4]
 8006aae:	f8d3 32b0 	ldr.w	r3, [r3, #688]	@ 0x2b0
 8006ab2:	68db      	ldr	r3, [r3, #12]
 8006ab4:	2b00      	cmp	r3, #0
 8006ab6:	d00b      	beq.n	8006ad0 <USBD_GetDescriptor+0x158>
          {
            pbuf = pdev->pDesc->GetProductStrDescriptor(pdev->dev_speed, &len);
 8006ab8:	687b      	ldr	r3, [r7, #4]
 8006aba:	f8d3 32b0 	ldr.w	r3, [r3, #688]	@ 0x2b0
 8006abe:	68db      	ldr	r3, [r3, #12]
 8006ac0:	687a      	ldr	r2, [r7, #4]
 8006ac2:	7c12      	ldrb	r2, [r2, #16]
 8006ac4:	f107 0108 	add.w	r1, r7, #8
 8006ac8:	4610      	mov	r0, r2
 8006aca:	4798      	blx	r3
 8006acc:	60f8      	str	r0, [r7, #12]
          else
          {
            USBD_CtlError(pdev, req);
            err++;
          }
          break;
 8006ace:	e05d      	b.n	8006b8c <USBD_GetDescriptor+0x214>
            USBD_CtlError(pdev, req);
 8006ad0:	6839      	ldr	r1, [r7, #0]
 8006ad2:	6878      	ldr	r0, [r7, #4]
 8006ad4:	f000 fa60 	bl	8006f98 <USBD_CtlError>
            err++;
 8006ad8:	7afb      	ldrb	r3, [r7, #11]
 8006ada:	3301      	adds	r3, #1
 8006adc:	72fb      	strb	r3, [r7, #11]
          break;
 8006ade:	e055      	b.n	8006b8c <USBD_GetDescriptor+0x214>

        case USBD_IDX_SERIAL_STR:
          if (pdev->pDesc->GetSerialStrDescriptor != NULL)
 8006ae0:	687b      	ldr	r3, [r7, #4]
 8006ae2:	f8d3 32b0 	ldr.w	r3, [r3, #688]	@ 0x2b0
 8006ae6:	691b      	ldr	r3, [r3, #16]
 8006ae8:	2b00      	cmp	r3, #0
 8006aea:	d00b      	beq.n	8006b04 <USBD_GetDescriptor+0x18c>
          {
            pbuf = pdev->pDesc->GetSerialStrDescriptor(pdev->dev_speed, &len);
 8006aec:	687b      	ldr	r3, [r7, #4]
 8006aee:	f8d3 32b0 	ldr.w	r3, [r3, #688]	@ 0x2b0
 8006af2:	691b      	ldr	r3, [r3, #16]
 8006af4:	687a      	ldr	r2, [r7, #4]
 8006af6:	7c12      	ldrb	r2, [r2, #16]
 8006af8:	f107 0108 	add.w	r1, r7, #8
 8006afc:	4610      	mov	r0, r2
 8006afe:	4798      	blx	r3
 8006b00:	60f8      	str	r0, [r7, #12]
          else
          {
            USBD_CtlError(pdev, req);
            err++;
          }
          break;
 8006b02:	e043      	b.n	8006b8c <USBD_GetDescriptor+0x214>
            USBD_CtlError(pdev, req);
 8006b04:	6839      	ldr	r1, [r7, #0]
 8006b06:	6878      	ldr	r0, [r7, #4]
 8006b08:	f000 fa46 	bl	8006f98 <USBD_CtlError>
            err++;
 8006b0c:	7afb      	ldrb	r3, [r7, #11]
 8006b0e:	3301      	adds	r3, #1
 8006b10:	72fb      	strb	r3, [r7, #11]
          break;
 8006b12:	e03b      	b.n	8006b8c <USBD_GetDescriptor+0x214>

        case USBD_IDX_CONFIG_STR:
          if (pdev->pDesc->GetConfigurationStrDescriptor != NULL)
 8006b14:	687b      	ldr	r3, [r7, #4]
 8006b16:	f8d3 32b0 	ldr.w	r3, [r3, #688]	@ 0x2b0
 8006b1a:	695b      	ldr	r3, [r3, #20]
 8006b1c:	2b00      	cmp	r3, #0
 8006b1e:	d00b      	beq.n	8006b38 <USBD_GetDescriptor+0x1c0>
          {
            pbuf = pdev->pDesc->GetConfigurationStrDescriptor(pdev->dev_speed, &len);
 8006b20:	687b      	ldr	r3, [r7, #4]
 8006b22:	f8d3 32b0 	ldr.w	r3, [r3, #688]	@ 0x2b0
 8006b26:	695b      	ldr	r3, [r3, #20]
 8006b28:	687a      	ldr	r2, [r7, #4]
 8006b2a:	7c12      	ldrb	r2, [r2, #16]
 8006b2c:	f107 0108 	add.w	r1, r7, #8
 8006b30:	4610      	mov	r0, r2
 8006b32:	4798      	blx	r3
 8006b34:	60f8      	str	r0, [r7, #12]
          else
          {
            USBD_CtlError(pdev, req);
            err++;
          }
          break;
 8006b36:	e029      	b.n	8006b8c <USBD_GetDescriptor+0x214>
            USBD_CtlError(pdev, req);
 8006b38:	6839      	ldr	r1, [r7, #0]
 8006b3a:	6878      	ldr	r0, [r7, #4]
 8006b3c:	f000 fa2c 	bl	8006f98 <USBD_CtlError>
            err++;
 8006b40:	7afb      	ldrb	r3, [r7, #11]
 8006b42:	3301      	adds	r3, #1
 8006b44:	72fb      	strb	r3, [r7, #11]
          break;
 8006b46:	e021      	b.n	8006b8c <USBD_GetDescriptor+0x214>

        case USBD_IDX_INTERFACE_STR:
          if (pdev->pDesc->GetInterfaceStrDescriptor != NULL)
 8006b48:	687b      	ldr	r3, [r7, #4]
 8006b4a:	f8d3 32b0 	ldr.w	r3, [r3, #688]	@ 0x2b0
 8006b4e:	699b      	ldr	r3, [r3, #24]
 8006b50:	2b00      	cmp	r3, #0
 8006b52:	d00b      	beq.n	8006b6c <USBD_GetDescriptor+0x1f4>
          {
            pbuf = pdev->pDesc->GetInterfaceStrDescriptor(pdev->dev_speed, &len);
 8006b54:	687b      	ldr	r3, [r7, #4]
 8006b56:	f8d3 32b0 	ldr.w	r3, [r3, #688]	@ 0x2b0
 8006b5a:	699b      	ldr	r3, [r3, #24]
 8006b5c:	687a      	ldr	r2, [r7, #4]
 8006b5e:	7c12      	ldrb	r2, [r2, #16]
 8006b60:	f107 0108 	add.w	r1, r7, #8
 8006b64:	4610      	mov	r0, r2
 8006b66:	4798      	blx	r3
 8006b68:	60f8      	str	r0, [r7, #12]
          else
          {
            USBD_CtlError(pdev, req);
            err++;
          }
          break;
 8006b6a:	e00f      	b.n	8006b8c <USBD_GetDescriptor+0x214>
            USBD_CtlError(pdev, req);
 8006b6c:	6839      	ldr	r1, [r7, #0]
 8006b6e:	6878      	ldr	r0, [r7, #4]
 8006b70:	f000 fa12 	bl	8006f98 <USBD_CtlError>
            err++;
 8006b74:	7afb      	ldrb	r3, [r7, #11]
 8006b76:	3301      	adds	r3, #1
 8006b78:	72fb      	strb	r3, [r7, #11]
          break;
 8006b7a:	e007      	b.n	8006b8c <USBD_GetDescriptor+0x214>
            USBD_CtlError(pdev, req);
            err++;
          }
          break;
#else
          USBD_CtlError(pdev, req);
 8006b7c:	6839      	ldr	r1, [r7, #0]
 8006b7e:	6878      	ldr	r0, [r7, #4]
 8006b80:	f000 fa0a 	bl	8006f98 <USBD_CtlError>
          err++;
 8006b84:	7afb      	ldrb	r3, [r7, #11]
 8006b86:	3301      	adds	r3, #1
 8006b88:	72fb      	strb	r3, [r7, #11]
#endif
      }
      break;
 8006b8a:	e038      	b.n	8006bfe <USBD_GetDescriptor+0x286>
 8006b8c:	e037      	b.n	8006bfe <USBD_GetDescriptor+0x286>

    case USB_DESC_TYPE_DEVICE_QUALIFIER:
      if (pdev->dev_speed == USBD_SPEED_HIGH)
 8006b8e:	687b      	ldr	r3, [r7, #4]
 8006b90:	7c1b      	ldrb	r3, [r3, #16]
 8006b92:	2b00      	cmp	r3, #0
 8006b94:	d109      	bne.n	8006baa <USBD_GetDescriptor+0x232>
      {
        pbuf = pdev->pClass->GetDeviceQualifierDescriptor(&len);
 8006b96:	687b      	ldr	r3, [r7, #4]
 8006b98:	f8d3 32b4 	ldr.w	r3, [r3, #692]	@ 0x2b4
 8006b9c:	6b5b      	ldr	r3, [r3, #52]	@ 0x34
 8006b9e:	f107 0208 	add.w	r2, r7, #8
 8006ba2:	4610      	mov	r0, r2
 8006ba4:	4798      	blx	r3
 8006ba6:	60f8      	str	r0, [r7, #12]
      else
      {
        USBD_CtlError(pdev, req);
        err++;
      }
      break;
 8006ba8:	e029      	b.n	8006bfe <USBD_GetDescriptor+0x286>
        USBD_CtlError(pdev, req);
 8006baa:	6839      	ldr	r1, [r7, #0]
 8006bac:	6878      	ldr	r0, [r7, #4]
 8006bae:	f000 f9f3 	bl	8006f98 <USBD_CtlError>
        err++;
 8006bb2:	7afb      	ldrb	r3, [r7, #11]
 8006bb4:	3301      	adds	r3, #1
 8006bb6:	72fb      	strb	r3, [r7, #11]
      break;
 8006bb8:	e021      	b.n	8006bfe <USBD_GetDescriptor+0x286>

    case USB_DESC_TYPE_OTHER_SPEED_CONFIGURATION:
      if (pdev->dev_speed == USBD_SPEED_HIGH)
 8006bba:	687b      	ldr	r3, [r7, #4]
 8006bbc:	7c1b      	ldrb	r3, [r3, #16]
 8006bbe:	2b00      	cmp	r3, #0
 8006bc0:	d10d      	bne.n	8006bde <USBD_GetDescriptor+0x266>
      {
        pbuf = pdev->pClass->GetOtherSpeedConfigDescriptor(&len);
 8006bc2:	687b      	ldr	r3, [r7, #4]
 8006bc4:	f8d3 32b4 	ldr.w	r3, [r3, #692]	@ 0x2b4
 8006bc8:	6b1b      	ldr	r3, [r3, #48]	@ 0x30
 8006bca:	f107 0208 	add.w	r2, r7, #8
 8006bce:	4610      	mov	r0, r2
 8006bd0:	4798      	blx	r3
 8006bd2:	60f8      	str	r0, [r7, #12]
        pbuf[1] = USB_DESC_TYPE_OTHER_SPEED_CONFIGURATION;
 8006bd4:	68fb      	ldr	r3, [r7, #12]
 8006bd6:	3301      	adds	r3, #1
 8006bd8:	2207      	movs	r2, #7
 8006bda:	701a      	strb	r2, [r3, #0]
      else
      {
        USBD_CtlError(pdev, req);
        err++;
      }
      break;
 8006bdc:	e00f      	b.n	8006bfe <USBD_GetDescriptor+0x286>
        USBD_CtlError(pdev, req);
 8006bde:	6839      	ldr	r1, [r7, #0]
 8006be0:	6878      	ldr	r0, [r7, #4]
 8006be2:	f000 f9d9 	bl	8006f98 <USBD_CtlError>
        err++;
 8006be6:	7afb      	ldrb	r3, [r7, #11]
 8006be8:	3301      	adds	r3, #1
 8006bea:	72fb      	strb	r3, [r7, #11]
      break;
 8006bec:	e007      	b.n	8006bfe <USBD_GetDescriptor+0x286>

    default:
      USBD_CtlError(pdev, req);
 8006bee:	6839      	ldr	r1, [r7, #0]
 8006bf0:	6878      	ldr	r0, [r7, #4]
 8006bf2:	f000 f9d1 	bl	8006f98 <USBD_CtlError>
      err++;
 8006bf6:	7afb      	ldrb	r3, [r7, #11]
 8006bf8:	3301      	adds	r3, #1
 8006bfa:	72fb      	strb	r3, [r7, #11]
      break;
 8006bfc:	bf00      	nop
  }

  if (err != 0U)
 8006bfe:	7afb      	ldrb	r3, [r7, #11]
 8006c00:	2b00      	cmp	r3, #0
 8006c02:	d11c      	bne.n	8006c3e <USBD_GetDescriptor+0x2c6>
  {
    return;
  }
  else
  {
    if ((len != 0U) && (req->wLength != 0U))
 8006c04:	893b      	ldrh	r3, [r7, #8]
 8006c06:	2b00      	cmp	r3, #0
 8006c08:	d011      	beq.n	8006c2e <USBD_GetDescriptor+0x2b6>
 8006c0a:	683b      	ldr	r3, [r7, #0]
 8006c0c:	88db      	ldrh	r3, [r3, #6]
 8006c0e:	2b00      	cmp	r3, #0
 8006c10:	d00d      	beq.n	8006c2e <USBD_GetDescriptor+0x2b6>
    {
      len = MIN(len, req->wLength);
 8006c12:	683b      	ldr	r3, [r7, #0]
 8006c14:	88da      	ldrh	r2, [r3, #6]
 8006c16:	893b      	ldrh	r3, [r7, #8]
 8006c18:	4293      	cmp	r3, r2
 8006c1a:	bf28      	it	cs
 8006c1c:	4613      	movcs	r3, r2
 8006c1e:	b29b      	uxth	r3, r3
 8006c20:	813b      	strh	r3, [r7, #8]
      (void)USBD_CtlSendData(pdev, pbuf, len);
 8006c22:	893b      	ldrh	r3, [r7, #8]
 8006c24:	461a      	mov	r2, r3
 8006c26:	68f9      	ldr	r1, [r7, #12]
 8006c28:	6878      	ldr	r0, [r7, #4]
 8006c2a:	f000 fbb7 	bl	800739c <USBD_CtlSendData>
    }

    if (req->wLength == 0U)
 8006c2e:	683b      	ldr	r3, [r7, #0]
 8006c30:	88db      	ldrh	r3, [r3, #6]
 8006c32:	2b00      	cmp	r3, #0
 8006c34:	d104      	bne.n	8006c40 <USBD_GetDescriptor+0x2c8>
    {
      (void)USBD_CtlSendStatus(pdev);
 8006c36:	6878      	ldr	r0, [r7, #4]
 8006c38:	f000 fbf0 	bl	800741c <USBD_CtlSendStatus>
 8006c3c:	e000      	b.n	8006c40 <USBD_GetDescriptor+0x2c8>
    return;
 8006c3e:	bf00      	nop
    }
  }
}
 8006c40:	3710      	adds	r7, #16
 8006c42:	46bd      	mov	sp, r7
 8006c44:	bd80      	pop	{r7, pc}
 8006c46:	bf00      	nop

08006c48 <USBD_SetAddress>:
* @param  req: usb request
* @retval status
*/
static void USBD_SetAddress(USBD_HandleTypeDef *pdev,
                            USBD_SetupReqTypedef *req)
{
 8006c48:	b580      	push	{r7, lr}
 8006c4a:	b084      	sub	sp, #16
 8006c4c:	af00      	add	r7, sp, #0
 8006c4e:	6078      	str	r0, [r7, #4]
 8006c50:	6039      	str	r1, [r7, #0]
  uint8_t  dev_addr;

  if ((req->wIndex == 0U) && (req->wLength == 0U) && (req->wValue < 128U))
 8006c52:	683b      	ldr	r3, [r7, #0]
 8006c54:	889b      	ldrh	r3, [r3, #4]
 8006c56:	2b00      	cmp	r3, #0
 8006c58:	d130      	bne.n	8006cbc <USBD_SetAddress+0x74>
 8006c5a:	683b      	ldr	r3, [r7, #0]
 8006c5c:	88db      	ldrh	r3, [r3, #6]
 8006c5e:	2b00      	cmp	r3, #0
 8006c60:	d12c      	bne.n	8006cbc <USBD_SetAddress+0x74>
 8006c62:	683b      	ldr	r3, [r7, #0]
 8006c64:	885b      	ldrh	r3, [r3, #2]
 8006c66:	2b7f      	cmp	r3, #127	@ 0x7f
 8006c68:	d828      	bhi.n	8006cbc <USBD_SetAddress+0x74>
  {
    dev_addr = (uint8_t)(req->wValue) & 0x7FU;
 8006c6a:	683b      	ldr	r3, [r7, #0]
 8006c6c:	885b      	ldrh	r3, [r3, #2]
 8006c6e:	b2db      	uxtb	r3, r3
 8006c70:	f003 037f 	and.w	r3, r3, #127	@ 0x7f
 8006c74:	73fb      	strb	r3, [r7, #15]

    if (pdev->dev_state == USBD_STATE_CONFIGURED)
 8006c76:	687b      	ldr	r3, [r7, #4]
 8006c78:	f893 329c 	ldrb.w	r3, [r3, #668]	@ 0x29c
 8006c7c:	2b03      	cmp	r3, #3
 8006c7e:	d104      	bne.n	8006c8a <USBD_SetAddress+0x42>
    {
      USBD_CtlError(pdev, req);
 8006c80:	6839      	ldr	r1, [r7, #0]
 8006c82:	6878      	ldr	r0, [r7, #4]
 8006c84:	f000 f988 	bl	8006f98 <USBD_CtlError>
    if (pdev->dev_state == USBD_STATE_CONFIGURED)
 8006c88:	e01d      	b.n	8006cc6 <USBD_SetAddress+0x7e>
    }
    else
    {
      pdev->dev_address = dev_addr;
 8006c8a:	687b      	ldr	r3, [r7, #4]
 8006c8c:	7bfa      	ldrb	r2, [r7, #15]
 8006c8e:	f883 229e 	strb.w	r2, [r3, #670]	@ 0x29e
      USBD_LL_SetUSBAddress(pdev, dev_addr);
 8006c92:	7bfb      	ldrb	r3, [r7, #15]
 8006c94:	4619      	mov	r1, r3
 8006c96:	6878      	ldr	r0, [r7, #4]
 8006c98:	f000 feed 	bl	8007a76 <USBD_LL_SetUSBAddress>
      USBD_CtlSendStatus(pdev);
 8006c9c:	6878      	ldr	r0, [r7, #4]
 8006c9e:	f000 fbbd 	bl	800741c <USBD_CtlSendStatus>

      if (dev_addr != 0U)
 8006ca2:	7bfb      	ldrb	r3, [r7, #15]
 8006ca4:	2b00      	cmp	r3, #0
 8006ca6:	d004      	beq.n	8006cb2 <USBD_SetAddress+0x6a>
      {
        pdev->dev_state = USBD_STATE_ADDRESSED;
 8006ca8:	687b      	ldr	r3, [r7, #4]
 8006caa:	2202      	movs	r2, #2
 8006cac:	f883 229c 	strb.w	r2, [r3, #668]	@ 0x29c
    if (pdev->dev_state == USBD_STATE_CONFIGURED)
 8006cb0:	e009      	b.n	8006cc6 <USBD_SetAddress+0x7e>
      }
      else
      {
        pdev->dev_state = USBD_STATE_DEFAULT;
 8006cb2:	687b      	ldr	r3, [r7, #4]
 8006cb4:	2201      	movs	r2, #1
 8006cb6:	f883 229c 	strb.w	r2, [r3, #668]	@ 0x29c
    if (pdev->dev_state == USBD_STATE_CONFIGURED)
 8006cba:	e004      	b.n	8006cc6 <USBD_SetAddress+0x7e>
      }
    }
  }
  else
  {
    USBD_CtlError(pdev, req);
 8006cbc:	6839      	ldr	r1, [r7, #0]
 8006cbe:	6878      	ldr	r0, [r7, #4]
 8006cc0:	f000 f96a 	bl	8006f98 <USBD_CtlError>
  }
}
 8006cc4:	bf00      	nop
 8006cc6:	bf00      	nop
 8006cc8:	3710      	adds	r7, #16
 8006cca:	46bd      	mov	sp, r7
 8006ccc:	bd80      	pop	{r7, pc}
	...

08006cd0 <USBD_SetConfig>:
* @param  pdev: device instance
* @param  req: usb request
* @retval status
*/
static void USBD_SetConfig(USBD_HandleTypeDef *pdev, USBD_SetupReqTypedef *req)
{
 8006cd0:	b580      	push	{r7, lr}
 8006cd2:	b082      	sub	sp, #8
 8006cd4:	af00      	add	r7, sp, #0
 8006cd6:	6078      	str	r0, [r7, #4]
 8006cd8:	6039      	str	r1, [r7, #0]
  static uint8_t cfgidx;

  cfgidx = (uint8_t)(req->wValue);
 8006cda:	683b      	ldr	r3, [r7, #0]
 8006cdc:	885b      	ldrh	r3, [r3, #2]
 8006cde:	b2da      	uxtb	r2, r3
 8006ce0:	4b41      	ldr	r3, [pc, #260]	@ (8006de8 <USBD_SetConfig+0x118>)
 8006ce2:	701a      	strb	r2, [r3, #0]

  if (cfgidx > USBD_MAX_NUM_CONFIGURATION)
 8006ce4:	4b40      	ldr	r3, [pc, #256]	@ (8006de8 <USBD_SetConfig+0x118>)
 8006ce6:	781b      	ldrb	r3, [r3, #0]
 8006ce8:	2b01      	cmp	r3, #1
 8006cea:	d904      	bls.n	8006cf6 <USBD_SetConfig+0x26>
  {
    USBD_CtlError(pdev, req);
 8006cec:	6839      	ldr	r1, [r7, #0]
 8006cee:	6878      	ldr	r0, [r7, #4]
 8006cf0:	f000 f952 	bl	8006f98 <USBD_CtlError>
 8006cf4:	e075      	b.n	8006de2 <USBD_SetConfig+0x112>
  }
  else
  {
    switch (pdev->dev_state)
 8006cf6:	687b      	ldr	r3, [r7, #4]
 8006cf8:	f893 329c 	ldrb.w	r3, [r3, #668]	@ 0x29c
 8006cfc:	2b02      	cmp	r3, #2
 8006cfe:	d002      	beq.n	8006d06 <USBD_SetConfig+0x36>
 8006d00:	2b03      	cmp	r3, #3
 8006d02:	d023      	beq.n	8006d4c <USBD_SetConfig+0x7c>
 8006d04:	e062      	b.n	8006dcc <USBD_SetConfig+0xfc>
    {
      case USBD_STATE_ADDRESSED:
        if (cfgidx)
 8006d06:	4b38      	ldr	r3, [pc, #224]	@ (8006de8 <USBD_SetConfig+0x118>)
 8006d08:	781b      	ldrb	r3, [r3, #0]
 8006d0a:	2b00      	cmp	r3, #0
 8006d0c:	d01a      	beq.n	8006d44 <USBD_SetConfig+0x74>
        {
          pdev->dev_config = cfgidx;
 8006d0e:	4b36      	ldr	r3, [pc, #216]	@ (8006de8 <USBD_SetConfig+0x118>)
 8006d10:	781b      	ldrb	r3, [r3, #0]
 8006d12:	461a      	mov	r2, r3
 8006d14:	687b      	ldr	r3, [r7, #4]
 8006d16:	605a      	str	r2, [r3, #4]
          pdev->dev_state = USBD_STATE_CONFIGURED;
 8006d18:	687b      	ldr	r3, [r7, #4]
 8006d1a:	2203      	movs	r2, #3
 8006d1c:	f883 229c 	strb.w	r2, [r3, #668]	@ 0x29c
          if (USBD_SetClassConfig(pdev, cfgidx) == USBD_FAIL)
 8006d20:	4b31      	ldr	r3, [pc, #196]	@ (8006de8 <USBD_SetConfig+0x118>)
 8006d22:	781b      	ldrb	r3, [r3, #0]
 8006d24:	4619      	mov	r1, r3
 8006d26:	6878      	ldr	r0, [r7, #4]
 8006d28:	f7ff f9e7 	bl	80060fa <USBD_SetClassConfig>
 8006d2c:	4603      	mov	r3, r0
 8006d2e:	2b02      	cmp	r3, #2
 8006d30:	d104      	bne.n	8006d3c <USBD_SetConfig+0x6c>
          {
            USBD_CtlError(pdev, req);
 8006d32:	6839      	ldr	r1, [r7, #0]
 8006d34:	6878      	ldr	r0, [r7, #4]
 8006d36:	f000 f92f 	bl	8006f98 <USBD_CtlError>
            return;
 8006d3a:	e052      	b.n	8006de2 <USBD_SetConfig+0x112>
          }
          USBD_CtlSendStatus(pdev);
 8006d3c:	6878      	ldr	r0, [r7, #4]
 8006d3e:	f000 fb6d 	bl	800741c <USBD_CtlSendStatus>
        }
        else
        {
          USBD_CtlSendStatus(pdev);
        }
        break;
 8006d42:	e04e      	b.n	8006de2 <USBD_SetConfig+0x112>
          USBD_CtlSendStatus(pdev);
 8006d44:	6878      	ldr	r0, [r7, #4]
 8006d46:	f000 fb69 	bl	800741c <USBD_CtlSendStatus>
        break;
 8006d4a:	e04a      	b.n	8006de2 <USBD_SetConfig+0x112>

      case USBD_STATE_CONFIGURED:
        if (cfgidx == 0U)
 8006d4c:	4b26      	ldr	r3, [pc, #152]	@ (8006de8 <USBD_SetConfig+0x118>)
 8006d4e:	781b      	ldrb	r3, [r3, #0]
 8006d50:	2b00      	cmp	r3, #0
 8006d52:	d112      	bne.n	8006d7a <USBD_SetConfig+0xaa>
        {
          pdev->dev_state = USBD_STATE_ADDRESSED;
 8006d54:	687b      	ldr	r3, [r7, #4]
 8006d56:	2202      	movs	r2, #2
 8006d58:	f883 229c 	strb.w	r2, [r3, #668]	@ 0x29c
          pdev->dev_config = cfgidx;
 8006d5c:	4b22      	ldr	r3, [pc, #136]	@ (8006de8 <USBD_SetConfig+0x118>)
 8006d5e:	781b      	ldrb	r3, [r3, #0]
 8006d60:	461a      	mov	r2, r3
 8006d62:	687b      	ldr	r3, [r7, #4]
 8006d64:	605a      	str	r2, [r3, #4]
          USBD_ClrClassConfig(pdev, cfgidx);
 8006d66:	4b20      	ldr	r3, [pc, #128]	@ (8006de8 <USBD_SetConfig+0x118>)
 8006d68:	781b      	ldrb	r3, [r3, #0]
 8006d6a:	4619      	mov	r1, r3
 8006d6c:	6878      	ldr	r0, [r7, #4]
 8006d6e:	f7ff f9e3 	bl	8006138 <USBD_ClrClassConfig>
          USBD_CtlSendStatus(pdev);
 8006d72:	6878      	ldr	r0, [r7, #4]
 8006d74:	f000 fb52 	bl	800741c <USBD_CtlSendStatus>
        }
        else
        {
          USBD_CtlSendStatus(pdev);
        }
        break;
 8006d78:	e033      	b.n	8006de2 <USBD_SetConfig+0x112>
        else if (cfgidx != pdev->dev_config)
 8006d7a:	4b1b      	ldr	r3, [pc, #108]	@ (8006de8 <USBD_SetConfig+0x118>)
 8006d7c:	781b      	ldrb	r3, [r3, #0]
 8006d7e:	461a      	mov	r2, r3
 8006d80:	687b      	ldr	r3, [r7, #4]
 8006d82:	685b      	ldr	r3, [r3, #4]
 8006d84:	429a      	cmp	r2, r3
 8006d86:	d01d      	beq.n	8006dc4 <USBD_SetConfig+0xf4>
          USBD_ClrClassConfig(pdev, (uint8_t)pdev->dev_config);
 8006d88:	687b      	ldr	r3, [r7, #4]
 8006d8a:	685b      	ldr	r3, [r3, #4]
 8006d8c:	b2db      	uxtb	r3, r3
 8006d8e:	4619      	mov	r1, r3
 8006d90:	6878      	ldr	r0, [r7, #4]
 8006d92:	f7ff f9d1 	bl	8006138 <USBD_ClrClassConfig>
          pdev->dev_config = cfgidx;
 8006d96:	4b14      	ldr	r3, [pc, #80]	@ (8006de8 <USBD_SetConfig+0x118>)
 8006d98:	781b      	ldrb	r3, [r3, #0]
 8006d9a:	461a      	mov	r2, r3
 8006d9c:	687b      	ldr	r3, [r7, #4]
 8006d9e:	605a      	str	r2, [r3, #4]
          if (USBD_SetClassConfig(pdev, cfgidx) == USBD_FAIL)
 8006da0:	4b11      	ldr	r3, [pc, #68]	@ (8006de8 <USBD_SetConfig+0x118>)
 8006da2:	781b      	ldrb	r3, [r3, #0]
 8006da4:	4619      	mov	r1, r3
 8006da6:	6878      	ldr	r0, [r7, #4]
 8006da8:	f7ff f9a7 	bl	80060fa <USBD_SetClassConfig>
 8006dac:	4603      	mov	r3, r0
 8006dae:	2b02      	cmp	r3, #2
 8006db0:	d104      	bne.n	8006dbc <USBD_SetConfig+0xec>
            USBD_CtlError(pdev, req);
 8006db2:	6839      	ldr	r1, [r7, #0]
 8006db4:	6878      	ldr	r0, [r7, #4]
 8006db6:	f000 f8ef 	bl	8006f98 <USBD_CtlError>
            return;
 8006dba:	e012      	b.n	8006de2 <USBD_SetConfig+0x112>
          USBD_CtlSendStatus(pdev);
 8006dbc:	6878      	ldr	r0, [r7, #4]
 8006dbe:	f000 fb2d 	bl	800741c <USBD_CtlSendStatus>
        break;
 8006dc2:	e00e      	b.n	8006de2 <USBD_SetConfig+0x112>
          USBD_CtlSendStatus(pdev);
 8006dc4:	6878      	ldr	r0, [r7, #4]
 8006dc6:	f000 fb29 	bl	800741c <USBD_CtlSendStatus>
        break;
 8006dca:	e00a      	b.n	8006de2 <USBD_SetConfig+0x112>

      default:
        USBD_CtlError(pdev, req);
 8006dcc:	6839      	ldr	r1, [r7, #0]
 8006dce:	6878      	ldr	r0, [r7, #4]
 8006dd0:	f000 f8e2 	bl	8006f98 <USBD_CtlError>
        USBD_ClrClassConfig(pdev, cfgidx);
 8006dd4:	4b04      	ldr	r3, [pc, #16]	@ (8006de8 <USBD_SetConfig+0x118>)
 8006dd6:	781b      	ldrb	r3, [r3, #0]
 8006dd8:	4619      	mov	r1, r3
 8006dda:	6878      	ldr	r0, [r7, #4]
 8006ddc:	f7ff f9ac 	bl	8006138 <USBD_ClrClassConfig>
        break;
 8006de0:	bf00      	nop
    }
  }
}
 8006de2:	3708      	adds	r7, #8
 8006de4:	46bd      	mov	sp, r7
 8006de6:	bd80      	pop	{r7, pc}
 8006de8:	200001d0 	.word	0x200001d0

08006dec <USBD_GetConfig>:
* @param  pdev: device instance
* @param  req: usb request
* @retval status
*/
static void USBD_GetConfig(USBD_HandleTypeDef *pdev, USBD_SetupReqTypedef *req)
{
 8006dec:	b580      	push	{r7, lr}
 8006dee:	b082      	sub	sp, #8
 8006df0:	af00      	add	r7, sp, #0
 8006df2:	6078      	str	r0, [r7, #4]
 8006df4:	6039      	str	r1, [r7, #0]
  if (req->wLength != 1U)
 8006df6:	683b      	ldr	r3, [r7, #0]
 8006df8:	88db      	ldrh	r3, [r3, #6]
 8006dfa:	2b01      	cmp	r3, #1
 8006dfc:	d004      	beq.n	8006e08 <USBD_GetConfig+0x1c>
  {
    USBD_CtlError(pdev, req);
 8006dfe:	6839      	ldr	r1, [r7, #0]
 8006e00:	6878      	ldr	r0, [r7, #4]
 8006e02:	f000 f8c9 	bl	8006f98 <USBD_CtlError>
      default:
        USBD_CtlError(pdev, req);
        break;
    }
  }
}
 8006e06:	e022      	b.n	8006e4e <USBD_GetConfig+0x62>
    switch (pdev->dev_state)
 8006e08:	687b      	ldr	r3, [r7, #4]
 8006e0a:	f893 329c 	ldrb.w	r3, [r3, #668]	@ 0x29c
 8006e0e:	2b02      	cmp	r3, #2
 8006e10:	dc02      	bgt.n	8006e18 <USBD_GetConfig+0x2c>
 8006e12:	2b00      	cmp	r3, #0
 8006e14:	dc03      	bgt.n	8006e1e <USBD_GetConfig+0x32>
 8006e16:	e015      	b.n	8006e44 <USBD_GetConfig+0x58>
 8006e18:	2b03      	cmp	r3, #3
 8006e1a:	d00b      	beq.n	8006e34 <USBD_GetConfig+0x48>
 8006e1c:	e012      	b.n	8006e44 <USBD_GetConfig+0x58>
        pdev->dev_default_config = 0U;
 8006e1e:	687b      	ldr	r3, [r7, #4]
 8006e20:	2200      	movs	r2, #0
 8006e22:	609a      	str	r2, [r3, #8]
        USBD_CtlSendData(pdev, (uint8_t *)(void *)&pdev->dev_default_config, 1U);
 8006e24:	687b      	ldr	r3, [r7, #4]
 8006e26:	3308      	adds	r3, #8
 8006e28:	2201      	movs	r2, #1
 8006e2a:	4619      	mov	r1, r3
 8006e2c:	6878      	ldr	r0, [r7, #4]
 8006e2e:	f000 fab5 	bl	800739c <USBD_CtlSendData>
        break;
 8006e32:	e00c      	b.n	8006e4e <USBD_GetConfig+0x62>
        USBD_CtlSendData(pdev, (uint8_t *)(void *)&pdev->dev_config, 1U);
 8006e34:	687b      	ldr	r3, [r7, #4]
 8006e36:	3304      	adds	r3, #4
 8006e38:	2201      	movs	r2, #1
 8006e3a:	4619      	mov	r1, r3
 8006e3c:	6878      	ldr	r0, [r7, #4]
 8006e3e:	f000 faad 	bl	800739c <USBD_CtlSendData>
        break;
 8006e42:	e004      	b.n	8006e4e <USBD_GetConfig+0x62>
        USBD_CtlError(pdev, req);
 8006e44:	6839      	ldr	r1, [r7, #0]
 8006e46:	6878      	ldr	r0, [r7, #4]
 8006e48:	f000 f8a6 	bl	8006f98 <USBD_CtlError>
        break;
 8006e4c:	bf00      	nop
}
 8006e4e:	bf00      	nop
 8006e50:	3708      	adds	r7, #8
 8006e52:	46bd      	mov	sp, r7
 8006e54:	bd80      	pop	{r7, pc}

08006e56 <USBD_GetStatus>:
* @param  pdev: device instance
* @param  req: usb request
* @retval status
*/
static void USBD_GetStatus(USBD_HandleTypeDef *pdev, USBD_SetupReqTypedef *req)
{
 8006e56:	b580      	push	{r7, lr}
 8006e58:	b082      	sub	sp, #8
 8006e5a:	af00      	add	r7, sp, #0
 8006e5c:	6078      	str	r0, [r7, #4]
 8006e5e:	6039      	str	r1, [r7, #0]
  switch (pdev->dev_state)
 8006e60:	687b      	ldr	r3, [r7, #4]
 8006e62:	f893 329c 	ldrb.w	r3, [r3, #668]	@ 0x29c
 8006e66:	3b01      	subs	r3, #1
 8006e68:	2b02      	cmp	r3, #2
 8006e6a:	d81e      	bhi.n	8006eaa <USBD_GetStatus+0x54>
  {
    case USBD_STATE_DEFAULT:
    case USBD_STATE_ADDRESSED:
    case USBD_STATE_CONFIGURED:
      if (req->wLength != 0x2U)
 8006e6c:	683b      	ldr	r3, [r7, #0]
 8006e6e:	88db      	ldrh	r3, [r3, #6]
 8006e70:	2b02      	cmp	r3, #2
 8006e72:	d004      	beq.n	8006e7e <USBD_GetStatus+0x28>
      {
        USBD_CtlError(pdev, req);
 8006e74:	6839      	ldr	r1, [r7, #0]
 8006e76:	6878      	ldr	r0, [r7, #4]
 8006e78:	f000 f88e 	bl	8006f98 <USBD_CtlError>
        break;
 8006e7c:	e01a      	b.n	8006eb4 <USBD_GetStatus+0x5e>
      }

#if (USBD_SELF_POWERED == 1U)
      pdev->dev_config_status = USB_CONFIG_SELF_POWERED;
 8006e7e:	687b      	ldr	r3, [r7, #4]
 8006e80:	2201      	movs	r2, #1
 8006e82:	60da      	str	r2, [r3, #12]
#else
      pdev->dev_config_status = 0U;
#endif

      if (pdev->dev_remote_wakeup)
 8006e84:	687b      	ldr	r3, [r7, #4]
 8006e86:	f8d3 32a4 	ldr.w	r3, [r3, #676]	@ 0x2a4
 8006e8a:	2b00      	cmp	r3, #0
 8006e8c:	d005      	beq.n	8006e9a <USBD_GetStatus+0x44>
      {
        pdev->dev_config_status |= USB_CONFIG_REMOTE_WAKEUP;
 8006e8e:	687b      	ldr	r3, [r7, #4]
 8006e90:	68db      	ldr	r3, [r3, #12]
 8006e92:	f043 0202 	orr.w	r2, r3, #2
 8006e96:	687b      	ldr	r3, [r7, #4]
 8006e98:	60da      	str	r2, [r3, #12]
      }

      USBD_CtlSendData(pdev, (uint8_t *)(void *)&pdev->dev_config_status, 2U);
 8006e9a:	687b      	ldr	r3, [r7, #4]
 8006e9c:	330c      	adds	r3, #12
 8006e9e:	2202      	movs	r2, #2
 8006ea0:	4619      	mov	r1, r3
 8006ea2:	6878      	ldr	r0, [r7, #4]
 8006ea4:	f000 fa7a 	bl	800739c <USBD_CtlSendData>
      break;
 8006ea8:	e004      	b.n	8006eb4 <USBD_GetStatus+0x5e>

    default:
      USBD_CtlError(pdev, req);
 8006eaa:	6839      	ldr	r1, [r7, #0]
 8006eac:	6878      	ldr	r0, [r7, #4]
 8006eae:	f000 f873 	bl	8006f98 <USBD_CtlError>
      break;
 8006eb2:	bf00      	nop
  }
}
 8006eb4:	bf00      	nop
 8006eb6:	3708      	adds	r7, #8
 8006eb8:	46bd      	mov	sp, r7
 8006eba:	bd80      	pop	{r7, pc}

08006ebc <USBD_SetFeature>:
* @param  req: usb request
* @retval status
*/
static void USBD_SetFeature(USBD_HandleTypeDef *pdev,
                            USBD_SetupReqTypedef *req)
{
 8006ebc:	b580      	push	{r7, lr}
 8006ebe:	b082      	sub	sp, #8
 8006ec0:	af00      	add	r7, sp, #0
 8006ec2:	6078      	str	r0, [r7, #4]
 8006ec4:	6039      	str	r1, [r7, #0]
  if (req->wValue == USB_FEATURE_REMOTE_WAKEUP)
 8006ec6:	683b      	ldr	r3, [r7, #0]
 8006ec8:	885b      	ldrh	r3, [r3, #2]
 8006eca:	2b01      	cmp	r3, #1
 8006ecc:	d106      	bne.n	8006edc <USBD_SetFeature+0x20>
  {
    pdev->dev_remote_wakeup = 1U;
 8006ece:	687b      	ldr	r3, [r7, #4]
 8006ed0:	2201      	movs	r2, #1
 8006ed2:	f8c3 22a4 	str.w	r2, [r3, #676]	@ 0x2a4
    USBD_CtlSendStatus(pdev);
 8006ed6:	6878      	ldr	r0, [r7, #4]
 8006ed8:	f000 faa0 	bl	800741c <USBD_CtlSendStatus>
  }
}
 8006edc:	bf00      	nop
 8006ede:	3708      	adds	r7, #8
 8006ee0:	46bd      	mov	sp, r7
 8006ee2:	bd80      	pop	{r7, pc}

08006ee4 <USBD_ClrFeature>:
* @param  req: usb request
* @retval status
*/
static void USBD_ClrFeature(USBD_HandleTypeDef *pdev,
                            USBD_SetupReqTypedef *req)
{
 8006ee4:	b580      	push	{r7, lr}
 8006ee6:	b082      	sub	sp, #8
 8006ee8:	af00      	add	r7, sp, #0
 8006eea:	6078      	str	r0, [r7, #4]
 8006eec:	6039      	str	r1, [r7, #0]
  switch (pdev->dev_state)
 8006eee:	687b      	ldr	r3, [r7, #4]
 8006ef0:	f893 329c 	ldrb.w	r3, [r3, #668]	@ 0x29c
 8006ef4:	3b01      	subs	r3, #1
 8006ef6:	2b02      	cmp	r3, #2
 8006ef8:	d80b      	bhi.n	8006f12 <USBD_ClrFeature+0x2e>
  {
    case USBD_STATE_DEFAULT:
    case USBD_STATE_ADDRESSED:
    case USBD_STATE_CONFIGURED:
      if (req->wValue == USB_FEATURE_REMOTE_WAKEUP)
 8006efa:	683b      	ldr	r3, [r7, #0]
 8006efc:	885b      	ldrh	r3, [r3, #2]
 8006efe:	2b01      	cmp	r3, #1
 8006f00:	d10c      	bne.n	8006f1c <USBD_ClrFeature+0x38>
      {
        pdev->dev_remote_wakeup = 0U;
 8006f02:	687b      	ldr	r3, [r7, #4]
 8006f04:	2200      	movs	r2, #0
 8006f06:	f8c3 22a4 	str.w	r2, [r3, #676]	@ 0x2a4
        USBD_CtlSendStatus(pdev);
 8006f0a:	6878      	ldr	r0, [r7, #4]
 8006f0c:	f000 fa86 	bl	800741c <USBD_CtlSendStatus>
      }
      break;
 8006f10:	e004      	b.n	8006f1c <USBD_ClrFeature+0x38>

    default:
      USBD_CtlError(pdev, req);
 8006f12:	6839      	ldr	r1, [r7, #0]
 8006f14:	6878      	ldr	r0, [r7, #4]
 8006f16:	f000 f83f 	bl	8006f98 <USBD_CtlError>
      break;
 8006f1a:	e000      	b.n	8006f1e <USBD_ClrFeature+0x3a>
      break;
 8006f1c:	bf00      	nop
  }
}
 8006f1e:	bf00      	nop
 8006f20:	3708      	adds	r7, #8
 8006f22:	46bd      	mov	sp, r7
 8006f24:	bd80      	pop	{r7, pc}

08006f26 <USBD_ParseSetupRequest>:
* @param  req: usb request
* @retval None
*/

void USBD_ParseSetupRequest(USBD_SetupReqTypedef *req, uint8_t *pdata)
{
 8006f26:	b480      	push	{r7}
 8006f28:	b083      	sub	sp, #12
 8006f2a:	af00      	add	r7, sp, #0
 8006f2c:	6078      	str	r0, [r7, #4]
 8006f2e:	6039      	str	r1, [r7, #0]
  req->bmRequest = *(uint8_t *)(pdata);
 8006f30:	683b      	ldr	r3, [r7, #0]
 8006f32:	781a      	ldrb	r2, [r3, #0]
 8006f34:	687b      	ldr	r3, [r7, #4]
 8006f36:	701a      	strb	r2, [r3, #0]
  req->bRequest = *(uint8_t *)(pdata + 1U);
 8006f38:	683b      	ldr	r3, [r7, #0]
 8006f3a:	785a      	ldrb	r2, [r3, #1]
 8006f3c:	687b      	ldr	r3, [r7, #4]
 8006f3e:	705a      	strb	r2, [r3, #1]
  req->wValue = SWAPBYTE(pdata + 2U);
 8006f40:	683b      	ldr	r3, [r7, #0]
 8006f42:	3302      	adds	r3, #2
 8006f44:	781b      	ldrb	r3, [r3, #0]
 8006f46:	461a      	mov	r2, r3
 8006f48:	683b      	ldr	r3, [r7, #0]
 8006f4a:	3303      	adds	r3, #3
 8006f4c:	781b      	ldrb	r3, [r3, #0]
 8006f4e:	021b      	lsls	r3, r3, #8
 8006f50:	b29b      	uxth	r3, r3
 8006f52:	4413      	add	r3, r2
 8006f54:	b29a      	uxth	r2, r3
 8006f56:	687b      	ldr	r3, [r7, #4]
 8006f58:	805a      	strh	r2, [r3, #2]
  req->wIndex = SWAPBYTE(pdata + 4U);
 8006f5a:	683b      	ldr	r3, [r7, #0]
 8006f5c:	3304      	adds	r3, #4
 8006f5e:	781b      	ldrb	r3, [r3, #0]
 8006f60:	461a      	mov	r2, r3
 8006f62:	683b      	ldr	r3, [r7, #0]
 8006f64:	3305      	adds	r3, #5
 8006f66:	781b      	ldrb	r3, [r3, #0]
 8006f68:	021b      	lsls	r3, r3, #8
 8006f6a:	b29b      	uxth	r3, r3
 8006f6c:	4413      	add	r3, r2
 8006f6e:	b29a      	uxth	r2, r3
 8006f70:	687b      	ldr	r3, [r7, #4]
 8006f72:	809a      	strh	r2, [r3, #4]
  req->wLength = SWAPBYTE(pdata + 6U);
 8006f74:	683b      	ldr	r3, [r7, #0]
 8006f76:	3306      	adds	r3, #6
 8006f78:	781b      	ldrb	r3, [r3, #0]
 8006f7a:	461a      	mov	r2, r3
 8006f7c:	683b      	ldr	r3, [r7, #0]
 8006f7e:	3307      	adds	r3, #7
 8006f80:	781b      	ldrb	r3, [r3, #0]
 8006f82:	021b      	lsls	r3, r3, #8
 8006f84:	b29b      	uxth	r3, r3
 8006f86:	4413      	add	r3, r2
 8006f88:	b29a      	uxth	r2, r3
 8006f8a:	687b      	ldr	r3, [r7, #4]
 8006f8c:	80da      	strh	r2, [r3, #6]

}
 8006f8e:	bf00      	nop
 8006f90:	370c      	adds	r7, #12
 8006f92:	46bd      	mov	sp, r7
 8006f94:	bc80      	pop	{r7}
 8006f96:	4770      	bx	lr

08006f98 <USBD_CtlError>:
* @retval None
*/

void USBD_CtlError(USBD_HandleTypeDef *pdev,
                   USBD_SetupReqTypedef *req)
{
 8006f98:	b580      	push	{r7, lr}
 8006f9a:	b082      	sub	sp, #8
 8006f9c:	af00      	add	r7, sp, #0
 8006f9e:	6078      	str	r0, [r7, #4]
 8006fa0:	6039      	str	r1, [r7, #0]
  USBD_LL_StallEP(pdev, 0x80U);
 8006fa2:	2180      	movs	r1, #128	@ 0x80
 8006fa4:	6878      	ldr	r0, [r7, #4]
 8006fa6:	f000 fcfd 	bl	80079a4 <USBD_LL_StallEP>
  USBD_LL_StallEP(pdev, 0U);
 8006faa:	2100      	movs	r1, #0
 8006fac:	6878      	ldr	r0, [r7, #4]
 8006fae:	f000 fcf9 	bl	80079a4 <USBD_LL_StallEP>
}
 8006fb2:	bf00      	nop
 8006fb4:	3708      	adds	r7, #8
 8006fb6:	46bd      	mov	sp, r7
 8006fb8:	bd80      	pop	{r7, pc}

08006fba <USBD_GetString>:
  * @param  unicode : Formatted string buffer (unicode)
  * @param  len : descriptor length
  * @retval None
  */
void USBD_GetString(uint8_t *desc, uint8_t *unicode, uint16_t *len)
{
 8006fba:	b580      	push	{r7, lr}
 8006fbc:	b086      	sub	sp, #24
 8006fbe:	af00      	add	r7, sp, #0
 8006fc0:	60f8      	str	r0, [r7, #12]
 8006fc2:	60b9      	str	r1, [r7, #8]
 8006fc4:	607a      	str	r2, [r7, #4]
  uint8_t idx = 0U;
 8006fc6:	2300      	movs	r3, #0
 8006fc8:	75fb      	strb	r3, [r7, #23]

  if (desc != NULL)
 8006fca:	68fb      	ldr	r3, [r7, #12]
 8006fcc:	2b00      	cmp	r3, #0
 8006fce:	d032      	beq.n	8007036 <USBD_GetString+0x7c>
  {
    *len = (uint16_t)USBD_GetLen(desc) * 2U + 2U;
 8006fd0:	68f8      	ldr	r0, [r7, #12]
 8006fd2:	f000 f834 	bl	800703e <USBD_GetLen>
 8006fd6:	4603      	mov	r3, r0
 8006fd8:	3301      	adds	r3, #1
 8006fda:	b29b      	uxth	r3, r3
 8006fdc:	005b      	lsls	r3, r3, #1
 8006fde:	b29a      	uxth	r2, r3
 8006fe0:	687b      	ldr	r3, [r7, #4]
 8006fe2:	801a      	strh	r2, [r3, #0]
    unicode[idx++] = *(uint8_t *)(void *)len;
 8006fe4:	7dfb      	ldrb	r3, [r7, #23]
 8006fe6:	1c5a      	adds	r2, r3, #1
 8006fe8:	75fa      	strb	r2, [r7, #23]
 8006fea:	461a      	mov	r2, r3
 8006fec:	68bb      	ldr	r3, [r7, #8]
 8006fee:	4413      	add	r3, r2
 8006ff0:	687a      	ldr	r2, [r7, #4]
 8006ff2:	7812      	ldrb	r2, [r2, #0]
 8006ff4:	701a      	strb	r2, [r3, #0]
    unicode[idx++] = USB_DESC_TYPE_STRING;
 8006ff6:	7dfb      	ldrb	r3, [r7, #23]
 8006ff8:	1c5a      	adds	r2, r3, #1
 8006ffa:	75fa      	strb	r2, [r7, #23]
 8006ffc:	461a      	mov	r2, r3
 8006ffe:	68bb      	ldr	r3, [r7, #8]
 8007000:	4413      	add	r3, r2
 8007002:	2203      	movs	r2, #3
 8007004:	701a      	strb	r2, [r3, #0]

    while (*desc != '\0')
 8007006:	e012      	b.n	800702e <USBD_GetString+0x74>
    {
      unicode[idx++] = *desc++;
 8007008:	68fb      	ldr	r3, [r7, #12]
 800700a:	1c5a      	adds	r2, r3, #1
 800700c:	60fa      	str	r2, [r7, #12]
 800700e:	7dfa      	ldrb	r2, [r7, #23]
 8007010:	1c51      	adds	r1, r2, #1
 8007012:	75f9      	strb	r1, [r7, #23]
 8007014:	4611      	mov	r1, r2
 8007016:	68ba      	ldr	r2, [r7, #8]
 8007018:	440a      	add	r2, r1
 800701a:	781b      	ldrb	r3, [r3, #0]
 800701c:	7013      	strb	r3, [r2, #0]
      unicode[idx++] =  0U;
 800701e:	7dfb      	ldrb	r3, [r7, #23]
 8007020:	1c5a      	adds	r2, r3, #1
 8007022:	75fa      	strb	r2, [r7, #23]
 8007024:	461a      	mov	r2, r3
 8007026:	68bb      	ldr	r3, [r7, #8]
 8007028:	4413      	add	r3, r2
 800702a:	2200      	movs	r2, #0
 800702c:	701a      	strb	r2, [r3, #0]
    while (*desc != '\0')
 800702e:	68fb      	ldr	r3, [r7, #12]
 8007030:	781b      	ldrb	r3, [r3, #0]
 8007032:	2b00      	cmp	r3, #0
 8007034:	d1e8      	bne.n	8007008 <USBD_GetString+0x4e>
    }
  }
}
 8007036:	bf00      	nop
 8007038:	3718      	adds	r7, #24
 800703a:	46bd      	mov	sp, r7
 800703c:	bd80      	pop	{r7, pc}

0800703e <USBD_GetLen>:
  *         return the string length
   * @param  buf : pointer to the ascii string buffer
  * @retval string length
  */
static uint8_t USBD_GetLen(uint8_t *buf)
{
 800703e:	b480      	push	{r7}
 8007040:	b085      	sub	sp, #20
 8007042:	af00      	add	r7, sp, #0
 8007044:	6078      	str	r0, [r7, #4]
  uint8_t  len = 0U;
 8007046:	2300      	movs	r3, #0
 8007048:	73fb      	strb	r3, [r7, #15]

  while (*buf != '\0')
 800704a:	e005      	b.n	8007058 <USBD_GetLen+0x1a>
  {
    len++;
 800704c:	7bfb      	ldrb	r3, [r7, #15]
 800704e:	3301      	adds	r3, #1
 8007050:	73fb      	strb	r3, [r7, #15]
    buf++;
 8007052:	687b      	ldr	r3, [r7, #4]
 8007054:	3301      	adds	r3, #1
 8007056:	607b      	str	r3, [r7, #4]
  while (*buf != '\0')
 8007058:	687b      	ldr	r3, [r7, #4]
 800705a:	781b      	ldrb	r3, [r3, #0]
 800705c:	2b00      	cmp	r3, #0
 800705e:	d1f5      	bne.n	800704c <USBD_GetLen+0xe>
  }

  return len;
 8007060:	7bfb      	ldrb	r3, [r7, #15]
}
 8007062:	4618      	mov	r0, r3
 8007064:	3714      	adds	r7, #20
 8007066:	46bd      	mov	sp, r7
 8007068:	bc80      	pop	{r7}
 800706a:	4770      	bx	lr

0800706c <USBD_HID_Init>:
  * @param  pdev: device instance
  * @param  cfgidx: Configuration index
  * @retval status
  */
static uint8_t  USBD_HID_Init(USBD_HandleTypeDef *pdev, uint8_t cfgidx)
{
 800706c:	b580      	push	{r7, lr}
 800706e:	b082      	sub	sp, #8
 8007070:	af00      	add	r7, sp, #0
 8007072:	6078      	str	r0, [r7, #4]
 8007074:	460b      	mov	r3, r1
 8007076:	70fb      	strb	r3, [r7, #3]
  /* Open EP IN */
  USBD_LL_OpenEP(pdev, HID_EPIN_ADDR, USBD_EP_TYPE_INTR, HID_EPIN_SIZE);
 8007078:	2304      	movs	r3, #4
 800707a:	2203      	movs	r2, #3
 800707c:	2181      	movs	r1, #129	@ 0x81
 800707e:	6878      	ldr	r0, [r7, #4]
 8007080:	f000 fc4b 	bl	800791a <USBD_LL_OpenEP>
  pdev->ep_in[HID_EPIN_ADDR & 0xFU].is_used = 1U;
 8007084:	687b      	ldr	r3, [r7, #4]
 8007086:	2201      	movs	r2, #1
 8007088:	62da      	str	r2, [r3, #44]	@ 0x2c

  pdev->pClassData = USBD_malloc(sizeof(USBD_HID_HandleTypeDef));
 800708a:	2010      	movs	r0, #16
 800708c:	f000 fd58 	bl	8007b40 <USBD_static_malloc>
 8007090:	4602      	mov	r2, r0
 8007092:	687b      	ldr	r3, [r7, #4]
 8007094:	f8c3 22b8 	str.w	r2, [r3, #696]	@ 0x2b8

  if (pdev->pClassData == NULL)
 8007098:	687b      	ldr	r3, [r7, #4]
 800709a:	f8d3 32b8 	ldr.w	r3, [r3, #696]	@ 0x2b8
 800709e:	2b00      	cmp	r3, #0
 80070a0:	d101      	bne.n	80070a6 <USBD_HID_Init+0x3a>
  {
    return USBD_FAIL;
 80070a2:	2302      	movs	r3, #2
 80070a4:	e005      	b.n	80070b2 <USBD_HID_Init+0x46>
  }

  ((USBD_HID_HandleTypeDef *)pdev->pClassData)->state = HID_IDLE;
 80070a6:	687b      	ldr	r3, [r7, #4]
 80070a8:	f8d3 32b8 	ldr.w	r3, [r3, #696]	@ 0x2b8
 80070ac:	2200      	movs	r2, #0
 80070ae:	731a      	strb	r2, [r3, #12]

  return USBD_OK;
 80070b0:	2300      	movs	r3, #0
}
 80070b2:	4618      	mov	r0, r3
 80070b4:	3708      	adds	r7, #8
 80070b6:	46bd      	mov	sp, r7
 80070b8:	bd80      	pop	{r7, pc}

080070ba <USBD_HID_DeInit>:
  * @param  cfgidx: Configuration index
  * @retval status
  */
static uint8_t  USBD_HID_DeInit(USBD_HandleTypeDef *pdev,
                                uint8_t cfgidx)
{
 80070ba:	b580      	push	{r7, lr}
 80070bc:	b082      	sub	sp, #8
 80070be:	af00      	add	r7, sp, #0
 80070c0:	6078      	str	r0, [r7, #4]
 80070c2:	460b      	mov	r3, r1
 80070c4:	70fb      	strb	r3, [r7, #3]
  /* Close HID EPs */
  USBD_LL_CloseEP(pdev, HID_EPIN_ADDR);
 80070c6:	2181      	movs	r1, #129	@ 0x81
 80070c8:	6878      	ldr	r0, [r7, #4]
 80070ca:	f000 fc4c 	bl	8007966 <USBD_LL_CloseEP>
  pdev->ep_in[HID_EPIN_ADDR & 0xFU].is_used = 0U;
 80070ce:	687b      	ldr	r3, [r7, #4]
 80070d0:	2200      	movs	r2, #0
 80070d2:	62da      	str	r2, [r3, #44]	@ 0x2c

  /* FRee allocated memory */
  if (pdev->pClassData != NULL)
 80070d4:	687b      	ldr	r3, [r7, #4]
 80070d6:	f8d3 32b8 	ldr.w	r3, [r3, #696]	@ 0x2b8
 80070da:	2b00      	cmp	r3, #0
 80070dc:	d009      	beq.n	80070f2 <USBD_HID_DeInit+0x38>
  {
    USBD_free(pdev->pClassData);
 80070de:	687b      	ldr	r3, [r7, #4]
 80070e0:	f8d3 32b8 	ldr.w	r3, [r3, #696]	@ 0x2b8
 80070e4:	4618      	mov	r0, r3
 80070e6:	f000 fd37 	bl	8007b58 <USBD_static_free>
    pdev->pClassData = NULL;
 80070ea:	687b      	ldr	r3, [r7, #4]
 80070ec:	2200      	movs	r2, #0
 80070ee:	f8c3 22b8 	str.w	r2, [r3, #696]	@ 0x2b8
  }

  return USBD_OK;
 80070f2:	2300      	movs	r3, #0
}
 80070f4:	4618      	mov	r0, r3
 80070f6:	3708      	adds	r7, #8
 80070f8:	46bd      	mov	sp, r7
 80070fa:	bd80      	pop	{r7, pc}

080070fc <USBD_HID_Setup>:
  * @retval status
  */

static uint8_t  USBD_HID_Setup(USBD_HandleTypeDef *pdev,
                               USBD_SetupReqTypedef *req)
{
 80070fc:	b580      	push	{r7, lr}
 80070fe:	b088      	sub	sp, #32
 8007100:	af00      	add	r7, sp, #0
 8007102:	6078      	str	r0, [r7, #4]
 8007104:	6039      	str	r1, [r7, #0]
  USBD_HID_HandleTypeDef *hhid = (USBD_HID_HandleTypeDef *) pdev->pClassData;
 8007106:	687b      	ldr	r3, [r7, #4]
 8007108:	f8d3 32b8 	ldr.w	r3, [r3, #696]	@ 0x2b8
 800710c:	613b      	str	r3, [r7, #16]
  uint16_t len = 0U;
 800710e:	2300      	movs	r3, #0
 8007110:	83fb      	strh	r3, [r7, #30]
  uint8_t *pbuf = NULL;
 8007112:	2300      	movs	r3, #0
 8007114:	61bb      	str	r3, [r7, #24]
  uint16_t status_info = 0U;
 8007116:	2300      	movs	r3, #0
 8007118:	81fb      	strh	r3, [r7, #14]
  USBD_StatusTypeDef ret = USBD_OK;
 800711a:	2300      	movs	r3, #0
 800711c:	75fb      	strb	r3, [r7, #23]

  switch (req->bmRequest & USB_REQ_TYPE_MASK)
 800711e:	683b      	ldr	r3, [r7, #0]
 8007120:	781b      	ldrb	r3, [r3, #0]
 8007122:	f003 0360 	and.w	r3, r3, #96	@ 0x60
 8007126:	2b00      	cmp	r3, #0
 8007128:	d045      	beq.n	80071b6 <USBD_HID_Setup+0xba>
 800712a:	2b20      	cmp	r3, #32
 800712c:	f040 80d3 	bne.w	80072d6 <USBD_HID_Setup+0x1da>
  {
    case USB_REQ_TYPE_CLASS :
      switch (req->bRequest)
 8007130:	683b      	ldr	r3, [r7, #0]
 8007132:	785b      	ldrb	r3, [r3, #1]
 8007134:	3b02      	subs	r3, #2
 8007136:	2b09      	cmp	r3, #9
 8007138:	d835      	bhi.n	80071a6 <USBD_HID_Setup+0xaa>
 800713a:	a201      	add	r2, pc, #4	@ (adr r2, 8007140 <USBD_HID_Setup+0x44>)
 800713c:	f852 f023 	ldr.w	pc, [r2, r3, lsl #2]
 8007140:	08007197 	.word	0x08007197
 8007144:	08007177 	.word	0x08007177
 8007148:	080071a7 	.word	0x080071a7
 800714c:	080071a7 	.word	0x080071a7
 8007150:	080071a7 	.word	0x080071a7
 8007154:	080071a7 	.word	0x080071a7
 8007158:	080071a7 	.word	0x080071a7
 800715c:	080071a7 	.word	0x080071a7
 8007160:	08007185 	.word	0x08007185
 8007164:	08007169 	.word	0x08007169
      {
        case HID_REQ_SET_PROTOCOL:
          hhid->Protocol = (uint8_t)(req->wValue);
 8007168:	683b      	ldr	r3, [r7, #0]
 800716a:	885b      	ldrh	r3, [r3, #2]
 800716c:	b2db      	uxtb	r3, r3
 800716e:	461a      	mov	r2, r3
 8007170:	693b      	ldr	r3, [r7, #16]
 8007172:	601a      	str	r2, [r3, #0]
          break;
 8007174:	e01e      	b.n	80071b4 <USBD_HID_Setup+0xb8>

        case HID_REQ_GET_PROTOCOL:
          USBD_CtlSendData(pdev, (uint8_t *)(void *)&hhid->Protocol, 1U);
 8007176:	693b      	ldr	r3, [r7, #16]
 8007178:	2201      	movs	r2, #1
 800717a:	4619      	mov	r1, r3
 800717c:	6878      	ldr	r0, [r7, #4]
 800717e:	f000 f90d 	bl	800739c <USBD_CtlSendData>
          break;
 8007182:	e017      	b.n	80071b4 <USBD_HID_Setup+0xb8>

        case HID_REQ_SET_IDLE:
          hhid->IdleState = (uint8_t)(req->wValue >> 8);
 8007184:	683b      	ldr	r3, [r7, #0]
 8007186:	885b      	ldrh	r3, [r3, #2]
 8007188:	0a1b      	lsrs	r3, r3, #8
 800718a:	b29b      	uxth	r3, r3
 800718c:	b2db      	uxtb	r3, r3
 800718e:	461a      	mov	r2, r3
 8007190:	693b      	ldr	r3, [r7, #16]
 8007192:	605a      	str	r2, [r3, #4]
          break;
 8007194:	e00e      	b.n	80071b4 <USBD_HID_Setup+0xb8>

        case HID_REQ_GET_IDLE:
          USBD_CtlSendData(pdev, (uint8_t *)(void *)&hhid->IdleState, 1U);
 8007196:	693b      	ldr	r3, [r7, #16]
 8007198:	3304      	adds	r3, #4
 800719a:	2201      	movs	r2, #1
 800719c:	4619      	mov	r1, r3
 800719e:	6878      	ldr	r0, [r7, #4]
 80071a0:	f000 f8fc 	bl	800739c <USBD_CtlSendData>
          break;
 80071a4:	e006      	b.n	80071b4 <USBD_HID_Setup+0xb8>

        default:
          USBD_CtlError(pdev, req);
 80071a6:	6839      	ldr	r1, [r7, #0]
 80071a8:	6878      	ldr	r0, [r7, #4]
 80071aa:	f7ff fef5 	bl	8006f98 <USBD_CtlError>
          ret = USBD_FAIL;
 80071ae:	2302      	movs	r3, #2
 80071b0:	75fb      	strb	r3, [r7, #23]
          break;
 80071b2:	bf00      	nop
      }
      break;
 80071b4:	e096      	b.n	80072e4 <USBD_HID_Setup+0x1e8>
    case USB_REQ_TYPE_STANDARD:
      switch (req->bRequest)
 80071b6:	683b      	ldr	r3, [r7, #0]
 80071b8:	785b      	ldrb	r3, [r3, #1]
 80071ba:	2b0b      	cmp	r3, #11
 80071bc:	f200 8083 	bhi.w	80072c6 <USBD_HID_Setup+0x1ca>
 80071c0:	a201      	add	r2, pc, #4	@ (adr r2, 80071c8 <USBD_HID_Setup+0xcc>)
 80071c2:	f852 f023 	ldr.w	pc, [r2, r3, lsl #2]
 80071c6:	bf00      	nop
 80071c8:	080071f9 	.word	0x080071f9
 80071cc:	080072c7 	.word	0x080072c7
 80071d0:	080072c7 	.word	0x080072c7
 80071d4:	080072c7 	.word	0x080072c7
 80071d8:	080072c7 	.word	0x080072c7
 80071dc:	080072c7 	.word	0x080072c7
 80071e0:	08007221 	.word	0x08007221
 80071e4:	080072c7 	.word	0x080072c7
 80071e8:	080072c7 	.word	0x080072c7
 80071ec:	080072c7 	.word	0x080072c7
 80071f0:	08007279 	.word	0x08007279
 80071f4:	080072a1 	.word	0x080072a1
      {
        case USB_REQ_GET_STATUS:
          if (pdev->dev_state == USBD_STATE_CONFIGURED)
 80071f8:	687b      	ldr	r3, [r7, #4]
 80071fa:	f893 329c 	ldrb.w	r3, [r3, #668]	@ 0x29c
 80071fe:	2b03      	cmp	r3, #3
 8007200:	d107      	bne.n	8007212 <USBD_HID_Setup+0x116>
          {
            USBD_CtlSendData(pdev, (uint8_t *)(void *)&status_info, 2U);
 8007202:	f107 030e 	add.w	r3, r7, #14
 8007206:	2202      	movs	r2, #2
 8007208:	4619      	mov	r1, r3
 800720a:	6878      	ldr	r0, [r7, #4]
 800720c:	f000 f8c6 	bl	800739c <USBD_CtlSendData>
          else
          {
            USBD_CtlError(pdev, req);
            ret = USBD_FAIL;
          }
          break;
 8007210:	e060      	b.n	80072d4 <USBD_HID_Setup+0x1d8>
            USBD_CtlError(pdev, req);
 8007212:	6839      	ldr	r1, [r7, #0]
 8007214:	6878      	ldr	r0, [r7, #4]
 8007216:	f7ff febf 	bl	8006f98 <USBD_CtlError>
            ret = USBD_FAIL;
 800721a:	2302      	movs	r3, #2
 800721c:	75fb      	strb	r3, [r7, #23]
          break;
 800721e:	e059      	b.n	80072d4 <USBD_HID_Setup+0x1d8>

        case USB_REQ_GET_DESCRIPTOR:
          if (req->wValue >> 8 == HID_REPORT_DESC)
 8007220:	683b      	ldr	r3, [r7, #0]
 8007222:	885b      	ldrh	r3, [r3, #2]
 8007224:	0a1b      	lsrs	r3, r3, #8
 8007226:	b29b      	uxth	r3, r3
 8007228:	2b22      	cmp	r3, #34	@ 0x22
 800722a:	d108      	bne.n	800723e <USBD_HID_Setup+0x142>
          {
            len = MIN(HID_MOUSE_REPORT_DESC_SIZE, req->wLength);
 800722c:	683b      	ldr	r3, [r7, #0]
 800722e:	88db      	ldrh	r3, [r3, #6]
 8007230:	2b73      	cmp	r3, #115	@ 0x73
 8007232:	bf28      	it	cs
 8007234:	2373      	movcs	r3, #115	@ 0x73
 8007236:	83fb      	strh	r3, [r7, #30]
            pbuf = HID_MOUSE_ReportDesc;
 8007238:	4b2d      	ldr	r3, [pc, #180]	@ (80072f0 <USBD_HID_Setup+0x1f4>)
 800723a:	61bb      	str	r3, [r7, #24]
 800723c:	e015      	b.n	800726a <USBD_HID_Setup+0x16e>
          }
          else if (req->wValue >> 8 == HID_DESCRIPTOR_TYPE)
 800723e:	683b      	ldr	r3, [r7, #0]
 8007240:	885b      	ldrh	r3, [r3, #2]
 8007242:	0a1b      	lsrs	r3, r3, #8
 8007244:	b29b      	uxth	r3, r3
 8007246:	2b21      	cmp	r3, #33	@ 0x21
 8007248:	d108      	bne.n	800725c <USBD_HID_Setup+0x160>
          {
            pbuf = USBD_HID_Desc;
 800724a:	4b2a      	ldr	r3, [pc, #168]	@ (80072f4 <USBD_HID_Setup+0x1f8>)
 800724c:	61bb      	str	r3, [r7, #24]
            len = MIN(USB_HID_DESC_SIZ, req->wLength);
 800724e:	683b      	ldr	r3, [r7, #0]
 8007250:	88db      	ldrh	r3, [r3, #6]
 8007252:	2b09      	cmp	r3, #9
 8007254:	bf28      	it	cs
 8007256:	2309      	movcs	r3, #9
 8007258:	83fb      	strh	r3, [r7, #30]
 800725a:	e006      	b.n	800726a <USBD_HID_Setup+0x16e>
          }
          else
          {
            USBD_CtlError(pdev, req);
 800725c:	6839      	ldr	r1, [r7, #0]
 800725e:	6878      	ldr	r0, [r7, #4]
 8007260:	f7ff fe9a 	bl	8006f98 <USBD_CtlError>
            ret = USBD_FAIL;
 8007264:	2302      	movs	r3, #2
 8007266:	75fb      	strb	r3, [r7, #23]
            break;
 8007268:	e034      	b.n	80072d4 <USBD_HID_Setup+0x1d8>
          }
          USBD_CtlSendData(pdev, pbuf, len);
 800726a:	8bfb      	ldrh	r3, [r7, #30]
 800726c:	461a      	mov	r2, r3
 800726e:	69b9      	ldr	r1, [r7, #24]
 8007270:	6878      	ldr	r0, [r7, #4]
 8007272:	f000 f893 	bl	800739c <USBD_CtlSendData>
          break;
 8007276:	e02d      	b.n	80072d4 <USBD_HID_Setup+0x1d8>

        case USB_REQ_GET_INTERFACE :
          if (pdev->dev_state == USBD_STATE_CONFIGURED)
 8007278:	687b      	ldr	r3, [r7, #4]
 800727a:	f893 329c 	ldrb.w	r3, [r3, #668]	@ 0x29c
 800727e:	2b03      	cmp	r3, #3
 8007280:	d107      	bne.n	8007292 <USBD_HID_Setup+0x196>
          {
            USBD_CtlSendData(pdev, (uint8_t *)(void *)&hhid->AltSetting, 1U);
 8007282:	693b      	ldr	r3, [r7, #16]
 8007284:	3308      	adds	r3, #8
 8007286:	2201      	movs	r2, #1
 8007288:	4619      	mov	r1, r3
 800728a:	6878      	ldr	r0, [r7, #4]
 800728c:	f000 f886 	bl	800739c <USBD_CtlSendData>
          else
          {
            USBD_CtlError(pdev, req);
            ret = USBD_FAIL;
          }
          break;
 8007290:	e020      	b.n	80072d4 <USBD_HID_Setup+0x1d8>
            USBD_CtlError(pdev, req);
 8007292:	6839      	ldr	r1, [r7, #0]
 8007294:	6878      	ldr	r0, [r7, #4]
 8007296:	f7ff fe7f 	bl	8006f98 <USBD_CtlError>
            ret = USBD_FAIL;
 800729a:	2302      	movs	r3, #2
 800729c:	75fb      	strb	r3, [r7, #23]
          break;
 800729e:	e019      	b.n	80072d4 <USBD_HID_Setup+0x1d8>

        case USB_REQ_SET_INTERFACE :
          if (pdev->dev_state == USBD_STATE_CONFIGURED)
 80072a0:	687b      	ldr	r3, [r7, #4]
 80072a2:	f893 329c 	ldrb.w	r3, [r3, #668]	@ 0x29c
 80072a6:	2b03      	cmp	r3, #3
 80072a8:	d106      	bne.n	80072b8 <USBD_HID_Setup+0x1bc>
          {
            hhid->AltSetting = (uint8_t)(req->wValue);
 80072aa:	683b      	ldr	r3, [r7, #0]
 80072ac:	885b      	ldrh	r3, [r3, #2]
 80072ae:	b2db      	uxtb	r3, r3
 80072b0:	461a      	mov	r2, r3
 80072b2:	693b      	ldr	r3, [r7, #16]
 80072b4:	609a      	str	r2, [r3, #8]
          else
          {
            USBD_CtlError(pdev, req);
            ret = USBD_FAIL;
          }
          break;
 80072b6:	e00d      	b.n	80072d4 <USBD_HID_Setup+0x1d8>
            USBD_CtlError(pdev, req);
 80072b8:	6839      	ldr	r1, [r7, #0]
 80072ba:	6878      	ldr	r0, [r7, #4]
 80072bc:	f7ff fe6c 	bl	8006f98 <USBD_CtlError>
            ret = USBD_FAIL;
 80072c0:	2302      	movs	r3, #2
 80072c2:	75fb      	strb	r3, [r7, #23]
          break;
 80072c4:	e006      	b.n	80072d4 <USBD_HID_Setup+0x1d8>

        default:
          USBD_CtlError(pdev, req);
 80072c6:	6839      	ldr	r1, [r7, #0]
 80072c8:	6878      	ldr	r0, [r7, #4]
 80072ca:	f7ff fe65 	bl	8006f98 <USBD_CtlError>
          ret = USBD_FAIL;
 80072ce:	2302      	movs	r3, #2
 80072d0:	75fb      	strb	r3, [r7, #23]
          break;
 80072d2:	bf00      	nop
      }
      break;
 80072d4:	e006      	b.n	80072e4 <USBD_HID_Setup+0x1e8>

    default:
      USBD_CtlError(pdev, req);
 80072d6:	6839      	ldr	r1, [r7, #0]
 80072d8:	6878      	ldr	r0, [r7, #4]
 80072da:	f7ff fe5d 	bl	8006f98 <USBD_CtlError>
      ret = USBD_FAIL;
 80072de:	2302      	movs	r3, #2
 80072e0:	75fb      	strb	r3, [r7, #23]
      break;
 80072e2:	bf00      	nop
  }

  return ret;
 80072e4:	7dfb      	ldrb	r3, [r7, #23]
}
 80072e6:	4618      	mov	r0, r3
 80072e8:	3720      	adds	r7, #32
 80072ea:	46bd      	mov	sp, r7
 80072ec:	bd80      	pop	{r7, pc}
 80072ee:	bf00      	nop
 80072f0:	200000c8 	.word	0x200000c8
 80072f4:	200000b0 	.word	0x200000b0

080072f8 <USBD_HID_GetFSCfgDesc>:
  * @param  speed : current device speed
  * @param  length : pointer data length
  * @retval pointer to descriptor buffer
  */
static uint8_t  *USBD_HID_GetFSCfgDesc(uint16_t *length)
{
 80072f8:	b480      	push	{r7}
 80072fa:	b083      	sub	sp, #12
 80072fc:	af00      	add	r7, sp, #0
 80072fe:	6078      	str	r0, [r7, #4]
  *length = sizeof(USBD_HID_CfgFSDesc);
 8007300:	687b      	ldr	r3, [r7, #4]
 8007302:	2222      	movs	r2, #34	@ 0x22
 8007304:	801a      	strh	r2, [r3, #0]
  return USBD_HID_CfgFSDesc;
 8007306:	4b03      	ldr	r3, [pc, #12]	@ (8007314 <USBD_HID_GetFSCfgDesc+0x1c>)
}
 8007308:	4618      	mov	r0, r3
 800730a:	370c      	adds	r7, #12
 800730c:	46bd      	mov	sp, r7
 800730e:	bc80      	pop	{r7}
 8007310:	4770      	bx	lr
 8007312:	bf00      	nop
 8007314:	20000044 	.word	0x20000044

08007318 <USBD_HID_GetHSCfgDesc>:
  * @param  speed : current device speed
  * @param  length : pointer data length
  * @retval pointer to descriptor buffer
  */
static uint8_t  *USBD_HID_GetHSCfgDesc(uint16_t *length)
{
 8007318:	b480      	push	{r7}
 800731a:	b083      	sub	sp, #12
 800731c:	af00      	add	r7, sp, #0
 800731e:	6078      	str	r0, [r7, #4]
  *length = sizeof(USBD_HID_CfgHSDesc);
 8007320:	687b      	ldr	r3, [r7, #4]
 8007322:	2222      	movs	r2, #34	@ 0x22
 8007324:	801a      	strh	r2, [r3, #0]
  return USBD_HID_CfgHSDesc;
 8007326:	4b03      	ldr	r3, [pc, #12]	@ (8007334 <USBD_HID_GetHSCfgDesc+0x1c>)
}
 8007328:	4618      	mov	r0, r3
 800732a:	370c      	adds	r7, #12
 800732c:	46bd      	mov	sp, r7
 800732e:	bc80      	pop	{r7}
 8007330:	4770      	bx	lr
 8007332:	bf00      	nop
 8007334:	20000068 	.word	0x20000068

08007338 <USBD_HID_GetOtherSpeedCfgDesc>:
  * @param  speed : current device speed
  * @param  length : pointer data length
  * @retval pointer to descriptor buffer
  */
static uint8_t  *USBD_HID_GetOtherSpeedCfgDesc(uint16_t *length)
{
 8007338:	b480      	push	{r7}
 800733a:	b083      	sub	sp, #12
 800733c:	af00      	add	r7, sp, #0
 800733e:	6078      	str	r0, [r7, #4]
  *length = sizeof(USBD_HID_OtherSpeedCfgDesc);
 8007340:	687b      	ldr	r3, [r7, #4]
 8007342:	2222      	movs	r2, #34	@ 0x22
 8007344:	801a      	strh	r2, [r3, #0]
  return USBD_HID_OtherSpeedCfgDesc;
 8007346:	4b03      	ldr	r3, [pc, #12]	@ (8007354 <USBD_HID_GetOtherSpeedCfgDesc+0x1c>)
}
 8007348:	4618      	mov	r0, r3
 800734a:	370c      	adds	r7, #12
 800734c:	46bd      	mov	sp, r7
 800734e:	bc80      	pop	{r7}
 8007350:	4770      	bx	lr
 8007352:	bf00      	nop
 8007354:	2000008c 	.word	0x2000008c

08007358 <USBD_HID_DataIn>:
  * @param  epnum: endpoint index
  * @retval status
  */
static uint8_t  USBD_HID_DataIn(USBD_HandleTypeDef *pdev,
                                uint8_t epnum)
{
 8007358:	b480      	push	{r7}
 800735a:	b083      	sub	sp, #12
 800735c:	af00      	add	r7, sp, #0
 800735e:	6078      	str	r0, [r7, #4]
 8007360:	460b      	mov	r3, r1
 8007362:	70fb      	strb	r3, [r7, #3]

  /* Ensure that the FIFO is empty before a new transfer, this condition could
  be caused by  a new transfer before the end of the previous transfer */
  ((USBD_HID_HandleTypeDef *)pdev->pClassData)->state = HID_IDLE;
 8007364:	687b      	ldr	r3, [r7, #4]
 8007366:	f8d3 32b8 	ldr.w	r3, [r3, #696]	@ 0x2b8
 800736a:	2200      	movs	r2, #0
 800736c:	731a      	strb	r2, [r3, #12]
  return USBD_OK;
 800736e:	2300      	movs	r3, #0
}
 8007370:	4618      	mov	r0, r3
 8007372:	370c      	adds	r7, #12
 8007374:	46bd      	mov	sp, r7
 8007376:	bc80      	pop	{r7}
 8007378:	4770      	bx	lr
	...

0800737c <USBD_HID_GetDeviceQualifierDesc>:
*         return Device Qualifier descriptor
* @param  length : pointer data length
* @retval pointer to descriptor buffer
*/
static uint8_t  *USBD_HID_GetDeviceQualifierDesc(uint16_t *length)
{
 800737c:	b480      	push	{r7}
 800737e:	b083      	sub	sp, #12
 8007380:	af00      	add	r7, sp, #0
 8007382:	6078      	str	r0, [r7, #4]
  *length = sizeof(USBD_HID_DeviceQualifierDesc);
 8007384:	687b      	ldr	r3, [r7, #4]
 8007386:	220a      	movs	r2, #10
 8007388:	801a      	strh	r2, [r3, #0]
  return USBD_HID_DeviceQualifierDesc;
 800738a:	4b03      	ldr	r3, [pc, #12]	@ (8007398 <USBD_HID_GetDeviceQualifierDesc+0x1c>)
}
 800738c:	4618      	mov	r0, r3
 800738e:	370c      	adds	r7, #12
 8007390:	46bd      	mov	sp, r7
 8007392:	bc80      	pop	{r7}
 8007394:	4770      	bx	lr
 8007396:	bf00      	nop
 8007398:	200000bc 	.word	0x200000bc

0800739c <USBD_CtlSendData>:
* @param  len: length of data to be sent
* @retval status
*/
USBD_StatusTypeDef USBD_CtlSendData(USBD_HandleTypeDef *pdev,
                                    uint8_t *pbuf, uint16_t len)
{
 800739c:	b580      	push	{r7, lr}
 800739e:	b084      	sub	sp, #16
 80073a0:	af00      	add	r7, sp, #0
 80073a2:	60f8      	str	r0, [r7, #12]
 80073a4:	60b9      	str	r1, [r7, #8]
 80073a6:	4613      	mov	r3, r2
 80073a8:	80fb      	strh	r3, [r7, #6]
  /* Set EP0 State */
  pdev->ep0_state = USBD_EP0_DATA_IN;
 80073aa:	68fb      	ldr	r3, [r7, #12]
 80073ac:	2202      	movs	r2, #2
 80073ae:	f8c3 2294 	str.w	r2, [r3, #660]	@ 0x294
  pdev->ep_in[0].total_length = len;
 80073b2:	88fa      	ldrh	r2, [r7, #6]
 80073b4:	68fb      	ldr	r3, [r7, #12]
 80073b6:	61da      	str	r2, [r3, #28]
  pdev->ep_in[0].rem_length   = len;
 80073b8:	88fa      	ldrh	r2, [r7, #6]
 80073ba:	68fb      	ldr	r3, [r7, #12]
 80073bc:	621a      	str	r2, [r3, #32]

  /* Start the transfer */
  USBD_LL_Transmit(pdev, 0x00U, pbuf, len);
 80073be:	88fb      	ldrh	r3, [r7, #6]
 80073c0:	68ba      	ldr	r2, [r7, #8]
 80073c2:	2100      	movs	r1, #0
 80073c4:	68f8      	ldr	r0, [r7, #12]
 80073c6:	f000 fb75 	bl	8007ab4 <USBD_LL_Transmit>

  return USBD_OK;
 80073ca:	2300      	movs	r3, #0
}
 80073cc:	4618      	mov	r0, r3
 80073ce:	3710      	adds	r7, #16
 80073d0:	46bd      	mov	sp, r7
 80073d2:	bd80      	pop	{r7, pc}

080073d4 <USBD_CtlContinueSendData>:
* @param  len: length of data to be sent
* @retval status
*/
USBD_StatusTypeDef USBD_CtlContinueSendData(USBD_HandleTypeDef *pdev,
                                            uint8_t *pbuf, uint16_t len)
{
 80073d4:	b580      	push	{r7, lr}
 80073d6:	b084      	sub	sp, #16
 80073d8:	af00      	add	r7, sp, #0
 80073da:	60f8      	str	r0, [r7, #12]
 80073dc:	60b9      	str	r1, [r7, #8]
 80073de:	4613      	mov	r3, r2
 80073e0:	80fb      	strh	r3, [r7, #6]
  /* Start the next transfer */
  USBD_LL_Transmit(pdev, 0x00U, pbuf, len);
 80073e2:	88fb      	ldrh	r3, [r7, #6]
 80073e4:	68ba      	ldr	r2, [r7, #8]
 80073e6:	2100      	movs	r1, #0
 80073e8:	68f8      	ldr	r0, [r7, #12]
 80073ea:	f000 fb63 	bl	8007ab4 <USBD_LL_Transmit>

  return USBD_OK;
 80073ee:	2300      	movs	r3, #0
}
 80073f0:	4618      	mov	r0, r3
 80073f2:	3710      	adds	r7, #16
 80073f4:	46bd      	mov	sp, r7
 80073f6:	bd80      	pop	{r7, pc}

080073f8 <USBD_CtlContinueRx>:
* @param  len: length of data to be received
* @retval status
*/
USBD_StatusTypeDef USBD_CtlContinueRx(USBD_HandleTypeDef *pdev,
                                      uint8_t *pbuf, uint16_t len)
{
 80073f8:	b580      	push	{r7, lr}
 80073fa:	b084      	sub	sp, #16
 80073fc:	af00      	add	r7, sp, #0
 80073fe:	60f8      	str	r0, [r7, #12]
 8007400:	60b9      	str	r1, [r7, #8]
 8007402:	4613      	mov	r3, r2
 8007404:	80fb      	strh	r3, [r7, #6]
  USBD_LL_PrepareReceive(pdev, 0U, pbuf, len);
 8007406:	88fb      	ldrh	r3, [r7, #6]
 8007408:	68ba      	ldr	r2, [r7, #8]
 800740a:	2100      	movs	r1, #0
 800740c:	68f8      	ldr	r0, [r7, #12]
 800740e:	f000 fb74 	bl	8007afa <USBD_LL_PrepareReceive>

  return USBD_OK;
 8007412:	2300      	movs	r3, #0
}
 8007414:	4618      	mov	r0, r3
 8007416:	3710      	adds	r7, #16
 8007418:	46bd      	mov	sp, r7
 800741a:	bd80      	pop	{r7, pc}

0800741c <USBD_CtlSendStatus>:
*         send zero lzngth packet on the ctl pipe
* @param  pdev: device instance
* @retval status
*/
USBD_StatusTypeDef USBD_CtlSendStatus(USBD_HandleTypeDef *pdev)
{
 800741c:	b580      	push	{r7, lr}
 800741e:	b082      	sub	sp, #8
 8007420:	af00      	add	r7, sp, #0
 8007422:	6078      	str	r0, [r7, #4]
  /* Set EP0 State */
  pdev->ep0_state = USBD_EP0_STATUS_IN;
 8007424:	687b      	ldr	r3, [r7, #4]
 8007426:	2204      	movs	r2, #4
 8007428:	f8c3 2294 	str.w	r2, [r3, #660]	@ 0x294

  /* Start the transfer */
  USBD_LL_Transmit(pdev, 0x00U, NULL, 0U);
 800742c:	2300      	movs	r3, #0
 800742e:	2200      	movs	r2, #0
 8007430:	2100      	movs	r1, #0
 8007432:	6878      	ldr	r0, [r7, #4]
 8007434:	f000 fb3e 	bl	8007ab4 <USBD_LL_Transmit>

  return USBD_OK;
 8007438:	2300      	movs	r3, #0
}
 800743a:	4618      	mov	r0, r3
 800743c:	3708      	adds	r7, #8
 800743e:	46bd      	mov	sp, r7
 8007440:	bd80      	pop	{r7, pc}

08007442 <USBD_CtlReceiveStatus>:
*         receive zero lzngth packet on the ctl pipe
* @param  pdev: device instance
* @retval status
*/
USBD_StatusTypeDef USBD_CtlReceiveStatus(USBD_HandleTypeDef *pdev)
{
 8007442:	b580      	push	{r7, lr}
 8007444:	b082      	sub	sp, #8
 8007446:	af00      	add	r7, sp, #0
 8007448:	6078      	str	r0, [r7, #4]
  /* Set EP0 State */
  pdev->ep0_state = USBD_EP0_STATUS_OUT;
 800744a:	687b      	ldr	r3, [r7, #4]
 800744c:	2205      	movs	r2, #5
 800744e:	f8c3 2294 	str.w	r2, [r3, #660]	@ 0x294

  /* Start the transfer */
  USBD_LL_PrepareReceive(pdev, 0U, NULL, 0U);
 8007452:	2300      	movs	r3, #0
 8007454:	2200      	movs	r2, #0
 8007456:	2100      	movs	r1, #0
 8007458:	6878      	ldr	r0, [r7, #4]
 800745a:	f000 fb4e 	bl	8007afa <USBD_LL_PrepareReceive>

  return USBD_OK;
 800745e:	2300      	movs	r3, #0
}
 8007460:	4618      	mov	r0, r3
 8007462:	3708      	adds	r7, #8
 8007464:	46bd      	mov	sp, r7
 8007466:	bd80      	pop	{r7, pc}

08007468 <MX_USB_DEVICE_Init>:
/**
  * Init USB device Library, add supported class and start the library
  * @retval None
  */
void MX_USB_DEVICE_Init(void)
{
 8007468:	b580      	push	{r7, lr}
 800746a:	af00      	add	r7, sp, #0
  /* USER CODE BEGIN USB_DEVICE_Init_PreTreatment */

  /* USER CODE END USB_DEVICE_Init_PreTreatment */

  /* Init Device Library, add supported class and start the library. */
  if (USBD_Init(&hUsbDeviceFS, &FS_Desc, DEVICE_FS) != USBD_OK)
 800746c:	2200      	movs	r2, #0
 800746e:	490e      	ldr	r1, [pc, #56]	@ (80074a8 <MX_USB_DEVICE_Init+0x40>)
 8007470:	480e      	ldr	r0, [pc, #56]	@ (80074ac <MX_USB_DEVICE_Init+0x44>)
 8007472:	f7fe fde8 	bl	8006046 <USBD_Init>
 8007476:	4603      	mov	r3, r0
 8007478:	2b00      	cmp	r3, #0
 800747a:	d001      	beq.n	8007480 <MX_USB_DEVICE_Init+0x18>
  {
    Error_Handler();
 800747c:	f7f8 fffd 	bl	800047a <Error_Handler>
  }
  if (USBD_RegisterClass(&hUsbDeviceFS, &USBD_HID) != USBD_OK)
 8007480:	490b      	ldr	r1, [pc, #44]	@ (80074b0 <MX_USB_DEVICE_Init+0x48>)
 8007482:	480a      	ldr	r0, [pc, #40]	@ (80074ac <MX_USB_DEVICE_Init+0x44>)
 8007484:	f7fe fe0a 	bl	800609c <USBD_RegisterClass>
 8007488:	4603      	mov	r3, r0
 800748a:	2b00      	cmp	r3, #0
 800748c:	d001      	beq.n	8007492 <MX_USB_DEVICE_Init+0x2a>
  {
    Error_Handler();
 800748e:	f7f8 fff4 	bl	800047a <Error_Handler>
  }
  if (USBD_Start(&hUsbDeviceFS) != USBD_OK)
 8007492:	4806      	ldr	r0, [pc, #24]	@ (80074ac <MX_USB_DEVICE_Init+0x44>)
 8007494:	f7fe fe1b 	bl	80060ce <USBD_Start>
 8007498:	4603      	mov	r3, r0
 800749a:	2b00      	cmp	r3, #0
 800749c:	d001      	beq.n	80074a2 <MX_USB_DEVICE_Init+0x3a>
  {
    Error_Handler();
 800749e:	f7f8 ffec 	bl	800047a <Error_Handler>
  }

  /* USER CODE BEGIN USB_DEVICE_Init_PostTreatment */

  /* USER CODE END USB_DEVICE_Init_PostTreatment */
}
 80074a2:	bf00      	nop
 80074a4:	bd80      	pop	{r7, pc}
 80074a6:	bf00      	nop
 80074a8:	2000013c 	.word	0x2000013c
 80074ac:	200001d4 	.word	0x200001d4
 80074b0:	2000000c 	.word	0x2000000c

080074b4 <USBD_FS_DeviceDescriptor>:
  * @param  speed : Current device speed
  * @param  length : Pointer to data length variable
  * @retval Pointer to descriptor buffer
  */
uint8_t * USBD_FS_DeviceDescriptor(USBD_SpeedTypeDef speed, uint16_t *length)
{
 80074b4:	b480      	push	{r7}
 80074b6:	b083      	sub	sp, #12
 80074b8:	af00      	add	r7, sp, #0
 80074ba:	4603      	mov	r3, r0
 80074bc:	6039      	str	r1, [r7, #0]
 80074be:	71fb      	strb	r3, [r7, #7]
  UNUSED(speed);
  *length = sizeof(USBD_FS_DeviceDesc);
 80074c0:	683b      	ldr	r3, [r7, #0]
 80074c2:	2212      	movs	r2, #18
 80074c4:	801a      	strh	r2, [r3, #0]
  return USBD_FS_DeviceDesc;
 80074c6:	4b03      	ldr	r3, [pc, #12]	@ (80074d4 <USBD_FS_DeviceDescriptor+0x20>)
}
 80074c8:	4618      	mov	r0, r3
 80074ca:	370c      	adds	r7, #12
 80074cc:	46bd      	mov	sp, r7
 80074ce:	bc80      	pop	{r7}
 80074d0:	4770      	bx	lr
 80074d2:	bf00      	nop
 80074d4:	20000158 	.word	0x20000158

080074d8 <USBD_FS_LangIDStrDescriptor>:
  * @param  speed : Current device speed
  * @param  length : Pointer to data length variable
  * @retval Pointer to descriptor buffer
  */
uint8_t * USBD_FS_LangIDStrDescriptor(USBD_SpeedTypeDef speed, uint16_t *length)
{
 80074d8:	b480      	push	{r7}
 80074da:	b083      	sub	sp, #12
 80074dc:	af00      	add	r7, sp, #0
 80074de:	4603      	mov	r3, r0
 80074e0:	6039      	str	r1, [r7, #0]
 80074e2:	71fb      	strb	r3, [r7, #7]
  UNUSED(speed);
  *length = sizeof(USBD_LangIDDesc);
 80074e4:	683b      	ldr	r3, [r7, #0]
 80074e6:	2204      	movs	r2, #4
 80074e8:	801a      	strh	r2, [r3, #0]
  return USBD_LangIDDesc;
 80074ea:	4b03      	ldr	r3, [pc, #12]	@ (80074f8 <USBD_FS_LangIDStrDescriptor+0x20>)
}
 80074ec:	4618      	mov	r0, r3
 80074ee:	370c      	adds	r7, #12
 80074f0:	46bd      	mov	sp, r7
 80074f2:	bc80      	pop	{r7}
 80074f4:	4770      	bx	lr
 80074f6:	bf00      	nop
 80074f8:	2000016c 	.word	0x2000016c

080074fc <USBD_FS_ProductStrDescriptor>:
  * @param  speed : Current device speed
  * @param  length : Pointer to data length variable
  * @retval Pointer to descriptor buffer
  */
uint8_t * USBD_FS_ProductStrDescriptor(USBD_SpeedTypeDef speed, uint16_t *length)
{
 80074fc:	b580      	push	{r7, lr}
 80074fe:	b082      	sub	sp, #8
 8007500:	af00      	add	r7, sp, #0
 8007502:	4603      	mov	r3, r0
 8007504:	6039      	str	r1, [r7, #0]
 8007506:	71fb      	strb	r3, [r7, #7]
  if(speed == 0)
 8007508:	79fb      	ldrb	r3, [r7, #7]
 800750a:	2b00      	cmp	r3, #0
 800750c:	d105      	bne.n	800751a <USBD_FS_ProductStrDescriptor+0x1e>
  {
    USBD_GetString((uint8_t *)USBD_PRODUCT_STRING_FS, USBD_StrDesc, length);
 800750e:	683a      	ldr	r2, [r7, #0]
 8007510:	4907      	ldr	r1, [pc, #28]	@ (8007530 <USBD_FS_ProductStrDescriptor+0x34>)
 8007512:	4808      	ldr	r0, [pc, #32]	@ (8007534 <USBD_FS_ProductStrDescriptor+0x38>)
 8007514:	f7ff fd51 	bl	8006fba <USBD_GetString>
 8007518:	e004      	b.n	8007524 <USBD_FS_ProductStrDescriptor+0x28>
  }
  else
  {
    USBD_GetString((uint8_t *)USBD_PRODUCT_STRING_FS, USBD_StrDesc, length);
 800751a:	683a      	ldr	r2, [r7, #0]
 800751c:	4904      	ldr	r1, [pc, #16]	@ (8007530 <USBD_FS_ProductStrDescriptor+0x34>)
 800751e:	4805      	ldr	r0, [pc, #20]	@ (8007534 <USBD_FS_ProductStrDescriptor+0x38>)
 8007520:	f7ff fd4b 	bl	8006fba <USBD_GetString>
  }
  return USBD_StrDesc;
 8007524:	4b02      	ldr	r3, [pc, #8]	@ (8007530 <USBD_FS_ProductStrDescriptor+0x34>)
}
 8007526:	4618      	mov	r0, r3
 8007528:	3708      	adds	r7, #8
 800752a:	46bd      	mov	sp, r7
 800752c:	bd80      	pop	{r7, pc}
 800752e:	bf00      	nop
 8007530:	20000498 	.word	0x20000498
 8007534:	08007c4c 	.word	0x08007c4c

08007538 <USBD_FS_ManufacturerStrDescriptor>:
  * @param  speed : Current device speed
  * @param  length : Pointer to data length variable
  * @retval Pointer to descriptor buffer
  */
uint8_t * USBD_FS_ManufacturerStrDescriptor(USBD_SpeedTypeDef speed, uint16_t *length)
{
 8007538:	b580      	push	{r7, lr}
 800753a:	b082      	sub	sp, #8
 800753c:	af00      	add	r7, sp, #0
 800753e:	4603      	mov	r3, r0
 8007540:	6039      	str	r1, [r7, #0]
 8007542:	71fb      	strb	r3, [r7, #7]
  UNUSED(speed);
  USBD_GetString((uint8_t *)USBD_MANUFACTURER_STRING, USBD_StrDesc, length);
 8007544:	683a      	ldr	r2, [r7, #0]
 8007546:	4904      	ldr	r1, [pc, #16]	@ (8007558 <USBD_FS_ManufacturerStrDescriptor+0x20>)
 8007548:	4804      	ldr	r0, [pc, #16]	@ (800755c <USBD_FS_ManufacturerStrDescriptor+0x24>)
 800754a:	f7ff fd36 	bl	8006fba <USBD_GetString>
  return USBD_StrDesc;
 800754e:	4b02      	ldr	r3, [pc, #8]	@ (8007558 <USBD_FS_ManufacturerStrDescriptor+0x20>)
}
 8007550:	4618      	mov	r0, r3
 8007552:	3708      	adds	r7, #8
 8007554:	46bd      	mov	sp, r7
 8007556:	bd80      	pop	{r7, pc}
 8007558:	20000498 	.word	0x20000498
 800755c:	08007c5c 	.word	0x08007c5c

08007560 <USBD_FS_SerialStrDescriptor>:
  * @param  speed : Current device speed
  * @param  length : Pointer to data length variable
  * @retval Pointer to descriptor buffer
  */
uint8_t * USBD_FS_SerialStrDescriptor(USBD_SpeedTypeDef speed, uint16_t *length)
{
 8007560:	b580      	push	{r7, lr}
 8007562:	b082      	sub	sp, #8
 8007564:	af00      	add	r7, sp, #0
 8007566:	4603      	mov	r3, r0
 8007568:	6039      	str	r1, [r7, #0]
 800756a:	71fb      	strb	r3, [r7, #7]
  UNUSED(speed);
  *length = USB_SIZ_STRING_SERIAL;
 800756c:	683b      	ldr	r3, [r7, #0]
 800756e:	221a      	movs	r2, #26
 8007570:	801a      	strh	r2, [r3, #0]

  /* Update the serial number string descriptor with the data from the unique
   * ID */
  Get_SerialNum();
 8007572:	f000 f843 	bl	80075fc <Get_SerialNum>
  /* USER CODE BEGIN USBD_FS_SerialStrDescriptor */

  /* USER CODE END USBD_FS_SerialStrDescriptor */
  return (uint8_t *) USBD_StringSerial;
 8007576:	4b02      	ldr	r3, [pc, #8]	@ (8007580 <USBD_FS_SerialStrDescriptor+0x20>)
}
 8007578:	4618      	mov	r0, r3
 800757a:	3708      	adds	r7, #8
 800757c:	46bd      	mov	sp, r7
 800757e:	bd80      	pop	{r7, pc}
 8007580:	20000170 	.word	0x20000170

08007584 <USBD_FS_ConfigStrDescriptor>:
  * @param  speed : Current device speed
  * @param  length : Pointer to data length variable
  * @retval Pointer to descriptor buffer
  */
uint8_t * USBD_FS_ConfigStrDescriptor(USBD_SpeedTypeDef speed, uint16_t *length)
{
 8007584:	b580      	push	{r7, lr}
 8007586:	b082      	sub	sp, #8
 8007588:	af00      	add	r7, sp, #0
 800758a:	4603      	mov	r3, r0
 800758c:	6039      	str	r1, [r7, #0]
 800758e:	71fb      	strb	r3, [r7, #7]
  if(speed == USBD_SPEED_HIGH)
 8007590:	79fb      	ldrb	r3, [r7, #7]
 8007592:	2b00      	cmp	r3, #0
 8007594:	d105      	bne.n	80075a2 <USBD_FS_ConfigStrDescriptor+0x1e>
  {
    USBD_GetString((uint8_t *)USBD_CONFIGURATION_STRING_FS, USBD_StrDesc, length);
 8007596:	683a      	ldr	r2, [r7, #0]
 8007598:	4907      	ldr	r1, [pc, #28]	@ (80075b8 <USBD_FS_ConfigStrDescriptor+0x34>)
 800759a:	4808      	ldr	r0, [pc, #32]	@ (80075bc <USBD_FS_ConfigStrDescriptor+0x38>)
 800759c:	f7ff fd0d 	bl	8006fba <USBD_GetString>
 80075a0:	e004      	b.n	80075ac <USBD_FS_ConfigStrDescriptor+0x28>
  }
  else
  {
    USBD_GetString((uint8_t *)USBD_CONFIGURATION_STRING_FS, USBD_StrDesc, length);
 80075a2:	683a      	ldr	r2, [r7, #0]
 80075a4:	4904      	ldr	r1, [pc, #16]	@ (80075b8 <USBD_FS_ConfigStrDescriptor+0x34>)
 80075a6:	4805      	ldr	r0, [pc, #20]	@ (80075bc <USBD_FS_ConfigStrDescriptor+0x38>)
 80075a8:	f7ff fd07 	bl	8006fba <USBD_GetString>
  }
  return USBD_StrDesc;
 80075ac:	4b02      	ldr	r3, [pc, #8]	@ (80075b8 <USBD_FS_ConfigStrDescriptor+0x34>)
}
 80075ae:	4618      	mov	r0, r3
 80075b0:	3708      	adds	r7, #8
 80075b2:	46bd      	mov	sp, r7
 80075b4:	bd80      	pop	{r7, pc}
 80075b6:	bf00      	nop
 80075b8:	20000498 	.word	0x20000498
 80075bc:	08007c64 	.word	0x08007c64

080075c0 <USBD_FS_InterfaceStrDescriptor>:
  * @param  speed : Current device speed
  * @param  length : Pointer to data length variable
  * @retval Pointer to descriptor buffer
  */
uint8_t * USBD_FS_InterfaceStrDescriptor(USBD_SpeedTypeDef speed, uint16_t *length)
{
 80075c0:	b580      	push	{r7, lr}
 80075c2:	b082      	sub	sp, #8
 80075c4:	af00      	add	r7, sp, #0
 80075c6:	4603      	mov	r3, r0
 80075c8:	6039      	str	r1, [r7, #0]
 80075ca:	71fb      	strb	r3, [r7, #7]
  if(speed == 0)
 80075cc:	79fb      	ldrb	r3, [r7, #7]
 80075ce:	2b00      	cmp	r3, #0
 80075d0:	d105      	bne.n	80075de <USBD_FS_InterfaceStrDescriptor+0x1e>
  {
    USBD_GetString((uint8_t *)USBD_INTERFACE_STRING_FS, USBD_StrDesc, length);
 80075d2:	683a      	ldr	r2, [r7, #0]
 80075d4:	4907      	ldr	r1, [pc, #28]	@ (80075f4 <USBD_FS_InterfaceStrDescriptor+0x34>)
 80075d6:	4808      	ldr	r0, [pc, #32]	@ (80075f8 <USBD_FS_InterfaceStrDescriptor+0x38>)
 80075d8:	f7ff fcef 	bl	8006fba <USBD_GetString>
 80075dc:	e004      	b.n	80075e8 <USBD_FS_InterfaceStrDescriptor+0x28>
  }
  else
  {
    USBD_GetString((uint8_t *)USBD_INTERFACE_STRING_FS, USBD_StrDesc, length);
 80075de:	683a      	ldr	r2, [r7, #0]
 80075e0:	4904      	ldr	r1, [pc, #16]	@ (80075f4 <USBD_FS_InterfaceStrDescriptor+0x34>)
 80075e2:	4805      	ldr	r0, [pc, #20]	@ (80075f8 <USBD_FS_InterfaceStrDescriptor+0x38>)
 80075e4:	f7ff fce9 	bl	8006fba <USBD_GetString>
  }
  return USBD_StrDesc;
 80075e8:	4b02      	ldr	r3, [pc, #8]	@ (80075f4 <USBD_FS_InterfaceStrDescriptor+0x34>)
}
 80075ea:	4618      	mov	r0, r3
 80075ec:	3708      	adds	r7, #8
 80075ee:	46bd      	mov	sp, r7
 80075f0:	bd80      	pop	{r7, pc}
 80075f2:	bf00      	nop
 80075f4:	20000498 	.word	0x20000498
 80075f8:	08007c70 	.word	0x08007c70

080075fc <Get_SerialNum>:
  * @brief  Create the serial number string descriptor
  * @param  None
  * @retval None
  */
static void Get_SerialNum(void)
{
 80075fc:	b580      	push	{r7, lr}
 80075fe:	b084      	sub	sp, #16
 8007600:	af00      	add	r7, sp, #0
  uint32_t deviceserial0;
  uint32_t deviceserial1;
  uint32_t deviceserial2;

  deviceserial0 = *(uint32_t *) DEVICE_ID1;
 8007602:	4b0f      	ldr	r3, [pc, #60]	@ (8007640 <Get_SerialNum+0x44>)
 8007604:	681b      	ldr	r3, [r3, #0]
 8007606:	60fb      	str	r3, [r7, #12]
  deviceserial1 = *(uint32_t *) DEVICE_ID2;
 8007608:	4b0e      	ldr	r3, [pc, #56]	@ (8007644 <Get_SerialNum+0x48>)
 800760a:	681b      	ldr	r3, [r3, #0]
 800760c:	60bb      	str	r3, [r7, #8]
  deviceserial2 = *(uint32_t *) DEVICE_ID3;
 800760e:	4b0e      	ldr	r3, [pc, #56]	@ (8007648 <Get_SerialNum+0x4c>)
 8007610:	681b      	ldr	r3, [r3, #0]
 8007612:	607b      	str	r3, [r7, #4]

  deviceserial0 += deviceserial2;
 8007614:	68fa      	ldr	r2, [r7, #12]
 8007616:	687b      	ldr	r3, [r7, #4]
 8007618:	4413      	add	r3, r2
 800761a:	60fb      	str	r3, [r7, #12]

  if (deviceserial0 != 0)
 800761c:	68fb      	ldr	r3, [r7, #12]
 800761e:	2b00      	cmp	r3, #0
 8007620:	d009      	beq.n	8007636 <Get_SerialNum+0x3a>
  {
    IntToUnicode(deviceserial0, &USBD_StringSerial[2], 8);
 8007622:	2208      	movs	r2, #8
 8007624:	4909      	ldr	r1, [pc, #36]	@ (800764c <Get_SerialNum+0x50>)
 8007626:	68f8      	ldr	r0, [r7, #12]
 8007628:	f000 f814 	bl	8007654 <IntToUnicode>
    IntToUnicode(deviceserial1, &USBD_StringSerial[18], 4);
 800762c:	2204      	movs	r2, #4
 800762e:	4908      	ldr	r1, [pc, #32]	@ (8007650 <Get_SerialNum+0x54>)
 8007630:	68b8      	ldr	r0, [r7, #8]
 8007632:	f000 f80f 	bl	8007654 <IntToUnicode>
  }
}
 8007636:	bf00      	nop
 8007638:	3710      	adds	r7, #16
 800763a:	46bd      	mov	sp, r7
 800763c:	bd80      	pop	{r7, pc}
 800763e:	bf00      	nop
 8007640:	1ffff7e8 	.word	0x1ffff7e8
 8007644:	1ffff7ec 	.word	0x1ffff7ec
 8007648:	1ffff7f0 	.word	0x1ffff7f0
 800764c:	20000172 	.word	0x20000172
 8007650:	20000182 	.word	0x20000182

08007654 <IntToUnicode>:
  * @param  pbuf: pointer to the buffer
  * @param  len: buffer length
  * @retval None
  */
static void IntToUnicode(uint32_t value, uint8_t * pbuf, uint8_t len)
{
 8007654:	b480      	push	{r7}
 8007656:	b087      	sub	sp, #28
 8007658:	af00      	add	r7, sp, #0
 800765a:	60f8      	str	r0, [r7, #12]
 800765c:	60b9      	str	r1, [r7, #8]
 800765e:	4613      	mov	r3, r2
 8007660:	71fb      	strb	r3, [r7, #7]
  uint8_t idx = 0;
 8007662:	2300      	movs	r3, #0
 8007664:	75fb      	strb	r3, [r7, #23]

  for (idx = 0; idx < len; idx++)
 8007666:	2300      	movs	r3, #0
 8007668:	75fb      	strb	r3, [r7, #23]
 800766a:	e027      	b.n	80076bc <IntToUnicode+0x68>
  {
    if (((value >> 28)) < 0xA)
 800766c:	68fb      	ldr	r3, [r7, #12]
 800766e:	0f1b      	lsrs	r3, r3, #28
 8007670:	2b09      	cmp	r3, #9
 8007672:	d80b      	bhi.n	800768c <IntToUnicode+0x38>
    {
      pbuf[2 * idx] = (value >> 28) + '0';
 8007674:	68fb      	ldr	r3, [r7, #12]
 8007676:	0f1b      	lsrs	r3, r3, #28
 8007678:	b2da      	uxtb	r2, r3
 800767a:	7dfb      	ldrb	r3, [r7, #23]
 800767c:	005b      	lsls	r3, r3, #1
 800767e:	4619      	mov	r1, r3
 8007680:	68bb      	ldr	r3, [r7, #8]
 8007682:	440b      	add	r3, r1
 8007684:	3230      	adds	r2, #48	@ 0x30
 8007686:	b2d2      	uxtb	r2, r2
 8007688:	701a      	strb	r2, [r3, #0]
 800768a:	e00a      	b.n	80076a2 <IntToUnicode+0x4e>
    }
    else
    {
      pbuf[2 * idx] = (value >> 28) + 'A' - 10;
 800768c:	68fb      	ldr	r3, [r7, #12]
 800768e:	0f1b      	lsrs	r3, r3, #28
 8007690:	b2da      	uxtb	r2, r3
 8007692:	7dfb      	ldrb	r3, [r7, #23]
 8007694:	005b      	lsls	r3, r3, #1
 8007696:	4619      	mov	r1, r3
 8007698:	68bb      	ldr	r3, [r7, #8]
 800769a:	440b      	add	r3, r1
 800769c:	3237      	adds	r2, #55	@ 0x37
 800769e:	b2d2      	uxtb	r2, r2
 80076a0:	701a      	strb	r2, [r3, #0]
    }

    value = value << 4;
 80076a2:	68fb      	ldr	r3, [r7, #12]
 80076a4:	011b      	lsls	r3, r3, #4
 80076a6:	60fb      	str	r3, [r7, #12]

    pbuf[2 * idx + 1] = 0;
 80076a8:	7dfb      	ldrb	r3, [r7, #23]
 80076aa:	005b      	lsls	r3, r3, #1
 80076ac:	3301      	adds	r3, #1
 80076ae:	68ba      	ldr	r2, [r7, #8]
 80076b0:	4413      	add	r3, r2
 80076b2:	2200      	movs	r2, #0
 80076b4:	701a      	strb	r2, [r3, #0]
  for (idx = 0; idx < len; idx++)
 80076b6:	7dfb      	ldrb	r3, [r7, #23]
 80076b8:	3301      	adds	r3, #1
 80076ba:	75fb      	strb	r3, [r7, #23]
 80076bc:	7dfa      	ldrb	r2, [r7, #23]
 80076be:	79fb      	ldrb	r3, [r7, #7]
 80076c0:	429a      	cmp	r2, r3
 80076c2:	d3d3      	bcc.n	800766c <IntToUnicode+0x18>
  }
}
 80076c4:	bf00      	nop
 80076c6:	bf00      	nop
 80076c8:	371c      	adds	r7, #28
 80076ca:	46bd      	mov	sp, r7
 80076cc:	bc80      	pop	{r7}
 80076ce:	4770      	bx	lr

080076d0 <HAL_PCD_MspInit>:
                       LL Driver Callbacks (PCD -> USB Device Library)
*******************************************************************************/
/* MSP Init */

void HAL_PCD_MspInit(PCD_HandleTypeDef* pcdHandle)
{
 80076d0:	b580      	push	{r7, lr}
 80076d2:	b084      	sub	sp, #16
 80076d4:	af00      	add	r7, sp, #0
 80076d6:	6078      	str	r0, [r7, #4]
  if(pcdHandle->Instance==USB)
 80076d8:	687b      	ldr	r3, [r7, #4]
 80076da:	681b      	ldr	r3, [r3, #0]
 80076dc:	4a0d      	ldr	r2, [pc, #52]	@ (8007714 <HAL_PCD_MspInit+0x44>)
 80076de:	4293      	cmp	r3, r2
 80076e0:	d113      	bne.n	800770a <HAL_PCD_MspInit+0x3a>
  {
  /* USER CODE BEGIN USB_MspInit 0 */

  /* USER CODE END USB_MspInit 0 */
    /* Peripheral clock enable */
    __HAL_RCC_USB_CLK_ENABLE();
 80076e2:	4b0d      	ldr	r3, [pc, #52]	@ (8007718 <HAL_PCD_MspInit+0x48>)
 80076e4:	69db      	ldr	r3, [r3, #28]
 80076e6:	4a0c      	ldr	r2, [pc, #48]	@ (8007718 <HAL_PCD_MspInit+0x48>)
 80076e8:	f443 0300 	orr.w	r3, r3, #8388608	@ 0x800000
 80076ec:	61d3      	str	r3, [r2, #28]
 80076ee:	4b0a      	ldr	r3, [pc, #40]	@ (8007718 <HAL_PCD_MspInit+0x48>)
 80076f0:	69db      	ldr	r3, [r3, #28]
 80076f2:	f403 0300 	and.w	r3, r3, #8388608	@ 0x800000
 80076f6:	60fb      	str	r3, [r7, #12]
 80076f8:	68fb      	ldr	r3, [r7, #12]

    /* Peripheral interrupt init */
    HAL_NVIC_SetPriority(USB_LP_CAN1_RX0_IRQn, 0, 0);
 80076fa:	2200      	movs	r2, #0
 80076fc:	2100      	movs	r1, #0
 80076fe:	2014      	movs	r0, #20
 8007700:	f7f9 fa1d 	bl	8000b3e <HAL_NVIC_SetPriority>
    HAL_NVIC_EnableIRQ(USB_LP_CAN1_RX0_IRQn);
 8007704:	2014      	movs	r0, #20
 8007706:	f7f9 fa36 	bl	8000b76 <HAL_NVIC_EnableIRQ>
  /* USER CODE BEGIN USB_MspInit 1 */

  /* USER CODE END USB_MspInit 1 */
  }
}
 800770a:	bf00      	nop
 800770c:	3710      	adds	r7, #16
 800770e:	46bd      	mov	sp, r7
 8007710:	bd80      	pop	{r7, pc}
 8007712:	bf00      	nop
 8007714:	40005c00 	.word	0x40005c00
 8007718:	40021000 	.word	0x40021000

0800771c <HAL_PCD_SetupStageCallback>:
#if (USE_HAL_PCD_REGISTER_CALLBACKS == 1U)
static void PCD_SetupStageCallback(PCD_HandleTypeDef *hpcd)
#else
void HAL_PCD_SetupStageCallback(PCD_HandleTypeDef *hpcd)
#endif /* USE_HAL_PCD_REGISTER_CALLBACKS */
{
 800771c:	b580      	push	{r7, lr}
 800771e:	b082      	sub	sp, #8
 8007720:	af00      	add	r7, sp, #0
 8007722:	6078      	str	r0, [r7, #4]
  USBD_LL_SetupStage((USBD_HandleTypeDef*)hpcd->pData, (uint8_t *)hpcd->Setup);
 8007724:	687b      	ldr	r3, [r7, #4]
 8007726:	f8d3 22d4 	ldr.w	r2, [r3, #724]	@ 0x2d4
 800772a:	687b      	ldr	r3, [r7, #4]
 800772c:	f503 7326 	add.w	r3, r3, #664	@ 0x298
 8007730:	4619      	mov	r1, r3
 8007732:	4610      	mov	r0, r2
 8007734:	f7fe fd13 	bl	800615e <USBD_LL_SetupStage>
}
 8007738:	bf00      	nop
 800773a:	3708      	adds	r7, #8
 800773c:	46bd      	mov	sp, r7
 800773e:	bd80      	pop	{r7, pc}

08007740 <HAL_PCD_DataOutStageCallback>:
#if (USE_HAL_PCD_REGISTER_CALLBACKS == 1U)
static void PCD_DataOutStageCallback(PCD_HandleTypeDef *hpcd, uint8_t epnum)
#else
void HAL_PCD_DataOutStageCallback(PCD_HandleTypeDef *hpcd, uint8_t epnum)
#endif /* USE_HAL_PCD_REGISTER_CALLBACKS */
{
 8007740:	b580      	push	{r7, lr}
 8007742:	b082      	sub	sp, #8
 8007744:	af00      	add	r7, sp, #0
 8007746:	6078      	str	r0, [r7, #4]
 8007748:	460b      	mov	r3, r1
 800774a:	70fb      	strb	r3, [r7, #3]
  USBD_LL_DataOutStage((USBD_HandleTypeDef*)hpcd->pData, epnum, hpcd->OUT_ep[epnum].xfer_buff);
 800774c:	687b      	ldr	r3, [r7, #4]
 800774e:	f8d3 02d4 	ldr.w	r0, [r3, #724]	@ 0x2d4
 8007752:	78fa      	ldrb	r2, [r7, #3]
 8007754:	6879      	ldr	r1, [r7, #4]
 8007756:	4613      	mov	r3, r2
 8007758:	009b      	lsls	r3, r3, #2
 800775a:	4413      	add	r3, r2
 800775c:	00db      	lsls	r3, r3, #3
 800775e:	440b      	add	r3, r1
 8007760:	f503 73b2 	add.w	r3, r3, #356	@ 0x164
 8007764:	681a      	ldr	r2, [r3, #0]
 8007766:	78fb      	ldrb	r3, [r7, #3]
 8007768:	4619      	mov	r1, r3
 800776a:	f7fe fd45 	bl	80061f8 <USBD_LL_DataOutStage>
}
 800776e:	bf00      	nop
 8007770:	3708      	adds	r7, #8
 8007772:	46bd      	mov	sp, r7
 8007774:	bd80      	pop	{r7, pc}

08007776 <HAL_PCD_DataInStageCallback>:
#if (USE_HAL_PCD_REGISTER_CALLBACKS == 1U)
static void PCD_DataInStageCallback(PCD_HandleTypeDef *hpcd, uint8_t epnum)
#else
void HAL_PCD_DataInStageCallback(PCD_HandleTypeDef *hpcd, uint8_t epnum)
#endif /* USE_HAL_PCD_REGISTER_CALLBACKS */
{
 8007776:	b580      	push	{r7, lr}
 8007778:	b082      	sub	sp, #8
 800777a:	af00      	add	r7, sp, #0
 800777c:	6078      	str	r0, [r7, #4]
 800777e:	460b      	mov	r3, r1
 8007780:	70fb      	strb	r3, [r7, #3]
  USBD_LL_DataInStage((USBD_HandleTypeDef*)hpcd->pData, epnum, hpcd->IN_ep[epnum].xfer_buff);
 8007782:	687b      	ldr	r3, [r7, #4]
 8007784:	f8d3 02d4 	ldr.w	r0, [r3, #724]	@ 0x2d4
 8007788:	78fa      	ldrb	r2, [r7, #3]
 800778a:	6879      	ldr	r1, [r7, #4]
 800778c:	4613      	mov	r3, r2
 800778e:	009b      	lsls	r3, r3, #2
 8007790:	4413      	add	r3, r2
 8007792:	00db      	lsls	r3, r3, #3
 8007794:	440b      	add	r3, r1
 8007796:	3324      	adds	r3, #36	@ 0x24
 8007798:	681a      	ldr	r2, [r3, #0]
 800779a:	78fb      	ldrb	r3, [r7, #3]
 800779c:	4619      	mov	r1, r3
 800779e:	f7fe fd9c 	bl	80062da <USBD_LL_DataInStage>
}
 80077a2:	bf00      	nop
 80077a4:	3708      	adds	r7, #8
 80077a6:	46bd      	mov	sp, r7
 80077a8:	bd80      	pop	{r7, pc}

080077aa <HAL_PCD_SOFCallback>:
#if (USE_HAL_PCD_REGISTER_CALLBACKS == 1U)
static void PCD_SOFCallback(PCD_HandleTypeDef *hpcd)
#else
void HAL_PCD_SOFCallback(PCD_HandleTypeDef *hpcd)
#endif /* USE_HAL_PCD_REGISTER_CALLBACKS */
{
 80077aa:	b580      	push	{r7, lr}
 80077ac:	b082      	sub	sp, #8
 80077ae:	af00      	add	r7, sp, #0
 80077b0:	6078      	str	r0, [r7, #4]
  USBD_LL_SOF((USBD_HandleTypeDef*)hpcd->pData);
 80077b2:	687b      	ldr	r3, [r7, #4]
 80077b4:	f8d3 32d4 	ldr.w	r3, [r3, #724]	@ 0x2d4
 80077b8:	4618      	mov	r0, r3
 80077ba:	f7fe feac 	bl	8006516 <USBD_LL_SOF>
}
 80077be:	bf00      	nop
 80077c0:	3708      	adds	r7, #8
 80077c2:	46bd      	mov	sp, r7
 80077c4:	bd80      	pop	{r7, pc}

080077c6 <HAL_PCD_ResetCallback>:
#if (USE_HAL_PCD_REGISTER_CALLBACKS == 1U)
static void PCD_ResetCallback(PCD_HandleTypeDef *hpcd)
#else
void HAL_PCD_ResetCallback(PCD_HandleTypeDef *hpcd)
#endif /* USE_HAL_PCD_REGISTER_CALLBACKS */
{
 80077c6:	b580      	push	{r7, lr}
 80077c8:	b084      	sub	sp, #16
 80077ca:	af00      	add	r7, sp, #0
 80077cc:	6078      	str	r0, [r7, #4]
  USBD_SpeedTypeDef speed = USBD_SPEED_FULL;
 80077ce:	2301      	movs	r3, #1
 80077d0:	73fb      	strb	r3, [r7, #15]

  if ( hpcd->Init.speed != PCD_SPEED_FULL)
 80077d2:	687b      	ldr	r3, [r7, #4]
 80077d4:	799b      	ldrb	r3, [r3, #6]
 80077d6:	2b02      	cmp	r3, #2
 80077d8:	d001      	beq.n	80077de <HAL_PCD_ResetCallback+0x18>
  {
    Error_Handler();
 80077da:	f7f8 fe4e 	bl	800047a <Error_Handler>
  }
    /* Set Speed. */
  USBD_LL_SetSpeed((USBD_HandleTypeDef*)hpcd->pData, speed);
 80077de:	687b      	ldr	r3, [r7, #4]
 80077e0:	f8d3 32d4 	ldr.w	r3, [r3, #724]	@ 0x2d4
 80077e4:	7bfa      	ldrb	r2, [r7, #15]
 80077e6:	4611      	mov	r1, r2
 80077e8:	4618      	mov	r0, r3
 80077ea:	f7fe fe5c 	bl	80064a6 <USBD_LL_SetSpeed>

  /* Reset Device. */
  USBD_LL_Reset((USBD_HandleTypeDef*)hpcd->pData);
 80077ee:	687b      	ldr	r3, [r7, #4]
 80077f0:	f8d3 32d4 	ldr.w	r3, [r3, #724]	@ 0x2d4
 80077f4:	4618      	mov	r0, r3
 80077f6:	f7fe fe15 	bl	8006424 <USBD_LL_Reset>
}
 80077fa:	bf00      	nop
 80077fc:	3710      	adds	r7, #16
 80077fe:	46bd      	mov	sp, r7
 8007800:	bd80      	pop	{r7, pc}
	...

08007804 <HAL_PCD_SuspendCallback>:
#if (USE_HAL_PCD_REGISTER_CALLBACKS == 1U)
static void PCD_SuspendCallback(PCD_HandleTypeDef *hpcd)
#else
void HAL_PCD_SuspendCallback(PCD_HandleTypeDef *hpcd)
#endif /* USE_HAL_PCD_REGISTER_CALLBACKS */
{
 8007804:	b580      	push	{r7, lr}
 8007806:	b082      	sub	sp, #8
 8007808:	af00      	add	r7, sp, #0
 800780a:	6078      	str	r0, [r7, #4]
  /* Inform USB library that core enters in suspend Mode. */
  USBD_LL_Suspend((USBD_HandleTypeDef*)hpcd->pData);
 800780c:	687b      	ldr	r3, [r7, #4]
 800780e:	f8d3 32d4 	ldr.w	r3, [r3, #724]	@ 0x2d4
 8007812:	4618      	mov	r0, r3
 8007814:	f7fe fe56 	bl	80064c4 <USBD_LL_Suspend>
  /* Enter in STOP mode. */
  /* USER CODE BEGIN 2 */
  if (hpcd->Init.low_power_enable)
 8007818:	687b      	ldr	r3, [r7, #4]
 800781a:	7a9b      	ldrb	r3, [r3, #10]
 800781c:	2b00      	cmp	r3, #0
 800781e:	d005      	beq.n	800782c <HAL_PCD_SuspendCallback+0x28>
  {
    /* Set SLEEPDEEP bit and SleepOnExit of Cortex System Control Register. */
    SCB->SCR |= (uint32_t)((uint32_t)(SCB_SCR_SLEEPDEEP_Msk | SCB_SCR_SLEEPONEXIT_Msk));
 8007820:	4b04      	ldr	r3, [pc, #16]	@ (8007834 <HAL_PCD_SuspendCallback+0x30>)
 8007822:	691b      	ldr	r3, [r3, #16]
 8007824:	4a03      	ldr	r2, [pc, #12]	@ (8007834 <HAL_PCD_SuspendCallback+0x30>)
 8007826:	f043 0306 	orr.w	r3, r3, #6
 800782a:	6113      	str	r3, [r2, #16]
  }
  /* USER CODE END 2 */
}
 800782c:	bf00      	nop
 800782e:	3708      	adds	r7, #8
 8007830:	46bd      	mov	sp, r7
 8007832:	bd80      	pop	{r7, pc}
 8007834:	e000ed00 	.word	0xe000ed00

08007838 <HAL_PCD_ResumeCallback>:
#if (USE_HAL_PCD_REGISTER_CALLBACKS == 1U)
static void PCD_ResumeCallback(PCD_HandleTypeDef *hpcd)
#else
void HAL_PCD_ResumeCallback(PCD_HandleTypeDef *hpcd)
#endif /* USE_HAL_PCD_REGISTER_CALLBACKS */
{
 8007838:	b580      	push	{r7, lr}
 800783a:	b082      	sub	sp, #8
 800783c:	af00      	add	r7, sp, #0
 800783e:	6078      	str	r0, [r7, #4]
  /* USER CODE BEGIN 3 */

  /* USER CODE END 3 */
  USBD_LL_Resume((USBD_HandleTypeDef*)hpcd->pData);
 8007840:	687b      	ldr	r3, [r7, #4]
 8007842:	f8d3 32d4 	ldr.w	r3, [r3, #724]	@ 0x2d4
 8007846:	4618      	mov	r0, r3
 8007848:	f7fe fe50 	bl	80064ec <USBD_LL_Resume>
}
 800784c:	bf00      	nop
 800784e:	3708      	adds	r7, #8
 8007850:	46bd      	mov	sp, r7
 8007852:	bd80      	pop	{r7, pc}

08007854 <USBD_LL_Init>:
  * @brief  Initializes the low level portion of the device driver.
  * @param  pdev: Device handle
  * @retval USBD status
  */
USBD_StatusTypeDef USBD_LL_Init(USBD_HandleTypeDef *pdev)
{
 8007854:	b580      	push	{r7, lr}
 8007856:	b082      	sub	sp, #8
 8007858:	af00      	add	r7, sp, #0
 800785a:	6078      	str	r0, [r7, #4]
  /* Init USB Ip. */
  /* Link the driver to the stack. */
  hpcd_USB_FS.pData = pdev;
 800785c:	4a1f      	ldr	r2, [pc, #124]	@ (80078dc <USBD_LL_Init+0x88>)
 800785e:	687b      	ldr	r3, [r7, #4]
 8007860:	f8c2 32d4 	str.w	r3, [r2, #724]	@ 0x2d4
  pdev->pData = &hpcd_USB_FS;
 8007864:	687b      	ldr	r3, [r7, #4]
 8007866:	4a1d      	ldr	r2, [pc, #116]	@ (80078dc <USBD_LL_Init+0x88>)
 8007868:	f8c3 22c0 	str.w	r2, [r3, #704]	@ 0x2c0

  hpcd_USB_FS.Instance = USB;
 800786c:	4b1b      	ldr	r3, [pc, #108]	@ (80078dc <USBD_LL_Init+0x88>)
 800786e:	4a1c      	ldr	r2, [pc, #112]	@ (80078e0 <USBD_LL_Init+0x8c>)
 8007870:	601a      	str	r2, [r3, #0]
  hpcd_USB_FS.Init.dev_endpoints = 8;
 8007872:	4b1a      	ldr	r3, [pc, #104]	@ (80078dc <USBD_LL_Init+0x88>)
 8007874:	2208      	movs	r2, #8
 8007876:	711a      	strb	r2, [r3, #4]
  hpcd_USB_FS.Init.speed = PCD_SPEED_FULL;
 8007878:	4b18      	ldr	r3, [pc, #96]	@ (80078dc <USBD_LL_Init+0x88>)
 800787a:	2202      	movs	r2, #2
 800787c:	719a      	strb	r2, [r3, #6]
  hpcd_USB_FS.Init.low_power_enable = DISABLE;
 800787e:	4b17      	ldr	r3, [pc, #92]	@ (80078dc <USBD_LL_Init+0x88>)
 8007880:	2200      	movs	r2, #0
 8007882:	729a      	strb	r2, [r3, #10]
  hpcd_USB_FS.Init.lpm_enable = DISABLE;
 8007884:	4b15      	ldr	r3, [pc, #84]	@ (80078dc <USBD_LL_Init+0x88>)
 8007886:	2200      	movs	r2, #0
 8007888:	72da      	strb	r2, [r3, #11]
  hpcd_USB_FS.Init.battery_charging_enable = DISABLE;
 800788a:	4b14      	ldr	r3, [pc, #80]	@ (80078dc <USBD_LL_Init+0x88>)
 800788c:	2200      	movs	r2, #0
 800788e:	731a      	strb	r2, [r3, #12]
  if (HAL_PCD_Init(&hpcd_USB_FS) != HAL_OK)
 8007890:	4812      	ldr	r0, [pc, #72]	@ (80078dc <USBD_LL_Init+0x88>)
 8007892:	f7f9 fb40 	bl	8000f16 <HAL_PCD_Init>
 8007896:	4603      	mov	r3, r0
 8007898:	2b00      	cmp	r3, #0
 800789a:	d001      	beq.n	80078a0 <USBD_LL_Init+0x4c>
  {
    Error_Handler( );
 800789c:	f7f8 fded 	bl	800047a <Error_Handler>
  HAL_PCD_RegisterDataInStageCallback(&hpcd_USB_FS, PCD_DataInStageCallback);
  HAL_PCD_RegisterIsoOutIncpltCallback(&hpcd_USB_FS, PCD_ISOOUTIncompleteCallback);
  HAL_PCD_RegisterIsoInIncpltCallback(&hpcd_USB_FS, PCD_ISOINIncompleteCallback);
#endif /* USE_HAL_PCD_REGISTER_CALLBACKS */
  /* USER CODE BEGIN EndPoint_Configuration */
  HAL_PCDEx_PMAConfig((PCD_HandleTypeDef*)pdev->pData , 0x00 , PCD_SNG_BUF, 0x18);
 80078a0:	687b      	ldr	r3, [r7, #4]
 80078a2:	f8d3 02c0 	ldr.w	r0, [r3, #704]	@ 0x2c0
 80078a6:	2318      	movs	r3, #24
 80078a8:	2200      	movs	r2, #0
 80078aa:	2100      	movs	r1, #0
 80078ac:	f7fb f83a 	bl	8002924 <HAL_PCDEx_PMAConfig>
  HAL_PCDEx_PMAConfig((PCD_HandleTypeDef*)pdev->pData , 0x80 , PCD_SNG_BUF, 0x58);
 80078b0:	687b      	ldr	r3, [r7, #4]
 80078b2:	f8d3 02c0 	ldr.w	r0, [r3, #704]	@ 0x2c0
 80078b6:	2358      	movs	r3, #88	@ 0x58
 80078b8:	2200      	movs	r2, #0
 80078ba:	2180      	movs	r1, #128	@ 0x80
 80078bc:	f7fb f832 	bl	8002924 <HAL_PCDEx_PMAConfig>
  /* USER CODE END EndPoint_Configuration */
  /* USER CODE BEGIN EndPoint_Configuration_HID */
  HAL_PCDEx_PMAConfig((PCD_HandleTypeDef*)pdev->pData , 0x81 , PCD_SNG_BUF, 0x100);
 80078c0:	687b      	ldr	r3, [r7, #4]
 80078c2:	f8d3 02c0 	ldr.w	r0, [r3, #704]	@ 0x2c0
 80078c6:	f44f 7380 	mov.w	r3, #256	@ 0x100
 80078ca:	2200      	movs	r2, #0
 80078cc:	2181      	movs	r1, #129	@ 0x81
 80078ce:	f7fb f829 	bl	8002924 <HAL_PCDEx_PMAConfig>
  /* USER CODE END EndPoint_Configuration_HID */
  return USBD_OK;
 80078d2:	2300      	movs	r3, #0
}
 80078d4:	4618      	mov	r0, r3
 80078d6:	3708      	adds	r7, #8
 80078d8:	46bd      	mov	sp, r7
 80078da:	bd80      	pop	{r7, pc}
 80078dc:	20000698 	.word	0x20000698
 80078e0:	40005c00 	.word	0x40005c00

080078e4 <USBD_LL_Start>:
  * @brief  Starts the low level portion of the device driver.
  * @param  pdev: Device handle
  * @retval USBD status
  */
USBD_StatusTypeDef USBD_LL_Start(USBD_HandleTypeDef *pdev)
{
 80078e4:	b580      	push	{r7, lr}
 80078e6:	b084      	sub	sp, #16
 80078e8:	af00      	add	r7, sp, #0
 80078ea:	6078      	str	r0, [r7, #4]
  HAL_StatusTypeDef hal_status = HAL_OK;
 80078ec:	2300      	movs	r3, #0
 80078ee:	73fb      	strb	r3, [r7, #15]
  USBD_StatusTypeDef usb_status = USBD_OK;
 80078f0:	2300      	movs	r3, #0
 80078f2:	73bb      	strb	r3, [r7, #14]

  hal_status = HAL_PCD_Start(pdev->pData);
 80078f4:	687b      	ldr	r3, [r7, #4]
 80078f6:	f8d3 32c0 	ldr.w	r3, [r3, #704]	@ 0x2c0
 80078fa:	4618      	mov	r0, r3
 80078fc:	f7f9 fc01 	bl	8001102 <HAL_PCD_Start>
 8007900:	4603      	mov	r3, r0
 8007902:	73fb      	strb	r3, [r7, #15]

  usb_status =  USBD_Get_USB_Status(hal_status);
 8007904:	7bfb      	ldrb	r3, [r7, #15]
 8007906:	4618      	mov	r0, r3
 8007908:	f000 f93a 	bl	8007b80 <USBD_Get_USB_Status>
 800790c:	4603      	mov	r3, r0
 800790e:	73bb      	strb	r3, [r7, #14]

  return usb_status;
 8007910:	7bbb      	ldrb	r3, [r7, #14]
}
 8007912:	4618      	mov	r0, r3
 8007914:	3710      	adds	r7, #16
 8007916:	46bd      	mov	sp, r7
 8007918:	bd80      	pop	{r7, pc}

0800791a <USBD_LL_OpenEP>:
  * @param  ep_type: Endpoint type
  * @param  ep_mps: Endpoint max packet size
  * @retval USBD status
  */
USBD_StatusTypeDef USBD_LL_OpenEP(USBD_HandleTypeDef *pdev, uint8_t ep_addr, uint8_t ep_type, uint16_t ep_mps)
{
 800791a:	b580      	push	{r7, lr}
 800791c:	b084      	sub	sp, #16
 800791e:	af00      	add	r7, sp, #0
 8007920:	6078      	str	r0, [r7, #4]
 8007922:	4608      	mov	r0, r1
 8007924:	4611      	mov	r1, r2
 8007926:	461a      	mov	r2, r3
 8007928:	4603      	mov	r3, r0
 800792a:	70fb      	strb	r3, [r7, #3]
 800792c:	460b      	mov	r3, r1
 800792e:	70bb      	strb	r3, [r7, #2]
 8007930:	4613      	mov	r3, r2
 8007932:	803b      	strh	r3, [r7, #0]
  HAL_StatusTypeDef hal_status = HAL_OK;
 8007934:	2300      	movs	r3, #0
 8007936:	73fb      	strb	r3, [r7, #15]
  USBD_StatusTypeDef usb_status = USBD_OK;
 8007938:	2300      	movs	r3, #0
 800793a:	73bb      	strb	r3, [r7, #14]

  hal_status = HAL_PCD_EP_Open(pdev->pData, ep_addr, ep_mps, ep_type);
 800793c:	687b      	ldr	r3, [r7, #4]
 800793e:	f8d3 02c0 	ldr.w	r0, [r3, #704]	@ 0x2c0
 8007942:	78bb      	ldrb	r3, [r7, #2]
 8007944:	883a      	ldrh	r2, [r7, #0]
 8007946:	78f9      	ldrb	r1, [r7, #3]
 8007948:	f7f9 fd55 	bl	80013f6 <HAL_PCD_EP_Open>
 800794c:	4603      	mov	r3, r0
 800794e:	73fb      	strb	r3, [r7, #15]

  usb_status =  USBD_Get_USB_Status(hal_status);
 8007950:	7bfb      	ldrb	r3, [r7, #15]
 8007952:	4618      	mov	r0, r3
 8007954:	f000 f914 	bl	8007b80 <USBD_Get_USB_Status>
 8007958:	4603      	mov	r3, r0
 800795a:	73bb      	strb	r3, [r7, #14]

  return usb_status;
 800795c:	7bbb      	ldrb	r3, [r7, #14]
}
 800795e:	4618      	mov	r0, r3
 8007960:	3710      	adds	r7, #16
 8007962:	46bd      	mov	sp, r7
 8007964:	bd80      	pop	{r7, pc}

08007966 <USBD_LL_CloseEP>:
  * @param  pdev: Device handle
  * @param  ep_addr: Endpoint number
  * @retval USBD status
  */
USBD_StatusTypeDef USBD_LL_CloseEP(USBD_HandleTypeDef *pdev, uint8_t ep_addr)
{
 8007966:	b580      	push	{r7, lr}
 8007968:	b084      	sub	sp, #16
 800796a:	af00      	add	r7, sp, #0
 800796c:	6078      	str	r0, [r7, #4]
 800796e:	460b      	mov	r3, r1
 8007970:	70fb      	strb	r3, [r7, #3]
  HAL_StatusTypeDef hal_status = HAL_OK;
 8007972:	2300      	movs	r3, #0
 8007974:	73fb      	strb	r3, [r7, #15]
  USBD_StatusTypeDef usb_status = USBD_OK;
 8007976:	2300      	movs	r3, #0
 8007978:	73bb      	strb	r3, [r7, #14]

  hal_status = HAL_PCD_EP_Close(pdev->pData, ep_addr);
 800797a:	687b      	ldr	r3, [r7, #4]
 800797c:	f8d3 32c0 	ldr.w	r3, [r3, #704]	@ 0x2c0
 8007980:	78fa      	ldrb	r2, [r7, #3]
 8007982:	4611      	mov	r1, r2
 8007984:	4618      	mov	r0, r3
 8007986:	f7f9 fd93 	bl	80014b0 <HAL_PCD_EP_Close>
 800798a:	4603      	mov	r3, r0
 800798c:	73fb      	strb	r3, [r7, #15]

  usb_status =  USBD_Get_USB_Status(hal_status);
 800798e:	7bfb      	ldrb	r3, [r7, #15]
 8007990:	4618      	mov	r0, r3
 8007992:	f000 f8f5 	bl	8007b80 <USBD_Get_USB_Status>
 8007996:	4603      	mov	r3, r0
 8007998:	73bb      	strb	r3, [r7, #14]

  return usb_status;
 800799a:	7bbb      	ldrb	r3, [r7, #14]
}
 800799c:	4618      	mov	r0, r3
 800799e:	3710      	adds	r7, #16
 80079a0:	46bd      	mov	sp, r7
 80079a2:	bd80      	pop	{r7, pc}

080079a4 <USBD_LL_StallEP>:
  * @param  pdev: Device handle
  * @param  ep_addr: Endpoint number
  * @retval USBD status
  */
USBD_StatusTypeDef USBD_LL_StallEP(USBD_HandleTypeDef *pdev, uint8_t ep_addr)
{
 80079a4:	b580      	push	{r7, lr}
 80079a6:	b084      	sub	sp, #16
 80079a8:	af00      	add	r7, sp, #0
 80079aa:	6078      	str	r0, [r7, #4]
 80079ac:	460b      	mov	r3, r1
 80079ae:	70fb      	strb	r3, [r7, #3]
  HAL_StatusTypeDef hal_status = HAL_OK;
 80079b0:	2300      	movs	r3, #0
 80079b2:	73fb      	strb	r3, [r7, #15]
  USBD_StatusTypeDef usb_status = USBD_OK;
 80079b4:	2300      	movs	r3, #0
 80079b6:	73bb      	strb	r3, [r7, #14]

  hal_status = HAL_PCD_EP_SetStall(pdev->pData, ep_addr);
 80079b8:	687b      	ldr	r3, [r7, #4]
 80079ba:	f8d3 32c0 	ldr.w	r3, [r3, #704]	@ 0x2c0
 80079be:	78fa      	ldrb	r2, [r7, #3]
 80079c0:	4611      	mov	r1, r2
 80079c2:	4618      	mov	r0, r3
 80079c4:	f7f9 fe24 	bl	8001610 <HAL_PCD_EP_SetStall>
 80079c8:	4603      	mov	r3, r0
 80079ca:	73fb      	strb	r3, [r7, #15]

  usb_status =  USBD_Get_USB_Status(hal_status);
 80079cc:	7bfb      	ldrb	r3, [r7, #15]
 80079ce:	4618      	mov	r0, r3
 80079d0:	f000 f8d6 	bl	8007b80 <USBD_Get_USB_Status>
 80079d4:	4603      	mov	r3, r0
 80079d6:	73bb      	strb	r3, [r7, #14]

  return usb_status;
 80079d8:	7bbb      	ldrb	r3, [r7, #14]
}
 80079da:	4618      	mov	r0, r3
 80079dc:	3710      	adds	r7, #16
 80079de:	46bd      	mov	sp, r7
 80079e0:	bd80      	pop	{r7, pc}

080079e2 <USBD_LL_ClearStallEP>:
  * @param  pdev: Device handle
  * @param  ep_addr: Endpoint number
  * @retval USBD status
  */
USBD_StatusTypeDef USBD_LL_ClearStallEP(USBD_HandleTypeDef *pdev, uint8_t ep_addr)
{
 80079e2:	b580      	push	{r7, lr}
 80079e4:	b084      	sub	sp, #16
 80079e6:	af00      	add	r7, sp, #0
 80079e8:	6078      	str	r0, [r7, #4]
 80079ea:	460b      	mov	r3, r1
 80079ec:	70fb      	strb	r3, [r7, #3]
  HAL_StatusTypeDef hal_status = HAL_OK;
 80079ee:	2300      	movs	r3, #0
 80079f0:	73fb      	strb	r3, [r7, #15]
  USBD_StatusTypeDef usb_status = USBD_OK;
 80079f2:	2300      	movs	r3, #0
 80079f4:	73bb      	strb	r3, [r7, #14]

  hal_status = HAL_PCD_EP_ClrStall(pdev->pData, ep_addr);
 80079f6:	687b      	ldr	r3, [r7, #4]
 80079f8:	f8d3 32c0 	ldr.w	r3, [r3, #704]	@ 0x2c0
 80079fc:	78fa      	ldrb	r2, [r7, #3]
 80079fe:	4611      	mov	r1, r2
 8007a00:	4618      	mov	r0, r3
 8007a02:	f7f9 fe65 	bl	80016d0 <HAL_PCD_EP_ClrStall>
 8007a06:	4603      	mov	r3, r0
 8007a08:	73fb      	strb	r3, [r7, #15]

  usb_status =  USBD_Get_USB_Status(hal_status);
 8007a0a:	7bfb      	ldrb	r3, [r7, #15]
 8007a0c:	4618      	mov	r0, r3
 8007a0e:	f000 f8b7 	bl	8007b80 <USBD_Get_USB_Status>
 8007a12:	4603      	mov	r3, r0
 8007a14:	73bb      	strb	r3, [r7, #14]

  return usb_status;
 8007a16:	7bbb      	ldrb	r3, [r7, #14]
}
 8007a18:	4618      	mov	r0, r3
 8007a1a:	3710      	adds	r7, #16
 8007a1c:	46bd      	mov	sp, r7
 8007a1e:	bd80      	pop	{r7, pc}

08007a20 <USBD_LL_IsStallEP>:
  * @param  pdev: Device handle
  * @param  ep_addr: Endpoint number
  * @retval Stall (1: Yes, 0: No)
  */
uint8_t USBD_LL_IsStallEP(USBD_HandleTypeDef *pdev, uint8_t ep_addr)
{
 8007a20:	b480      	push	{r7}
 8007a22:	b085      	sub	sp, #20
 8007a24:	af00      	add	r7, sp, #0
 8007a26:	6078      	str	r0, [r7, #4]
 8007a28:	460b      	mov	r3, r1
 8007a2a:	70fb      	strb	r3, [r7, #3]
  PCD_HandleTypeDef *hpcd = (PCD_HandleTypeDef*) pdev->pData;
 8007a2c:	687b      	ldr	r3, [r7, #4]
 8007a2e:	f8d3 32c0 	ldr.w	r3, [r3, #704]	@ 0x2c0
 8007a32:	60fb      	str	r3, [r7, #12]

  if((ep_addr & 0x80) == 0x80)
 8007a34:	f997 3003 	ldrsb.w	r3, [r7, #3]
 8007a38:	2b00      	cmp	r3, #0
 8007a3a:	da0b      	bge.n	8007a54 <USBD_LL_IsStallEP+0x34>
  {
    return hpcd->IN_ep[ep_addr & 0x7F].is_stall;
 8007a3c:	78fb      	ldrb	r3, [r7, #3]
 8007a3e:	f003 027f 	and.w	r2, r3, #127	@ 0x7f
 8007a42:	68f9      	ldr	r1, [r7, #12]
 8007a44:	4613      	mov	r3, r2
 8007a46:	009b      	lsls	r3, r3, #2
 8007a48:	4413      	add	r3, r2
 8007a4a:	00db      	lsls	r3, r3, #3
 8007a4c:	440b      	add	r3, r1
 8007a4e:	3312      	adds	r3, #18
 8007a50:	781b      	ldrb	r3, [r3, #0]
 8007a52:	e00b      	b.n	8007a6c <USBD_LL_IsStallEP+0x4c>
  }
  else
  {
    return hpcd->OUT_ep[ep_addr & 0x7F].is_stall;
 8007a54:	78fb      	ldrb	r3, [r7, #3]
 8007a56:	f003 027f 	and.w	r2, r3, #127	@ 0x7f
 8007a5a:	68f9      	ldr	r1, [r7, #12]
 8007a5c:	4613      	mov	r3, r2
 8007a5e:	009b      	lsls	r3, r3, #2
 8007a60:	4413      	add	r3, r2
 8007a62:	00db      	lsls	r3, r3, #3
 8007a64:	440b      	add	r3, r1
 8007a66:	f503 73a9 	add.w	r3, r3, #338	@ 0x152
 8007a6a:	781b      	ldrb	r3, [r3, #0]
  }
}
 8007a6c:	4618      	mov	r0, r3
 8007a6e:	3714      	adds	r7, #20
 8007a70:	46bd      	mov	sp, r7
 8007a72:	bc80      	pop	{r7}
 8007a74:	4770      	bx	lr

08007a76 <USBD_LL_SetUSBAddress>:
  * @param  pdev: Device handle
  * @param  dev_addr: Device address
  * @retval USBD status
  */
USBD_StatusTypeDef USBD_LL_SetUSBAddress(USBD_HandleTypeDef *pdev, uint8_t dev_addr)
{
 8007a76:	b580      	push	{r7, lr}
 8007a78:	b084      	sub	sp, #16
 8007a7a:	af00      	add	r7, sp, #0
 8007a7c:	6078      	str	r0, [r7, #4]
 8007a7e:	460b      	mov	r3, r1
 8007a80:	70fb      	strb	r3, [r7, #3]
  HAL_StatusTypeDef hal_status = HAL_OK;
 8007a82:	2300      	movs	r3, #0
 8007a84:	73fb      	strb	r3, [r7, #15]
  USBD_StatusTypeDef usb_status = USBD_OK;
 8007a86:	2300      	movs	r3, #0
 8007a88:	73bb      	strb	r3, [r7, #14]

  hal_status = HAL_PCD_SetAddress(pdev->pData, dev_addr);
 8007a8a:	687b      	ldr	r3, [r7, #4]
 8007a8c:	f8d3 32c0 	ldr.w	r3, [r3, #704]	@ 0x2c0
 8007a90:	78fa      	ldrb	r2, [r7, #3]
 8007a92:	4611      	mov	r1, r2
 8007a94:	4618      	mov	r0, r3
 8007a96:	f7f9 fc8a 	bl	80013ae <HAL_PCD_SetAddress>
 8007a9a:	4603      	mov	r3, r0
 8007a9c:	73fb      	strb	r3, [r7, #15]

  usb_status =  USBD_Get_USB_Status(hal_status);
 8007a9e:	7bfb      	ldrb	r3, [r7, #15]
 8007aa0:	4618      	mov	r0, r3
 8007aa2:	f000 f86d 	bl	8007b80 <USBD_Get_USB_Status>
 8007aa6:	4603      	mov	r3, r0
 8007aa8:	73bb      	strb	r3, [r7, #14]

  return usb_status;
 8007aaa:	7bbb      	ldrb	r3, [r7, #14]
}
 8007aac:	4618      	mov	r0, r3
 8007aae:	3710      	adds	r7, #16
 8007ab0:	46bd      	mov	sp, r7
 8007ab2:	bd80      	pop	{r7, pc}

08007ab4 <USBD_LL_Transmit>:
  * @param  pbuf: Pointer to data to be sent
  * @param  size: Data size
  * @retval USBD status
  */
USBD_StatusTypeDef USBD_LL_Transmit(USBD_HandleTypeDef *pdev, uint8_t ep_addr, uint8_t *pbuf, uint16_t size)
{
 8007ab4:	b580      	push	{r7, lr}
 8007ab6:	b086      	sub	sp, #24
 8007ab8:	af00      	add	r7, sp, #0
 8007aba:	60f8      	str	r0, [r7, #12]
 8007abc:	607a      	str	r2, [r7, #4]
 8007abe:	461a      	mov	r2, r3
 8007ac0:	460b      	mov	r3, r1
 8007ac2:	72fb      	strb	r3, [r7, #11]
 8007ac4:	4613      	mov	r3, r2
 8007ac6:	813b      	strh	r3, [r7, #8]
  HAL_StatusTypeDef hal_status = HAL_OK;
 8007ac8:	2300      	movs	r3, #0
 8007aca:	75fb      	strb	r3, [r7, #23]
  USBD_StatusTypeDef usb_status = USBD_OK;
 8007acc:	2300      	movs	r3, #0
 8007ace:	75bb      	strb	r3, [r7, #22]

  hal_status = HAL_PCD_EP_Transmit(pdev->pData, ep_addr, pbuf, size);
 8007ad0:	68fb      	ldr	r3, [r7, #12]
 8007ad2:	f8d3 02c0 	ldr.w	r0, [r3, #704]	@ 0x2c0
 8007ad6:	893b      	ldrh	r3, [r7, #8]
 8007ad8:	7af9      	ldrb	r1, [r7, #11]
 8007ada:	687a      	ldr	r2, [r7, #4]
 8007adc:	f7f9 fd61 	bl	80015a2 <HAL_PCD_EP_Transmit>
 8007ae0:	4603      	mov	r3, r0
 8007ae2:	75fb      	strb	r3, [r7, #23]

  usb_status =  USBD_Get_USB_Status(hal_status);
 8007ae4:	7dfb      	ldrb	r3, [r7, #23]
 8007ae6:	4618      	mov	r0, r3
 8007ae8:	f000 f84a 	bl	8007b80 <USBD_Get_USB_Status>
 8007aec:	4603      	mov	r3, r0
 8007aee:	75bb      	strb	r3, [r7, #22]

  return usb_status;
 8007af0:	7dbb      	ldrb	r3, [r7, #22]
}
 8007af2:	4618      	mov	r0, r3
 8007af4:	3718      	adds	r7, #24
 8007af6:	46bd      	mov	sp, r7
 8007af8:	bd80      	pop	{r7, pc}

08007afa <USBD_LL_PrepareReceive>:
  * @param  pbuf: Pointer to data to be received
  * @param  size: Data size
  * @retval USBD status
  */
USBD_StatusTypeDef USBD_LL_PrepareReceive(USBD_HandleTypeDef *pdev, uint8_t ep_addr, uint8_t *pbuf, uint16_t size)
{
 8007afa:	b580      	push	{r7, lr}
 8007afc:	b086      	sub	sp, #24
 8007afe:	af00      	add	r7, sp, #0
 8007b00:	60f8      	str	r0, [r7, #12]
 8007b02:	607a      	str	r2, [r7, #4]
 8007b04:	461a      	mov	r2, r3
 8007b06:	460b      	mov	r3, r1
 8007b08:	72fb      	strb	r3, [r7, #11]
 8007b0a:	4613      	mov	r3, r2
 8007b0c:	813b      	strh	r3, [r7, #8]
  HAL_StatusTypeDef hal_status = HAL_OK;
 8007b0e:	2300      	movs	r3, #0
 8007b10:	75fb      	strb	r3, [r7, #23]
  USBD_StatusTypeDef usb_status = USBD_OK;
 8007b12:	2300      	movs	r3, #0
 8007b14:	75bb      	strb	r3, [r7, #22]

  hal_status = HAL_PCD_EP_Receive(pdev->pData, ep_addr, pbuf, size);
 8007b16:	68fb      	ldr	r3, [r7, #12]
 8007b18:	f8d3 02c0 	ldr.w	r0, [r3, #704]	@ 0x2c0
 8007b1c:	893b      	ldrh	r3, [r7, #8]
 8007b1e:	7af9      	ldrb	r1, [r7, #11]
 8007b20:	687a      	ldr	r2, [r7, #4]
 8007b22:	f7f9 fd0d 	bl	8001540 <HAL_PCD_EP_Receive>
 8007b26:	4603      	mov	r3, r0
 8007b28:	75fb      	strb	r3, [r7, #23]

  usb_status =  USBD_Get_USB_Status(hal_status);
 8007b2a:	7dfb      	ldrb	r3, [r7, #23]
 8007b2c:	4618      	mov	r0, r3
 8007b2e:	f000 f827 	bl	8007b80 <USBD_Get_USB_Status>
 8007b32:	4603      	mov	r3, r0
 8007b34:	75bb      	strb	r3, [r7, #22]

  return usb_status;
 8007b36:	7dbb      	ldrb	r3, [r7, #22]
}
 8007b38:	4618      	mov	r0, r3
 8007b3a:	3718      	adds	r7, #24
 8007b3c:	46bd      	mov	sp, r7
 8007b3e:	bd80      	pop	{r7, pc}

08007b40 <USBD_static_malloc>:
  * @brief  Static single allocation.
  * @param  size: Size of allocated memory
  * @retval None
  */
void *USBD_static_malloc(uint32_t size)
{
 8007b40:	b480      	push	{r7}
 8007b42:	b083      	sub	sp, #12
 8007b44:	af00      	add	r7, sp, #0
 8007b46:	6078      	str	r0, [r7, #4]
  static uint32_t mem[(sizeof(USBD_HID_HandleTypeDef)/4)+1];/* On 32-bit boundary */
  return mem;
 8007b48:	4b02      	ldr	r3, [pc, #8]	@ (8007b54 <USBD_static_malloc+0x14>)
}
 8007b4a:	4618      	mov	r0, r3
 8007b4c:	370c      	adds	r7, #12
 8007b4e:	46bd      	mov	sp, r7
 8007b50:	bc80      	pop	{r7}
 8007b52:	4770      	bx	lr
 8007b54:	20000970 	.word	0x20000970

08007b58 <USBD_static_free>:
  * @brief  Dummy memory free
  * @param  p: Pointer to allocated  memory address
  * @retval None
  */
void USBD_static_free(void *p)
{
 8007b58:	b480      	push	{r7}
 8007b5a:	b083      	sub	sp, #12
 8007b5c:	af00      	add	r7, sp, #0
 8007b5e:	6078      	str	r0, [r7, #4]

}
 8007b60:	bf00      	nop
 8007b62:	370c      	adds	r7, #12
 8007b64:	46bd      	mov	sp, r7
 8007b66:	bc80      	pop	{r7}
 8007b68:	4770      	bx	lr

08007b6a <HAL_PCDEx_SetConnectionState>:
#if (USE_HAL_PCD_REGISTER_CALLBACKS == 1U)
static void PCDEx_SetConnectionState(PCD_HandleTypeDef *hpcd, uint8_t state)
#else
void HAL_PCDEx_SetConnectionState(PCD_HandleTypeDef *hpcd, uint8_t state)
#endif /* USE_HAL_PCD_REGISTER_CALLBACKS */
{
 8007b6a:	b480      	push	{r7}
 8007b6c:	b083      	sub	sp, #12
 8007b6e:	af00      	add	r7, sp, #0
 8007b70:	6078      	str	r0, [r7, #4]
 8007b72:	460b      	mov	r3, r1
 8007b74:	70fb      	strb	r3, [r7, #3]
  {
    /* Configure High connection state. */

  }
  /* USER CODE END 6 */
}
 8007b76:	bf00      	nop
 8007b78:	370c      	adds	r7, #12
 8007b7a:	46bd      	mov	sp, r7
 8007b7c:	bc80      	pop	{r7}
 8007b7e:	4770      	bx	lr

08007b80 <USBD_Get_USB_Status>:
  * @brief  Returns the USB status depending on the HAL status:
  * @param  hal_status: HAL status
  * @retval USB status
  */
USBD_StatusTypeDef USBD_Get_USB_Status(HAL_StatusTypeDef hal_status)
{
 8007b80:	b480      	push	{r7}
 8007b82:	b085      	sub	sp, #20
 8007b84:	af00      	add	r7, sp, #0
 8007b86:	4603      	mov	r3, r0
 8007b88:	71fb      	strb	r3, [r7, #7]
  USBD_StatusTypeDef usb_status = USBD_OK;
 8007b8a:	2300      	movs	r3, #0
 8007b8c:	73fb      	strb	r3, [r7, #15]

  switch (hal_status)
 8007b8e:	79fb      	ldrb	r3, [r7, #7]
 8007b90:	2b03      	cmp	r3, #3
 8007b92:	d817      	bhi.n	8007bc4 <USBD_Get_USB_Status+0x44>
 8007b94:	a201      	add	r2, pc, #4	@ (adr r2, 8007b9c <USBD_Get_USB_Status+0x1c>)
 8007b96:	f852 f023 	ldr.w	pc, [r2, r3, lsl #2]
 8007b9a:	bf00      	nop
 8007b9c:	08007bad 	.word	0x08007bad
 8007ba0:	08007bb3 	.word	0x08007bb3
 8007ba4:	08007bb9 	.word	0x08007bb9
 8007ba8:	08007bbf 	.word	0x08007bbf
  {
    case HAL_OK :
      usb_status = USBD_OK;
 8007bac:	2300      	movs	r3, #0
 8007bae:	73fb      	strb	r3, [r7, #15]
    break;
 8007bb0:	e00b      	b.n	8007bca <USBD_Get_USB_Status+0x4a>
    case HAL_ERROR :
      usb_status = USBD_FAIL;
 8007bb2:	2302      	movs	r3, #2
 8007bb4:	73fb      	strb	r3, [r7, #15]
    break;
 8007bb6:	e008      	b.n	8007bca <USBD_Get_USB_Status+0x4a>
    case HAL_BUSY :
      usb_status = USBD_BUSY;
 8007bb8:	2301      	movs	r3, #1
 8007bba:	73fb      	strb	r3, [r7, #15]
    break;
 8007bbc:	e005      	b.n	8007bca <USBD_Get_USB_Status+0x4a>
    case HAL_TIMEOUT :
      usb_status = USBD_FAIL;
 8007bbe:	2302      	movs	r3, #2
 8007bc0:	73fb      	strb	r3, [r7, #15]
    break;
 8007bc2:	e002      	b.n	8007bca <USBD_Get_USB_Status+0x4a>
    default :
      usb_status = USBD_FAIL;
 8007bc4:	2302      	movs	r3, #2
 8007bc6:	73fb      	strb	r3, [r7, #15]
    break;
 8007bc8:	bf00      	nop
  }
  return usb_status;
 8007bca:	7bfb      	ldrb	r3, [r7, #15]
}
 8007bcc:	4618      	mov	r0, r3
 8007bce:	3714      	adds	r7, #20
 8007bd0:	46bd      	mov	sp, r7
 8007bd2:	bc80      	pop	{r7}
 8007bd4:	4770      	bx	lr
 8007bd6:	bf00      	nop

08007bd8 <memset>:
 8007bd8:	4603      	mov	r3, r0
 8007bda:	4402      	add	r2, r0
 8007bdc:	4293      	cmp	r3, r2
 8007bde:	d100      	bne.n	8007be2 <memset+0xa>
 8007be0:	4770      	bx	lr
 8007be2:	f803 1b01 	strb.w	r1, [r3], #1
 8007be6:	e7f9      	b.n	8007bdc <memset+0x4>

08007be8 <__libc_init_array>:
 8007be8:	b570      	push	{r4, r5, r6, lr}
 8007bea:	2600      	movs	r6, #0
 8007bec:	4d0c      	ldr	r5, [pc, #48]	@ (8007c20 <__libc_init_array+0x38>)
 8007bee:	4c0d      	ldr	r4, [pc, #52]	@ (8007c24 <__libc_init_array+0x3c>)
 8007bf0:	1b64      	subs	r4, r4, r5
 8007bf2:	10a4      	asrs	r4, r4, #2
 8007bf4:	42a6      	cmp	r6, r4
 8007bf6:	d109      	bne.n	8007c0c <__libc_init_array+0x24>
 8007bf8:	f000 f81a 	bl	8007c30 <_init>
 8007bfc:	2600      	movs	r6, #0
 8007bfe:	4d0a      	ldr	r5, [pc, #40]	@ (8007c28 <__libc_init_array+0x40>)
 8007c00:	4c0a      	ldr	r4, [pc, #40]	@ (8007c2c <__libc_init_array+0x44>)
 8007c02:	1b64      	subs	r4, r4, r5
 8007c04:	10a4      	asrs	r4, r4, #2
 8007c06:	42a6      	cmp	r6, r4
 8007c08:	d105      	bne.n	8007c16 <__libc_init_array+0x2e>
 8007c0a:	bd70      	pop	{r4, r5, r6, pc}
 8007c0c:	f855 3b04 	ldr.w	r3, [r5], #4
 8007c10:	4798      	blx	r3
 8007c12:	3601      	adds	r6, #1
 8007c14:	e7ee      	b.n	8007bf4 <__libc_init_array+0xc>
 8007c16:	f855 3b04 	ldr.w	r3, [r5], #4
 8007c1a:	4798      	blx	r3
 8007c1c:	3601      	adds	r6, #1
 8007c1e:	e7f2      	b.n	8007c06 <__libc_init_array+0x1e>
 8007c20:	08007cac 	.word	0x08007cac
 8007c24:	08007cac 	.word	0x08007cac
 8007c28:	08007cac 	.word	0x08007cac
 8007c2c:	08007cb0 	.word	0x08007cb0

08007c30 <_init>:
 8007c30:	b5f8      	push	{r3, r4, r5, r6, r7, lr}
 8007c32:	bf00      	nop
 8007c34:	bcf8      	pop	{r3, r4, r5, r6, r7}
 8007c36:	bc08      	pop	{r3}
 8007c38:	469e      	mov	lr, r3
 8007c3a:	4770      	bx	lr

08007c3c <_fini>:
 8007c3c:	b5f8      	push	{r3, r4, r5, r6, r7, lr}
 8007c3e:	bf00      	nop
 8007c40:	bcf8      	pop	{r3, r4, r5, r6, r7}
 8007c42:	bc08      	pop	{r3}
 8007c44:	469e      	mov	lr, r3
 8007c46:	4770      	bx	lr
